ARM GAS  /tmp/ccrAmUic.s 			page 1


   1              		.syntax unified
   2              		.cpu cortex-m3
   3              		.fpu softvfp
   4              		.eabi_attribute 20, 1
   5              		.eabi_attribute 21, 1
   6              		.eabi_attribute 23, 3
   7              		.eabi_attribute 24, 1
   8              		.eabi_attribute 25, 1
   9              		.eabi_attribute 26, 1
  10              		.eabi_attribute 30, 2
  11              		.eabi_attribute 34, 1
  12              		.eabi_attribute 18, 4
  13              		.thumb
  14              		.file	"hal_st_lld.c"
  15              		.text
  16              	.Ltext0:
  17              		.section	.gnu.lto_.jmpfuncs.e57d9503d7d8f4a5,"",%progbits
  18 0000 789C6362 		.ascii	"x\234cb`b\300\006\244\2414X\226\221\201\211)\2021\223"
  18      6062C006 
  18      A4A13458 
  18      96918189 
  18      29823193 
  19 0014 91410628 		.ascii	"\221A\006(\000fp\000E\001\031\363\001\323"
  19      00667000 
  19      450119F3 
  19      01D3
  20              		.text
  21              		.section	.gnu.lto_.inline.e57d9503d7d8f4a5,"",%progbits
  22 0000 789C6362 		.ascii	"x\234cb`b\300\006\254\2404P\226G\224\221\201\211\357"
  22      6062C006 
  22      ACA03450 
  22      96479491 
  22      8189EF
  23 0013 5E0003DB 		.ascii	"^\000\003\333\002y\260bF.8\301 \"\003\224\224yp\213"
  23      0279B062 
  23      462E38C1 
  23      20220394 
  23      9479708B 
  24 0027 112ECBCC 		.ascii	"\021.\313\314\003\326\305\000\000\260\004\005a"
  24      03D6C500 
  24      00B00405 
  24      61
  25              		.text
  26              		.section	.gnu.lto_.pureconst.e57d9503d7d8f4a5,"",%progbits
  27 0000 789C6362 		.ascii	"x\234cb`b`e\200\000&\006+F)\000\001f\000a"
  27      60626065 
  27      80002606 
  27      2B462900 
  27      01660061 
  28              		.text
  29              		.section	.gnu.lto_VectorB0.e57d9503d7d8f4a5,"",%progbits
  30 0000 789C8D53 		.ascii	"x\234\215S_HSQ\030\377\276s\357\3344\007\372\332\303"
  30      5F485351 
  30      18FFBE73 
  30      EFDC3407 
  30      FADAC3
  31 0013 1C421494 		.ascii	"\034B\024\224\273\251\017\275\026\366\"\270\0277\241"
ARM GAS  /tmp/ccrAmUic.s 			page 2


  31      BBA90FBD 
  31      16F622B8 
  31      1737A1
  32 0022 9EC6F53A 		.ascii	"\236\306\365:\334\205\315\311\356\024\245\007\317\334"
  32      DC85CDC9 
  32      EE14A507 
  32      CFDC
  33 0030 1E0283C4 		.ascii	"\036\002\203\304\210\"\321\360!\243\036\222\"\"\024"
  33      8822D1F0 
  33      21A31E92 
  33      222214
  34 003f 4A7B3242 		.ascii	"J{2BE\212\010)\230/\202\364O\361\241Hm}\347^ww\035R"
  34      458A0829 
  34      982F82F4 
  34      4FF1A148 
  34      6D7DE75E 
  35 0057 7DEC3BDF 		.ascii	"}\354;\337w\276\177\347w~\347\216\001\203ri\"\235\224"
  35      77BE7FE7 
  35      777EE78E 
  35      01837269 
  35      229D94
  36 006a 007E9045 		.ascii	"\000~\220E\027 \033]\006\310x\030\223f}\300\253\344"
  36      17201B5D 
  36      06C87818 
  36      93667DC0 
  36      ABE4
  37 007c F70AF06A 		.ascii	"\367\012\360j\011e+,#\012\007\020\206\230$\343\320e"
  37      09652B2C 
  37      230A0710 
  37      869824E3 
  37      D065
  38 008e 3487CCB0 		.ascii	"4\207\314\260\371|\241\360\350\305\365\273{\370\222"
  38      F97CA1F0 
  38      E8C5F5BB 
  38      7BF892
  39 009d 7925D011 		.ascii	"y%\320\021d\261\220\270 \307\371\250\037@3\267aZ\305"
  39      64B190B8 
  39      20C7F9A8 
  39      1F4033B7 
  39      615AC5
  40 00b0 880E64C2 		.ascii	"\210\016d\302JK\360j\355\303\356:Sq\212\216\357F\351"
  40      4A4BF06A 
  40      EDC3EE3A 
  40      53718A8E 
  40      EF46E9
  41 00c3 343CE439 		.ascii	"4<\3449\324\021\307\341\016\031v\211\026\211\223\310"
  41      D411C7E1 
  41      0E197689 
  41      168993C8 
  42 00d3 60BAE681 		.ascii	"`\272\346\201\235X\304\277\004\331\271\354\006\026\333"
  42      9D58C4BF 
  42      04D9B9EC 
  42      0616DB
  43 00e2 659A20CA 		.ascii	"e\232 \312\314\233.B\356K\306k\247\314\270S:h\332\254"
  43      CC9B2E42 
  43      EE4BC66B 
  43      A7CCB853 
ARM GAS  /tmp/ccrAmUic.s 			page 3


  43      3A68DAAC 
  44 00f6 4F4078FE 		.ascii	"O@x\376sw\373\000\202y~\206\207\376\023\201\210\230"
  44      7377FB00 
  44      82797E86 
  44      87FE1381 
  44      8898
  45 0108 EE6B18F6 		.ascii	"\356k\030\366\000\324\303\024\347c\371O\017\226\026"
  45      00D4C314 
  45      E763F94F 
  45      0F9616
  46 0117 702CCB17 		.ascii	"p,\313\027yn\276P\300:\035e\006](8\020\015.\277i*\344"
  46      796EBE50 
  46      C03A1D65 
  46      065D2838 
  46      100D2EBF 
  47 012e C36F2162 		.ascii	"\303o!b21\005\3130\274\275\226\235>nsg9\363so\307\245"
  47      323105CB 
  47      30BCBD96 
  47      9D3E6E73 
  47      6739F373 
  48 0145 532A4E63 		.ascii	"S*Nc\275M,\377\276\262 \331\005;7\027\275\015\245\335"
  48      BD4D2CFF 
  48      BEB220D9 
  48      053B3717 
  48      BD0DA5DD 
  49 0159 AD91DAC7 		.ascii	"\255\221\332\307.{\373fo\2076\326-5\024`\030\251D*\223"
  49      2E7BFB66 
  49      6F8736D6 
  49      2D351460 
  49      18A9442A 
  50 016e BAC07C57 		.ascii	"\272\300|W\204\217\024\"\366$\353c\361\301W\234\340"
  50      848F1422 
  50      F624EB63 
  50      F1C1579C 
  50      E0
  51 017f B7CFEBE8 		.ascii	"\267\317\353\350>\004\261\224\337:\310{\254K\254@vk"
  51      3E04B194 
  51      DF3AC87B 
  51      AC4BAC40 
  51      766B
  52 0191 EFDEC6B5 		.ascii	"\357\336\306\265\206r\360#\373Yw\351\370\012\253\372"
  52      8672F023 
  52      FB5977E9 
  52      F80AABFA 
  53 01a1 0AFCE257 		.ascii	"\012\374\342Wy\215\216\225\032\272U|j\301\320\261\252"
  53      798D8E95 
  53      1ABA557C 
  53      6AC1D0B1 
  53      AA
  54 01b2 9CD0CDE5 		.ascii	"\234\320\315\345rBU\274o^\340\237\214\302\337\030\375"
  54      724255BC 
  54      6F5EE09F 
  54      8CC2DF18 
  54      FD
  55 01c3 3C21187D 		.ascii	"<!\030}\346dt\356\335\272\223\321o^\305\301\350d\355"
  55      E66474EE 
  55      DDBA93D1 
ARM GAS  /tmp/ccrAmUic.s 			page 4


  55      6F5EC5C1 
  55      E864ED
  56 01d6 AA83D1FD 		.ascii	"\252\203\321\375\033\216+yH+I\253H\217\035\301\250\212"
  56      1B8E2B79 
  56      482B49AB 
  56      488F1DC1 
  56      A88A
  57 01e8 33E4D890 		.ascii	"3\344\330\220\212\014\252\370\004}\316\217R6\377\030"
  57      8A0CAAF8 
  57      047DCE8F 
  57      5236FF18 
  58 01f8 C463FE77 		.ascii	"\304c\376w\2675\3730O\325`s\264\012\231|\341d\261\310"
  58      B735FB30 
  58      4FD56073 
  58      B40A997C 
  58      E164B1C8 
  59 020c 92303D2D 		.ascii	"\2220=-\015\020\263\233\003\001\305\372%\015%\246\306"
  59      0D10B39B 
  59      0301C5FA 
  59      250D25A6 
  59      C6
  60 021d 95DE642A 		.ascii	"\225\336d*m(\241p\260\271Iik\273\250\204[\203\375\215"
  60      6D28A170 
  60      B0B94969 
  60      6BBBA884 
  60      5B83FD8D 
  61 0231 221331D2 		.ascii	"\"\0231\322\221x\274+\240A\203\263GK&\022\311\236\203"
  61      9178BC2B 
  61      A04183B3 
  61      474B2612 
  61      C99E83
  62 0244 B60BEDC1 		.ascii	"\266\013\355\301\226\340\200\242\305\264d*\032\351?"
  62      96E080A2 
  62      C5B4642A 
  62      1AE93F
  63 0253 9708C4C0 		.ascii	"\227\010\304\300\325\257\306\373\242\215G\364D\007\322"
  63      D5AFC6FB 
  63      A28D47F4 
  63      4407D2
  64 0262 4A4B30D4 		.ascii	"JK0\324\032R\364\036-\336\327\025U\264\204\241\033\221"
  64      1A52F41E 
  64      2DDED715 
  64      55B484A1 
  64      1B91
  65 0274 6E4DA3BE 		.ascii	"nM\243\276:gG*]\252\211\031\203Fy^ O\032\264P\241\260"
  65      3A67472A 
  65      5DAA8919 
  65      8346795E 
  65      204F1AB4 
  66 028b 94AF0986 		.ascii	"\224\257\011\206\332\375\235\252\021\355M\351g\374'"
  66      DAFD9DAA 
  66      11ED4DE9 
  66      67FC27
  67 029a CE024B81 		.ascii	"\316\002K\201;\021M$S\203\360\007h\2222f"
  67      3B114D24 
  67      5383F007 
  67      68923266 
ARM GAS  /tmp/ccrAmUic.s 			page 5


  68              		.text
  69              		.section	.gnu.lto_st_lld_init.e57d9503d7d8f4a5,"",%progbits
  70 0000 789C95D3 		.ascii	"x\234\225\323\275O\302@\024\000\360\367\356\332\362"
  70      BD4FC240 
  70      1400F0F7 
  70      EEDAF2
  71 000f A1313A4A 		.ascii	"\2411:J\034\\\215\221F\211\263\213\013\011L\326D&\202"
  71      1C5C8D91 
  71      4689B38B 
  71      0B094CD6 
  71      442682
  72 0022 98200909 		.ascii	"\230 \011\011F\210\213\003G\304\204\301\2018\021u\320"
  72      46888B03 
  72      47C484C1 
  72      81381175 
  72      D0
  73 0033 150C6CA6 		.ascii	"\025\014l\246\306A\302\346\000\306\21581\352\177@\\"
  73      C641C2E6 
  73      00C68D38 
  73      31EA7F40 
  73      5C
  74 0044 EA5D3F40 		.ascii	"\352]?@\300\220\364\322\276k{\367~}m\257\004\010L\266"
  74      C090F4D2 
  74      BE6B7BF7 
  74      7E7D6DAF 
  74      04084CB6 
  75 0058 65BE0724 		.ascii	"e\276\007$\200m\336#\005$\225.@\321K\020\305\001 \024"
  75      806DDE23 
  75      0524952E 
  75      40D14B10 
  75      C5012014 
  76 006c 08166268 		.ascii	"\010\026bh\316m\222V\3370\032O\327wW\330%K\004\322\010"
  76      CE6D9256 
  76      DF301A4F 
  76      D77757D8 
  76      254B04D2 
  77 0081 54045904 		.ascii	"T\004Y\004E\004\336d(1VY\005H\232\247\032\217\202\332"
  77      4504DE64 
  77      28315659 
  77      05489AA7 
  77      1A8F82DA 
  78 0095 47227ADA 		.ascii	"G\"z\332\201\366\247^\013$\360\001eH!Y\207\032+\025"
  78      81F6A75E 
  78      0B24F001 
  78      65482159 
  78      871A2B15 
  79 00a9 17D388B7 		.ascii	"\027\323\210\267p\203i$\007<Pv_f\022\230\207\346\255"
  79      70836924 
  79      073C5076 
  79      5F661298 
  79      87E6AD
  80 00bc 0FD129B8 		.ascii	"\017\321)\270\003\027\317\324\311\246)k>\2409\322\016"
  80      0317CFD4 
  80      C9A6296B 
  80      3EA039D2 
  80      0E
  81 00cd 5B03EECC 		.ascii	"[\003\356\314\2248\027e\225\353\304\201\345IB\022y2"
ARM GAS  /tmp/ccrAmUic.s 			page 6


  81      94381765 
  81      95EBC481 
  81      E5494212 
  81      7932
  82 00df 6B55D882 		.ascii	"kU\330\202I\3106\201\377\225\245p\300,\213-\316\254"
  82      49C83681 
  82      FF95A570 
  82      C02C8B2D 
  82      CEAC
  83 00f1 6B36CA1D 		.ascii	"k6\312\0353Y\037\324\333\364/\300v\206\202\"\322<\214"
  83      33591FD4 
  83      DBF42FC0 
  83      76868222 
  83      D23C8C
  84 0104 37EBC93C 		.ascii	"7\353\311<\266`}hq\005__\354\227\243W\033\256\035:r"
  84      B6607D68 
  84      71055F5F 
  84      EC97A357 
  84      1BAE1D3A 
  85 0119 0C83DA8E 		.ascii	"\014\203\332\216\356\336\221F\016\330Jo\250l\300\243"
  85      EEDE9146 
  85      0ED84A6F 
  85      A86CC0A3 
  86 0129 50627C70 		.ascii	"Pb|p\004zg\203\362\020\364\015\327\362\030?p_\2442\255"
  86      047A6783 
  86      F210F40D 
  86      D7F2183F 
  86      705FA432 
  87 013e 549BAE15 		.ascii	"T\233\256\025\317\264\242\273W\274#\305\371|=\367\212"
  87      CFB4A2BB 
  87      57BC23C5 
  87      F97C3DF7 
  87      8A
  88 014f 6F5C7987 		.ascii	"o\\y\207\313\376\333\267\337B\000\316\341\207\225\031"
  88      CBFEDBB7 
  88      DF4200CE 
  88      E1879519 
  89 015f 5F8EFEA4 		.ascii	"_\216\376\244\275\344\304\314\271\025\253\363\362\377"
  89      BDE4C4CC 
  89      B915ABF3 
  89      F2FF
  90 016d 791EE003 		.ascii	"y\036\340\003\212\375\2575'\305j\032\237\316\377e\261"
  90      8AFDAF35 
  90      27C56A1A 
  90      9FCEFF65 
  90      B1
  91 017e C842C1A0 		.ascii	"\310B\301\240jm\331\234z\234\310\250'\331\323|N\335"
  91      6A6DD99C 
  91      7A9CC8A8 
  91      27D9D37C 
  91      4EDD
  92 0190 D3A2A12D 		.ascii	"\323\242\241-5\022\331U\265p\364lS\214\304s\371x&s\024"
  92      3512D955 
  92      B570F46C 
  92      538CC473 
  92      F9782673 
  93 01a5 4CC22F21 		.ascii	"L\302/!\316\367_"
ARM GAS  /tmp/ccrAmUic.s 			page 7


  93      CEF75F
  94              		.text
  95              		.section	.gnu.lto_.symbol_nodes.e57d9503d7d8f4a5,"",%progbits
  96 0000 789C6362 		.ascii	"x\234cb`bHd\200\002\246\333\214\365\014\014\023\316"
  96      60624864 
  96      8002A6DB 
  96      8CF50C0C 
  96      13CE
  97 0012 3130D4D7 		.ascii	"10\324\327\317\353`d\272\303X\317\210\3402\336e\254"
  97      CFEB6064 
  97      BAC358CF 
  97      88E032DE 
  97      65AC
  98 0024 6782701B 		.ascii	"g\202p\033\032\030\031\3571\3263#x\367\031\353Y\340"
  98      1A1819EF 
  98      31D63323 
  98      78F719EB 
  98      59E0
  99 0036 3C660666 		.ascii	"<f\006f\206\303[M\230\201f/n{#\317\314\310\302p\270"
  99      86C35B4D 
  99      9881662F 
  99      6E7B23CF 
  99      CCC8C270 
 100 004b FD8D3C03 		.ascii	"\375\215<\003\000\310\245\0350"
 100      00C8A51D 
 100      30
 101              		.text
 102              		.section	.gnu.lto_.refs.e57d9503d7d8f4a5,"",%progbits
 103 0000 789C6362 		.ascii	"x\234cb`b`d\200\002\000\000F\000\006"
 103      60626064 
 103      80020000 
 103      460006
 104              		.text
 105              		.section	.gnu.lto_.decls.e57d9503d7d8f4a5,"",%progbits
 106 0000 789C9D57 		.ascii	"x\234\235Wmp\024E\032\356\236\315\347%D\214\037\025"
 106      6D701445 
 106      1AEE9ECD 
 106      E725448C 
 106      1F15
 107 0012 EE0F4BD5 		.ascii	"\356\017K\325yeyE6\273\251:\255\273+\213dwIR\305Bj6"
 107      79657945 
 107      36BBA93A 
 107      ADBB2B8B 
 107      64774952 
 108 002a 5054DD8F 		.ascii	"PT\335\217u\262\031\314z\373\201\273\033.\374r \234"
 108      75B219CC 
 108      7AFB81BB 
 108      1B2EFC72 
 108      209C
 109 003c 1F787759 		.ascii	"\037xwY\022\361\000\021\203|(\026z\0040D\020\\\361#"
 109      12F10011 
 109      837C2816 
 109      7A043044 
 109      105CF123 
 110 0050 50940589 		.ascii	"P\224\005\211F9\320#G]\341\011u\020\025\017Ec\356\355"
 110      4639D023 
 110      475DE109 
ARM GAS  /tmp/ccrAmUic.s 			page 8


 110      7510150F 
 110      4563EEED 
 111 0064 9ED9DDEE 		.ascii	"\236\331\335\356\311\3142\353T\336wzg\272\237\347\351"
 111      C9CC32EB 
 111      54DE777A 
 111      67BA9FE7 
 111      E9
 112 0075 F7EDE9F4 		.ascii	"\367\355\351\364+ \001y0B\323p\255\254Ah\330\206\020"
 112      2B200179 
 112      3042D370 
 112      ADAC4168 
 112      D88610
 113 0088 FCA107C1 		.ascii	"\374\241\007\301\3401\332\216\324\253\030l\027\330\036"
 113      E031DA8E 
 113      D4AB186C 
 113      17D81E
 114 0097 B0BD60AF 		.ascii	"\260\275`\257\201\355C3/\322\247\002\254\024\354u\260"
 114      81ED4333 
 114      2FD2A702 
 114      AC14EC75 
 114      B0
 115 00a8 21B02F34 		.ascii	"!\260/4\234*\260J\260\313`W\301&\301vk<\357\200\315"
 115      9C2AB04A 
 115      B0CB6057 
 115      C126C176 
 115      6B3CEF80 
 116 00bd D2C67F09 		.ascii	"\322\306\177\011v\035\354\006\330M\260)\260\022\254"
 116      761DEC06 
 116      D84DB029 
 116      B012AC
 117 00cc 7296C3BD 		.ascii	"r\226\303\275\022\3546\260j\254j\321_{4\254\214\206"
 117      12EC36B0 
 117      6AAC6AD1 
 117      5F7B34AC 
 117      8C86
 118 00de BBA09F0B 		.ascii	"\273\240\237\013\254\036\354\2678\247\351c\260\"\260"
 118      AC1EECB7 
 118      38A7E963 
 118      B022B0
 119 00ed DF6155DF 		.ascii	"\337aU\337 \330\317\300\356\205\337\277\001;\015\355"
 119      20D8CFC0 
 119      EE85DFBF 
 119      013B0DED 
 120 00fd 51B011B0 		.ascii	"Q\260\021\260q\260\267\301\216\202\275\007v\004L\320"
 120      71B0B7C1 
 120      8E82BD07 
 120      76044CD0 
 121 010d B88CE250 		.ascii	"\270\214\342P\216\236T\224\265\312\300\343J\363\011"
 121      8E9E5494 
 121      B5CAC0E3 
 121      4AF309
 122 011c 98F7722C 		.ascii	"\230\367r,\341\252rd\247\215\312rJ{\017\332\251(\251"
 122      E1AA7264 
 122      A78DCA72 
 122      4A7B0FDA 
 122      A928A9
 123 012f 893F5DFE 		.ascii	"\211?]\376VP\2242\011o\307\345\000\271\014\243\373\320"
ARM GAS  /tmp/ccrAmUic.s 			page 9


 123      56509432 
 123      096FC7E5 
 123      00B90CA3 
 123      FBD0
 124 0141 1E05DE28 		.ascii	"\036\005\336(\312E\0076\200\226pi\371\214\337\022\336"
 124      CA450736 
 124      80967069 
 124      F98CDF12 
 124      DE
 125 0152 89EF432A 		.ascii	"\211\357C*\021}\2555H^oCh.\332\246\014LL<?r\355\216"
 125      117DAD35 
 125      485E6F43 
 125      682EDAA6 
 125      0C4C4C3C 
 126 016a CD4A7A9D 		.ascii	"\315Jz\2352=\375\030\272\033m\004\032\"Q\301I\011?x"
 126      323DFD18 
 126      BA1B6D04 
 126      1A2251C1 
 126      49093F78 
 127 017e 97A14A82 		.ascii	"\227\241J\202\277\033\337\255\265\226\332TN\001m\301"
 127      BF1BDFAD 
 127      B596DA54 
 127      4E016DC1 
 128 018e 384BAA5E 		.ascii	"8K\252^\277D\273\010\236\362\262b\243h\244\377.<\227"
 128      BF44BB08 
 128      9EF2B262 
 128      A368A4FF 
 128      2E3C97
 129 01a1 97FA1216 		.ascii	"\227\372\022\026\330\007\252\256\364\241\276SX\351S"
 129      D807AAAE 
 129      F4A1BE53 
 129      58E953
 130 01b0 7E989EB6 		.ascii	"~\230\236\266it\002\332a\211`\217\236\340\225\231\004"
 130      697402DA 
 130      6189608F 
 130      9EE09599 
 130      04
 131 01c1 13A989B7 		.ascii	"\023\251\211\267\236\376\357\023xC\317\300\011e\222"
 131      9EFEEF13 
 131      7843CFC0 
 131      096592
 132 01d0 C423C3F1 		.ascii	"\304#\303\361\331\014\016\025\344UC\2203\275\377+\332"
 132      D90C0E15 
 132      E4554390 
 132      33BDFF2B 
 132      DA
 133 01e1 AC1C57A3 		.ascii	"\254\034W\243\227\201H\011\306\020\1777\204x\266\377"
 133      97814809 
 133      C6107F37 
 133      8478B6FF 
 134 01f1 34CE4258 		.ascii	"4\316BXO\300\240\226\000\033]sH]+\334\017.;4A\247M\204"
 134      4FC0A096 
 134      001B5D73 
 134      485D2BDC 
 134      0F2E3B34 
 135 0209 1DE485D1 		.ascii	"\035\344\205\321\205\332\223w\241J\370E|\217\245eV\215"
 135      85DA9377 
ARM GAS  /tmp/ccrAmUic.s 			page 10


 135      A14AF845 
 135      7C8FA565 
 135      568D
 136 021b 369019D9 		.ascii	"6\220\031\331\031$\245$\003\365\020\312\256\371\015"
 136      1924A524 
 136      03F510CA 
 136      AEF90D
 137 022a 7FBBF16B 		.ascii	"\177\273\361k\272\346\207p5H\355\267\361Ro\011C4\275"
 137      BAE68770 
 137      3548EDB7 
 137      F1526F09 
 137      4334BD
 138 023d 0143D541 		.ascii	"\001C\325A\024TI\367\237\257T\212\324\347\310`\346\332"
 138      145449F7 
 138      9FAF548A 
 138      D4E7C860 
 138      E6DA
 139 024f 350F0D28 		.ascii	"5\017\015(\353z\322\033\317o\235\243\014\034\007\310"
 139      EB7AD21B 
 139      CF6F9DA3 
 139      0C1C07C8 
 140 025f D7E967F7 		.ascii	"\327\351g\367\002\225@\306\032E@k\252\227\326\201\307"
 140      029540C6 
 140      1A45406B 
 140      AA97D681 
 140      C7
 141 0270 7BF67C65 		.ascii	"{\366|eJ\312\200\355(\030\314\316\201mb\301^\262\002"
 141      4ACA80ED 
 141      2818CCCE 
 141      816D62C1 
 141      5EB202
 142 0283 5666AE6C 		.ascii	"Vf\256l\013\013\266\267`0^\331V\026l\320\012\330lse"
 142      0B0BB6B7 
 142      60305ED9 
 142      56166CD0 
 142      0AD86C73 
 143 0298 DB58B083 		.ascii	"\333X\260\203\005\203\361\312\366\261`\303V\300j\314"
 143      0583F1CA 
 143      F6B160C3 
 143      56C06ACC 
 144 02a8 95ED67C1 		.ascii	"\225\355g\301\216\025\014\306+;\310\202\275k\005\314"
 144      8E150CC6 
 144      2B3BC882 
 144      BD6B05CC 
 145 02b8 6EAE6C88 		.ascii	"n\256l\210\005;Y0\030\257l\230\005\373\300\012\330\275"
 145      053B5930 
 145      18AF6C98 
 145      05FBC00A 
 145      D8BD
 146 02ca E6CA0EB3 		.ascii	"\346\312\016\263`\243\005\203\361\312\336d\301\306\255"
 146      60A30583 
 146      F1CADE64 
 146      C1C6AD
 147 02d9 80D59929 		.ascii	"\200\325\231)[\223>\366\373\224t;Ji[\212\212\232\331"
 147      5B933EF6 
 147      FB94743B 
 147      4A695B8A 
ARM GAS  /tmp/ccrAmUic.s 			page 11


 147      8A9AD9
 148 02ec 5630BFB4 		.ascii	"V0\277\264\330n\333\315\273I\370\023|;m\321\355S\321"
 148      D86EDBCD 
 148      BB49F813 
 148      7C3B6DD1 
 148      ED53D1
 149 02ff B64FDAC3 		.ascii	"\266O\332\303l\017?\253\356\322\271\317_k\344\366l\266"
 149      6C0F3FAB 
 149      EED2B9CF 
 149      5F6BE4F6 
 149      6CB6
 150 0311 174CFB1F 		.ascii	"\027L\373\037\372i\363*\214\346\315\007\361\014\033"
 150      FA69F32A 
 150      8CE6CD07 
 150      F10C1B
 151 0320 C4CFAC04 		.ascii	"\304\317\254\004q\2019\330\030\013v\321\012X\263\371"
 151      718139D8 
 151      180B76D1 
 151      0A58B3F9 
 152 0330 5AF98805 		.ascii	"Z\371\210\005\273T0\030\257\354c\026\354\212\025\260"
 152      BB543018 
 152      AFEC6316 
 152      EC8A15B0 
 153 0340 56736567 		.ascii	"VsegY\260\253\005\203\261\312\326\244\317\345\026\336"
 153      59B0AB05 
 153      83B1CAD6 
 153      A4CFE516 
 153      DE
 154 0351 C002DDCA 		.ascii	"\300\002\335\312[\300\357\266\\\267\355\246\335$|\251"
 154      5BC0EFB6 
 154      5CB7EDA6 
 154      DD247CA9 
 155 0361 E085F7B9 		.ascii	"\340\205\367\271\311\302c\317\226\271^0\355\353\372"
 155      C9C263CF 
 155      96B95E30 
 155      EDEBFA
 156 0370 697322B4 		.ascii	"is\"\264\346r\203\030\032]\354?j\011\037\246\007\211"
 156      E6728318 
 156      1A5DEC3F 
 156      6A091FA6 
 156      0789
 157 0382 23781EF8 		.ascii	"#x\036\370\243\324\277E\375\333\324\277C\375{\324\217"
 157      A3D4BF45 
 157      FDDBD4BF 
 157      43FD7BD4 
 157      8F
 158 0393 507F92FA 		.ascii	"P\177\222\372S\324\177@\375i\352G\251\377\220\372q\352"
 158      53D47F40 
 158      FD69EA47 
 158      A9FF90FA 
 158      71EA
 159 03a5 CF51FF29 		.ascii	"\317Q\377)\365\377\244~\202\372\213\324\377\033|\366"
 159      F5FFA47E 
 159      82FA8BD4 
 159      FF1B7CF6 
 160 03b5 AA40EB73 		.ascii	"\252@\353sgs\365\014b\026\273/pEfT6C\233\252\264\303"
 160      6773F50C 
ARM GAS  /tmp/ccrAmUic.s 			page 12


 160      6216BB2F 
 160      70456654 
 160      36439BAA 
 161 03cb FDC42EA5 		.ascii	"\375\304.\245\246&\033\20326\256\352\221\004\006\010"
 161      A6261B83 
 161      3236AEEA 
 161      91040608 
 162 03db 12BE42D7 		.ascii	"\022\276B\327\322w6\243\263<%\271\302$HmgZ\3238\013"
 162      D27736A3 
 162      B33C25B9 
 162      C224486D 
 162      675AD338 
 163 03f0 3F3B032F 		.ascii	"?;\003/h\243.k\013\201I]f\367\332T\245\016\327\206>"
 163      68A32E6B 
 163      0B81495D 
 163      66F7DA54 
 163      A50ED786 
 164 0405 90195AAA 		.ascii	"\220\031Z\252\015\270Z\360\032\272f\262\206J\214CJ\216"
 164      0DB85AF0 
 164      1ABA66B2 
 164      864A8C43 
 164      4A8E
 165 0417 C6665093 		.ascii	"\306fP\223\020R\346tF\016\306\351\311\211\251\013\357"
 165      1052E674 
 165      460EC6E9 
 165      C989A90B 
 165      EF
 166 0428 D6ECDDAF 		.ascii	"\326\354\335\257(O)?N?\266f\035\316\034\257\267\025"
 166      284F293F 
 166      4E3FB666 
 166      1DCE1CAF 
 166      B715
 167 043a 59A902BE 		.ascii	"Y\251\002\276\324W\001_\315<}\003\311\231\336\013%\231"
 167      D457015F 
 167      CD3C7D03 
 167      C999DE0B 
 167      2599
 168 044c F2675E86 		.ascii	"\362g^\206a\320\022\303u=\3037\206\014\307N\3750g\006"
 168      61D012C3 
 168      753DC337 
 168      860CC74E 
 168      FD306706 
 169 0460 C3714B0C 		.ascii	"\303qK\0147\364\014\337\0321\244?\272tB+\225z\236\024"
 169      37F40CDF 
 169      1A31A43F 
 169      BA74422B 
 169      957A9E14 
 170 0474 B255C8B8 		.ascii	"\262U\310\270%\212\233z\212\357\015'1}i\262\371\273"
 170      258A9B7A 
 170      8AEF0D27 
 170      317D69B2 
 170      F9BB
 171 0486 5C2EE659 		.ascii	"\\.\346Y\257S~4\252Stu\311\206bV*\355\011\307\357b\355"
 171      AF537E34 
 171      AA537475 
 171      C9866256 
 171      2AED09C7 
ARM GAS  /tmp/ccrAmUic.s 			page 13


 172 049d EBF805DA 		.ascii	"\353\370\005\332\241\300\364F\337\257L\341LI\374*\035"
 172      A1C0F446 
 172      DFAF4CE1 
 172      4C49FC2A 
 172      1D
 173 04ae 3105E28D 		.ascii	"1\005\342\215\253\023\255\376\321f\374\365\232\326\232"
 173      AB13ADFE 
 173      D166FCF5 
 173      9AD69A
 174 04bd EC8CA7F4 		.ascii	"\354\214\247\3643V\004\243\031O]\030\231c\264\372\016"
 174      335604A3 
 174      194F5D18 
 174      9963B4FA 
 174      0E
 175 04ce 145B09EB 		.ascii	"\024[\011\353\343\202\216\344\011#\222\364\360E\243"
 175      E3828EE4 
 175      092392F4 
 175      F045A3
 176 04dd CC8D58A2 		.ascii	"\314\215X\242xJO\261\336p\036gz\277\231\271\300?\265"
 176      784A4FB1 
 176      DE701E67 
 176      7ABF99B9 
 176      C03FB5
 177 04f0 C4F0673D 		.ascii	"\304\360g=\303_\014\031\216=\375\376\317g0\\\263\304"
 177      C35F0C19 
 177      8E3DFDFE 
 177      CF67305C 
 177      B3C4
 178 0502 D0AB6748 		.ascii	"\320\253gH\031\206\351\340\347FaZWb\205\242OO\321\317"
 178      1986E9E0 
 178      E746615A 
 178      576285A2 
 178      4F4FD1CF 
 179 0516 53181596 		.ascii	"S\030\025\2266\366$\245\325\247\243_\375'\322\003\253"
 179      36F624A5 
 179      D5A7A35F 
 179      FD27D203 
 179      AB
 180 0527 5DC21B05 		.ascii	"]\302\033\005R\240\236\324\261\337\022\207po\022t\005"
 180      52A09ED4 
 180      B1DF1287 
 180      706F1274 
 180      05
 181 0538 EAF7E768 		.ascii	"\352\367\347h\201J\236\337\272@\235>\367\014W\240\216"
 181      814A9EDF 
 181      BA409D3E 
 181      F70C57A0 
 181      8E
 182 0549 530964EC 		.ascii	"S\011d\354O+PS\354\301\346l\301`v\016\254\217;YZ\001"
 182      4F2B5053 
 182      ECC1E66C 
 182      C160760E 
 182      AC8F3B59 
 183 055f CB53A03E 		.ascii	"\313S\240>\303\202\375\253`0^\031W\207_\266\002\226"
 183      C382FDAB 
 183      60305E19 
 183      57875FB6 
ARM GAS  /tmp/ccrAmUic.s 			page 14


 183      0296
 184 0571 A740E5EA 		.ascii	"\247@\345\352\360\257\013\006\343\225qu\370M+`y\012"
 184      F0AF0B06 
 184      E3957175 
 184      F84D2B60 
 184      790A
 185 0583 54AE0E5F 		.ascii	"T\256\016_[Z(\030\257\214\253\303\327[\001\263\233+"
 185      5B5A2818 
 185      AF8CABC3 
 185      D75B01B3 
 185      9B2B
 186 0595 E3EAF0DE 		.ascii	"\343\352\360\336\202\301\030e\312\332\364\241\347\376"
 186      82C11865 
 186      CADAF4A1 
 186      E7FE
 187 05a3 AA7D04EA 		.ascii	"\252}\004\352\177\202~+xyj\3247\316\363\037\325\363"
 187      7F827E2B 
 187      78796AD4 
 187      37CEF31F 
 187      D5F3
 188 05b5 05E3D991 		.ascii	"\005\343\331\221\351\305~\361\022\336,\220\223\356\026"
 188      E9C57EF1 
 188      12DE2C90 
 188      93EE16
 189 05c4 819C3EB7 		.ascii	"\201\234>\267R\277\215\372\001\352_\244~'\365\273\251"
 189      52BF8DFA 
 189      01EA5FA4 
 189      7E27F5BB 
 189      A9
 190 05d5 7F99FA57 		.ascii	"\177\231\372W\250\337K\375k\324\357\023\314O\256\033"
 190      A8DF4BFD 
 190      6BD4EF13 
 190      CC4FAE1B 
 191 05e5 4D84132D 		.ascii	"M\204\023-\373\205\354\311U\333\255Hm\221\235\007w\244"
 191      FB85ECC9 
 191      55DBAD48 
 191      6D919D07 
 191      77A4
 192 05f7 5777BDF4 		.ascii	"Ww\275\364x\037\266K\370\000\335\361v\224\032\356x\346"
 192      781FB64B 
 192      F800DDF1 
 192      76941AEE 
 192      78E6
 193 0609 18847348 		.ascii	"\030\204sH\277\343\035\035\243;\336\220\245\035ot\214"
 193      BFE31D1D 
 193      A33BDE90 
 193      A51D6F74 
 193      8C
 194 061a 4FCE7E2A 		.ascii	"O\316~*a\350'\357xcc\331\225(\341\347\004\241@\260\274"
 194      61E827EF 
 194      786363D9 
 194      9528E1E7 
 194      04A140B0 
 195 062f 991E6232 		.ascii	"\231\036b2}\210fz\230f\353p\236l\035\310\223\255#\271"
 195      7D88667A 
 195      9866EB70 
 195      9E6C1DC8 
ARM GAS  /tmp/ccrAmUic.s 			page 15


 195      93AD23B9 
 196 0643 6CE9460D 		.ascii	"l\351F\015\3469J\277\231\033\205\374\216\316XDv<\322"
 196      E6394ABF 
 196      991B85FC 
 196      8ECE5844 
 196      763CD2
 197 0656 150E4951 		.ascii	"\025\016IQ\207\317\333\324\340H\310\0219\221\214\313"
 197      87CFDBD4 
 197      E048C811 
 197      39918CCB 
 198 0666 8150B7C3 		.ascii	"\201P\267\303\033i\227\333C\035\261\204C\212G\346\273"
 198      1B6997DB 
 198      431DB184 
 198      438A47E6 
 198      BB
 199 0677 EA9CF5B5 		.ascii	"\352\234\365\265N'mGcQy\276,\265\207\034\241h0\334\325"
 199      4E276D47 
 199      635179BE 
 199      2CB5871C 
 199      A16830DC 
 200 068c 213B12C9 		.ascii	"!;\022\311\216P4Y\333\211\312\272\340^\357\012$K\232"
 200      8E503459 
 200      DB89CABA 
 200      E05EEF0A 
 200      244B9A
 201 069f 162FB5BB 		.ascii	"\026/\265\273Q}m\255C\375\003\234N)\354X\031\213'\023"
 201      517D6DAD 
 201      43FD039C 
 201      4E29EC58 
 201      198B2713 
 202 06b3 0E7F9BAF 		.ascii	"\016\177\233\257\336\345X\264\310\343hk\361\255r\222"
 202      DEE558B4 
 202      C8E3686B 
 202      F1AD7292 
 203 06c3 37814432 		.ascii	"7\201D2\020\016w\324\006Q\33129\230\214\305\033\353"
 203      100E77D4 
 203      0651D932 
 203      39988CC5 
 203      1BEB
 204 06d5 2AD44781 		.ascii	"*\324G\201P4\224\234\317\002\005c\221H,\252a5\210>\267"
 204      5034949C 
 204      CF020563 
 204      91482CAA 
 204      6135883E 
 205 06ea AFDB11EC 		.ascii	"\257\333\021\354\014\306@\370\252\373# \243:@\336\005"
 205      0CC640F8 
 205      AAFB2320 
 205      A33A40DE 
 205      05
 206 06fb 42F14703 		.ascii	"B\361G\003\362\312P8\366p\227<\227\005\210'\263\322"
 206      F2CA5038 
 206      F670973C 
 206      97058827 
 206      B3D2
 207 070d 839D89D5 		.ascii	"\203\235\211\325\0112$\330\351_\235h\013E\344x\263\024"
 207      093224D8 
 207      E95F9D68 
ARM GAS  /tmp/ccrAmUic.s 			page 16


 207      0B45E478 
 207      B314
 208 071f ED08CBF1 		.ascii	"\355\010\313\361\226_\031\213\327\3305\336\350\252P"
 208      965F198B 
 208      D7D835DE 
 208      E8AA50
 209 072e 1086CF26 		.ascii	"\020\206\317&woTj\017\313\252|\227\265\231'\222\021"
 209      776F546A 
 209      0FCBAA7C 
 209      97B59927 
 209      9211
 210 0740 12AE1051 		.ascii	"\022\256\020Q]\221\375\021H\332\334\242\023\314U\344"
 210      5D91FD11 
 210      48DADCA2 
 210      13CC55E4 
 211 0750 F7B9C522 		.ascii	"\367\271\305\"O\213W\024\374\242\315\333$\026\273\335"
 211      4F8B5714 
 211      FCA2CDDB 
 211      2416BBDD 
 212 0760 3ED149BD 		.ascii	">\321I\275\253\310\355\366\2126\367\3426[\253\337mk"
 212      ABC8EDF6 
 212      8A36F7E2 
 212      365BABDF 
 212      6D6B
 213 0772 10459BE8 		.ascii	"\020E\233\350\206\3370\240\321\323&\332<d\244\257A\024"
 213      86DF30A0 
 213      D1D326DA 
 213      3C64A4AF 
 213      4114
 214 0784 96A8A3EA 		.ascii	"\226\250\243\352\241\377r\261(\330)\305\347\352\325"
 214      A1FF72B1 
 214      28D829C5 
 214      E7EAD5
 215 0793 C512E020 		.ascii	"\305\022\340 ,\344N\242A\356\020\217E\261\340\037\026"
 215      2CE44EA2 
 215      41EE108F 
 215      45B1E01F 
 215      16
 216 07a4 C6639116 		.ascii	"\306c\221\026\2778\233\006\210yPMc\034\206\007\201\025"
 216      BF389B06 
 216      8879504D 
 216      631C8607 
 216      8115
 217 07b6 F024104A 		.ascii	"\360$\020J\304\313\263\217\234\006\371\222\273\223\016"
 217      C4CBB38F 
 217      9C06F992 
 217      BB930E
 218 07c5 B7CFDFE2 		.ascii	"\267\317\337\342\317\005?\222\010%\002"
 218      CF053F92 
 218      082502
 219 07d0 0F074904 		.ascii	"\017\007I\004g\005\002\0119\031hl\360{[\305\226YR\370"
 219      67050209 
 219      3919686C 
 219      F07B5BC5 
 219      965952F8 
 220 07e4 8FD2EA04 		.ascii	"\217\322\352\004\344>\034\212\312\305\253\244p\227|"
 220      E43E1C8A 
ARM GAS  /tmp/ccrAmUic.s 			page 17


 220      CAC5ABA4 
 220      70977C
 221 07f3 0711B584 		.ascii	"\007\021\265\204\317\321\235\232\320\245\3210\243\214"
 221      CFD19D9A 
 221      D0A5D130 
 221      A38C
 222 0801 4AE51EDD 		.ascii	"J\345\036\335I\225uE9\271\025\314\303\007\362\012\366"
 222      49957545 
 222      39B915CC 
 222      C307F20A 
 222      F6
 223 0812 B7A9995B 		.ascii	"\267\251\231[\350\354\356Vs\266\302YW\327\335N\262&"
 223      E8ECEE56 
 223      73B6C259 
 223      57D7DD4E 
 223      B226
 224 0824 BADD81B6 		.ascii	"\272\335\201\266\325+e\217\274B\200\210\273\0276A\016"
 224      D52B658F 
 224      BC428088 
 224      BB173641 
 224      0E
 225 0835 5AC4B286 		.ascii	"Z\304\262\206\326F\227\350o\243\015'i\224447z\027\213"
 225      D64697E8 
 225      6FA30D27 
 225      69943434 
 225      377A178B 
 226 0849 A5E48576 		.ascii	"\245\344\205vw\302\035\222E\262\346\027\313E\257\337"
 226      77C21D92 
 226      45B2E617 
 226      CB45AFDF 
 227 0859 2B2EF37A 		.ascii	"+.\363z\352\212\011\210\253\312\323\330\344s/\315\200"
 227      EA8A0988 
 227      ABCAD3D8 
 227      E4732FCD 
 227      80
 228 086a 97B478DC 		.ascii	"\227\264x\334K<\336\377\003\203G\264\001"
 228      4B3CDEFF 
 228      038347B4 
 228      01
 229              		.text
 230              		.section	.gnu.lto_.symtab.e57d9503d7d8f4a5,"",%progbits
 231 0000 56656374 		.ascii	"VectorB0\000\000\000\000\000\000\000\000\000\000\000"
 231      6F724230 
 231      00000000 
 231      00000000 
 231      000000
 232 0013 00A50000 		.ascii	"\000\245\000\000\000st_lld_init\000\000\000\000\000"
 232      0073745F 
 232      6C6C645F 
 232      696E6974 
 232      00000000 
 233 0028 00000000 		.ascii	"\000\000\000\000\000\000\000\251\000\000\000_port_i"
 233      000000A9 
 233      0000005F 
 233      706F7274 
 233      5F69
 234 003a 72715F65 		.ascii	"rq_epilogue\000\000\002\000\000\000\000\000\000\000"
ARM GAS  /tmp/ccrAmUic.s 			page 18


 234      70696C6F 
 234      67756500 
 234      00020000 
 234      00000000 
 235 004f 0000AC00 		.ascii	"\000\000\254\000\000\000chSysTimerHandlerI\000\000\002"
 235      00006368 
 235      53797354 
 235      696D6572 
 235      48616E64 
 236 006a 00000000 		.ascii	"\000\000\000\000\000\000\000\000\000\256\000\000\000"
 236      00000000 
 236      00AE0000 
 236      00
 237 0077 6E766963 		.ascii	"nvicEnableVector\000\000\002\000\000\000\000\000\000"
 237      456E6162 
 237      6C655665 
 237      63746F72 
 237      00000200 
 238 0090 000000B0 		.ascii	"\000\000\000\260\000\000\000"
 238      000000
 239              		.text
 240              		.section	.gnu.lto_.opts,"",%progbits
 241 0000 272D6D63 		.ascii	"'-mcpu=cortex-m3' '-mno-thumb-interwork' '-mthumb' "
 241      70753D63 
 241      6F727465 
 241      782D6D33 
 241      2720272D 
 242 0033 272D6767 		.ascii	"'-ggdb' '-O2' '-fomit-frame-pointer' '-falign-funct"
 242      64622720 
 242      272D4F32 
 242      2720272D 
 242      666F6D69 
 243 0066 696F6E73 		.ascii	"ions=16' '-ffunction-sections' '-fdata-sections' '-"
 243      3D313627 
 243      20272D66 
 243      66756E63 
 243      74696F6E 
 244 0099 666E6F2D 		.ascii	"fno-common' '-flto'\000"
 244      636F6D6D 
 244      6F6E2720 
 244      272D666C 
 244      746F2700 
 245              		.text
 246              		.cfi_sections	.debug_frame
 247              		.section	.text.VectorB0,"ax",%progbits
 248              		.align	2
 249              		.p2align 4,,15
 250              		.global	VectorB0
 251              		.thumb
 252              		.thumb_func
 253              		.type	VectorB0, %function
 254              	VectorB0:
 255              	.LFB219:
 256              		.file 1 "../../../os/hal/ports/STM32/LLD/TIMv1/hal_st_lld.c"
 257              		.loc 1 239 0
 258              		.cfi_startproc
 259              		@ args = 0, pretend = 0, frame = 0
ARM GAS  /tmp/ccrAmUic.s 			page 19


 260              		@ frame_needed = 0, uses_anonymous_args = 0
 261 0000 08B5     		push	{r3, lr}
 262              		.cfi_def_cfa_offset 8
 263              		.cfi_offset 3, -8
 264              		.cfi_offset 14, -4
 265              		.loc 1 246 0
 266 0002 4FF08043 		mov	r3, #1073741824
 267 0006 1A69     		ldr	r2, [r3, #16]
 268 0008 9207     		lsls	r2, r2, #30
 269 000a 09D5     		bpl	.L2
 270              		.loc 1 247 0
 271 000c 0022     		movs	r2, #0
 272 000e 1A61     		str	r2, [r3, #16]
 273              	.LVL0:
 274              	.LBB52:
 275              	.LBB53:
 276              	.LBB54:
 277              	.LBB55:
 278              	.LBB56:
 279              	.LBB57:
 280              		.file 2 "../../../os/common/ext/CMSIS/include/cmsis_gcc.h"
 281              		.loc 2 264 0
 282 0010 2023     		movs	r3, #32
 283              	@ 264 "../../../os/common/ext/CMSIS/include/cmsis_gcc.h" 1
 284 0012 83F31188 		MSR basepri, r3
 285              	@ 0 "" 2
 286              		.thumb
 287              	.LBE57:
 288              	.LBE56:
 289              	.LBE55:
 290              	.LBE54:
 291              	.LBE53:
 292              	.LBE52:
 293              	.LBB58:
 294              	.LBB59:
 295              		.file 3 "../../../os/hal/osal/rt/osal.h"
 296              		.loc 3 585 0
 297 0016 FFF7FEFF 		bl	chSysTimerHandlerI
 298              	.LVL1:
 299              	.LBE59:
 300              	.LBE58:
 301              	.LBB60:
 302              	.LBB61:
 303              	.LBB62:
 304              	.LBB63:
 305              	.LBB64:
 306              	.LBB65:
 307              		.loc 2 264 0
 308 001a 0023     		movs	r3, #0
 309              	@ 264 "../../../os/common/ext/CMSIS/include/cmsis_gcc.h" 1
 310 001c 83F31188 		MSR basepri, r3
 311              	@ 0 "" 2
 312              	.LVL2:
 313              		.thumb
 314              	.L2:
 315              	.LBE65:
 316              	.LBE64:
ARM GAS  /tmp/ccrAmUic.s 			page 20


 317              	.LBE63:
 318              	.LBE62:
 319              	.LBE61:
 320              	.LBE60:
 321              		.loc 1 255 0
 322 0020 BDE80840 		pop	{r3, lr}
 323              		.loc 1 254 0
 324 0024 FFF7FEBF 		b	_port_irq_epilogue
 325              	.LVL3:
 326              		.cfi_endproc
 327              	.LFE219:
 328              		.size	VectorB0, .-VectorB0
 329 0028 AFF30080 		.section	.text.st_lld_init,"ax",%progbits
 329      AFF30080 
 330              		.align	2
 331              		.p2align 4,,15
 332              		.global	st_lld_init
 333              		.thumb
 334              		.thumb_func
 335              		.type	st_lld_init, %function
 336              	st_lld_init:
 337              	.LFB220:
 338              		.loc 1 267 0
 339              		.cfi_startproc
 340              		@ args = 0, pretend = 0, frame = 0
 341              		@ frame_needed = 0, uses_anonymous_args = 0
 342              		@ link register save eliminated.
 343              		.loc 1 273 0
 344 0000 4FF48053 		mov	r3, #4096
 345 0004 C4F20203 		movt	r3, 16386
 346 0008 DA69     		ldr	r2, [r3, #28]
 347              		.loc 1 267 0
 348 000a 70B4     		push	{r4, r5, r6}
 349              		.cfi_def_cfa_offset 12
 350              		.cfi_offset 4, -12
 351              		.cfi_offset 5, -8
 352              		.cfi_offset 6, -4
 353              		.loc 1 273 0
 354 000c 42F00102 		orr	r2, r2, #1
 355              		.loc 1 276 0
 356 0010 4FF40051 		mov	r1, #8192
 357              		.loc 1 273 0
 358 0014 DA61     		str	r2, [r3, #28]
 359              		.loc 1 276 0
 360 0016 CEF20401 		movt	r1, 57348
 361 001a 4868     		ldr	r0, [r1, #4]
 362              		.loc 1 279 0
 363 001c 4FF08043 		mov	r3, #1073741824
 364              		.loc 1 281 0
 365 0020 0022     		movs	r2, #0
 366              		.loc 1 285 0
 367 0022 0124     		movs	r4, #1
 368              		.loc 1 276 0
 369 0024 40F40060 		orr	r0, r0, #2048
 370              		.loc 1 279 0
 371 0028 45F6BF56 		movw	r6, #23999
 372              		.loc 1 280 0
ARM GAS  /tmp/ccrAmUic.s 			page 21


 373 002c 4FF6FF75 		movw	r5, #65535
 374              		.loc 1 276 0
 375 0030 4860     		str	r0, [r1, #4]
 376              		.loc 1 279 0
 377 0032 9E62     		str	r6, [r3, #40]
 378              		.loc 1 289 0
 379 0034 1C20     		movs	r0, #28
 380              		.loc 1 280 0
 381 0036 DD62     		str	r5, [r3, #44]
 382              		.loc 1 289 0
 383 0038 0821     		movs	r1, #8
 384              		.loc 1 281 0
 385 003a 9A61     		str	r2, [r3, #24]
 386              		.loc 1 282 0
 387 003c 5A63     		str	r2, [r3, #52]
 388              		.loc 1 283 0
 389 003e DA60     		str	r2, [r3, #12]
 390              		.loc 1 284 0
 391 0040 5A60     		str	r2, [r3, #4]
 392              		.loc 1 285 0
 393 0042 5C61     		str	r4, [r3, #20]
 394              		.loc 1 286 0
 395 0044 1C60     		str	r4, [r3]
 396              		.loc 1 304 0
 397 0046 70BC     		pop	{r4, r5, r6}
 398              		.loc 1 289 0
 399 0048 FFF7FEBF 		b	nvicEnableVector
 400              	.LVL4:
 401              		.cfi_endproc
 402              	.LFE220:
 403              		.size	st_lld_init, .-st_lld_init
 404 004c AFF30080 		.text
 405              	.Letext0:
 406              		.file 4 "/home/julian/MEGA/semestre_ix/Embebidos/arm-2013.11/arm-none-eabi/include/stdint.h"
 407              		.file 5 "../../../os/common/ports/ARMCMx/compilers/GCC/chtypes.h"
 408              		.file 6 "../../../os/rt/include/chsystypes.h"
 409              		.file 7 "../../../os/rt/include/chschd.h"
 410              		.file 8 "../../../os/common/ext/CMSIS/ST/STM32F1xx/stm32f100xb.h"
 411              		.file 9 "../../../os/common/ports/ARMCMx/chcore.h"
 412              		.file 10 "../../../os/common/ports/ARMCMx/chcore_v7m.h"
 413              		.file 11 "../../../os/hal/ports/STM32/LLD/TIMv1/stm32_tim.h"
 414              		.file 12 "../../../os/rt/include/chsem.h"
 415              		.file 13 "../../../os/rt/include/chmtx.h"
 416              		.file 14 "../../../os/rt/include/chsys.h"
 417              		.file 15 "../../../os/common/ext/CMSIS/include/core_cm3.h"
 418              		.file 16 "../../../os/hal/ports/common/ARMCMx/nvic.h"