ARM GAS  /tmp/ccwwDfJk.s 			page 1


   1              		.syntax unified
   2              		.cpu cortex-m3
   3              		.fpu softvfp
   4              		.eabi_attribute 20, 1
   5              		.eabi_attribute 21, 1
   6              		.eabi_attribute 23, 3
   7              		.eabi_attribute 24, 1
   8              		.eabi_attribute 25, 1
   9              		.eabi_attribute 26, 1
  10              		.eabi_attribute 30, 2
  11              		.eabi_attribute 34, 1
  12              		.eabi_attribute 18, 4
  13              		.thumb
  14              		.file	"main.c"
  15              		.text
  16              	.Ltext0:
  17              		.section	.gnu.lto_.jmpfuncs.babfb0bfc4bb1908,"",%progbits
  18 0000 789C6362 		.ascii	"x\234cb`b\300\006\036\003\2618\0203\002\021S\004c&#"
  18      6062C006 
  18      1E03B138 
  18      10330211 
  18      53046326 
  19 0015 03170303 		.ascii	"\003\027\003\0033S5\303\257\206\216\006\201LF\306\\"
  19      335335C3 
  19      AF868E06 
  19      814C46C6 
  19      5C
  20 0026 46B03AB0 		.ascii	"F\260:\260\310\014\220\010\223\034\003\343\334\206\031"
  20      C80C9008 
  20      931C03E3 
  20      DC8619
  21 0035 0E998CCC 		.ascii	"\016\231\214\314\020\031\220.\026\015\002\272X\345\030"
  21      1019902E 
  21      160D02BA 
  21      58E518
  22 0044 3821BAD8 		.ascii	"8!\272\330\220t\201\030\370t\261\3472\202\205\230\301"
  22      90748118 
  22      F874B1E7 
  22      32828598 
  22      C1
  23 0055 CA391A66 		.ascii	"\3129\032f\2644\260@\365r60BY\\\202\330\0258 \311\203"
  23      B434B040 
  23      F5723630 
  23      42595C82 
  23      D8153820 
  24 006b 007B6A9E 		.ascii	"\000{j\236\202\251\236\001\003_@Q~Z\252BAbqj^~1\003"
  24      82A99E01 
  24      035F4051 
  24      7E5AAA42 
  24      4162716A 
  25 0083 00099D30 		.ascii	"\000\011\2350\034"
  25      1C
  26              		.text
  27              		.section	.gnu.lto_.inline.babfb0bfc4bb1908,"",%progbits
  28 0000 789C6362 		.ascii	"x\234cb`b\300\006\002\2404#\003\203\324\0355F\260*\026"
  28      6062C006 
  28      02A03423 
ARM GAS  /tmp/ccwwDfJk.s 			page 2


  28      0383D41D 
  28      3546B02A 
  29 0015 885A266E 		.ascii	"\210Z&nF\2400\013/#\0033H\020J3\363\200\025\261\360"
  29      46A0300B 
  29      2F230333 
  29      48104A33 
  29      F38015B1 
  30 002a 32408521 		.ascii	"2@\205!4#\027\012\301\000\000\210{\002\017"
  30      3423170A 
  30      C1000088 
  30      7B020F
  31              		.text
  32              		.section	.gnu.lto_.pureconst.babfb0bfc4bb1908,"",%progbits
  33 0000 789C6362 		.ascii	"x\234cb`b`f\200\000F\006\023\000\000\237\000="
  33      60626066 
  33      80004606 
  33      1300009F 
  33      003D
  34              		.text
  35              		.section	.gnu.lto_main.babfb0bfc4bb1908,"",%progbits
  36 0000 789C9D92 		.ascii	"x\234\235\222\277N\002A\020\306\347\333=<<\021A-\264"
  36      BF4E0241 
  36      10C6E7DB 
  36      3D3C3C11 
  36      412DB4
  37 0013 21943612 		.ascii	"!\2246\022\033{|\003\013H\264$\2273\331\002P\211\225"
  37      1B7B7C03 
  37      0B48B424 
  37      9733D902 
  37      508995
  38 0026 056BC0FF 		.ascii	"\005k\300\377\026\024\026\304\304D\013\033\013}\001"
  38      161416C4 
  38      C4440B1B 
  38      0B7D01
  39 0035 0B137B7D 		.ascii	"\013\023{}\003\275\306\302W0Q\234\273=\214x\024\306"
  39      03BDC6C2 
  39      5730519C 
  39      BB3D8C78 
  39      14C6
  40 0047 4DEE66EE 		.ascii	"M\356f\356\273o~;;YA\202~\257y~6X\316sD\202 :\217D;"
  40      BB6F7E3B 
  40      3B594182 
  40      7EAF797E 
  40      3658CE73 
  41 0062 49016912 		.ascii	"I\001i\022\011\313$\226Q\226@M!-4W\021\326\337\212{"
  41      09CB2496 
  41      5196404D 
  41      212D3457 
  41      11D6DF8A 
  42 0077 BFD7BB39 		.ascii	"\277\327\2739\333?\275\303\265H\261\222\240\266\326"
  42      DB3FBDC3 
  42      B548B192 
  42      A0B6D6
  43 0086 1DE6B9A1 		.ascii	"\035\346\271\241\243\304oP\031\202 \237\250\345??\214"
  43      A3C46F50 
  43      1982209F 
  43      A8E53F3F 
ARM GAS  /tmp/ccwwDfJk.s 			page 3


  43      8C
  44 0097 5470C95B 		.ascii	"Tp\311[\021m\323\273>\320\031\005\266\032\232\012b\340"
  44      116DD3BB 
  44      3ED01905 
  44      B61A9A0A 
  44      62E0
  45 00a9 7A69D9C3 		.ascii	"zi\331\303\\b\320\3656\234%\177\272\366\374\0177f\022"
  45      5C62D0F5 
  45      369C257F 
  45      BAF6FC0F 
  45      376612
  46 00bc 2EACD0B4 		.ascii	".\254\320\264\002\005\251\273mm\205\251U\014C\"\313"
  46      0205A9BB 
  46      6D6D85A9 
  46      550C4322 
  46      CB
  47 00cd D52361F5 		.ascii	"\325#a\365\305\247\374{\265\306@y\260\312\334\015\317"
  47      C5A7FC7B 
  47      B5C64079 
  47      B0CADC0D 
  47      CF
  48 00de 8D8FBEEB 		.ascii	"\215\217\276\353\037\276\306\333\265\335\360\333(I\205"
  48      1FBEC6DB 
  48      B5DDF0DB 
  48      284985
  49 00ed 64151499 		.ascii	"d\025\024\231\002eFa\264\012D\212\202c\216tt\345\304"
  49      02654661 
  49      B40A448A 
  49      82638E74 
  49      74E5C4
  50 0100 48636EB4 		.ascii	"Hcn\264\347pRW\353-\205T\216\234s\335-*\214\367\177"
  50      E7705257 
  50      EB2D8554 
  50      8E9C73DD 
  50      2D2A8CF7 
  51 0115 061DA703 		.ascii	"\006\035\247\003\366\204a\037\377\227\235\311\321\254"
  51      F684611F 
  51      FF979DC9 
  51      D1AC
  52 0123 616707D8 		.ascii	"ag\007\330s}v\333?\361b\350I\027\366\3670\247\034\366"
  52      737D76DB 
  52      3FF162E8 
  52      4917F6F7 
  52      30A71CF6 
  53 0137 4E9BC995 		.ascii	"N\233\311\225x\310<9\224\242\273Av\265\242j\005\227"
  53      78C83C39 
  53      94A2BB41 
  53      76B5A26A 
  53      0597
  54 0149 D2CB9BF5 		.ascii	"\322\313\233\3655/\277^ix\265z\203l\257\226_,,\320\027"
  54      352FBF5E 
  54      6978B57A 
  54      836CAF96 
  54      5F2C2CD0 
  55 015e 82649E16 		.ascii	"\202d\236\026"
  56              		.text
  57              		.section	.gnu.lto_.symbol_nodes.babfb0bfc4bb1908,"",%progbits
ARM GAS  /tmp/ccwwDfJk.s 			page 4


  58 0000 789C45CA 		.ascii	"x\234E\3129\016\3020\020\205\341\367\306q\314rZN0\221"
  58      390EC230 
  58      1085E1F7 
  58      C671CC72 
  58      5A4E3091 
  59 0014 2CD1D070 		.ascii	",\321\320p\002$\224[\320\246\241\242\244aI\202\003\334"
  59      0224945B 
  59      D0A6A1A2 
  59      A4614982 
  59      03DC
  60 0026 02E12CE0 		.ascii	"\002\341,\340i\376\367I#\020\\0\235\334\251\300\366"
  60      69FEF749 
  60      23105C30 
  60      9DDCA9C0 
  60      F6
  61 0037 04A8EE8E 		.ascii	"\004\250\356\216b;\306\005{#35\366M\351u\245\211\342"
  61      623BC605 
  61      7B233335 
  61      F64DE975 
  61      A589E2
  62 004a 8BCAF1B5 		.ascii	"\213\312\361\265(\310'U\222\002\325$=\250YRK\265I\015"
  62      28C82755 
  62      9202D524 
  62      3DA85952 
  62      4BB5490D 
  63 005e 354FAAA9 		.ascii	"5O\252\251\356/\203%|\363\211]\240\034:G5t\2060\325"
  63      EE2F8325 
  63      7CF3895D 
  63      A01C3A47 
  63      35748630 
  64 0073 B77D1DCA 		.ascii	"\267}\035\312\375y\343\014rT\277\021\306a\341\327\335"
  64      FD79E30C 
  64      7254BF11 
  64      C661E1D7 
  64      DD
  65 0084 61852F96 		.ascii	"a\205/\226~B\035"
  65      7E421D
  66              		.text
  67              		.section	.gnu.lto_.refs.babfb0bfc4bb1908,"",%progbits
  68 0000 789C6362 		.ascii	"x\234cb`b\020d\200\000\026\006&F&& \006\221\314L,\014"
  68      60621064 
  68      80001606 
  68      26462626 
  68      200691CC 
  69 0017 00035000 		.ascii	"\000\003P\0006"
  69      36
  70              		.text
  71              		.section	.gnu.lto_.decls.babfb0bfc4bb1908,"",%progbits
  72 0000 789CAD5C 		.ascii	"x\234\255\\\013t\024U\232\256\252\356N\247\223\020@"
  72      0B741455 
  72      9AAEAAEE 
  72      4EA79310 
  72      40
  73 0011 C7599CC3 		.ascii	"\307Y\234\303\256\231\331\231YG\217\204\340c\230=3\256"
  73      AE99D999 
  73      59478F84 
  73      E063983D 
ARM GAS  /tmp/ccwwDfJk.s 			page 5


  73      33AE
  74 0023 D8099A15 		.ascii	"\330\011\232\025\210\233\016\216\356\216\333\026\235"
  74      889B0E8E 
  74      EE8EDB16 
  74      9D
  75 0030 82F49074 		.ascii	"\202\364\220t\307\356\002\302\331\331c\0210 \210\204"
  75      C7EE02C2 
  75      D9D96311 
  75      30208884 
  76 0040 40C25388 		.ascii	"@\302S\2103\002\202\243+\362P^\246\225\207!(\341a\010"
  76      330282A3 
  76      2BF2505E 
  76      A6958721 
  76      28E16108 
  77 0054 2FA15182 		.ascii	"/\241Q\202\250#\022\021\302Kz\357\375\253\252\373\336"
  77      A8231211 
  77      C24B7AEF 
  77      FDABAAFB 
  77      DE
  78 0065 4A557755 		.ascii	"JUwU3uR\267\252n\337\373\335\377\377\356\177\377\373"
  78      337552B7 
  78      AA6EDFFB 
  78      DDFFFFEE 
  78      7FFFFB
  79 0078 A85BE118 		.ascii	"\250[\341\030\216\031\3102L\014\035\313G2\314\241L\006"
  79      8E19C832 
  79      4C0C1DCB 
  79      4732CCA1 
  79      4C06
  80 008a C530CC83 		.ascii	"\3050\314\203\350\314F\247\015\235\257\240\363w(\362"
  80      E8CC46A7 
  80      0D9DAFA0 
  80      F37728F2 
  81 009a 4174FE01 		.ascii	"At\376\001\245}\010]\207\241s\013\212w\243\253\023]"
  81      A57D085D 
  81      87A1730B 
  81      8A77A3AB 
  81      135D
  82 00ac 7F8F33A1 		.ascii	"\177\2173\241\003eg\376\023\335?\215\316rt\216Gg5:\377"
  82      036567FE 
  82      13DD3F8D 
  82      CE72748E 
  82      4767353A 
  83 00c1 84CEE7D0 		.ascii	"\204\316\347\3209\005\235v\224f*\272>\217\316\027\320"
  83      39059D76 
  83      94662ABA 
  83      3E8FCE17 
  83      D0
  84 00d2 F9A29257 		.ascii	"\371\242\222W=p\376\333\320\365%t\375_t\316\341\350"
  84      3D70FEDB 
  84      D0F52574 
  84      FD5F74CE 
  84      E1E8
  85 00e4 729E4567 		.ascii	"r\236Eg='\313\205e\250D\367s\271\204\\XF\201K\310\334"
  85      3D27CB85 
  85      65A844F7 
  85      73B9845C 
ARM GAS  /tmp/ccwwDfJk.s 			page 6


  85      5846814B 
  86 00fa C0C97AFC 		.ascii	"\300\311z\374\267F\306)\212L\177Rd\034\257\310\214e"
  86      B746C629 
  86      8A4C7F52 
  86      641CAFC8 
  86      8C65
  87 010c E70819C9 		.ascii	"\347\010\031\311#\233\231)I\265Rs\235\364hk\356-\314"
  87      239B9929 
  87      49B55273 
  87      9DF4686B 
  87      EE2DCC
  88 011f 5C091DCD 		.ascii	"\\\011\035\315\017\265\3462\314\223,\317\346\272\230"
  88      0FB5E632 
  88      CC932CCF 
  88      E6BA98
  89 012e 87E026C7 		.ascii	"\207\340&\307\005\245\374\202yU\222\352\243]\233o\227"
  89      05A5FC82 
  89      795592EA 
  89      A35D9B6F 
  89      97
  90 013f EC3CFB67 		.ascii	"\354<\373g\366\026\204\353b\231\273\230\325([\275$}"
  90      F61684EB 
  90      6299BB98 
  90      D5285BBD 
  90      247D
  91 0151 96C5F43E 		.ascii	"\226\305\364>R\2422\014\317\256DX<\273\202\275K.C\212"
  91      52A2320C 
  91      CFAE4458 
  91      3CBB82BD 
  91      4B2E438A 
  92 0165 2CD99383 		.ascii	",\331\223\203\313\300\361\214\362\213\316\361S\246\031"
  92      CBC0F18C 
  92      F28BCEF1 
  92      53A619
  93 0174 891F5937 		.ascii	"\211\037Y7k\301?H\321\010\353d\352\2606\321\347k\007"
  93      6BC13F48 
  93      D108EB64 
  93      EAB036D1 
  93      E76B07
  94 0187 2C4C1496 		.ascii	",L\024\226\251\026\306\306U\210\\\374\220\315\343\331"
  94      A916C6C6 
  94      55885CFC 
  94      90CDE3D9 
  95 0197 D52807C7 		.ascii	"\325(\007\307\374\204\245\0120\001\202%\372+\312KI\374"
  95      FC84A50A 
  95      30018225 
  95      FA2BCA4B 
  95      49FC
  96 01a9 E9F4BE58 		.ascii	"\351\364\276Xb\034\237Db\033\003\265\361K\026\360\354"
  96      621C9F44 
  96      621B03B5 
  96      F14B16F0 
  96      EC
  97 01ba AE445441 		.ascii	"\256DTA<\212%\022\376k<V\2559\374\310\272\02271\226"
  97      3C8A2512 
  97      FE6B3C56 
  97      AD39FCC8 
ARM GAS  /tmp/ccwwDfJk.s 			page 7


  97      BA123731 
  98 01cf 2A80948C 		.ascii	"*\200\224\214g\337`\177\201\3027Y\233n6\216)b\025\362"
  98      67DF607F 
  98      81C23759 
  98      9B6E368E 
  98      296215F2 
  99 01e3 F5D4546E 		.ascii	"\365\324Tn\023\305\346\252\017*\361\333\024\3423\231"
  99      13C5E6AA 
  99      0F2AF1DB 
  99      14E23399 
 100 01f3 E93267D2 		.ascii	"\3512g\322\024\366\331$\304c#\341xv#\312\3001\217\321"
 100      14F6D924 
 100      C46323E1 
 100      787623CA 
 100      C0318FD1 
 101 0207 82131AE0 		.ascii	"\202\023\032\340\337\3252\345{\365\016\204\376\017\253"
 101      DFD532E5 
 101      7BF50E84 
 101      FE0FAB
 102 0216 42675242 		.ascii	"BgRBw\354Yp\273\324\374\001\253k\373\222\304\022v*\261"
 102      77EC5970 
 102      BBD4FC01 
 102      AB6BFB92 
 102      C412762A 
 103 022b 2A5EBF84 		.ascii	"*^\277\204\355\314\335\303\346)\311\363\014\323\362"
 103      EDCCDDC3 
 103      E629C9F3 
 103      0CD3F2
 104 023a EC36447D 		.ascii	"\3546D}\312d8a\213\326\366c\037\202\355\267\230\262"
 104      CA643861 
 104      8BD6F663 
 104      1F82EDB7 
 104      98B2
 105 024c FD0533E7 		.ascii	"\375\0053\347\030jC\226\033\261\251\345\016\215\253"
 105      186A4396 
 105      1BB1A9E5 
 105      0E8DAB
 106 025b 12EDD9D5 		.ascii	"\022\355\331\325\261\222\235\212t\346\331\355\320\232"
 106      B1929D8A 
 106      74E6D9ED 
 106      D09A
 107 0269 EB59BA31 		.ascii	"\353Y\2721\244\004\342\331\235,\207\302]Z%\272\027\203"
 107      A404E2D9 
 107      9D2C87C2 
 107      5D5A25BA 
 107      1783
 108 027b 12BB4C29 		.ascii	"\022\273L)q\345\3502k\0158z\261\255\243@\2222yv7\264"
 108      71E5E832 
 108      6B0D387A 
 108      B1ADA340 
 108      92327976 
 109 0291 E16D6C5A 		.ascii	"\341mlZ\215\370#m#\336T\007\215\370#S\215\270\225\355"
 109      8DF8236D 
 109      23DE5407 
 109      8DF82353 
 109      8DB895ED 
 110 02a5 DD8A0FB2 		.ascii	"\335\212\017\262\272\315\3708K\267c%\372L\"\332FD\177"
ARM GAS  /tmp/ccwwDfJk.s 			page 8


 110      BACDF838 
 110      4BB76325 
 110      FA4C22DA 
 110      46447F
 111 02b8 9F88B613 		.ascii	"\237\210\266\023\321\265\\<\332A\030xRg\360\021\341"
 111      D1B55C3C 
 111      DA411878 
 111      5267F011 
 111      E1
 112 02c9 0C3E0667 		.ascii	"\014>\006g\260\327\300\031\360\354\372xM\246\345\015"
 112      B0D7C019 
 112      F0ECFA78 
 112      4DA6E50D 
 113 02d9 A23D75A7 		.ascii	"\242=u\247\317\260\363\246J\255\203M4\255gT\300\234"
 113      CFB0F3A6 
 113      4AAD834D 
 113      34AD6754 
 113      C09C
 114 02eb 44CBDA76 		.ascii	"D\313\332vT\267eQIy\366S\375\206E\245\302\351NjM\362"
 114      54B76551 
 114      4979F653 
 114      FD8645A5 
 114      C2E94E6A 
 115 0301 E5A36092 		.ascii	"\345\243`\222'M\231\344\332\243\215\026\373\224\356"
 115      274D99E4 
 115      DAA38D16 
 115      FB94EE
 116 0310 4EDCA77C 		.ascii	"N\334\247|\006\3668\233K\313\036\273\264\366xd\001\330"
 116      06F6389B 
 116      4BCB1EBB 
 116      B4F67864 
 116      01D8
 117 0322 6397297B 		.ascii	"c\227){\\\304\021\266\247\304\275\312\351\032\336\273"
 117      5CC411B6 
 117      A7C4BDCA 
 117      E91ADEBB 
 118 0332 1C6D7866 		.ascii	"\034mxfL\251\2130\2453`J_\030\366+m\240\377\311\264"
 118      4CA98B30 
 118      A533604A 
 118      5F18F62B 
 118      6DA0FFC9 
 119 0347 3B967547 		.ascii	";\226uG\033\301\253\271\230\031\011C\212\247\315S\021"
 119      1BC1ABB9 
 119      98190943 
 119      8AA7CD53 
 119      11
 120 0358 EC71F6A3 		.ascii	"\354q\366\243\035M\237t\263\265\340\312\276e\261\262"
 120      1D4D9F74 
 120      B3B5E0CA 
 120      BE65B1B2 
 121 0368 2B6D7415 		.ascii	"+mt\025\360\254\323E+\204\236\325\004\030\317\351J\334"
 121      F0ACD345 
 121      2B849ED5 
 121      0418CFE9 
 121      4ADC
 122 037a E0F1635F 		.ascii	"\340\361c_\254\310\377\3314\212Pe\353)\222\247i\023"
 122      ACC8FFD9 
ARM GAS  /tmp/ccwwDfJk.s 			page 9


 122      348A5065 
 122      EB2992A7 
 122      6913
 123 038c 7B37B2DF 		.ascii	"{7\262\337\325J\013\007\2337\244yG\261!}\017\206\264"
 123      D54A0B07 
 123      9B37A479 
 123      47B1217D 
 123      0F86B4
 124 039f C5969621 		.ascii	"\305\226\226!\365h\015\351\232lH=\246\014\251\315\326"
 124      F5680DE9 
 124      9A6C483D 
 124      A60CA9CD 
 124      D6
 125 03b0 DB908ED8 		.ascii	"\333\220\216\330t\015\351k\233uC\352!\014\3512\030\322"
 125      740DE96B 
 125      9B7543EA 
 125      210CE932 
 125      18D2
 126 03c2 15434392 		.ascii	"\025CC\222\354&\014)1Z\310\245\252X)O.)\012%\235b\177"
 126      EC260C29 
 126      315AC8A5 
 126      AA58294F 
 126      2E290A25 
 127 03d9 8AC27310 		.ascii	"\212\302s\020^@a\374\340\230Yv\255\301\310\236\202@"
 127      5E4061FC 
 127      E0985976 
 127      ADC1C89E 
 127      8240
 128 03eb 4AB81426 		.ascii	"J\270\024&\031\226\236\251\340\014\307\330\354Dq\215"
 128      19969EA9 
 128      E00CC7D8 
 128      EC44718D 
 129 03fb 50DCAE74 		.ascii	"P\334\256t-+\262\350\3302kM$\322\262\3406l\003S9\\\205"
 129      2D2BB2E8 
 129      D8326B4D 
 129      24D2B2E0 
 129      366C0353 
 130 0412 4B7B69FB 		.ascii	"K{i\373-\233F\373XeF\013\275\372\001-\244\310\272c\313"
 130      2D9B46FB 
 130      5865460B 
 130      BDFA012D 
 130      A4C8BA63 
 131 0427 58AC45CA 		.ascii	"X\254E\312\221\222\322\314\267}\036mRF,38<b\331kO9b"
 131      9192D2CC 
 131      B77D1E6D 
 131      52462C33 
 131      383C62D9 
 132 043f A18138E6 		.ascii	"\241\2018\346\020d\231\305i\272\207\013|\236\034\233"
 132      106499C5 
 132      69BA870B 
 132      7C9E1C9B 
 133 044f AA739022 		.ascii	"\252s\220\"\027\273\\RC\216NQz\323\245\330\231\310O"
 133      17BB5C52 
 133      438E4E51 
 133      7AD3A5D8 
 133      99C84F
 134 0462 764B523F 		.ascii	"vKR?\236\235\003\022Os\350Jl<A\342\230\371\220\245A"
ARM GAS  /tmp/ccwwDfJk.s 			page 10


 134      9E9D0312 
 134      4F73E84A 
 134      6C3C41E2 
 134      98F990A5 
 135 0477 237174C9 		.ascii	"#qt\311\327\227\177\265\020\220\033L\210]\033\331?\363"
 135      D7977FB5 
 135      10901B4C 
 135      885D1BD9 
 135      3FF3
 136 0489 655363C5 		.ascii	"eSc\305f\273Z|aB\215\033g.;a\304\265\000\264\330\245"
 136      66BB5A7C 
 136      61428D1B 
 136      672E3B61 
 136      C4B500B4 
 137 049f AF85310C 		.ascii	"\257\2051\014\307\264C\226\305\275\265\330w\267\254"
 137      C7B44396 
 137      C5BDB5D8 
 137      77B7AC
 138 04ae C56253E4 		.ascii	"\305bS\344\367\264-\005\223Q\371<\022\207\325#/u_s\271"
 138      F7B42D05 
 138      9351F93C 
 138      1287D523 
 138      2F755F73 
 139 04c3 2DA79E37 		.ascii	"-\247\2367\337\321\304\316E\006l\003q\233\241!-\314"
 139      DFD1C4CE 
 139      45066C03 
 139      719BA121 
 139      2DCC
 140 04d5 F8BB34A4 		.ascii	"\370\2734\244\346\014\215\026\326\032\022b\361\354\335"
 140      E60C8D16 
 140      D61A1262 
 140      F1ECDD
 141 04e4 9BDE96A4 		.ascii	"\233\336\226\244\0272T{\3120R\204cV\3102kk\242\343B"
 141      1732547B 
 141      CA305284 
 141      6356C832 
 141      6B6BA2E3 
 142 04f9 AB624F2B 		.ascii	"\253bO+L\331\323\2066\343\231\024e\010\234Z\374\317"
 142      4CD9D386 
 142      36E39914 
 142      65089C5A 
 142      FCCF
 143 050b A1F8E350 		.ascii	"\241\370\343P\374\032m\361k{Z\377K.~\215\251\3427u\316"
 143      FC1A6DF1 
 143      6B7B5AFF 
 143      4B2E7E8D 
 143      A9E23775 
 144 0520 EF5D3CCF 		.ascii	"\357]<\317>x[\322q\302\205\263\003\227C!or\331H\226"
 144      3E785BD2 
 144      71C285B3 
 144      03974321 
 144      6F72D948 
 145 0535 26A7B6FA 		.ascii	"&\247\266\372\376-\233,\013\236\211\004\034\263\334"
 145      FE2D9B2C 
 145      0B9E8904 
 145      1CB3DC
 146 0544 A94A6FD6 		.ascii	"\251Jo\326qSb#5\317>\275\032jJ\225\341\317\226\021\363"
ARM GAS  /tmp/ccwwDfJk.s 			page 11


 146      71536223 
 146      35CF3EBD 
 146      1A6A4A95 
 146      E1CF9611 
 147 0559 2822B676 		.ascii	"(\"\266v\"\013V\301V\230\00134\244\332\310{$\330k\226"
 147      220B56C1 
 147      56980133 
 147      34A4DAC8 
 147      7B24D86B 
 148 056e C168C9F6 		.ascii	"\301h\311\366\221`\257\233\001\353g,\331\001\022\354"
 148      9160AF9B 
 148      01EB672C 
 148      D90112EC 
 149 057e 4DCB60B4 		.ascii	"M\313`\264d\237\220`k\315\200\0150\226\354\020\011\266"
 149      649F9060 
 149      6BCD800D 
 149      3096EC10 
 149      09B6
 150 0590 C132182D 		.ascii	"\3012\030-\331a\022l\223\031\260<\035\311\342\207\321"
 150      D961126C 
 150      9319B03C 
 150      1DC9E287 
 150      D1
 151 05a1 60643547 		.ascii	"`d5G\014F\266:U\207`\321\246\231\004F\213\323\252\007"
 151      0C46B63A 
 151      558760D1 
 151      A6990446 
 151      8BD3AA07 
 152 05b5 A3F4C6BD 		.ascii	"\243\364\306\275\331\335\233\225v\321\004\312o7\203"
 152      D9DD9B95 
 152      76D104CA 
 152      6F3783
 153 05c4 98C460EA 		.ascii	"\230\304`\352\367\000\2232\330n\313`t\265,\303`\224"
 153      F7009332 
 153      D86ECB60 
 153      74B52CC3 
 153      6094
 154 05d6 AB51FA8C 		.ascii	"\253Q\372\214\350\212H\362\021=\254z\305\023K\003\006"
 154      E88A48F2 
 154      113DAC7A 
 154      C5134B03 
 154      06
 155 05e7 E8A7E5D9 		.ascii	"\350\247\345\331=\034\036\242~\304\271\342R\310\367"
 155      3D1C1EA2 
 155      7EC4B9E2 
 155      52C8F7
 156 05f6 EA9D3C24 		.ascii	"\352\235<$nw\032.\234%\317jd\011\273IK\370\304\014M"
 156      6E771A2E 
 156      9C25CF6A 
 156      6409BB49 
 156      4BF8C40C 
 157 060b 499AC23E 		.ascii	"I\232\302>#\232\"u\322\014v\312\332\201I\307J\310;\377"
 157      239A2275 
 157      D20C76CA 
 157      DA8149C7 
 157      4AC83BFF 
 158 061f E31AF0CE 		.ascii	"\343\032\360\316\373\241s=\242\361\316\226\260\232\256"
ARM GAS  /tmp/ccwwDfJk.s 			page 12


 158      FBA1733D 
 158      A2F1CE96 
 158      B09AAE
 159 062e BFAF0C15 		.ascii	"\277\257\014\025?\001\260\323\275\\\275K\323Q\273\350"
 159      3F01B0D3 
 159      BD5CBD4B 
 159      D351BBE8 
 160 063e 8EDAE54A 		.ascii	"\216\332\345J\334\304\324C;\2331\231\307\210\374}$\371"
 160      DCC4D443 
 160      3B9B3199 
 160      C788FC7D 
 160      24F9
 161 0650 DF58265F 		.ascii	"\337X&_\333\204\316\016\332\364\246$M\315 \314-\305"
 161      DB84CE0E 
 161      DAF4A624 
 161      4DCD20CC 
 161      2DC5
 162 0662 4A5AECDC 		.ascii	"JZ\354\334\331N\205\246#@\323\367\372\234\233\200\352"
 162      D94E85A6 
 162      2340D3F7 
 162      FA9C9B80 
 162      EA
 163 0673 687A231F 		.ascii	"hz#\037\206\210\307\001\350\207^|k\007F,\315]\322Yc"
 163      8688C701 
 163      E8875E7C 
 163      6B07462C 
 163      CD5DD259 
 164 0688 8AB4EAF2 		.ascii	"\212\264\352\362\025A\236\336T1\317\320r\021y\255\371"
 164      15419EDE 
 164      5431CFD0 
 164      721179AD 
 164      F9
 165 0699 D6C98BAA 		.ascii	"\326\311\213\252\344EA\347\3473\265:\037\347\254)\315"
 165      E44541E7 
 165      E733B53A 
 165      1FE7AC29 
 165      CD
 166 06aa 31B33359 		.ascii	"1\2633Y\213\212dj\0249\237\206\"\347UE\272@\221y\177"
 166      8B8A646A 
 166      14399F86 
 166      22E75545 
 166      BA409179 
 167 06bf 07459658 		.ascii	"\007E\226XV\244\037\241\010\314o\212\3451\355\255LC"
 167      56A41FA1 
 167      08CC6F8A 
 167      E531EDAD 
 167      4C43
 168 06d1 F2312D96 		.ascii	"\3621-\226\347+\356VzF\327\261\027/\244\340\350\324"
 168      E72BEE56 
 168      7A46D7B1 
 168      172FA4E0 
 168      E8D4
 169 06e3 B38A0B7B 		.ascii	"\263\212\013{\227&\246\323\222\271\211@\2532\021\370"
 169      9726A6D3 
 169      92B98940 
 169      AB3211F8 
 170 06f3 06186BCE 		.ascii	"\006\030k\316\324i7\246\220:\016\265\357W\326\256\316"
ARM GAS  /tmp/ccwwDfJk.s 			page 13


 170      D46937A6 
 170      903A0EB5 
 170      EF57D6AE 
 170      CE
 171 0704 03D4CA5E 		.ascii	"\003\324\312^\344gh\270\317\240\271G\217\270\254\313"
 171      E46768B8 
 171      CFA0B947 
 171      8FB8ACCB 
 172 0714 E06C9E53 		.ascii	"\340l\236Sb\360\203\223I;\037\032c\201\030\230\277t"
 172      62F08393 
 172      493B1F1A 
 172      63811898 
 172      BF74
 173 0726 46BAB8FE 		.ascii	"F\272\270\376\"\277\335\244\364\3502G\033n\012\2616"
 173      22BFDDA4 
 173      F4E83247 
 173      1B6E0AB1 
 173      36
 174 0737 B27C8E3C 		.ascii	"\262|\216<\203\205Q9\307\274w\223p[\333\265\235\225"
 174      83855139 
 174      C7BC7793 
 174      705BDBB5 
 174      9D95
 175 0749 662EB1C0 		.ascii	"f.\261\300\300\025\307\247\366\321\001\177\005\023\270"
 175      C015C7A7 
 175      F6D1017F 
 175      0513B8
 176 0758 0A638C9D 		.ascii	"\012c\214\235\275\352\255\211\323\314&p\004\221\304"
 176      BDEAAD89 
 176      D3CC2670 
 176      0491C4
 177 0767 C896AF90 		.ascii	"\310\226\257\220\335\302\341\233\256\207\303\017\322"
 177      DDC2E19B 
 177      AE87C30F 
 177      D2
 178 0774 F570E226 		.ascii	"\365p\342&\211\2732\307\334J\3023*V\016(r\006\212\255"
 178      89BB32C7 
 178      DC4AC233 
 178      2A560E28 
 178      72068AAD 
 179 0788 B569267E 		.ascii	"\265i&~\235\253N\325)\366\217\177K\335X\217\301\372"
 179      9DAB4ED5 
 179      29F68F7F 
 179      4BDD588F 
 179      C1FA
 180 079a 8BBC00C0 		.ascii	"\213\274\000\300\263\3138NA\325\033\015\244\244'rBh"
 180      B3CB384E 
 180      41D51B0D 
 180      A4A42772 
 180      4268
 181 07ac 1D6CA5D9 		.ascii	"\035l\245\331\237U\232\375t\0338J\227\266\316\317k\035"
 181      9F559AFD 
 181      741B384A 
 181      97B6CECF 
 181      6B1D
 182 07be A5A546B7 		.ascii	"\245\245F\267\310\305\322\332\230\235\277\305\017#\233"
 182      C8C5D2DA 
ARM GAS  /tmp/ccwwDfJk.s 			page 14


 182      989DBFC5 
 182      0F239B
 183 07cd 9A6223   		.ascii	"\232b#"
 184 07d0 6CEA65D7 		.ascii	"l\352e\327MY\000\036j<*\217\3265Mf\226A\223\301\022"
 184      4D59001E 
 184      6A3C2A8F 
 184      D6354D66 
 184      964193C1 
 185 07e5 CC262578 		.ascii	"\314&%x\365\346$\210l9\260\324\342;\202\330\271\303"
 185      F5E62488 
 185      6C39B0D4 
 185      E23B82D8 
 185      B9C3
 186 07f7 4AD5D543 		.ascii	"J\325\325C\325\275\336\253\352\322Z\272y']E\342\007"
 186      D5BDDEAB 
 186      EAD25ABA 
 186      79275D45 
 186      E207
 187 0809 F2642E13 		.ascii	"\362d.\023#\277<\272z\011\033F\325\021\375w\223\313"
 187      23BF3CBA 
 187      7A091B46 
 187      D511FD77 
 187      93CB
 188 081b 3F71DFD5 		.ascii	"?q\337\325z{+\220\321d\303\313h\021\015\031&\226\221"
 188      7A7B2B90 
 188      D164C3CB 
 188      68110D19 
 188      269691
 189 082e DA21CB22 		.ascii	"\332!\313\"msFn_YFZd\2425\327F\326\315T\235\272<S;\031"
 189      6D73466E 
 189      5F59465A 
 189      64A235D7 
 189      46D6CD54 
 190 0848 874D974F 		.ascii	"\207M\227O\252\012\023\362\361\354\022\033\236a-\265"
 190      AA0A13F2 
 190      F1EC121B 
 190      9E612DB5 
 191 0858 510BFFA7 		.ascii	"Q\013\377\247\315p\177\247\221!J\221\213\007\350\005"
 191      CD707FA7 
 191      91214A91 
 191      8B07E805 
 192 0868 C9BF69F1 		.ascii	"\311\277i\361\364\374\021\205G\326%\232\266\036\204"
 192      F4FC1185 
 192      47D6259A 
 192      B61E84
 193 0877 69AB6CA3 		.ascii	"i\253l\243\027\315\0107\330\030l\371<\225\\\334\370"
 193      17CD0837 
 193      D8186CF9 
 193      3C955CDC 
 193      F8
 194 0888 38E68619 		.ascii	"8\346\206\031\274\241F\312\326F\3369\270T\301\223\227"
 194      BCA146CA 
 194      D646DE39 
 194      B854C193 
 194      97
 195 0899 3FEBB2AC 		.ascii	"?\353\262\254\342\321\362u\314\243z\3649f\340\0362]"
 195      E2D1F275 
ARM GAS  /tmp/ccwwDfJk.s 			page 15


 195      CCA37AF4 
 195      3966E01E 
 195      325D
 196 08ab F789C566 		.ascii	"\367\211\305fT\3530\273~\231\303\257k\226C\370*\204"
 196      54EB30BB 
 196      7E99C3AF 
 196      6B9643F8 
 196      2A84
 197 08bd 3B20DC05 		.ascii	"; \334\005a+\204\355\020\036\206\360$\204\247!\374\022"
 197      612B84ED 
 197      101E86F0 
 197      2484A721 
 197      FC12
 198 08cf C2461B20 		.ascii	"\302F\033 @\370\012\204\177\201p\005\204\253H\3332\362"
 198      40F80A84 
 198      7F817005 
 198      84AB48DB 
 198      32F2
 199 08e1 839A4100 		.ascii	"\203\232A\000\222\312\206\273\260\206t\327\024#\007"
 199      92CA86BB 
 199      B08674D7 
 199      142307
 200 08f0 DA88958E 		.ascii	"\332\210\225\216\306,\326\"X^2\016\033\010\016\347\003"
 200      C62CD622 
 200      585E320E 
 200      1B080EE7 
 200      03
 201 0901 878DC0C3 		.ascii	"\207\215\300\303jRS\265\027\236\225\334\352\215U\210"
 201      6A5253B5 
 201      179E95DC 
 201      EA8D5588 
 202 0911 6EFD3CEA 		.ascii	"n\375<\352\\$E\246\331T5\026g\261\214qw\222\244#T8\271"
 202      5C2445A6 
 202      D9543516 
 202      67B18C71 
 202      7792A423 
 203 0928 2E683622 		.ascii	".h6\"\310\257\214\214\352\344\315D\337\244\326\207\225"
 203      C8AF8C8C 
 203      EAE4CD44 
 203      DFA4D687 
 203      95
 204 0939 B2935238 		.ascii	"\262\223R8\213\240p6P\370\022P\370:\230\314\033\264"
 204      8BA07036 
 204      50F81250 
 204      F83A98CC 
 204      1BB4
 205 094b 3B6ACED2 		.ascii	";j\316\322\274R\243\337_%)<\376\316\371\342!y\037\206"
 205      BC52A3DF 
 205      5F25293C 
 205      FECEF9E2 
 205      21791F86 
 206 095f 3A2E5DA9 		.ascii	":.]\251\205\264\266\256\0209\276$g\3373J?+\325Iw\276"
 206      85B4B6AE 
 206      1039BE24 
 206      67DF334A 
 206      3F2BD549 
 207 0975 96E812FA 		.ascii	"\226\350\022\372\251\331\361[a\345E\343\006\371E\343"
ARM GAS  /tmp/ccwwDfJk.s 			page 16


 207      A9D9F15B 
 207      61E545E3 
 207      06F945E3 
 208 0985 3A70606F 		.ascii	":p`od\351.'\244\206\211v4\2753\024\226\0236\002\320"
 208      64E92E27 
 208      A4868976 
 208      34BD3314 
 208      96133602 
 209 099a 3B1A209E 		.ascii	";\032 \236\265i:k\033\335Y\333\\\211\233X\314\306XK"
 209      B5693A6B 
 209      1BDD59DB 
 209      5C899B58 
 209      CCC6584B 
 210 09ae 8C7A442D 		.ascii	"\214zD-k\224\220z}2m\321=u?\304\353A\336\223\260\323"
 210      6B94907A 
 210      7D326DD1 
 210      3D753FC4 
 210      EB41DE93 
 211 09c4 4C3D5088 		.ascii	"L=P\210t=\\?\006\315\\\006k7\003f\330m\325F\032\227"
 211      743D5C3F 
 211      06CD5C06 
 211      6B370366 
 211      D86DD546 
 212 09da 2D37BB0F 		.ascii	"-7\273\017\2569n\201?JT\317\205\215\335\277\303+\006"
 212      AE396E81 
 212      3F4A54CF 
 212      858DDDBF 
 212      C32B06
 213 09ed 7A2F7CA8 		.ascii	"z/|\250\364<\373\276Mw\313\016\235\014'\334\256\031"
 213      F43CFBBE 
 213      4D77CB0E 
 213      9D0C27DC 
 213      AE19
 214 09ff 4B4416B5 		.ascii	"KD\026\265\303\236\235\355\246\006\022K\222\314JR\356"
 214      C39E9DED 
 214      A606124B 
 214      92CC4A52 
 214      EE
 215 0a10 6ADDB4F9 		.ascii	"j\335\264\371\324\010y\001\344C\030\017\355\314\266"
 215      D4087901 
 215      E443180F 
 215      EDCCB6
 216 0a1f F89A16CB 		.ascii	"\370\232\026\313\327\246\225\177\356A\220\277-\265\374"
 216      D7A6957F 
 216      EE4190BF 
 216      2DB5FC
 217 0a2e D3A6461A 		.ascii	"\323\246F\032\017\316O\214h\247&\035\321\242Y\006\354"
 217      0FCE4F8C 
 217      68A7261D 
 217      D1A25906 
 217      EC
 218 0a3f 6730333E 		.ascii	"g03>\335\017\232\264Y\037O)b5\311\343\221\217\241\025"
 218      DD0F9AB4 
 218      591F4F29 
 218      6235C9E3 
 218      918FA115 
 219 0a53 765806CB 		.ascii	"vX\006\313\323\323\230\351E\030\317\356\201\301\331"
ARM GAS  /tmp/ccwwDfJk.s 			page 17


 219      D3D398E9 
 219      4518CFEE 
 219      81C1D9
 220 0a62 47E013DB 		.ascii	"G\340\023\333\315t\243\273\310\351\304Q\020l{zZ\242"
 220      CD74A3BB 
 220      C8E9C451 
 220      106C7B7A 
 220      5AA2
 221 0a74 D68ACCF9 		.ascii	"\326\212\314\371\267:\023\032\263\033\0236m\356~LYl"
 221      B73A131A 
 221      B31B1336 
 221      6DEE7E4C 
 221      596C
 222 0a86 06F339A1 		.ascii	"\006\3639\241o>\311\267\202vj\315\247\373\000\230O\247"
 222      6F3EC9B7 
 222      82766ACD 
 222      A7FB0098 
 222      4FA7
 223 0a98 29F3B978 		.ascii	")\363\271x`\2762\224\222\253\352;\020\2413\355z\277"
 223      60BE3294 
 223      92ABEA3B 
 223      10A133ED 
 223      7ABF
 224 0aaa 7480A8F7 		.ascii	"t\200\250\367K\226\301\362(\260\313$\330u3`F];\002\273"
 224      4B96C1F2 
 224      28B0CB24 
 224      D8753360 
 224      465D3B02 
 225 0abf 4A824DC9 		.ascii	"J\202M\311\261\012\226\324\";\011\213<\014\026y\004"
 225      B10A96D4 
 225      223B098B 
 225      3C0C1679 
 225      04
 226 0ad0 2CF21884 		.ascii	",\362\030\204\237Bx\322\214u\036$\255\263.\307\252u"
 226      9F4278D2 
 226      8C751E24 
 226      ADB32EC7 
 226      AA75
 227 0ae2 12F48175 		.ascii	"\022\364\201u^\211/\245\311\356\377%3\210I\206G\353"
 227      5E892FA5 
 227      C9EEFF25 
 227      33884986 
 227      47EB
 228 0af4 F49CA5CC 		.ascii	"\364\234\245\314\251\221F]\244F\363-\227Oi\024\331\320"
 228      A991465D 
 228      A446F32D 
 228      974F6914 
 228      D9D0
 229 0b06 BE143658 		.ascii	"\276\0246X\252o\013\026k\361\364\026\213\223\274\354"
 229      AA6F0B16 
 229      6BF1F416 
 229      8B93BCEC 
 230 0b16 7BB73DFB 		.ascii	"{\267=\373\255gT\260f\313`\364\036\361\315$\330\032"
 230      AD6754B0 
 230      66CB60F4 
 230      1EF1CD24 
 230      D81A
ARM GAS  /tmp/ccwwDfJk.s 			page 18


 231 0b28 CB60FD7A 		.ascii	"\313`\375zY\225lO;\300\236v\202\015\035\200\3603\010"
 231      59956C4F 
 231      3BC09E76 
 231      820D1D80 
 231      F03308
 232 0b3b 4F43F805 		.ascii	"OC\370\005\204_B\3705=&\\\233\243\035\373\310=\"QB\242"
 232      845F42F8 
 232      353D265C 
 232      9BA31DFB 
 232      C83D2251 
 233 0b51 EB64D229 		.ascii	"\353d\322)\303\250\316[\310:\337\221cu\310A[qO\335\207"
 233      C3A8CE5B 
 233      C83ADF91 
 233      6375C841 
 233      5B714FDD 
 234 0b66 5FA823A2 		.ascii	"_\250#\242\026\230\216\266\231A\244\246\267t\255\257"
 234      16988EB6 
 234      9941A4A6 
 234      B774ADAF 
 235 0b76 3FA15DC1 		.ascii	"?\241]\301M\271\377$\356\260wW\310\016\373\0028\354"
 235      4DB9FF24 
 235      EEB07757 
 235      C80EFB02 
 235      38EC
 236 0b88 7D39291D 		.ascii	"}9)\0356\215\203\331\271\244u\330\237v\202\303\276d"
 236      368D83D9 
 236      B9A475D8 
 236      9F7682C3 
 236      BE64
 237 0b9a CA617777 		.ascii	"\312aww\322\016\3738\210p)m\207\375]'\341\026\243\226"
 237      D20EFB38 
 237      8870296D 
 237      87FD5D27 
 237      E116A396 
 238 0bae C1F228B0 		.ascii	"\301\362(\260\357I\260\323f\300\2228\354K$\330\227\226"
 238      EF49B0D3 
 238      66C09238 
 238      EC4B24D8 
 238      9796
 239 0bc0 C168C92E 		.ascii	"\301h\311.\223`\347\314\200\031\271\015\334\225\220"
 239      9360E7CC 
 239      8019B90D 
 239      DC9590
 240 0bcf 60DD96C1 		.ascii	"`\335\226\301h\311\256\223`\027\315\200\031\275IG`7"
 240      68C9AE93 
 240      6017CD80 
 240      19BD4947 
 240      6037
 241 0be1 12603C7B 		.ascii	"\022`<{\024&\244V\300h\311\352\217\022\222]1#Y\236\216"
 241      1426A456 
 241      C068C9EA 
 241      8F12925D 
 241      3123599E 
 242 0bf6 647A07D9 		.ascii	"dz\007\331\010x\266\007<\334e\360/W!\274\016\341\015"
 242      0878B607 
 242      3CDC65F0 
 242      2F5721BC 
ARM GAS  /tmp/ccwwDfJk.s 			page 19


 242      0EE10D
 243 0c09 08253B0E 		.ascii	"\010%;\016k!\234\006a\035\204\323\355&<\321w\244'\212"
 243      6B219C06 
 243      611D84D3 
 243      ED263CD1 
 243      77A4278A 
 244 0c1d 59F61B79 		.ascii	"Y\366\033y\311TH|\276\202\206\3770\260n\205m\275G!\254"
 244      C954487C 
 244      BE8286FF 
 244      30B06E85 
 244      6DBD4721 
 245 0c32 85C9FA74 		.ascii	"\205\311\372t\010\337\002E\336\206p3\204[!|\017\302"
 245      08DF0245 
 245      DE867033 
 245      845B217C 
 245      0FC2
 246 0c44 6F21EC36 		.ascii	"o!\3546\343X? 7\003O\355\203\325i\261\260\031\230\260"
 246      E3583F20 
 246      37034FED 
 246      83D569B1 
 246      B01998B0 
 247 0c58 15E458BB 		.ascii	"\025\344X\273\376r\212S\026O\360&c\216\231a\0310\217"
 247      FE728A53 
 247      164FF026 
 247      638E9961 
 247      19308F
 248 0c6b 048CBCD3 		.ascii	"\004\214\274\3236\233\352\235\347h\361\314\356\303V"
 248      369BEA9D 
 248      E768F1CC 
 248      EEC356
 249 0c7a F05A66CE 		.ascii	"\360Zf\316\267\3729\305.\374\362\266\336\216w\301/\355"
 249      B7FA39C5 
 249      2EFCF2B6 
 249      DE8E77C1 
 249      2FED
 250 0c8c 43FB6693 		.ascii	"C\373f\223\273\340\347\3315\273\340\217\311\237\367"
 250      BBE0E7D9 
 250      35BBE08F 
 250      C99FF7
 251 0c9b E0F8D4BB 		.ascii	"\340\370\324\273\340W\367\351\375y\317\273}\350]\360"
 251      E057F7E9 
 251      FD79CFBB 
 251      7DE85DF0 
 252 0cab 8ABA4937 		.ascii	"\212\272I7.$\244\340\331\371vX?\263\033mw\337e\231f"
 252      2E24A4E0 
 252      D9F97658 
 252      3FB31B6D 
 252      77DF6599 
 253 0cc0 7ADCD239 		.ascii	"z\334\3229\323\352W+s\341K\310%@\363\307\351\321\274"
 253      D3EA572B 
 253      73E14BC8 
 253      2540F3C7 
 253      E9D1BC
 254 0cd3 4C4BF335 		.ascii	"LK\3635\231\346e\246h>\256C\3637}\350\257\250\314\320"
 254      99E665A6 
 254      683EAE43 
 254      F3377DE8 
ARM GAS  /tmp/ccwwDfJk.s 			page 20


 254      AFA8CCD0 
 255 0ce7 BC8CA079 		.ascii	"\274\214\240y9\320\334lH\363\017\226i&7&\324FNZ\246"
 255      39D0DC6C 
 255      48F30F96 
 255      69263726 
 255      D4464E5A 
 256 0cfc 792DD0BC 		.ascii	"y-\320\274\022h\256\313M\213\346\325Z\232\227\310_\234"
 256      1268AECB 
 256      4D8BE6D5 
 256      5A9A97C8 
 256      5F9C
 257 0d0e AE364573 		.ascii	"\2566Escno\232W\346\322\337\231\231\241y5A\363\032\240"
 257      636E6F9A 
 257      57E6D2DF 
 257      9999A179 
 257      3541F31A 
 258 0d23 F975439A 		.ascii	"\371uC\232\337\315\265J\363\000\212\346\2366\2534\357"
 258      DFCDB54A 
 258      F3008AE6 
 258      9E36AB34 
 258      EF
 259 0d34 079AD702 		.ascii	"\007\232\327\002\315\333\322\243y\275\226\346-2\315"
 259      CDDBD2A3 
 259      79BD96E6 
 259      2D32CD
 260 0d43 EB4DD1FC 		.ascii	"\353M\321\374\261\016\315\307\022q\231fi^O\320\274\001"
 260      B10ECDC7 
 260      12719966 
 260      695E4FD0 
 260      BC01
 261 0d55 68DE6848 		.ascii	"h\336hH\363W\226i\316\243h\216\315|Q\361\365\370\023"
 261      F3579669 
 261      CEA3688E 
 261      CD7C51F1 
 261      F5F813
 262 0d68 5B9EDD04 		.ascii	"[\236\335\004\033\251\254\340\335\251!C\225<\002]\351"
 262      1BA9ACE0 
 262      DDA92143 
 262      953C025D 
 262      E9
 263 0d79 FBD089CE 		.ascii	"\373\320\211\316\202\236~6\204s \\\014\341\012\010\337"
 263      829E7E36 
 263      8473205C 
 263      0CE10A08 
 263      DF
 264 0d8a 82700B39 		.ascii	"\202p\0139\016\340\230\363\232\032T\277\211%\312i\241"
 264      0EE098F3 
 264      9A1A54BF 
 264      8925CA69 
 264      A1
 265 0d9b BEC849B3 		.ascii	"\276\310I\263$\243.z\013K\274\022\230\002\3577VZ\357"
 265      24A32E7A 
 265      0B4BBC12 
 265      9802EF37 
 265      565AEF
 266 0dae 51F50EF2 		.ascii	"Q\365\016\362\213w\236]\0054\275\006\302o\200p\263\231"
 266      8B779E5D 
ARM GAS  /tmp/ccwwDfJk.s 			page 21


 266      0534BD06 
 266      C26F8070 
 266      B399
 267 0dc0 CF895E49 		.ascii	"\317\211^I\210G\315\200\3723\3650sY\230+\357\375T\362"
 267      8847CD80 
 267      FA33F530 
 267      7359982B 
 267      EFFD54F2 
 268 0dd4 0F55F33B 		.ascii	"\017U\363;\225\374\357\331\373\303\035\265\367\001R"
 268      95FCEFD9 
 268      FBC31DB5 
 268      F70152
 269 0de3 1895D862 		.ascii	"\030\225\330bO\354/\315q%n2RH\272\315nI\322j5\177\256"
 269      4FEC2FCD 
 269      71256E32 
 269      5248BACD 
 269      6E49D26A 
 270 0dfa 92FF7DCB 		.ascii	"\222\377}\313\222~` i\237\024\222F\014$\325\231\015"
 270      927E6020 
 270      699F1492 
 270      460C24D5 
 270      990D
 271 0e0c 46E3CB77 		.ascii	"F\343\313w\003\031r\025\371\017\362\254r\207\035\317"
 271      03197215 
 271      F90FF2AC 
 271      72871DCF 
 272 0e1c 2AAF6A4C 		.ascii	"*\257jL8%\016\026\342C\273fV\331s\010f\2258>\365\254"
 272      38250E16 
 272      E243BB66 
 272      56D97308 
 272      6695383E 
 273 0e32 F2DA217A 		.ascii	"\362\332!zV9\275/\253`\2461\266\304\223\232C\304\324"
 273      5639BD2F 
 273      AB60A631 
 273      B6C4939A 
 273      43C4D4
 274 0e45 619665B0 		.ascii	"a\226e\260<\012\354\006\0116\307\014X\222Ye=9\335\232"
 274      3C0AEC06 
 274      0936C70C 
 274      58925965 
 274      3D39DD9A 
 275 0e59 67198C96 		.ascii	"g\031\214\226\254\201\004[`\006,\311\254r>\011\266\324"
 275      AC81045B 
 275      60062CC9 
 275      AC723E09 
 275      B6D4
 276 0e6b 32182D59 		.ascii	"2\030-Y\023\011\326l\006LoV\251w\220\246\206\246<\320"
 276      1309D66C 
 276      064C6F56 
 276      A97790A6 
 276      86A63CD0 
 277 0e7f CFEC06FF 		.ascii	"\317\354\006\377\270\007\302\217!l\207p?\204\007!\354"
 277      B807C28F 
 277      216C8770 
 277      3F840721 
 277      EC
 278 0e90 30E33DB7 		.ascii	"0\343=\267\333\251\227\334\346\267\351,\271v\345.y\023"
ARM GAS  /tmp/ccwwDfJk.s 			page 22


 278      DBA997DC 
 278      E6B7E92C 
 278      B976E52E 
 278      7913
 279 0ea2 78278CB3 		.ascii	"x'\214\263\217\365\325v\003il\323\271\203Y&5\237\212"
 279      8FF5D576 
 279      03696CD3 
 279      B9835926 
 279      359F8A
 280 0eb5 2E8A7D39 		.ascii	".\212}9\260q\252\324*\235\307\261?f\032\025\177\"\261"
 280      B071AAD4 
 280      2A9DC7B1 
 280      3F661A15 
 280      7F22B1
 281 0ec8 2274D046 		.ascii	"\"t\320F\312\034\263\377X\271\033mS\013}\202\323\264"
 281      CA1CB3FF 
 281      58B91B6D 
 281      530B7D82 
 281      D3B4
 282 0eda C55F322B 		.ascii	"\305_2+0\334\333\257I.e\004\200f\220\366;\014@U\014"
 282      30DCDBAF 
 282      492E6504 
 282      806690F6 
 282      3B0C4055 
 283 0eef E2C04246 		.ascii	"\342\300BF\221\023\211\355.^\370\2664\355\005\351F\354"
 283      911389ED 
 283      2E5EF8B6 
 283      34ED05E9 
 283      46EC
 284 0f01 395623A4 		.ascii	"9V#\244\301\347M\030\354\204\"\244M\236\234\230\177"
 284      C1E74D18 
 284      EC8422A4 
 284      4D9E9C98 
 284      7F
 285 0f12 D31A3B73 		.ascii	"\323\032;sv\245\262\001/\012\224\327\367\323R\276\321"
 285      76A5B201 
 285      2F0A94D7 
 285      F7D352BE 
 285      D1
 286 0f23 EACBD604 		.ascii	"\352\313\326\004S\014\356\313\027k\020U\230\317\355"
 286      530CEECB 
 286      176B1055 
 286      98CFED
 287 0f32 7A0C749D 		.ascii	"z\014t\235y\237]$}0M\212\305\236\323\326R\022\002\272"
 287      799F5D24 
 287      7D304D8A 
 287      C59ED3D6 
 287      521202BA 
 288 0f46 6802E42E 		.ascii	"h\002\344.Ry\320\254s\023\335M/\230\263vr\323f\034L"
 288      5279D0AC 
 288      7313DD4D 
 288      2F98B376 
 288      72D3661C 
 289 0f5b D900AD51 		.ascii	"\331\000\255Ql\205\201b_\351)\026Y\270\367E\211\255"
 289      6C858162 
 289      5FE92916 
 289      59B8F745 
ARM GAS  /tmp/ccwwDfJk.s 			page 23


 289      89AD
 290 0f6d 9F128DC5 		.ascii	"\237\022\215\305\3560\257\326\337\222\250\025\037\245"
 290      EE30AFD6 
 290      DF92A815 
 290      1FA5
 291 0f7b 68C45A6F 		.ascii	"h\304Zo \326\267\272|/\276\366\345\323i\360\335M\013"
 291      20D6B7BA 
 291      7C2FBEF6 
 291      E5D369F0 
 291      DD4D0B
 292 0f8e A6A17887 		.ascii	"\246\241x\207\201\223R\306\352\213f\015\304\235\332"
 292      819352C6 
 292      EA8B660D 
 292      C49DDA
 293 0f9d 053B5E   		.ascii	"\005;^"
 294 0fa0 AFD8D6CB 		.ascii	"\257\330\326\313\340\266\3335;g5\376\2046r\023\237?"
 294      E0B6DB35 
 294      3B6735FE 
 294      84367213 
 294      9F3F
 295 0fb2 77CC845D 		.ascii	"w\314\204]\011=`\340\255\275\312K\303\247\220U\322i"
 295      093D60E0 
 295      ADBDCA4B 
 295      C3A79055 
 295      D269
 296 0fc4 D7338E0E 		.ascii	"\3273\216\016\203Z\270\246[\013;?K\313\352\177\350\345"
 296      835AB8A6 
 296      5B0B3B3F 
 296      4BCBEA7F 
 296      E8E5
 297 0fd6 9B38E66B 		.ascii	"\2338\346k\203\202o\350\026|hU\333\250x\3012 \352P\373"
 297      83826FE8 
 297      167C6855 
 297      DBA878C1 
 297      3220EA50 
 298 0feb EB43480E 		.ascii	"\353CH\016=\210\253k\332~\327\013b\253\001D-\015\361"
 298      3D88AB6B 
 298      DA7ED70B 
 298      62AB0144 
 298      2D0DF1
 299 0ffe 33E6     		.ascii	"3\346"
 300 1000 150CB1A2 		.ascii	"\025\014\261\242e?7\005CH\327c1\226U\377\303\324\216"
 300      653F3705 
 300      4348D763 
 300      319655FF 
 300      C3D48E
 301 1013 388842C0 		.ascii	"8\210B\300Cto\316\263\323\022p\030j\337>\344\346O=\317"
 301      43746FCE 
 301      B3D31270 
 301      186ADF3E 
 301      E4E64F3D 
 302 1028 CE93909F 		.ascii	"\316\223\220\237\227\"\010\353\016\236\335\012XmZ\254"
 302      972208EB 
 302      0E9EDD0A 
 302      586D5AAC 
 303 1038 DEEF60EB 		.ascii	"\336\357`\353\024\260\373\230u\322\214\210d\223\263"
 303      14B0FB98 
ARM GAS  /tmp/ccwwDfJk.s 			page 24


 303      75D28C88 
 303      6493B3
 304 1047 CA738BFF 		.ascii	"\312s\213\377a\256J3\320\214\260\217\274|\247\310\335"
 304      61AE4A33 
 304      D08CB08F 
 304      BC7CA7C8 
 304      DD
 305 1058 53777A15 		.ascii	"Swz\025\333 5'\012\223\377\231\316~ma\364\277\316\301"
 305      DB203527 
 305      0A93FF99 
 305      CE7E6D61 
 305      F4BFCEC1 
 306 106c 85CDA488 		.ascii	"\205\315\244\210\220\247.\270\220\205\022R\241\373~"
 306      90A72EB8 
 306      90851252 
 306      A1FB7E
 307 107b 79354FD6 		.ascii	"y5O\326)\362\362)\227\324 A\307\205|\021\310\364\242"
 307      29F2F229 
 307      97D42041 
 307      C7857C11 
 307      C8F4A2
 308 108e 9DA34B78 		.ascii	"\235\243KxF-@\375'(/\332Im\006\253\031\361\277.\300"
 308      462D40FD 
 308      27282FDA 
 308      496D06AB 
 308      19F1BF2E 
 309 10a3 29F1FFF4 		.ascii	")\361\377\364\300B\236S\236\221m7\317\316`\344\377g"
 309      C0429E53 
 309      9E916D37 
 309      CFCE60E4 
 309      FF67
 310 10b5 80237A20 		.ascii	"\200#z \201\002\206\247T\312\314\363_\224\271\025~T"
 310      810286A7 
 310      54CACCF3 
 310      5F94B915 
 310      7E54
 311 10c7 97D3162B 		.ascii	"\227\323\026+\317\361u\037\345\031/\031\330\225\231"
 311      CFF1751F 
 311      E5192F19 
 311      D89599
 312 10d6 177EC673 		.ascii	"\027~\306s\333Le\016\366$\033\377\307NZ\367\201M\310"
 312      DB4C650E 
 312      F6241BFF 
 312      C74E5AF7 
 312      814DC8
 313 10e9 C8E45F72 		.ascii	"\310\344_rP\276@\223\263;I\3169\016\375\001\276\354"
 313      50BE4093 
 313      B33B49CE 
 313      390EFD01 
 313      BEEC
 314 10fb 658D72D5 		.ascii	"e\215r\325\033\346\352J\222k\256a\256\023Ir5$r1\031"
 314      1BE6EA4A 
 314      926BAE61 
 314      AE134972 
 314      35247231 
 315 1110 95BEF241 		.ascii	"\225\276\362A\025\214k\204\273\2600\344\237(\2042\036"
 315      158C6B84 
ARM GAS  /tmp/ccwwDfJk.s 			page 25


 315      BBB030E4 
 315      9F288432 
 315      1E
 316 1121 19353ACF 		.ascii	"\0315:\317\315d\243xoX\344E\301+f\241\037\275\243G\025"
 316      CD64A378 
 316      6F58E445 
 316      C12B66A1 
 316      1FBDA347 
 317 1136 8F2A2ECB 		.ascii	"\217*.\313\304\267\236\262\222\307!n\230\273\254\370"
 317      C4B79EB2 
 317      92C7216E 
 317      98BBACF8 
 318 1146 89220724 		.ascii	"\211\"\007$sx\037\016\006+]cx\337\370J\377\270\012\361"
 318      73781F0E 
 318      062B5D63 
 318      78DFF84A 
 318      FFB80AF1 
 319 115a BE4183F2 		.ascii	"\276A\203\362\345\277`8\277\202\257\314\257\016\206"
 319      E5BF6038 
 319      BF82AFCC 
 319      AF0E86
 320 1169 C470BEA7 		.ascii	"\304p\276\247l\344\275C\362G\214(\314/\036\342\236X"
 320      6CE4BD43 
 320      F2478C28 
 320      CC2F1EE2 
 320      9E58
 321 117b 807FF1FA 		.ascii	"\200\177\361\372\207\370\274\225\225 \006\212\224\305"
 321      87F8BC95 
 321      9520068A 
 321      94C5
 322 1189 F89936BB 		.ascii	"\370\2316\273?\340\253\234P.\250\031P\342,tQ%D\371T"
 322      3FE0AB9C 
 322      502EA819 
 322      50E22C74 
 322      512544F9 
 323 119e 09F12D96 		.ascii	"\011\361-\226\020cyK\213\206\025>\325\007\337\311\262"
 323      1063794B 
 323      8B86153E 
 323      D507DFC9 
 323      B2
 324 11af 7ACB9E24 		.ascii	"z\313\236$\237J\237\204\234#J\334\217\025\025f#\274"
 324      9F4A9F84 
 324      9C234ADC 
 324      8F151566 
 324      23BC
 325 11c1 607555B0 		.ascii	"`uU\260\034\003\226<>\262\244\260\310\213~\275U\271"
 325      1C03963C 
 325      3EB2A4B0 
 325      C88B7EBD 
 325      55B9
 326 11d3 F58C7C78 		.ascii	"\365\214|x\264\307[X\364D\261\273\250?\025\367h\211"
 326      B4C75B58 
 326      F444B1BB 
 326      A83F15F7 
 326      6889
 327 11e5 A7CC19AC 		.ascii	"\247\314\031\254\366\342\254\236\374\212`\225\220\377"
 327      F6E2AC9E 
ARM GAS  /tmp/ccwwDfJk.s 			page 26


 327      FC8A6095 
 327      90FF
 328 11f3 C709957E 		.ascii	"\307\011\225~>\220?\262\350\221a\371a\241J\010\213!"
 328      3E903FB2 
 328      E89161F9 
 328      61A14A08 
 328      8B21
 329 1205 C1EBAFC9 		.ascii	"\301\353\257\311/\252\032#\214\361\227#\235\370P\325"
 329      2FAA1A23 
 329      8CF19723 
 329      9DF850D5 
 330 1215 3D430617 		.ascii	"=C\006\027\334;\250\240\000\356\003\301\200p\217\300"
 330      DC3BA8A0 
 330      00EE03C1 
 330      80708FC0 
 331 1225 8FF1C735 		.ascii	"\217\361\3075\015\213\345\376\200\210\024\315\234\200"
 331      0D8BE5FE 
 331      808814CD 
 331      9C80
 332 1233 AEF70EF1 		.ascii	"\256\367\016\361\212\331\276\312\240o\2747\\-\010\345"
 332      8AD9BECA 
 332      A06FBC37 
 332      5C2D08E5 
 333 1243 B948DAF2 		.ascii	"\271H\332\362\011\342d\337d_%\0228\327SV\350-\034]\366"
 333      09E264DF 
 333      645F2512 
 333      38D75356 
 333      E82D1C5D 
 334 1258 94D7FD94 		.ascii	"\224\327\375\224{DQ\377\341\303<e\304\263w\310\217\264"
 334      7B4451FF 
 334      E1C33C65 
 334      C4B377C8 
 334      8FB4
 335 126a 31050F78 		.ascii	"1\005\017x\177\223\205\021\274\000\201\351r\007\003"
 335      7F938511 
 335      BC0081E9 
 335      720703
 336 1279 63FDE332 		.ascii	"c\375\3432|p\301\364\216\255\344\307\205\275b\206\020"
 336      7C70C1F4 
 336      8EADE4C7 
 336      85BD6286 
 336      10
 337 128a 0A0543E1 		.ascii	"\012\005C\341;\310:\011\211qA}\025Ub\015\222\323Y5A"
 337      3BC83A09 
 337      8971417D 
 337      1555620D 
 337      92D35935 
 338 129f 146ABC62 		.ascii	"\024j\274b\246\257\302\013\267?7\314\020\236\034\026"
 338      A6AFC20B 
 338      B73F37CC 
 338      109E1C16 
 339 12af 27570B61 		.ascii	"'W\013a\224\253\257X\021\022\370\362\260\367\331\011"
 339      94ABAF58 
 339      1112F8F2 
 339      B0F7D909 
 340 12bf C204A449 		.ascii	"\302\004\244I?\224\233\212\3123F\361U`\253\311\224\223"
 340      3F949B8A 
ARM GAS  /tmp/ccwwDfJk.s 			page 27


 340      CA3346F1 
 340      5560ABC9 
 340      9493
 341 12d1 7B45573C 		.ascii	"{EW<\253\003r\016%s\372\202UU\301\200b\206\303JG\272"
 341      AB03720E 
 341      2573FA82 
 341      5555C180 
 341      6286C34A 
 342 12e7 47D6E0B8 		.ascii	"G\326\340\270j\177\245\020\012\347?\342v#@U&\247X\035"
 342      6A7FA510 
 342      0AE73FE2 
 342      76234055 
 342      26A7581D 
 343 12fb F207BDA2 		.ascii	"\362\007\275\242\035_rp\026/\"\005i$\376*%d\205/\030"
 343      1D5F7270 
 343      162F2205 
 343      6924FE2A 
 343      2564852F 
 344 1310 12104636 		.ascii	"\022\020F6dC5\347\023k\3561\227\313;\361\327UX\237\220"
 344      644335E7 
 344      136BEE31 
 344      97CB3BF1 
 344      D755589F 
 345 1325 300E9984 		.ascii	"0\016\231\204W\344B\367q\241\373\271\320\003\\\350\327"
 345      57E442F7 
 345      71A1FBB9 
 345      D0035CE8 
 345      D7
 346 1336 5C682817 		.ascii	"\\h(\027\372\215-T0\030\235\005\\e\210\013W\333\020"
 346      FA8D2D54 
 346      30189D05 
 346      5C65880B 
 346      57DB10
 347 1349 B423204C 		.ascii	"\264# L\022B\216`e\271\020\262\373*\370\220=\300W\011"
 347      12428E60 
 347      65B910B2 
 347      FB2AF890 
 347      3DC05709 
 348 135d 5961713C 		.ascii	"Yaq<\217\332a\000\325\006\266\236\007\356C\2658\211"
 348      8FDA6100 
 348      D506B69E 
 348      07EE43B5 
 348      3889
 349 136f 1FC38785 		.ascii	"\037\303\207\205LQi4N\374\303Pt\025e\233w@m;\221\245"
 349      4C516934 
 349      4EFCC350 
 349      7415659B 
 349      77406D3B 
 350 1385 8E45756E 		.ascii	"\216Eun\307\027GUx\034J\240\230_F\250|2\212\310\024"
 350      C7174755 
 350      781C4AA0 
 350      985F46A8 
 350      7C328AC8 
 351 139a 6AFCA20F 		.ascii	"j\374\242\017e\311\230$\006\307\374\261\372\026\205"
 351      65C99824 
 351      06C7FCB1 
 351      FA1685
ARM GAS  /tmp/ccwwDfJk.s 			page 28


 352 13a9 7E944108 		.ascii	"~\224A\010\011\001\037\206\232$\212\241jgX\010\210("
 352      09011F86 
 352      9A248AA1 
 352      6A675808 
 352      8828
 353 13bb 430EAA16 		.ascii	"C\016\252\026\324\010\370\352\012\244\243\261\021\241"
 353      D408F8EA 
 353      0AA4A3B1 
 353      11A1
 354 13c9 24487987 		.ascii	"$Hy\207/ zE\033\012\021<\212\252F\027d^\325\331\302"
 354      2F207A45 
 354      1B0A113C 
 354      8AAA4617 
 354      645ED5D9 
 355 13de 448CC687 		.ascii	"D\214\306\207\307c{\234\204o\330\011\271\252\241T\372"
 355      C7637B9C 
 355      846FD809 
 355      B9AAA154 
 355      FA
 356 13ef C328575F 		.ascii	"\303(W_\302tp\214=\200j\3149\211\367\213\376\300\270"
 356      C274708C 
 356      3D806ACC 
 356      3989F78B 
 356      FEC0B8
 357 1402 4C240958 		.ascii	"L$\011XE\246P-\004P\323\032\347D\2708\031\342\233\257"
 357      45A6502D 
 357      0450D31A 
 357      E744B838 
 357      19E29BAF 
 358 1416 C435EDA8 		.ascii	"\3045\355\250\252F>\014U\2720\321\021\234\024@\264\202"
 358      AA463E0C 
 358      55BA30D1 
 358      119C1440 
 358      B482
 359 1428 1967C898 		.ascii	"\031g\310\230.\324 \370\362\362\220B)j?\242\035?\273"
 359      2ED420F8 
 359      F2F29042 
 359      296A3FA2 
 359      1D3FBB
 360 143b 4235E555 		.ascii	"B5\345U<\346\320%\252wCRy\277\302\221\303\220\367\013"
 360      3CE6D025 
 360      AA774352 
 360      79BFC291 
 360      C390F70B 
 361 144f 8B558858 		.ascii	"\213U\210X\224\007)\256g\254H\374|\367HO\261\007\345"
 361      940729AE 
 361      67AC48FC 
 361      7CF7484F 
 361      B107E5
 362 1462 94330F2F 		.ascii	"\2243\017/\250\251\221\263\215-\030<\270f\01464\204"
 362      A8A991B3 
 362      8D2D183C 
 362      B8660C36 
 362      3484
 363 1474 E52D4396 		.ascii	"\345-C\226[(\214\265\025{J\355\305\303\335\2456\004"
 363      5B288CB5 
 363      157B4AED 
ARM GAS  /tmp/ccwwDfJk.s 			page 29


 363      C5C3DDA5 
 363      3604
 364 1486 7A2BFEC1 		.ascii	"z+\376\301]\301\007\002Be<\201\333]\352p\217*,+\265"
 364      5DC10702 
 364      42653C81 
 364      DB5DEA70 
 364      8F2A2C2B 
 365 149b BB1F1F86 		.ascii	"\273\037\037\206\202\221\303J\235>9\215\303\207Yu\370"
 365      8291C34A 
 365      9D3E398D 
 365      C3875975 
 365      F8
 366 14ac C24265C8 		.ascii	"\302Be\310\021\256\360\217\025]\350v\254?P\2168\230"
 366      11AEF08F 
 366      155DE876 
 366      AC3F508E 
 366      3898
 367 14be 28F8C460 		.ascii	"(\370\304`\350\226\270\304^\354\322xd\244\016\364\020"
 367      E896B8C4 
 367      5EECD278 
 367      64A40EF4 
 367      10
 368 14cf AAC1A158 		.ascii	"\252\301\241X\223\215\275i\274\244\322\002t\016\261"
 368      938DBD69 
 368      BCA4D202 
 368      740EB1
 369 14de 970C2B2D 		.ascii	"\227\014+-\300\301\020\256\260\324\346A\221\236\322"
 369      C0C110AE 
 369      B0D4E641 
 369      919ED2
 370 14ed 218EB2D2 		.ascii	"!\216\262\322bO\221\0151jGgu\006\012|c\307\345\204+"
 370      624F910D 
 370      316A4767 
 370      75060A7C 
 370      63C7E584 
 371 1502 F98902E6 		.ascii	"\371\211\002\346T\010\207sp\017\344\233\020\012\007"
 371      54088773 
 371      700FE49B 
 371      100A07
 372 1511 11E3B9B8 		.ascii	"\021\343\271\270\273q\217.\365\224\224zK\206\017\357"
 372      BB718F2E 
 372      F594947A 
 372      4B860FEF 
 373 1521 433E8ECA 		.ascii	"C>\216\312\220S\345\342\014c*\375\201\361\250n\221\037"
 373      9053E5E2 
 373      0C632AFD 
 373      81F1A86E 
 373      911F
 374 1533 C1691E1E 		.ascii	"\301i\036\036Q<\352\261\342Q\217\340L}\351\210Q\231"
 374      513CEAB1 
 374      E2518FE0 
 374      4C7DE988 
 374      5199
 375 1545 6A5AC818 		.ascii	"jZ\310\030\026D\357\330 \266=\310\350)*\363\016/\031"
 375      1644EFD8 
 375      20B63DC8 
 375      E8292AF3 
ARM GAS  /tmp/ccwwDfJk.s 			page 30


 375      0E2F19
 376 1558 55E6BDFF 		.ascii	"U\346\275\377\311\241\3755\021\005\203\3558e_5\033\202"
 376      C9A1FD35 
 376      110583ED 
 376      38655F35 
 376      1B82
 377 156a 11508BE9 		.ascii	"\021P\213\351\243&+@e\024\345\252OC\360\223\307\001"
 377      A3262B40 
 377      6514E5AA 
 377      4F43F093 
 377      C701
 378 157c 8970372B 		.ascii	"\211p7+;\331\234G\036/.!\250\032\201\316Gm\305\210\241"
 378      3BD99C47 
 378      1E2F2E21 
 378      A81A81CE 
 378      476DC588 
 379 1591 92C252FB 		.ascii	"\222\302R\373\303\236\322R\333\303\245\245\366\021\356"
 379      C39ED252 
 379      DBC3A5A5 
 379      F611EE
 380 15a0 C74AEF4F 		.ascii	"\307J\357OeK\030J\351J\253\321)w\245\231\376\240\334"
 380      654B184A 
 380      E94AABD1 
 380      2977A599 
 380      FEA0DC
 381 15b3 AC9D55BC 		.ascii	"\254\235U\274?0\310\307\374\263a\303S\232\014\356\177"
 381      3F30C8C7 
 381      FCB361C3 
 381      539A0CEE 
 381      7F
 382 15c4 B15FF657 		.ascii	"\261_\366W\341\016\320WQVQ\356\251\024\204jL\317\357"
 382      E10ED057 
 382      515651EE 
 382      A914846A 
 382      4CCFEF
 383 15d7 437E51F0 		.ascii	"C~Q\360\210!\334\216\320\243G\344Cb\226?\210%\361#\307"
 383      8821DC8E 
 383      D0A347E4 
 383      4362963F 
 383      8825F123 
 384 15ec 9B23DFCA 		.ascii	"\233#\337\312\255\3636U\012L\316\270Pp\002\364\251N"
 384      ADF33655 
 384      0A4CCEB8 
 384      507002F4 
 384      A94E
 385 15fe 94AD38E0 		.ascii	"\224\2558\340\027\223\264\377\311 \202\257\30239\214"
 385      1793B4FF 
 385      C92082AF 
 385      C233398C 
 386 160e 53FE5392 		.ascii	"S\376S\222!\000\366\321\350\202\2239\360\320\245\000"
 386      2100F6D1 
 386      E8829339 
 386      F0D0A500 
 387 161e 8F639005 		.ascii	"\217c\220\0059\360\000\242\340\377\001\376\374\270\367"
 387      39F000A2 
 387      E0FF01FE 
 387      FCB8F7
ARM GAS  /tmp/ccwwDfJk.s 			page 31


 388              		.text
 389              		.section	.gnu.lto_.symtab.babfb0bfc4bb1908,"",%progbits
 390 0000 6D61696E 		.ascii	"main\000\000\000\000\000\000\000\000\000\000\000\000"
 390      00000000 
 390      00000000 
 390      00000000 
 391 0010 5A020000 		.ascii	"Z\002\000\000LCDD1\000\000\002\000\000\000\000\000\000"
 391      4C434444 
 391      31000002 
 391      00000000 
 391      0000
 392 0022 00000083 		.ascii	"\000\000\000\203\002\000\000I2CD1\000\000\002\000\000"
 392      02000049 
 392      32434431 
 392      00000200 
 392      00
 393 0033 00000000 		.ascii	"\000\000\000\000\000\000\000\211\002\000\000chThdSl"
 393      00000089 
 393      02000063 
 393      68546864 
 393      536C
 394 0045 65657000 		.ascii	"eep\000\000\002\000\000\000\000\000\000\000\000\000"
 394      00020000 
 394      00000000 
 394      000000
 395 0054 5D020000 		.ascii	"]\002\000\000lcdWriteString\000\000\002\000\000\000"
 395      6C636457 
 395      72697465 
 395      53747269 
 395      6E670000 
 396 006c 00000000 		.ascii	"\000\000\000\000\000\000d\002\000\000lcdStart\000\000"
 396      00006402 
 396      00006C63 
 396      64537461 
 396      72740000 
 397 0080 02000000 		.ascii	"\002\000\000\000\000\000\000\000\000\000k\002\000\000"
 397      00000000 
 397      00006B02 
 397      0000
 398 008e 5F70616C 		.ascii	"_pal_lld_setgroupmode\000\000\002\000\000\000\000\000"
 398      5F6C6C64 
 398      5F736574 
 398      67726F75 
 398      706D6F64 
 399 00ab 00000000 		.ascii	"\000\000\000\000p\002\000\000lcdInit\000\000\002\000"
 399      70020000 
 399      6C636449 
 399      6E697400 
 399      000200
 400 00be 00000000 		.ascii	"\000\000\000\000\000\000\000\000|\002\000\000chSysI"
 400      00000000 
 400      7C020000 
 400      63685379 
 400      7349
 401 00d0 6E697400 		.ascii	"nit\000\000\002\000\000\000\000\000\000\000\000\000"
 401      00020000 
 401      00000000 
ARM GAS  /tmp/ccwwDfJk.s 			page 32


 401      000000
 402 00df 7F020000 		.ascii	"\177\002\000\000halInit\000\000\002\000\000\000\000"
 402      68616C49 
 402      6E697400 
 402      00020000 
 402      0000
 403 00f1 00000000 		.ascii	"\000\000\000\000\000\201\002\000\000"
 403      00810200 
 403      00
 404              		.text
 405              		.section	.gnu.lto_.opts,"",%progbits
 406 0000 272D6D63 		.ascii	"'-mcpu=cortex-m3' '-mno-thumb-interwork' '-mthumb' "
 406      70753D63 
 406      6F727465 
 406      782D6D33 
 406      2720272D 
 407 0033 272D6767 		.ascii	"'-ggdb' '-O2' '-fomit-frame-pointer' '-falign-funct"
 407      64622720 
 407      272D4F32 
 407      2720272D 
 407      666F6D69 
 408 0066 696F6E73 		.ascii	"ions=16' '-ffunction-sections' '-fdata-sections' '-"
 408      3D313627 
 408      20272D66 
 408      66756E63 
 408      74696F6E 
 409 0099 666E6F2D 		.ascii	"fno-common' '-flto'\000"
 409      636F6D6D 
 409      6F6E2720 
 409      272D666C 
 409      746F2700 
 410              		.text
 411              		.cfi_sections	.debug_frame
 412              		.section	.text.startup.main,"ax",%progbits
 413              		.align	2
 414              		.p2align 4,,15
 415              		.global	main
 416              		.thumb
 417              		.thumb_func
 418              		.type	main, %function
 419              	main:
 420              	.LFB219:
 421              		.file 1 "main.c"
 422              		.loc 1 101 0
 423              		.cfi_startproc
 424              		@ Volatile: function does not return.
 425              		@ args = 0, pretend = 0, frame = 0
 426              		@ frame_needed = 0, uses_anonymous_args = 0
 427 0000 08B5     		push	{r3, lr}
 428              		.cfi_def_cfa_offset 8
 429              		.cfi_offset 3, -8
 430              		.cfi_offset 14, -4
 431              		.loc 1 110 0
 432 0002 FFF7FEFF 		bl	halInit
 433              	.LVL0:
 434              		.loc 1 111 0
 435 0006 FFF7FEFF 		bl	chSysInit
ARM GAS  /tmp/ccwwDfJk.s 			page 33


 436              	.LVL1:
 437              		.loc 1 113 0
 438 000a FFF7FEFF 		bl	lcdInit
 439              	.LVL2:
 440              		.loc 1 125 0
 441 000e 4FF44060 		mov	r0, #3072
 442 0012 C4F20100 		movt	r0, 16385
 443 0016 4021     		movs	r1, #64
 444 0018 1122     		movs	r2, #17
 445 001a FFF7FEFF 		bl	_pal_lld_setgroupmode
 446              	.LVL3:
 447              		.loc 1 126 0
 448 001e 4FF44060 		mov	r0, #3072
 449 0022 C4F20100 		movt	r0, 16385
 450 0026 8021     		movs	r1, #128
 451 0028 1122     		movs	r2, #17
 452 002a FFF7FEFF 		bl	_pal_lld_setgroupmode
 453              	.LVL4:
 454              	.L2:
 455              		.loc 1 129 0 discriminator 1
 456 002e 40F20000 		movw	r0, #:lower16:LCDD1
 457 0032 40F20001 		movw	r1, #:lower16:.LANCHOR0
 458 0036 C0F20000 		movt	r0, #:upper16:LCDD1
 459 003a C0F20001 		movt	r1, #:upper16:.LANCHOR0
 460 003e FFF7FEFF 		bl	lcdStart
 461              	.LVL5:
 462              		.loc 1 130 0 discriminator 1
 463 0042 40F20000 		movw	r0, #:lower16:LCDD1
 464 0046 40F20001 		movw	r1, #:lower16:.LC0
 465 004a C0F20000 		movt	r0, #:upper16:LCDD1
 466 004e C0F20001 		movt	r1, #:upper16:.LC0
 467 0052 0022     		movs	r2, #0
 468 0054 FFF7FEFF 		bl	lcdWriteString
 469              	.LVL6:
 470              		.loc 1 131 0 discriminator 1
 471 0058 40F20000 		movw	r0, #:lower16:LCDD1
 472 005c 40F20001 		movw	r1, #:lower16:.LC1
 473 0060 C0F20000 		movt	r0, #:upper16:LCDD1
 474 0064 C0F20001 		movt	r1, #:upper16:.LC1
 475 0068 2822     		movs	r2, #40
 476 006a FFF7FEFF 		bl	lcdWriteString
 477              	.LVL7:
 478              		.loc 1 132 0 discriminator 1
 479 006e 0A20     		movs	r0, #10
 480 0070 FFF7FEFF 		bl	chThdSleep
 481              	.LVL8:
 482 0074 DBE7     		b	.L2
 483              		.cfi_endproc
 484              	.LFE219:
 485              		.size	main, .-main
 486 0076 00BFAFF3 		.section	.rodata.str1.4,"aMS",%progbits,1
 486      0080AFF3 
 486      0080
 487              		.align	2
 488              	.LC0:
 489 0000 50726F66 		.ascii	"Profe pasenos\000"
 489      65207061 
ARM GAS  /tmp/ccwwDfJk.s 			page 34


 489      73656E6F 
 489      7300
 490 000e 0000     		.space	2
 491              	.LC1:
 492 0010 656E2035 		.ascii	"en 5.0\000"
 492      2E3000
 493 0017 00       		.section	.rodata.i2ccfg,"a",%progbits
 494              		.align	2
 495              		.type	i2ccfg, %object
 496              		.size	i2ccfg, 12
 497              	i2ccfg:
 498 0000 01       		.byte	1
 499 0001 000000   		.space	3
 500 0004 A0860100 		.word	100000
 501 0008 01       		.byte	1
 502 0009 000000   		.space	3
 503              		.section	.rodata.lcdcfg,"a",%progbits
 504              		.align	2
 505              		.set	.LANCHOR0,. + 0
 506              		.type	lcdcfg, %object
 507              		.size	lcdcfg, 16
 508              	lcdcfg:
 509 0000 00000000 		.word	I2CD1
 510 0004 00000000 		.word	i2ccfg
 511 0008 27       		.byte	39
 512 0009 00       		.byte	0
 513 000a 00       		.byte	0
 514 000b 04       		.byte	4
 515 000c 08       		.byte	8
 516 000d 01       		.byte	1
 517 000e 0000     		.space	2
 518              		.text
 519              	.Letext0:
 520              		.file 2 "/home/julian/MEGA/semestre_ix/Embebidos/arm-2013.11/arm-none-eabi/include/stdint.h"
 521              		.file 3 "../../../os/common/ports/ARMCMx/compilers/GCC/chtypes.h"
 522              		.file 4 "../../../os/rt/include/chsystypes.h"
 523              		.file 5 "../../../os/rt/include/chschd.h"
 524              		.file 6 "../../../os/common/ext/CMSIS/ST/STM32F1xx/stm32f100xb.h"
 525              		.file 7 "../../../os/common/ports/ARMCMx/chcore.h"
 526              		.file 8 "../../../os/common/ports/ARMCMx/chcore_v7m.h"
 527              		.file 9 "../../../os/rt/include/chsem.h"
 528              		.file 10 "../../../os/rt/include/chmtx.h"
 529              		.file 11 "../../../os/hal/ports/STM32/LLD/DMAv1/stm32_dma.h"
 530              		.file 12 "../../../os/hal/ports/STM32/LLD/GPIOv1/hal_pal_lld.h"
 531              		.file 13 "../../../os/hal/include/hal_i2c.h"
 532              		.file 14 "../../../os/hal/ports/STM32/LLD/I2Cv1/hal_i2c_lld.h"
 533              		.file 15 "lcd.h"
 534              		.file 16 "../../../os/common/ext/CMSIS/include/core_cm3.h"
 535              		.file 17 "../../../os/hal/include/hal.h"
 536              		.file 18 "../../../os/rt/include/chsys.h"
 537              		.file 19 "../../../os/rt/include/chthreads.h"
 538              		.section	.debug_info,"",%progbits
 539              	.Ldebug_info0:
 540 0000 630C0000 		.4byte	0xc63
 541 0004 0400     		.2byte	0x4
 542 0006 00000000 		.4byte	.Ldebug_abbrev0
 543 000a 04       		.byte	0x4
ARM GAS  /tmp/ccwwDfJk.s 			page 35


 544 000b 01       		.uleb128 0x1
 545 000c E6060000 		.4byte	.LASF174
 546 0010 01       		.byte	0x1
 547 0011 05030000 		.4byte	.LASF175
 548 0015 FE050000 		.4byte	.LASF176
 549 0019 00000000 		.4byte	.Ldebug_ranges0+0
 550 001d 00000000 		.4byte	0
 551 0021 00000000 		.4byte	.Ldebug_line0
 552 0025 02       		.uleb128 0x2
 553 0026 04       		.byte	0x4
 554 0027 05       		.byte	0x5
 555 0028 696E7400 		.ascii	"int\000"
 556 002c 03       		.uleb128 0x3
 557 002d 04       		.byte	0x4
 558 002e 07       		.byte	0x7
 559 002f 31020000 		.4byte	.LASF0
 560 0033 03       		.uleb128 0x3
 561 0034 01       		.byte	0x1
 562 0035 06       		.byte	0x6
 563 0036 31010000 		.4byte	.LASF1
 564 003a 04       		.uleb128 0x4
 565 003b B8070000 		.4byte	.LASF4
 566 003f 02       		.byte	0x2
 567 0040 2A       		.byte	0x2a
 568 0041 45000000 		.4byte	0x45
 569 0045 03       		.uleb128 0x3
 570 0046 01       		.byte	0x1
 571 0047 08       		.byte	0x8
 572 0048 F9040000 		.4byte	.LASF2
 573 004c 03       		.uleb128 0x3
 574 004d 02       		.byte	0x2
 575 004e 05       		.byte	0x5
 576 004f 4D030000 		.4byte	.LASF3
 577 0053 04       		.uleb128 0x4
 578 0054 44020000 		.4byte	.LASF5
 579 0058 02       		.byte	0x2
 580 0059 36       		.byte	0x36
 581 005a 5E000000 		.4byte	0x5e
 582 005e 03       		.uleb128 0x3
 583 005f 02       		.byte	0x2
 584 0060 07       		.byte	0x7
 585 0061 AA020000 		.4byte	.LASF6
 586 0065 04       		.uleb128 0x4
 587 0066 F1040000 		.4byte	.LASF7
 588 006a 02       		.byte	0x2
 589 006b 4F       		.byte	0x4f
 590 006c 70000000 		.4byte	0x70
 591 0070 03       		.uleb128 0x3
 592 0071 04       		.byte	0x4
 593 0072 05       		.byte	0x5
 594 0073 83010000 		.4byte	.LASF8
 595 0077 04       		.uleb128 0x4
 596 0078 A3050000 		.4byte	.LASF9
 597 007c 02       		.byte	0x2
 598 007d 50       		.byte	0x50
 599 007e 82000000 		.4byte	0x82
 600 0082 03       		.uleb128 0x3
ARM GAS  /tmp/ccwwDfJk.s 			page 36


 601 0083 04       		.byte	0x4
 602 0084 07       		.byte	0x7
 603 0085 59020000 		.4byte	.LASF10
 604 0089 03       		.uleb128 0x3
 605 008a 08       		.byte	0x8
 606 008b 05       		.byte	0x5
 607 008c 23010000 		.4byte	.LASF11
 608 0090 04       		.uleb128 0x4
 609 0091 35000000 		.4byte	.LASF12
 610 0095 02       		.byte	0x2
 611 0096 78       		.byte	0x78
 612 0097 9B000000 		.4byte	0x9b
 613 009b 03       		.uleb128 0x3
 614 009c 08       		.byte	0x8
 615 009d 07       		.byte	0x7
 616 009e 89000000 		.4byte	.LASF13
 617 00a2 04       		.uleb128 0x4
 618 00a3 1C030000 		.4byte	.LASF14
 619 00a7 03       		.byte	0x3
 620 00a8 3C       		.byte	0x3c
 621 00a9 3A000000 		.4byte	0x3a
 622 00ad 04       		.uleb128 0x4
 623 00ae 8C010000 		.4byte	.LASF15
 624 00b2 03       		.byte	0x3
 625 00b3 3D       		.byte	0x3d
 626 00b4 3A000000 		.4byte	0x3a
 627 00b8 04       		.uleb128 0x4
 628 00b9 64040000 		.4byte	.LASF16
 629 00bd 03       		.byte	0x3
 630 00be 3E       		.byte	0x3e
 631 00bf 3A000000 		.4byte	0x3a
 632 00c3 04       		.uleb128 0x4
 633 00c4 B4040000 		.4byte	.LASF17
 634 00c8 03       		.byte	0x3
 635 00c9 40       		.byte	0x40
 636 00ca 77000000 		.4byte	0x77
 637 00ce 04       		.uleb128 0x4
 638 00cf DE020000 		.4byte	.LASF18
 639 00d3 03       		.byte	0x3
 640 00d4 41       		.byte	0x41
 641 00d5 65000000 		.4byte	0x65
 642 00d9 04       		.uleb128 0x4
 643 00da 41030000 		.4byte	.LASF19
 644 00de 03       		.byte	0x3
 645 00df 43       		.byte	0x43
 646 00e0 77000000 		.4byte	0x77
 647 00e4 04       		.uleb128 0x4
 648 00e5 2B020000 		.4byte	.LASF20
 649 00e9 03       		.byte	0x3
 650 00ea 45       		.byte	0x45
 651 00eb 65000000 		.4byte	0x65
 652 00ef 04       		.uleb128 0x4
 653 00f0 5F060000 		.4byte	.LASF21
 654 00f4 04       		.byte	0x4
 655 00f5 35       		.byte	0x35
 656 00f6 53000000 		.4byte	0x53
 657 00fa 04       		.uleb128 0x4
ARM GAS  /tmp/ccwwDfJk.s 			page 37


 658 00fb 56060000 		.4byte	.LASF22
 659 00ff 04       		.byte	0x4
 660 0100 3F       		.byte	0x3f
 661 0101 05010000 		.4byte	0x105
 662 0105 05       		.uleb128 0x5
 663 0106 C8020000 		.4byte	.LASF40
 664 010a 44       		.byte	0x44
 665 010b 05       		.byte	0x5
 666 010c 9A       		.byte	0x9a
 667 010d E3010000 		.4byte	0x1e3
 668 0111 06       		.uleb128 0x6
 669 0112 8A020000 		.4byte	.LASF23
 670 0116 05       		.byte	0x5
 671 0117 9B       		.byte	0x9b
 672 0118 18020000 		.4byte	0x218
 673 011c 00       		.byte	0
 674 011d 06       		.uleb128 0x6
 675 011e 20040000 		.4byte	.LASF24
 676 0122 05       		.byte	0x5
 677 0123 9C       		.byte	0x9c
 678 0124 C3000000 		.4byte	0xc3
 679 0128 08       		.byte	0x8
 680 0129 07       		.uleb128 0x7
 681 012a 63747800 		.ascii	"ctx\000"
 682 012e 05       		.byte	0x5
 683 012f 9D       		.byte	0x9d
 684 0130 7E050000 		.4byte	0x57e
 685 0134 0C       		.byte	0xc
 686 0135 06       		.uleb128 0x6
 687 0136 62030000 		.4byte	.LASF25
 688 013a 05       		.byte	0x5
 689 013b 9F       		.byte	0x9f
 690 013c EE010000 		.4byte	0x1ee
 691 0140 10       		.byte	0x10
 692 0141 06       		.uleb128 0x6
 693 0142 F1050000 		.4byte	.LASF26
 694 0146 05       		.byte	0x5
 695 0147 A0       		.byte	0xa0
 696 0148 EE010000 		.4byte	0x1ee
 697 014c 14       		.byte	0x14
 698 014d 06       		.uleb128 0x6
 699 014e 85020000 		.4byte	.LASF27
 700 0152 05       		.byte	0x5
 701 0153 A7       		.byte	0xa7
 702 0154 E3060000 		.4byte	0x6e3
 703 0158 18       		.byte	0x18
 704 0159 06       		.uleb128 0x6
 705 015a E5050000 		.4byte	.LASF28
 706 015e 05       		.byte	0x5
 707 015f B0       		.byte	0xb0
 708 0160 F5060000 		.4byte	0x6f5
 709 0164 1C       		.byte	0x1c
 710 0165 06       		.uleb128 0x6
 711 0166 7D010000 		.4byte	.LASF29
 712 016a 05       		.byte	0x5
 713 016b B5       		.byte	0xb5
 714 016c AD000000 		.4byte	0xad
ARM GAS  /tmp/ccwwDfJk.s 			page 38


 715 0170 20       		.byte	0x20
 716 0171 06       		.uleb128 0x6
 717 0172 CA070000 		.4byte	.LASF30
 718 0176 05       		.byte	0x5
 719 0177 B9       		.byte	0xb9
 720 0178 A2000000 		.4byte	0xa2
 721 017c 21       		.byte	0x21
 722 017d 06       		.uleb128 0x6
 723 017e 8C040000 		.4byte	.LASF31
 724 0182 05       		.byte	0x5
 725 0183 BE       		.byte	0xbe
 726 0184 B8000000 		.4byte	0xb8
 727 0188 22       		.byte	0x22
 728 0189 08       		.uleb128 0x8
 729 018a 7500     		.ascii	"u\000"
 730 018c 05       		.byte	0x5
 731 018d 0F01     		.2byte	0x10f
 732 018f 18060000 		.4byte	0x618
 733 0193 24       		.byte	0x24
 734 0194 09       		.uleb128 0x9
 735 0195 F8010000 		.4byte	.LASF32
 736 0199 05       		.byte	0x5
 737 019a 1401     		.2byte	0x114
 738 019c F4010000 		.4byte	0x1f4
 739 01a0 28       		.byte	0x28
 740 01a1 09       		.uleb128 0x9
 741 01a2 6A010000 		.4byte	.LASF33
 742 01a6 05       		.byte	0x5
 743 01a7 1A01     		.2byte	0x11a
 744 01a9 18020000 		.4byte	0x218
 745 01ad 2C       		.byte	0x2c
 746 01ae 09       		.uleb128 0x9
 747 01af E4020000 		.4byte	.LASF34
 748 01b3 05       		.byte	0x5
 749 01b4 2001     		.2byte	0x120
 750 01b6 D9000000 		.4byte	0xd9
 751 01ba 34       		.byte	0x34
 752 01bb 09       		.uleb128 0x9
 753 01bc 0B080000 		.4byte	.LASF35
 754 01c0 05       		.byte	0x5
 755 01c1 2701     		.2byte	0x127
 756 01c3 DD060000 		.4byte	0x6dd
 757 01c7 38       		.byte	0x38
 758 01c8 09       		.uleb128 0x9
 759 01c9 75030000 		.4byte	.LASF36
 760 01cd 05       		.byte	0x5
 761 01ce 2B01     		.2byte	0x12b
 762 01d0 C3000000 		.4byte	0xc3
 763 01d4 3C       		.byte	0x3c
 764 01d5 09       		.uleb128 0x9
 765 01d6 90020000 		.4byte	.LASF37
 766 01da 05       		.byte	0x5
 767 01db 3201     		.2byte	0x132
 768 01dd CB020000 		.4byte	0x2cb
 769 01e1 40       		.byte	0x40
 770 01e2 00       		.byte	0
 771 01e3 04       		.uleb128 0x4
ARM GAS  /tmp/ccwwDfJk.s 			page 39


 772 01e4 A1030000 		.4byte	.LASF38
 773 01e8 04       		.byte	0x4
 774 01e9 44       		.byte	0x44
 775 01ea EE010000 		.4byte	0x1ee
 776 01ee 0A       		.uleb128 0xa
 777 01ef 04       		.byte	0x4
 778 01f0 FA000000 		.4byte	0xfa
 779 01f4 04       		.uleb128 0x4
 780 01f5 DF070000 		.4byte	.LASF39
 781 01f9 04       		.byte	0x4
 782 01fa 49       		.byte	0x49
 783 01fb FF010000 		.4byte	0x1ff
 784 01ff 05       		.uleb128 0x5
 785 0200 B3050000 		.4byte	.LASF41
 786 0204 04       		.byte	0x4
 787 0205 05       		.byte	0x5
 788 0206 88       		.byte	0x88
 789 0207 18020000 		.4byte	0x218
 790 020b 06       		.uleb128 0x6
 791 020c F7000000 		.4byte	.LASF42
 792 0210 05       		.byte	0x5
 793 0211 89       		.byte	0x89
 794 0212 EE010000 		.4byte	0x1ee
 795 0216 00       		.byte	0
 796 0217 00       		.byte	0
 797 0218 04       		.uleb128 0x4
 798 0219 89070000 		.4byte	.LASF43
 799 021d 04       		.byte	0x4
 800 021e 50       		.byte	0x50
 801 021f 23020000 		.4byte	0x223
 802 0223 05       		.uleb128 0x5
 803 0224 FC000000 		.4byte	.LASF44
 804 0228 08       		.byte	0x8
 805 0229 05       		.byte	0x5
 806 022a 8F       		.byte	0x8f
 807 022b 48020000 		.4byte	0x248
 808 022f 06       		.uleb128 0x6
 809 0230 F7000000 		.4byte	.LASF42
 810 0234 05       		.byte	0x5
 811 0235 90       		.byte	0x90
 812 0236 EE010000 		.4byte	0x1ee
 813 023a 00       		.byte	0
 814 023b 06       		.uleb128 0x6
 815 023c 3E000000 		.4byte	.LASF45
 816 0240 05       		.byte	0x5
 817 0241 91       		.byte	0x91
 818 0242 EE010000 		.4byte	0x1ee
 819 0246 04       		.byte	0x4
 820 0247 00       		.byte	0
 821 0248 04       		.uleb128 0x4
 822 0249 15000000 		.4byte	.LASF46
 823 024d 04       		.byte	0x4
 824 024e 57       		.byte	0x57
 825 024f 53020000 		.4byte	0x253
 826 0253 0B       		.uleb128 0xb
 827 0254 33030000 		.4byte	.LASF47
 828 0258 1C       		.byte	0x1c
ARM GAS  /tmp/ccwwDfJk.s 			page 40


 829 0259 05       		.byte	0x5
 830 025a 6A01     		.2byte	0x16a
 831 025c AF020000 		.4byte	0x2af
 832 0260 09       		.uleb128 0x9
 833 0261 8A020000 		.4byte	.LASF23
 834 0265 05       		.byte	0x5
 835 0266 6B01     		.2byte	0x16b
 836 0268 18020000 		.4byte	0x218
 837 026c 00       		.byte	0
 838 026d 09       		.uleb128 0x9
 839 026e 20040000 		.4byte	.LASF24
 840 0272 05       		.byte	0x5
 841 0273 6C01     		.2byte	0x16c
 842 0275 C3000000 		.4byte	0xc3
 843 0279 08       		.byte	0x8
 844 027a 08       		.uleb128 0x8
 845 027b 63747800 		.ascii	"ctx\000"
 846 027f 05       		.byte	0x5
 847 0280 6E01     		.2byte	0x16e
 848 0282 7E050000 		.4byte	0x57e
 849 0286 0C       		.byte	0xc
 850 0287 09       		.uleb128 0x9
 851 0288 62030000 		.4byte	.LASF25
 852 028c 05       		.byte	0x5
 853 028d 7101     		.2byte	0x171
 854 028f EE010000 		.4byte	0x1ee
 855 0293 10       		.byte	0x10
 856 0294 09       		.uleb128 0x9
 857 0295 F1050000 		.4byte	.LASF26
 858 0299 05       		.byte	0x5
 859 029a 7201     		.2byte	0x172
 860 029c EE010000 		.4byte	0x1ee
 861 02a0 14       		.byte	0x14
 862 02a1 09       		.uleb128 0x9
 863 02a2 37040000 		.4byte	.LASF48
 864 02a6 05       		.byte	0x5
 865 02a7 7501     		.2byte	0x175
 866 02a9 EE010000 		.4byte	0x1ee
 867 02ad 18       		.byte	0x18
 868 02ae 00       		.byte	0
 869 02af 04       		.uleb128 0x4
 870 02b0 69060000 		.4byte	.LASF49
 871 02b4 04       		.byte	0x4
 872 02b5 5C       		.byte	0x5c
 873 02b6 BA020000 		.4byte	0x2ba
 874 02ba 0A       		.uleb128 0xa
 875 02bb 04       		.byte	0x4
 876 02bc C0020000 		.4byte	0x2c0
 877 02c0 0C       		.uleb128 0xc
 878 02c1 CB020000 		.4byte	0x2cb
 879 02c5 0D       		.uleb128 0xd
 880 02c6 CB020000 		.4byte	0x2cb
 881 02ca 00       		.byte	0
 882 02cb 0E       		.uleb128 0xe
 883 02cc 04       		.byte	0x4
 884 02cd 04       		.uleb128 0x4
 885 02ce 91040000 		.4byte	.LASF50
ARM GAS  /tmp/ccwwDfJk.s 			page 41


 886 02d2 04       		.byte	0x4
 887 02d3 61       		.byte	0x61
 888 02d4 D8020000 		.4byte	0x2d8
 889 02d8 0B       		.uleb128 0xb
 890 02d9 B5060000 		.4byte	.LASF51
 891 02dd 14       		.byte	0x14
 892 02de 05       		.byte	0x5
 893 02df 4501     		.2byte	0x145
 894 02e1 27030000 		.4byte	0x327
 895 02e5 09       		.uleb128 0x9
 896 02e6 F7000000 		.4byte	.LASF42
 897 02ea 05       		.byte	0x5
 898 02eb 4601     		.2byte	0x146
 899 02ed FB060000 		.4byte	0x6fb
 900 02f1 00       		.byte	0
 901 02f2 09       		.uleb128 0x9
 902 02f3 3E000000 		.4byte	.LASF45
 903 02f7 05       		.byte	0x5
 904 02f8 4701     		.2byte	0x147
 905 02fa FB060000 		.4byte	0x6fb
 906 02fe 04       		.byte	0x4
 907 02ff 09       		.uleb128 0x9
 908 0300 28000000 		.4byte	.LASF52
 909 0304 05       		.byte	0x5
 910 0305 4801     		.2byte	0x148
 911 0307 EF000000 		.4byte	0xef
 912 030b 08       		.byte	0x8
 913 030c 09       		.uleb128 0x9
 914 030d 95010000 		.4byte	.LASF53
 915 0311 05       		.byte	0x5
 916 0312 4901     		.2byte	0x149
 917 0314 AF020000 		.4byte	0x2af
 918 0318 0C       		.byte	0xc
 919 0319 08       		.uleb128 0x8
 920 031a 70617200 		.ascii	"par\000"
 921 031e 05       		.byte	0x5
 922 031f 4B01     		.2byte	0x14b
 923 0321 CB020000 		.4byte	0x2cb
 924 0325 10       		.byte	0x10
 925 0326 00       		.byte	0
 926 0327 04       		.uleb128 0x4
 927 0328 C8000000 		.4byte	.LASF54
 928 032c 04       		.byte	0x4
 929 032d 66       		.byte	0x66
 930 032e 32030000 		.4byte	0x332
 931 0332 0B       		.uleb128 0xb
 932 0333 B4030000 		.4byte	.LASF55
 933 0337 0C       		.byte	0xc
 934 0338 05       		.byte	0x5
 935 0339 5501     		.2byte	0x155
 936 033b 74030000 		.4byte	0x374
 937 033f 09       		.uleb128 0x9
 938 0340 F7000000 		.4byte	.LASF42
 939 0344 05       		.byte	0x5
 940 0345 5601     		.2byte	0x156
 941 0347 FB060000 		.4byte	0x6fb
 942 034b 00       		.byte	0
ARM GAS  /tmp/ccwwDfJk.s 			page 42


 943 034c 09       		.uleb128 0x9
 944 034d 3E000000 		.4byte	.LASF45
 945 0351 05       		.byte	0x5
 946 0352 5801     		.2byte	0x158
 947 0354 FB060000 		.4byte	0x6fb
 948 0358 04       		.byte	0x4
 949 0359 09       		.uleb128 0x9
 950 035a 28000000 		.4byte	.LASF52
 951 035e 05       		.byte	0x5
 952 035f 5A01     		.2byte	0x15a
 953 0361 EF000000 		.4byte	0xef
 954 0365 08       		.byte	0x8
 955 0366 09       		.uleb128 0x9
 956 0367 21050000 		.4byte	.LASF56
 957 036b 05       		.byte	0x5
 958 036c 6201     		.2byte	0x162
 959 036e EF000000 		.4byte	0xef
 960 0372 0A       		.byte	0xa
 961 0373 00       		.byte	0
 962 0374 04       		.uleb128 0x4
 963 0375 4F000000 		.4byte	.LASF57
 964 0379 04       		.byte	0x4
 965 037a 6B       		.byte	0x6b
 966 037b 7F030000 		.4byte	0x37f
 967 037f 0B       		.uleb128 0xb
 968 0380 DB040000 		.4byte	.LASF58
 969 0384 04       		.byte	0x4
 970 0385 05       		.byte	0x5
 971 0386 7C01     		.2byte	0x17c
 972 0388 9A030000 		.4byte	0x39a
 973 038c 09       		.uleb128 0x9
 974 038d 72060000 		.4byte	.LASF59
 975 0391 05       		.byte	0x5
 976 0392 8401     		.2byte	0x184
 977 0394 01070000 		.4byte	0x701
 978 0398 00       		.byte	0
 979 0399 00       		.byte	0
 980 039a 04       		.uleb128 0x4
 981 039b F9020000 		.4byte	.LASF60
 982 039f 04       		.byte	0x4
 983 03a0 70       		.byte	0x70
 984 03a1 A5030000 		.4byte	0x3a5
 985 03a5 0B       		.uleb128 0xb
 986 03a6 31050000 		.4byte	.LASF61
 987 03aa 70       		.byte	0x70
 988 03ab 05       		.byte	0x5
 989 03ac 9C01     		.2byte	0x19c
 990 03ae E7030000 		.4byte	0x3e7
 991 03b2 09       		.uleb128 0x9
 992 03b3 B2070000 		.4byte	.LASF62
 993 03b7 05       		.byte	0x5
 994 03b8 A001     		.2byte	0x1a0
 995 03ba 48020000 		.4byte	0x248
 996 03be 00       		.byte	0
 997 03bf 09       		.uleb128 0x9
 998 03c0 63010000 		.4byte	.LASF63
 999 03c4 05       		.byte	0x5
ARM GAS  /tmp/ccwwDfJk.s 			page 43


 1000 03c5 A401     		.2byte	0x1a4
 1001 03c7 27030000 		.4byte	0x327
 1002 03cb 1C       		.byte	0x1c
 1003 03cc 08       		.uleb128 0x8
 1004 03cd 64626700 		.ascii	"dbg\000"
 1005 03d1 05       		.byte	0x5
 1006 03d2 A801     		.2byte	0x1a8
 1007 03d4 74030000 		.4byte	0x374
 1008 03d8 28       		.byte	0x28
 1009 03d9 09       		.uleb128 0x9
 1010 03da B5000000 		.4byte	.LASF64
 1011 03de 05       		.byte	0x5
 1012 03df AC01     		.2byte	0x1ac
 1013 03e1 FA000000 		.4byte	0xfa
 1014 03e5 2C       		.byte	0x2c
 1015 03e6 00       		.byte	0
 1016 03e7 03       		.uleb128 0x3
 1017 03e8 04       		.byte	0x4
 1018 03e9 07       		.byte	0x7
 1019 03ea 98030000 		.4byte	.LASF65
 1020 03ee 0F       		.uleb128 0xf
 1021 03ef 77000000 		.4byte	0x77
 1022 03f3 10       		.uleb128 0x10
 1023 03f4 10       		.byte	0x10
 1024 03f5 06       		.byte	0x6
 1025 03f6 1801     		.2byte	0x118
 1026 03f8 31040000 		.4byte	0x431
 1027 03fc 08       		.uleb128 0x8
 1028 03fd 43435200 		.ascii	"CCR\000"
 1029 0401 06       		.byte	0x6
 1030 0402 1A01     		.2byte	0x11a
 1031 0404 EE030000 		.4byte	0x3ee
 1032 0408 00       		.byte	0
 1033 0409 09       		.uleb128 0x9
 1034 040a A7070000 		.4byte	.LASF66
 1035 040e 06       		.byte	0x6
 1036 040f 1B01     		.2byte	0x11b
 1037 0411 EE030000 		.4byte	0x3ee
 1038 0415 04       		.byte	0x4
 1039 0416 09       		.uleb128 0x9
 1040 0417 54020000 		.4byte	.LASF67
 1041 041b 06       		.byte	0x6
 1042 041c 1C01     		.2byte	0x11c
 1043 041e EE030000 		.4byte	0x3ee
 1044 0422 08       		.byte	0x8
 1045 0423 09       		.uleb128 0x9
 1046 0424 AD070000 		.4byte	.LASF68
 1047 0428 06       		.byte	0x6
 1048 0429 1D01     		.2byte	0x11d
 1049 042b EE030000 		.4byte	0x3ee
 1050 042f 0C       		.byte	0xc
 1051 0430 00       		.byte	0
 1052 0431 11       		.uleb128 0x11
 1053 0432 45040000 		.4byte	.LASF69
 1054 0436 06       		.byte	0x6
 1055 0437 1E01     		.2byte	0x11e
 1056 0439 F3030000 		.4byte	0x3f3
ARM GAS  /tmp/ccwwDfJk.s 			page 44


 1057 043d 10       		.uleb128 0x10
 1058 043e 08       		.byte	0x8
 1059 043f 06       		.byte	0x6
 1060 0440 2001     		.2byte	0x120
 1061 0442 61040000 		.4byte	0x461
 1062 0446 08       		.uleb128 0x8
 1063 0447 49535200 		.ascii	"ISR\000"
 1064 044b 06       		.byte	0x6
 1065 044c 2201     		.2byte	0x122
 1066 044e EE030000 		.4byte	0x3ee
 1067 0452 00       		.byte	0
 1068 0453 09       		.uleb128 0x9
 1069 0454 E0050000 		.4byte	.LASF70
 1070 0458 06       		.byte	0x6
 1071 0459 2301     		.2byte	0x123
 1072 045b EE030000 		.4byte	0x3ee
 1073 045f 04       		.byte	0x4
 1074 0460 00       		.byte	0
 1075 0461 11       		.uleb128 0x11
 1076 0462 1F020000 		.4byte	.LASF71
 1077 0466 06       		.byte	0x6
 1078 0467 2401     		.2byte	0x124
 1079 0469 3D040000 		.4byte	0x43d
 1080 046d 10       		.uleb128 0x10
 1081 046e 1C       		.byte	0x1c
 1082 046f 06       		.byte	0x6
 1083 0470 5B01     		.2byte	0x15b
 1084 0472 D2040000 		.4byte	0x4d2
 1085 0476 08       		.uleb128 0x8
 1086 0477 43524C00 		.ascii	"CRL\000"
 1087 047b 06       		.byte	0x6
 1088 047c 5D01     		.2byte	0x15d
 1089 047e EE030000 		.4byte	0x3ee
 1090 0482 00       		.byte	0
 1091 0483 08       		.uleb128 0x8
 1092 0484 43524800 		.ascii	"CRH\000"
 1093 0488 06       		.byte	0x6
 1094 0489 5E01     		.2byte	0x15e
 1095 048b EE030000 		.4byte	0x3ee
 1096 048f 04       		.byte	0x4
 1097 0490 08       		.uleb128 0x8
 1098 0491 49445200 		.ascii	"IDR\000"
 1099 0495 06       		.byte	0x6
 1100 0496 5F01     		.2byte	0x15f
 1101 0498 EE030000 		.4byte	0x3ee
 1102 049c 08       		.byte	0x8
 1103 049d 08       		.uleb128 0x8
 1104 049e 4F445200 		.ascii	"ODR\000"
 1105 04a2 06       		.byte	0x6
 1106 04a3 6001     		.2byte	0x160
 1107 04a5 EE030000 		.4byte	0x3ee
 1108 04a9 0C       		.byte	0xc
 1109 04aa 09       		.uleb128 0x9
 1110 04ab 46010000 		.4byte	.LASF72
 1111 04af 06       		.byte	0x6
 1112 04b0 6101     		.2byte	0x161
 1113 04b2 EE030000 		.4byte	0x3ee
ARM GAS  /tmp/ccwwDfJk.s 			page 45


 1114 04b6 10       		.byte	0x10
 1115 04b7 08       		.uleb128 0x8
 1116 04b8 42525200 		.ascii	"BRR\000"
 1117 04bc 06       		.byte	0x6
 1118 04bd 6201     		.2byte	0x162
 1119 04bf EE030000 		.4byte	0x3ee
 1120 04c3 14       		.byte	0x14
 1121 04c4 09       		.uleb128 0x9
 1122 04c5 80020000 		.4byte	.LASF73
 1123 04c9 06       		.byte	0x6
 1124 04ca 6301     		.2byte	0x163
 1125 04cc EE030000 		.4byte	0x3ee
 1126 04d0 18       		.byte	0x18
 1127 04d1 00       		.byte	0
 1128 04d2 11       		.uleb128 0x11
 1129 04d3 6B020000 		.4byte	.LASF74
 1130 04d7 06       		.byte	0x6
 1131 04d8 6401     		.2byte	0x164
 1132 04da 6D040000 		.4byte	0x46d
 1133 04de 10       		.uleb128 0x10
 1134 04df 24       		.byte	0x24
 1135 04e0 06       		.byte	0x6
 1136 04e1 7601     		.2byte	0x176
 1137 04e3 5C050000 		.4byte	0x55c
 1138 04e7 08       		.uleb128 0x8
 1139 04e8 43523100 		.ascii	"CR1\000"
 1140 04ec 06       		.byte	0x6
 1141 04ed 7801     		.2byte	0x178
 1142 04ef EE030000 		.4byte	0x3ee
 1143 04f3 00       		.byte	0
 1144 04f4 08       		.uleb128 0x8
 1145 04f5 43523200 		.ascii	"CR2\000"
 1146 04f9 06       		.byte	0x6
 1147 04fa 7901     		.2byte	0x179
 1148 04fc EE030000 		.4byte	0x3ee
 1149 0500 04       		.byte	0x4
 1150 0501 09       		.uleb128 0x9
 1151 0502 C0070000 		.4byte	.LASF75
 1152 0506 06       		.byte	0x6
 1153 0507 7A01     		.2byte	0x17a
 1154 0509 EE030000 		.4byte	0x3ee
 1155 050d 08       		.byte	0x8
 1156 050e 09       		.uleb128 0x9
 1157 050f C5070000 		.4byte	.LASF76
 1158 0513 06       		.byte	0x6
 1159 0514 7B01     		.2byte	0x17b
 1160 0516 EE030000 		.4byte	0x3ee
 1161 051a 0C       		.byte	0xc
 1162 051b 08       		.uleb128 0x8
 1163 051c 445200   		.ascii	"DR\000"
 1164 051f 06       		.byte	0x6
 1165 0520 7C01     		.2byte	0x17c
 1166 0522 EE030000 		.4byte	0x3ee
 1167 0526 10       		.byte	0x10
 1168 0527 08       		.uleb128 0x8
 1169 0528 53523100 		.ascii	"SR1\000"
 1170 052c 06       		.byte	0x6
ARM GAS  /tmp/ccwwDfJk.s 			page 46


 1171 052d 7D01     		.2byte	0x17d
 1172 052f EE030000 		.4byte	0x3ee
 1173 0533 14       		.byte	0x14
 1174 0534 08       		.uleb128 0x8
 1175 0535 53523200 		.ascii	"SR2\000"
 1176 0539 06       		.byte	0x6
 1177 053a 7E01     		.2byte	0x17e
 1178 053c EE030000 		.4byte	0x3ee
 1179 0540 18       		.byte	0x18
 1180 0541 08       		.uleb128 0x8
 1181 0542 43435200 		.ascii	"CCR\000"
 1182 0546 06       		.byte	0x6
 1183 0547 7F01     		.2byte	0x17f
 1184 0549 EE030000 		.4byte	0x3ee
 1185 054d 1C       		.byte	0x1c
 1186 054e 09       		.uleb128 0x9
 1187 054f 76000000 		.4byte	.LASF77
 1188 0553 06       		.byte	0x6
 1189 0554 8001     		.2byte	0x180
 1190 0556 EE030000 		.4byte	0x3ee
 1191 055a 20       		.byte	0x20
 1192 055b 00       		.byte	0
 1193 055c 11       		.uleb128 0x11
 1194 055d EE070000 		.4byte	.LASF78
 1195 0561 06       		.byte	0x6
 1196 0562 8101     		.2byte	0x181
 1197 0564 DE040000 		.4byte	0x4de
 1198 0568 04       		.uleb128 0x4
 1199 0569 D3010000 		.4byte	.LASF79
 1200 056d 07       		.byte	0x7
 1201 056e 65       		.byte	0x65
 1202 056f CB020000 		.4byte	0x2cb
 1203 0573 04       		.uleb128 0x4
 1204 0574 57030000 		.4byte	.LASF80
 1205 0578 07       		.byte	0x7
 1206 0579 6D       		.byte	0x6d
 1207 057a 90000000 		.4byte	0x90
 1208 057e 05       		.uleb128 0x5
 1209 057f E7030000 		.4byte	.LASF81
 1210 0583 04       		.byte	0x4
 1211 0584 07       		.byte	0x7
 1212 0585 89       		.byte	0x89
 1213 0586 96050000 		.4byte	0x596
 1214 058a 07       		.uleb128 0x7
 1215 058b 737000   		.ascii	"sp\000"
 1216 058e 07       		.byte	0x7
 1217 058f 8A       		.byte	0x8a
 1218 0590 12060000 		.4byte	0x612
 1219 0594 00       		.byte	0
 1220 0595 00       		.byte	0
 1221 0596 0B       		.uleb128 0xb
 1222 0597 43000000 		.4byte	.LASF82
 1223 059b 24       		.byte	0x24
 1224 059c 08       		.byte	0x8
 1225 059d 5901     		.2byte	0x159
 1226 059f 12060000 		.4byte	0x612
 1227 05a3 08       		.uleb128 0x8
ARM GAS  /tmp/ccwwDfJk.s 			page 47


 1228 05a4 723400   		.ascii	"r4\000"
 1229 05a7 08       		.byte	0x8
 1230 05a8 6C01     		.2byte	0x16c
 1231 05aa 68050000 		.4byte	0x568
 1232 05ae 00       		.byte	0
 1233 05af 08       		.uleb128 0x8
 1234 05b0 723500   		.ascii	"r5\000"
 1235 05b3 08       		.byte	0x8
 1236 05b4 6D01     		.2byte	0x16d
 1237 05b6 68050000 		.4byte	0x568
 1238 05ba 04       		.byte	0x4
 1239 05bb 08       		.uleb128 0x8
 1240 05bc 723600   		.ascii	"r6\000"
 1241 05bf 08       		.byte	0x8
 1242 05c0 6E01     		.2byte	0x16e
 1243 05c2 68050000 		.4byte	0x568
 1244 05c6 08       		.byte	0x8
 1245 05c7 08       		.uleb128 0x8
 1246 05c8 723700   		.ascii	"r7\000"
 1247 05cb 08       		.byte	0x8
 1248 05cc 6F01     		.2byte	0x16f
 1249 05ce 68050000 		.4byte	0x568
 1250 05d2 0C       		.byte	0xc
 1251 05d3 08       		.uleb128 0x8
 1252 05d4 723800   		.ascii	"r8\000"
 1253 05d7 08       		.byte	0x8
 1254 05d8 7001     		.2byte	0x170
 1255 05da 68050000 		.4byte	0x568
 1256 05de 10       		.byte	0x10
 1257 05df 08       		.uleb128 0x8
 1258 05e0 723900   		.ascii	"r9\000"
 1259 05e3 08       		.byte	0x8
 1260 05e4 7101     		.2byte	0x171
 1261 05e6 68050000 		.4byte	0x568
 1262 05ea 14       		.byte	0x14
 1263 05eb 08       		.uleb128 0x8
 1264 05ec 72313000 		.ascii	"r10\000"
 1265 05f0 08       		.byte	0x8
 1266 05f1 7201     		.2byte	0x172
 1267 05f3 68050000 		.4byte	0x568
 1268 05f7 18       		.byte	0x18
 1269 05f8 08       		.uleb128 0x8
 1270 05f9 72313100 		.ascii	"r11\000"
 1271 05fd 08       		.byte	0x8
 1272 05fe 7301     		.2byte	0x173
 1273 0600 68050000 		.4byte	0x568
 1274 0604 1C       		.byte	0x1c
 1275 0605 08       		.uleb128 0x8
 1276 0606 6C7200   		.ascii	"lr\000"
 1277 0609 08       		.byte	0x8
 1278 060a 7401     		.2byte	0x174
 1279 060c 68050000 		.4byte	0x568
 1280 0610 20       		.byte	0x20
 1281 0611 00       		.byte	0
 1282 0612 0A       		.uleb128 0xa
 1283 0613 04       		.byte	0x4
 1284 0614 96050000 		.4byte	0x596
ARM GAS  /tmp/ccwwDfJk.s 			page 48


 1285 0618 12       		.uleb128 0x12
 1286 0619 04       		.byte	0x4
 1287 061a 05       		.byte	0x5
 1288 061b D2       		.byte	0xd2
 1289 061c 7B060000 		.4byte	0x67b
 1290 0620 13       		.uleb128 0x13
 1291 0621 2E000000 		.4byte	.LASF83
 1292 0625 05       		.byte	0x5
 1293 0626 D9       		.byte	0xd9
 1294 0627 CE000000 		.4byte	0xce
 1295 062b 13       		.uleb128 0x13
 1296 062c A5000000 		.4byte	.LASF84
 1297 0630 05       		.byte	0x5
 1298 0631 E0       		.byte	0xe0
 1299 0632 CE000000 		.4byte	0xce
 1300 0636 13       		.uleb128 0x13
 1301 0637 D0070000 		.4byte	.LASF85
 1302 063b 05       		.byte	0x5
 1303 063c E7       		.byte	0xe7
 1304 063d CB020000 		.4byte	0x2cb
 1305 0641 13       		.uleb128 0x13
 1306 0642 22000000 		.4byte	.LASF86
 1307 0646 05       		.byte	0x5
 1308 0647 EE       		.byte	0xee
 1309 0648 7B060000 		.4byte	0x67b
 1310 064c 13       		.uleb128 0x13
 1311 064d C0000000 		.4byte	.LASF87
 1312 0651 05       		.byte	0x5
 1313 0652 F3       		.byte	0xf3
 1314 0653 CE000000 		.4byte	0xce
 1315 0657 13       		.uleb128 0x13
 1316 0658 4D020000 		.4byte	.LASF88
 1317 065c 05       		.byte	0x5
 1318 065d FC       		.byte	0xfc
 1319 065e A6060000 		.4byte	0x6a6
 1320 0662 14       		.uleb128 0x14
 1321 0663 AC050000 		.4byte	.LASF89
 1322 0667 05       		.byte	0x5
 1323 0668 0501     		.2byte	0x105
 1324 066a DD060000 		.4byte	0x6dd
 1325 066e 14       		.uleb128 0x14
 1326 066f 2A050000 		.4byte	.LASF90
 1327 0673 05       		.byte	0x5
 1328 0674 0D01     		.2byte	0x10d
 1329 0676 D9000000 		.4byte	0xd9
 1330 067a 00       		.byte	0
 1331 067b 0A       		.uleb128 0xa
 1332 067c 04       		.byte	0x4
 1333 067d E3010000 		.4byte	0x1e3
 1334 0681 05       		.uleb128 0x5
 1335 0682 55050000 		.4byte	.LASF91
 1336 0686 0C       		.byte	0xc
 1337 0687 09       		.byte	0x9
 1338 0688 34       		.byte	0x34
 1339 0689 A6060000 		.4byte	0x6a6
 1340 068d 06       		.uleb128 0x6
 1341 068e 8A020000 		.4byte	.LASF23
ARM GAS  /tmp/ccwwDfJk.s 			page 49


 1342 0692 09       		.byte	0x9
 1343 0693 35       		.byte	0x35
 1344 0694 18020000 		.4byte	0x218
 1345 0698 00       		.byte	0
 1346 0699 07       		.uleb128 0x7
 1347 069a 636E7400 		.ascii	"cnt\000"
 1348 069e 09       		.byte	0x9
 1349 069f 37       		.byte	0x37
 1350 06a0 E4000000 		.4byte	0xe4
 1351 06a4 08       		.byte	0x8
 1352 06a5 00       		.byte	0
 1353 06a6 0A       		.uleb128 0xa
 1354 06a7 04       		.byte	0x4
 1355 06a8 81060000 		.4byte	0x681
 1356 06ac 05       		.uleb128 0x5
 1357 06ad 99070000 		.4byte	.LASF92
 1358 06b1 10       		.byte	0x10
 1359 06b2 0A       		.byte	0xa
 1360 06b3 39       		.byte	0x39
 1361 06b4 DD060000 		.4byte	0x6dd
 1362 06b8 06       		.uleb128 0x6
 1363 06b9 8A020000 		.4byte	.LASF23
 1364 06bd 0A       		.byte	0xa
 1365 06be 3A       		.byte	0x3a
 1366 06bf 18020000 		.4byte	0x218
 1367 06c3 00       		.byte	0
 1368 06c4 06       		.uleb128 0x6
 1369 06c5 C3050000 		.4byte	.LASF93
 1370 06c9 0A       		.byte	0xa
 1371 06ca 3C       		.byte	0x3c
 1372 06cb EE010000 		.4byte	0x1ee
 1373 06cf 08       		.byte	0x8
 1374 06d0 06       		.uleb128 0x6
 1375 06d1 F7000000 		.4byte	.LASF42
 1376 06d5 0A       		.byte	0xa
 1377 06d6 3E       		.byte	0x3e
 1378 06d7 11070000 		.4byte	0x711
 1379 06db 0C       		.byte	0xc
 1380 06dc 00       		.byte	0
 1381 06dd 0A       		.uleb128 0xa
 1382 06de 04       		.byte	0x4
 1383 06df AC060000 		.4byte	0x6ac
 1384 06e3 0A       		.uleb128 0xa
 1385 06e4 04       		.byte	0x4
 1386 06e5 E9060000 		.4byte	0x6e9
 1387 06e9 15       		.uleb128 0x15
 1388 06ea EE060000 		.4byte	0x6ee
 1389 06ee 03       		.uleb128 0x3
 1390 06ef 01       		.byte	0x1
 1391 06f0 08       		.byte	0x8
 1392 06f1 EC050000 		.4byte	.LASF94
 1393 06f5 0A       		.uleb128 0xa
 1394 06f6 04       		.byte	0x4
 1395 06f7 73050000 		.4byte	0x573
 1396 06fb 0A       		.uleb128 0xa
 1397 06fc 04       		.byte	0x4
 1398 06fd CD020000 		.4byte	0x2cd
ARM GAS  /tmp/ccwwDfJk.s 			page 50


 1399 0701 0F       		.uleb128 0xf
 1400 0702 E3060000 		.4byte	0x6e3
 1401 0706 04       		.uleb128 0x4
 1402 0707 17020000 		.4byte	.LASF95
 1403 070b 0A       		.byte	0xa
 1404 070c 34       		.byte	0x34
 1405 070d AC060000 		.4byte	0x6ac
 1406 0711 0A       		.uleb128 0xa
 1407 0712 04       		.byte	0x4
 1408 0713 06070000 		.4byte	0x706
 1409 0717 03       		.uleb128 0x3
 1410 0718 01       		.byte	0x1
 1411 0719 02       		.byte	0x2
 1412 071a EB040000 		.4byte	.LASF96
 1413 071e 16       		.uleb128 0x16
 1414 071f 14       		.byte	0x14
 1415 0720 0B       		.byte	0xb
 1416 0721 E4       		.byte	0xe4
 1417 0722 7B070000 		.4byte	0x77b
 1418 0726 07       		.uleb128 0x7
 1419 0727 646D6100 		.ascii	"dma\000"
 1420 072b 0B       		.byte	0xb
 1421 072c E5       		.byte	0xe5
 1422 072d 7B070000 		.4byte	0x77b
 1423 0731 00       		.byte	0
 1424 0732 06       		.uleb128 0x6
 1425 0733 4D050000 		.4byte	.LASF97
 1426 0737 0B       		.byte	0xb
 1427 0738 E6       		.byte	0xe6
 1428 0739 81070000 		.4byte	0x781
 1429 073d 04       		.byte	0x4
 1430 073e 06       		.uleb128 0x6
 1431 073f 6F030000 		.4byte	.LASF98
 1432 0743 0B       		.byte	0xb
 1433 0744 E7       		.byte	0xe7
 1434 0745 77000000 		.4byte	0x77
 1435 0749 08       		.byte	0x8
 1436 074a 06       		.uleb128 0x6
 1437 074b D8020000 		.4byte	.LASF99
 1438 074f 0B       		.byte	0xb
 1439 0750 E9       		.byte	0xe9
 1440 0751 87070000 		.4byte	0x787
 1441 0755 0C       		.byte	0xc
 1442 0756 06       		.uleb128 0x6
 1443 0757 AB010000 		.4byte	.LASF100
 1444 075b 0B       		.byte	0xb
 1445 075c EA       		.byte	0xea
 1446 075d 3A000000 		.4byte	0x3a
 1447 0761 10       		.byte	0x10
 1448 0762 06       		.uleb128 0x6
 1449 0763 DC010000 		.4byte	.LASF101
 1450 0767 0B       		.byte	0xb
 1451 0768 EC       		.byte	0xec
 1452 0769 3A000000 		.4byte	0x3a
 1453 076d 11       		.byte	0x11
 1454 076e 06       		.uleb128 0x6
 1455 076f AE000000 		.4byte	.LASF102
ARM GAS  /tmp/ccwwDfJk.s 			page 51


 1456 0773 0B       		.byte	0xb
 1457 0774 ED       		.byte	0xed
 1458 0775 3A000000 		.4byte	0x3a
 1459 0779 12       		.byte	0x12
 1460 077a 00       		.byte	0
 1461 077b 0A       		.uleb128 0xa
 1462 077c 04       		.byte	0x4
 1463 077d 61040000 		.4byte	0x461
 1464 0781 0A       		.uleb128 0xa
 1465 0782 04       		.byte	0x4
 1466 0783 31040000 		.4byte	0x431
 1467 0787 0A       		.uleb128 0xa
 1468 0788 04       		.byte	0x4
 1469 0789 EE030000 		.4byte	0x3ee
 1470 078d 04       		.uleb128 0x4
 1471 078e A1040000 		.4byte	.LASF103
 1472 0792 0B       		.byte	0xb
 1473 0793 EE       		.byte	0xee
 1474 0794 1E070000 		.4byte	0x71e
 1475 0798 04       		.uleb128 0x4
 1476 0799 7C000000 		.4byte	.LASF104
 1477 079d 0C       		.byte	0xc
 1478 079e 92       		.byte	0x92
 1479 079f 77000000 		.4byte	0x77
 1480 07a3 04       		.uleb128 0x4
 1481 07a4 13080000 		.4byte	.LASF105
 1482 07a8 0C       		.byte	0xc
 1483 07a9 97       		.byte	0x97
 1484 07aa 77000000 		.4byte	0x77
 1485 07ae 04       		.uleb128 0x4
 1486 07af 94060000 		.4byte	.LASF106
 1487 07b3 0C       		.byte	0xc
 1488 07b4 A4       		.byte	0xa4
 1489 07b5 B9070000 		.4byte	0x7b9
 1490 07b9 0A       		.uleb128 0xa
 1491 07ba 04       		.byte	0x4
 1492 07bb D2040000 		.4byte	0x4d2
 1493 07bf 17       		.uleb128 0x17
 1494 07c0 01       		.byte	0x1
 1495 07c1 0D       		.byte	0xd
 1496 07c2 4C       		.byte	0x4c
 1497 07c3 EC070000 		.4byte	0x7ec
 1498 07c7 18       		.uleb128 0x18
 1499 07c8 16050000 		.4byte	.LASF107
 1500 07cc 00       		.sleb128 0
 1501 07cd 18       		.uleb128 0x18
 1502 07ce 8F030000 		.4byte	.LASF108
 1503 07d2 01       		.sleb128 1
 1504 07d3 18       		.uleb128 0x18
 1505 07d4 19010000 		.4byte	.LASF109
 1506 07d8 02       		.sleb128 2
 1507 07d9 18       		.uleb128 0x18
 1508 07da BC040000 		.4byte	.LASF110
 1509 07de 03       		.sleb128 3
 1510 07df 18       		.uleb128 0x18
 1511 07e0 D2050000 		.4byte	.LASF111
 1512 07e4 04       		.sleb128 4
ARM GAS  /tmp/ccwwDfJk.s 			page 52


 1513 07e5 18       		.uleb128 0x18
 1514 07e6 62050000 		.4byte	.LASF112
 1515 07ea 05       		.sleb128 5
 1516 07eb 00       		.byte	0
 1517 07ec 04       		.uleb128 0x4
 1518 07ed 6C040000 		.4byte	.LASF113
 1519 07f1 0D       		.byte	0xd
 1520 07f2 53       		.byte	0x53
 1521 07f3 BF070000 		.4byte	0x7bf
 1522 07f7 11       		.uleb128 0x11
 1523 07f8 73010000 		.4byte	.LASF114
 1524 07fc 0E       		.byte	0xe
 1525 07fd 6A01     		.2byte	0x16a
 1526 07ff 53000000 		.4byte	0x53
 1527 0803 11       		.uleb128 0x11
 1528 0804 CA040000 		.4byte	.LASF115
 1529 0808 0E       		.byte	0xe
 1530 0809 6F01     		.2byte	0x16f
 1531 080b 77000000 		.4byte	0x77
 1532 080f 19       		.uleb128 0x19
 1533 0810 01       		.byte	0x1
 1534 0811 0E       		.byte	0xe
 1535 0812 7401     		.2byte	0x174
 1536 0814 2B080000 		.4byte	0x82b
 1537 0818 18       		.uleb128 0x18
 1538 0819 15040000 		.4byte	.LASF116
 1539 081d 01       		.sleb128 1
 1540 081e 18       		.uleb128 0x18
 1541 081f 96020000 		.4byte	.LASF117
 1542 0823 02       		.sleb128 2
 1543 0824 18       		.uleb128 0x18
 1544 0825 C1010000 		.4byte	.LASF118
 1545 0829 03       		.sleb128 3
 1546 082a 00       		.byte	0
 1547 082b 11       		.uleb128 0x11
 1548 082c FA070000 		.4byte	.LASF119
 1549 0830 0E       		.byte	0xe
 1550 0831 7801     		.2byte	0x178
 1551 0833 0F080000 		.4byte	0x80f
 1552 0837 19       		.uleb128 0x19
 1553 0838 01       		.byte	0x1
 1554 0839 0E       		.byte	0xe
 1555 083a 7D01     		.2byte	0x17d
 1556 083c 53080000 		.4byte	0x853
 1557 0840 18       		.uleb128 0x18
 1558 0841 24030000 		.4byte	.LASF120
 1559 0845 01       		.sleb128 1
 1560 0846 18       		.uleb128 0x18
 1561 0847 3B050000 		.4byte	.LASF121
 1562 084b 02       		.sleb128 2
 1563 084c 18       		.uleb128 0x18
 1564 084d 77040000 		.4byte	.LASF122
 1565 0851 03       		.sleb128 3
 1566 0852 00       		.byte	0
 1567 0853 11       		.uleb128 0x11
 1568 0854 06000000 		.4byte	.LASF123
 1569 0858 0E       		.byte	0xe
ARM GAS  /tmp/ccwwDfJk.s 			page 53


 1570 0859 8101     		.2byte	0x181
 1571 085b 37080000 		.4byte	0x837
 1572 085f 10       		.uleb128 0x10
 1573 0860 0C       		.byte	0xc
 1574 0861 0E       		.byte	0xe
 1575 0862 8601     		.2byte	0x186
 1576 0864 90080000 		.4byte	0x890
 1577 0868 09       		.uleb128 0x9
 1578 0869 F0010000 		.4byte	.LASF124
 1579 086d 0E       		.byte	0xe
 1580 086e 8801     		.2byte	0x188
 1581 0870 2B080000 		.4byte	0x82b
 1582 0874 00       		.byte	0
 1583 0875 09       		.uleb128 0x9
 1584 0876 0D010000 		.4byte	.LASF125
 1585 087a 0E       		.byte	0xe
 1586 087b 8901     		.2byte	0x189
 1587 087d 77000000 		.4byte	0x77
 1588 0881 04       		.byte	0x4
 1589 0882 09       		.uleb128 0x9
 1590 0883 DC030000 		.4byte	.LASF126
 1591 0887 0E       		.byte	0xe
 1592 0888 8C01     		.2byte	0x18c
 1593 088a 53080000 		.4byte	0x853
 1594 088e 08       		.byte	0x8
 1595 088f 00       		.byte	0
 1596 0890 11       		.uleb128 0x11
 1597 0891 A1010000 		.4byte	.LASF127
 1598 0895 0E       		.byte	0xe
 1599 0896 8E01     		.2byte	0x18e
 1600 0898 5F080000 		.4byte	0x85f
 1601 089c 11       		.uleb128 0x11
 1602 089d 8A060000 		.4byte	.LASF128
 1603 08a1 0E       		.byte	0xe
 1604 08a2 9301     		.2byte	0x193
 1605 08a4 A8080000 		.4byte	0x8a8
 1606 08a8 0B       		.uleb128 0xb
 1607 08a9 8A060000 		.4byte	.LASF128
 1608 08ad 38       		.byte	0x38
 1609 08ae 0E       		.byte	0xe
 1610 08af 9801     		.2byte	0x198
 1611 08b1 45090000 		.4byte	0x945
 1612 08b5 09       		.uleb128 0x9
 1613 08b6 7D010000 		.4byte	.LASF29
 1614 08ba 0E       		.byte	0xe
 1615 08bb 9C01     		.2byte	0x19c
 1616 08bd EC070000 		.4byte	0x7ec
 1617 08c1 00       		.byte	0
 1618 08c2 09       		.uleb128 0x9
 1619 08c3 F7050000 		.4byte	.LASF129
 1620 08c7 0E       		.byte	0xe
 1621 08c8 A001     		.2byte	0x1a0
 1622 08ca 45090000 		.4byte	0x945
 1623 08ce 04       		.byte	0x4
 1624 08cf 09       		.uleb128 0x9
 1625 08d0 D5030000 		.4byte	.LASF130
 1626 08d4 0E       		.byte	0xe
ARM GAS  /tmp/ccwwDfJk.s 			page 54


 1627 08d5 A401     		.2byte	0x1a4
 1628 08d7 03080000 		.4byte	0x803
 1629 08db 08       		.byte	0x8
 1630 08dc 09       		.uleb128 0x9
 1631 08dd D5040000 		.4byte	.LASF131
 1632 08e1 0E       		.byte	0xe
 1633 08e2 A901     		.2byte	0x1a9
 1634 08e4 06070000 		.4byte	0x706
 1635 08e8 0C       		.byte	0xc
 1636 08e9 09       		.uleb128 0x9
 1637 08ea 9A010000 		.4byte	.LASF132
 1638 08ee 0E       		.byte	0xe
 1639 08ef B201     		.2byte	0x1b2
 1640 08f1 E3010000 		.4byte	0x1e3
 1641 08f5 1C       		.byte	0x1c
 1642 08f6 09       		.uleb128 0x9
 1643 08f7 A0000000 		.4byte	.LASF133
 1644 08fb 0E       		.byte	0xe
 1645 08fc B601     		.2byte	0x1b6
 1646 08fe F7070000 		.4byte	0x7f7
 1647 0902 20       		.byte	0x20
 1648 0903 09       		.uleb128 0x9
 1649 0904 B1010000 		.4byte	.LASF134
 1650 0908 0E       		.byte	0xe
 1651 0909 BA01     		.2byte	0x1ba
 1652 090b 77000000 		.4byte	0x77
 1653 090f 24       		.byte	0x24
 1654 0910 09       		.uleb128 0x9
 1655 0911 0D020000 		.4byte	.LASF135
 1656 0915 0E       		.byte	0xe
 1657 0916 BE01     		.2byte	0x1be
 1658 0918 77000000 		.4byte	0x77
 1659 091c 28       		.byte	0x28
 1660 091d 09       		.uleb128 0x9
 1661 091e 00000000 		.4byte	.LASF136
 1662 0922 0E       		.byte	0xe
 1663 0923 C201     		.2byte	0x1c2
 1664 0925 50090000 		.4byte	0x950
 1665 0929 2C       		.byte	0x2c
 1666 092a 09       		.uleb128 0x9
 1667 092b BB010000 		.4byte	.LASF137
 1668 092f 0E       		.byte	0xe
 1669 0930 C601     		.2byte	0x1c6
 1670 0932 50090000 		.4byte	0x950
 1671 0936 30       		.byte	0x30
 1672 0937 08       		.uleb128 0x8
 1673 0938 69326300 		.ascii	"i2c\000"
 1674 093c 0E       		.byte	0xe
 1675 093d CA01     		.2byte	0x1ca
 1676 093f 5B090000 		.4byte	0x95b
 1677 0943 34       		.byte	0x34
 1678 0944 00       		.byte	0
 1679 0945 0A       		.uleb128 0xa
 1680 0946 04       		.byte	0x4
 1681 0947 4B090000 		.4byte	0x94b
 1682 094b 15       		.uleb128 0x15
 1683 094c 90080000 		.4byte	0x890
ARM GAS  /tmp/ccwwDfJk.s 			page 55


 1684 0950 0A       		.uleb128 0xa
 1685 0951 04       		.byte	0x4
 1686 0952 56090000 		.4byte	0x956
 1687 0956 15       		.uleb128 0x15
 1688 0957 8D070000 		.4byte	0x78d
 1689 095b 0A       		.uleb128 0xa
 1690 095c 04       		.byte	0x4
 1691 095d 5C050000 		.4byte	0x55c
 1692 0961 17       		.uleb128 0x17
 1693 0962 01       		.byte	0x1
 1694 0963 0F       		.byte	0xf
 1695 0964 55       		.byte	0x55
 1696 0965 76090000 		.4byte	0x976
 1697 0969 18       		.uleb128 0x18
 1698 096a 07050000 		.4byte	.LASF138
 1699 096e 00       		.sleb128 0
 1700 096f 18       		.uleb128 0x18
 1701 0970 55010000 		.4byte	.LASF139
 1702 0974 02       		.sleb128 2
 1703 0975 00       		.byte	0
 1704 0976 04       		.uleb128 0x4
 1705 0977 00020000 		.4byte	.LASF140
 1706 097b 0F       		.byte	0xf
 1707 097c 58       		.byte	0x58
 1708 097d 61090000 		.4byte	0x961
 1709 0981 17       		.uleb128 0x17
 1710 0982 01       		.byte	0x1
 1711 0983 0F       		.byte	0xf
 1712 0984 5D       		.byte	0x5d
 1713 0985 96090000 		.4byte	0x996
 1714 0989 18       		.uleb128 0x18
 1715 098a 7E030000 		.4byte	.LASF141
 1716 098e 00       		.sleb128 0
 1717 098f 18       		.uleb128 0x18
 1718 0990 0C030000 		.4byte	.LASF142
 1719 0994 01       		.sleb128 1
 1720 0995 00       		.byte	0
 1721 0996 04       		.uleb128 0x4
 1722 0997 D7060000 		.4byte	.LASF143
 1723 099b 0F       		.byte	0xf
 1724 099c 60       		.byte	0x60
 1725 099d 81090000 		.4byte	0x981
 1726 09a1 17       		.uleb128 0x17
 1727 09a2 01       		.byte	0x1
 1728 09a3 0F       		.byte	0xf
 1729 09a4 65       		.byte	0x65
 1730 09a5 B6090000 		.4byte	0x9b6
 1731 09a9 18       		.uleb128 0x18
 1732 09aa C6060000 		.4byte	.LASF144
 1733 09ae 00       		.sleb128 0
 1734 09af 18       		.uleb128 0x18
 1735 09b0 25040000 		.4byte	.LASF145
 1736 09b4 04       		.sleb128 4
 1737 09b5 00       		.byte	0
 1738 09b6 04       		.uleb128 0x4
 1739 09b7 85050000 		.4byte	.LASF146
 1740 09bb 0F       		.byte	0xf
ARM GAS  /tmp/ccwwDfJk.s 			page 56


 1741 09bc 68       		.byte	0x68
 1742 09bd A1090000 		.4byte	0x9a1
 1743 09c1 17       		.uleb128 0x17
 1744 09c2 01       		.byte	0x1
 1745 09c3 0F       		.byte	0xf
 1746 09c4 6D       		.byte	0x6d
 1747 09c5 D6090000 		.4byte	0x9d6
 1748 09c9 18       		.uleb128 0x18
 1749 09ca 7C060000 		.4byte	.LASF147
 1750 09ce 00       		.sleb128 0
 1751 09cf 18       		.uleb128 0x18
 1752 09d0 67000000 		.4byte	.LASF148
 1753 09d4 08       		.sleb128 8
 1754 09d5 00       		.byte	0
 1755 09d6 04       		.uleb128 0x4
 1756 09d7 FE030000 		.4byte	.LASF149
 1757 09db 0F       		.byte	0xf
 1758 09dc 70       		.byte	0x70
 1759 09dd C1090000 		.4byte	0x9c1
 1760 09e1 17       		.uleb128 0x17
 1761 09e2 01       		.byte	0x1
 1762 09e3 0F       		.byte	0xf
 1763 09e4 76       		.byte	0x76
 1764 09e5 FC090000 		.4byte	0x9fc
 1765 09e9 18       		.uleb128 0x18
 1766 09ea BD020000 		.4byte	.LASF150
 1767 09ee 00       		.sleb128 0
 1768 09ef 18       		.uleb128 0x18
 1769 09f0 5E000000 		.4byte	.LASF151
 1770 09f4 01       		.sleb128 1
 1771 09f5 18       		.uleb128 0x18
 1772 09f6 59040000 		.4byte	.LASF152
 1773 09fa 02       		.sleb128 2
 1774 09fb 00       		.byte	0
 1775 09fc 04       		.uleb128 0x4
 1776 09fd ED020000 		.4byte	.LASF153
 1777 0a01 0F       		.byte	0xf
 1778 0a02 7A       		.byte	0x7a
 1779 0a03 E1090000 		.4byte	0x9e1
 1780 0a07 16       		.uleb128 0x16
 1781 0a08 10       		.byte	0x10
 1782 0a09 0F       		.byte	0xf
 1783 0a0a 7F       		.byte	0x7f
 1784 0a0b 700A0000 		.4byte	0xa70
 1785 0a0f 06       		.uleb128 0x6
 1786 0a10 F2000000 		.4byte	.LASF154
 1787 0a14 0F       		.byte	0xf
 1788 0a15 83       		.byte	0x83
 1789 0a16 700A0000 		.4byte	0xa70
 1790 0a1a 00       		.byte	0
 1791 0a1b 06       		.uleb128 0x6
 1792 0a1c DE000000 		.4byte	.LASF155
 1793 0a20 0F       		.byte	0xf
 1794 0a21 87       		.byte	0x87
 1795 0a22 45090000 		.4byte	0x945
 1796 0a26 04       		.byte	0x4
 1797 0a27 06       		.uleb128 0x6
ARM GAS  /tmp/ccwwDfJk.s 			page 57


 1798 0a28 6D050000 		.4byte	.LASF156
 1799 0a2c 0F       		.byte	0xf
 1800 0a2d 8B       		.byte	0x8b
 1801 0a2e 3A000000 		.4byte	0x3a
 1802 0a32 08       		.byte	0x8
 1803 0a33 06       		.uleb128 0x6
 1804 0a34 0E040000 		.4byte	.LASF157
 1805 0a38 0F       		.byte	0xf
 1806 0a39 8F       		.byte	0x8f
 1807 0a3a 76090000 		.4byte	0x976
 1808 0a3e 09       		.byte	0x9
 1809 0a3f 06       		.uleb128 0x6
 1810 0a40 3D010000 		.4byte	.LASF158
 1811 0a44 0F       		.byte	0xf
 1812 0a45 93       		.byte	0x93
 1813 0a46 96090000 		.4byte	0x996
 1814 0a4a 0A       		.byte	0xa
 1815 0a4b 06       		.uleb128 0x6
 1816 0a4c A2070000 		.4byte	.LASF159
 1817 0a50 0F       		.byte	0xf
 1818 0a51 97       		.byte	0x97
 1819 0a52 B6090000 		.4byte	0x9b6
 1820 0a56 0B       		.byte	0xb
 1821 0a57 06       		.uleb128 0x6
 1822 0a58 D2020000 		.4byte	.LASF160
 1823 0a5c 0F       		.byte	0xf
 1824 0a5d 9B       		.byte	0x9b
 1825 0a5e D6090000 		.4byte	0x9d6
 1826 0a62 0C       		.byte	0xc
 1827 0a63 06       		.uleb128 0x6
 1828 0a64 CB030000 		.4byte	.LASF161
 1829 0a68 0F       		.byte	0xf
 1830 0a69 9F       		.byte	0x9f
 1831 0a6a 17070000 		.4byte	0x717
 1832 0a6e 0D       		.byte	0xd
 1833 0a6f 00       		.byte	0
 1834 0a70 0A       		.uleb128 0xa
 1835 0a71 04       		.byte	0x4
 1836 0a72 9C080000 		.4byte	0x89c
 1837 0a76 04       		.uleb128 0x4
 1838 0a77 E6010000 		.4byte	.LASF162
 1839 0a7b 0F       		.byte	0xf
 1840 0a7c A0       		.byte	0xa0
 1841 0a7d 070A0000 		.4byte	0xa07
 1842 0a81 16       		.uleb128 0x16
 1843 0a82 08       		.byte	0x8
 1844 0a83 0F       		.byte	0xf
 1845 0a84 A5       		.byte	0xa5
 1846 0a85 AE0A0000 		.4byte	0xaae
 1847 0a89 06       		.uleb128 0x6
 1848 0a8a 7D010000 		.4byte	.LASF29
 1849 0a8e 0F       		.byte	0xf
 1850 0a8f A9       		.byte	0xa9
 1851 0a90 FC090000 		.4byte	0x9fc
 1852 0a94 00       		.byte	0
 1853 0a95 06       		.uleb128 0x6
 1854 0a96 CB030000 		.4byte	.LASF161
ARM GAS  /tmp/ccwwDfJk.s 			page 58


 1855 0a9a 0F       		.byte	0xf
 1856 0a9b AE       		.byte	0xae
 1857 0a9c 17070000 		.4byte	0x717
 1858 0aa0 01       		.byte	0x1
 1859 0aa1 06       		.uleb128 0x6
 1860 0aa2 F7050000 		.4byte	.LASF129
 1861 0aa6 0F       		.byte	0xf
 1862 0aa7 B2       		.byte	0xb2
 1863 0aa8 AE0A0000 		.4byte	0xaae
 1864 0aac 04       		.byte	0x4
 1865 0aad 00       		.byte	0
 1866 0aae 0A       		.uleb128 0xa
 1867 0aaf 04       		.byte	0x4
 1868 0ab0 B40A0000 		.4byte	0xab4
 1869 0ab4 15       		.uleb128 0x15
 1870 0ab5 760A0000 		.4byte	0xa76
 1871 0ab9 04       		.uleb128 0x4
 1872 0aba F4030000 		.4byte	.LASF163
 1873 0abe 0F       		.byte	0xf
 1874 0abf B3       		.byte	0xb3
 1875 0ac0 810A0000 		.4byte	0xa81
 1876 0ac4 1A       		.uleb128 0x1a
 1877 0ac5 06080000 		.4byte	.LASF177
 1878 0ac9 01       		.byte	0x1
 1879 0aca 65       		.byte	0x65
 1880 0acb 25000000 		.4byte	0x25
 1881 0acf 00000000 		.4byte	.LFB219
 1882 0ad3 76000000 		.4byte	.LFE219-.LFB219
 1883 0ad7 01       		.uleb128 0x1
 1884 0ad8 9C       		.byte	0x9c
 1885 0ad9 8A0B0000 		.4byte	0xb8a
 1886 0add 1B       		.uleb128 0x1b
 1887 0ade 06000000 		.4byte	.LVL0
 1888 0ae2 E90B0000 		.4byte	0xbe9
 1889 0ae6 1B       		.uleb128 0x1b
 1890 0ae7 0A000000 		.4byte	.LVL1
 1891 0aeb F00B0000 		.4byte	0xbf0
 1892 0aef 1B       		.uleb128 0x1b
 1893 0af0 0E000000 		.4byte	.LVL2
 1894 0af4 F80B0000 		.4byte	0xbf8
 1895 0af8 1C       		.uleb128 0x1c
 1896 0af9 1E000000 		.4byte	.LVL3
 1897 0afd FF0B0000 		.4byte	0xbff
 1898 0b01 110B0000 		.4byte	0xb11
 1899 0b05 1D       		.uleb128 0x1d
 1900 0b06 01       		.uleb128 0x1
 1901 0b07 52       		.byte	0x52
 1902 0b08 01       		.uleb128 0x1
 1903 0b09 41       		.byte	0x41
 1904 0b0a 1D       		.uleb128 0x1d
 1905 0b0b 01       		.uleb128 0x1
 1906 0b0c 51       		.byte	0x51
 1907 0b0d 02       		.uleb128 0x2
 1908 0b0e 08       		.byte	0x8
 1909 0b0f 40       		.byte	0x40
 1910 0b10 00       		.byte	0
 1911 0b11 1C       		.uleb128 0x1c
ARM GAS  /tmp/ccwwDfJk.s 			page 59


 1912 0b12 2E000000 		.4byte	.LVL4
 1913 0b16 FF0B0000 		.4byte	0xbff
 1914 0b1a 2A0B0000 		.4byte	0xb2a
 1915 0b1e 1D       		.uleb128 0x1d
 1916 0b1f 01       		.uleb128 0x1
 1917 0b20 52       		.byte	0x52
 1918 0b21 01       		.uleb128 0x1
 1919 0b22 41       		.byte	0x41
 1920 0b23 1D       		.uleb128 0x1d
 1921 0b24 01       		.uleb128 0x1
 1922 0b25 51       		.byte	0x51
 1923 0b26 02       		.uleb128 0x2
 1924 0b27 08       		.byte	0x8
 1925 0b28 80       		.byte	0x80
 1926 0b29 00       		.byte	0
 1927 0b2a 1C       		.uleb128 0x1c
 1928 0b2b 42000000 		.4byte	.LVL5
 1929 0b2f 1B0C0000 		.4byte	0xc1b
 1930 0b33 410B0000 		.4byte	0xb41
 1931 0b37 1D       		.uleb128 0x1d
 1932 0b38 01       		.uleb128 0x1
 1933 0b39 51       		.byte	0x51
 1934 0b3a 05       		.uleb128 0x5
 1935 0b3b 03       		.byte	0x3
 1936 0b3c 00000000 		.4byte	.LANCHOR0
 1937 0b40 00       		.byte	0
 1938 0b41 1C       		.uleb128 0x1c
 1939 0b42 58000000 		.4byte	.LVL6
 1940 0b46 370C0000 		.4byte	0xc37
 1941 0b4a 5D0B0000 		.4byte	0xb5d
 1942 0b4e 1D       		.uleb128 0x1d
 1943 0b4f 01       		.uleb128 0x1
 1944 0b50 52       		.byte	0x52
 1945 0b51 01       		.uleb128 0x1
 1946 0b52 30       		.byte	0x30
 1947 0b53 1D       		.uleb128 0x1d
 1948 0b54 01       		.uleb128 0x1
 1949 0b55 51       		.byte	0x51
 1950 0b56 05       		.uleb128 0x5
 1951 0b57 03       		.byte	0x3
 1952 0b58 00000000 		.4byte	.LC0
 1953 0b5c 00       		.byte	0
 1954 0b5d 1C       		.uleb128 0x1c
 1955 0b5e 6E000000 		.4byte	.LVL7
 1956 0b62 370C0000 		.4byte	0xc37
 1957 0b66 7A0B0000 		.4byte	0xb7a
 1958 0b6a 1D       		.uleb128 0x1d
 1959 0b6b 01       		.uleb128 0x1
 1960 0b6c 52       		.byte	0x52
 1961 0b6d 02       		.uleb128 0x2
 1962 0b6e 08       		.byte	0x8
 1963 0b6f 28       		.byte	0x28
 1964 0b70 1D       		.uleb128 0x1d
 1965 0b71 01       		.uleb128 0x1
 1966 0b72 51       		.byte	0x51
 1967 0b73 05       		.uleb128 0x5
 1968 0b74 03       		.byte	0x3
ARM GAS  /tmp/ccwwDfJk.s 			page 60


 1969 0b75 10000000 		.4byte	.LC1
 1970 0b79 00       		.byte	0
 1971 0b7a 1E       		.uleb128 0x1e
 1972 0b7b 74000000 		.4byte	.LVL8
 1973 0b7f 580C0000 		.4byte	0xc58
 1974 0b83 1D       		.uleb128 0x1d
 1975 0b84 01       		.uleb128 0x1
 1976 0b85 50       		.byte	0x50
 1977 0b86 01       		.uleb128 0x1
 1978 0b87 3A       		.byte	0x3a
 1979 0b88 00       		.byte	0
 1980 0b89 00       		.byte	0
 1981 0b8a 1F       		.uleb128 0x1f
 1982 0b8b 696900   		.ascii	"ii\000"
 1983 0b8e 01       		.byte	0x1
 1984 0b8f 1D       		.byte	0x1d
 1985 0b90 3A000000 		.4byte	0x3a
 1986 0b94 20       		.uleb128 0x20
 1987 0b95 DE000000 		.4byte	.LASF155
 1988 0b99 01       		.byte	0x1
 1989 0b9a 26       		.byte	0x26
 1990 0b9b 4B090000 		.4byte	0x94b
 1991 0b9f 05       		.uleb128 0x5
 1992 0ba0 03       		.byte	0x3
 1993 0ba1 00000000 		.4byte	i2ccfg
 1994 0ba5 20       		.uleb128 0x20
 1995 0ba6 68030000 		.4byte	.LASF164
 1996 0baa 01       		.byte	0x1
 1997 0bab 2C       		.byte	0x2c
 1998 0bac B40A0000 		.4byte	0xab4
 1999 0bb0 05       		.uleb128 0x5
 2000 0bb1 03       		.byte	0x3
 2001 0bb2 00000000 		.4byte	lcdcfg
 2002 0bb6 21       		.uleb128 0x21
 2003 0bb7 E5000000 		.4byte	.LASF165
 2004 0bbb 10       		.byte	0x10
 2005 0bbc 9606     		.2byte	0x696
 2006 0bbe C20B0000 		.4byte	0xbc2
 2007 0bc2 0F       		.uleb128 0xf
 2008 0bc3 65000000 		.4byte	0x65
 2009 0bc7 22       		.uleb128 0x22
 2010 0bc8 636800   		.ascii	"ch\000"
 2011 0bcb 05       		.byte	0x5
 2012 0bcc D201     		.2byte	0x1d2
 2013 0bce 9A030000 		.4byte	0x39a
 2014 0bd2 21       		.uleb128 0x21
 2015 0bd3 3E020000 		.4byte	.LASF166
 2016 0bd7 0E       		.byte	0xe
 2017 0bd8 E001     		.2byte	0x1e0
 2018 0bda 9C080000 		.4byte	0x89c
 2019 0bde 23       		.uleb128 0x23
 2020 0bdf 3F040000 		.4byte	.LASF167
 2021 0be3 0F       		.byte	0xf
 2022 0be4 BD       		.byte	0xbd
 2023 0be5 B90A0000 		.4byte	0xab9
 2024 0be9 24       		.uleb128 0x24
 2025 0bea 78020000 		.4byte	.LASF168
ARM GAS  /tmp/ccwwDfJk.s 			page 61


 2026 0bee 11       		.byte	0x11
 2027 0bef E9       		.byte	0xe9
 2028 0bf0 25       		.uleb128 0x25
 2029 0bf1 4B010000 		.4byte	.LASF169
 2030 0bf5 12       		.byte	0x12
 2031 0bf6 3101     		.2byte	0x131
 2032 0bf8 24       		.uleb128 0x24
 2033 0bf9 D7070000 		.4byte	.LASF170
 2034 0bfd 0F       		.byte	0xf
 2035 0bfe C2       		.byte	0xc2
 2036 0bff 26       		.uleb128 0x26
 2037 0c00 9F060000 		.4byte	.LASF171
 2038 0c04 0C       		.byte	0xc
 2039 0c05 6D01     		.2byte	0x16d
 2040 0c07 1B0C0000 		.4byte	0xc1b
 2041 0c0b 0D       		.uleb128 0xd
 2042 0c0c AE070000 		.4byte	0x7ae
 2043 0c10 0D       		.uleb128 0xd
 2044 0c11 98070000 		.4byte	0x798
 2045 0c15 0D       		.uleb128 0xd
 2046 0c16 A3070000 		.4byte	0x7a3
 2047 0c1a 00       		.byte	0
 2048 0c1b 27       		.uleb128 0x27
 2049 0c1c C9050000 		.4byte	.LASF172
 2050 0c20 0F       		.byte	0xf
 2051 0c21 C4       		.byte	0xc4
 2052 0c22 310C0000 		.4byte	0xc31
 2053 0c26 0D       		.uleb128 0xd
 2054 0c27 310C0000 		.4byte	0xc31
 2055 0c2b 0D       		.uleb128 0xd
 2056 0c2c AE0A0000 		.4byte	0xaae
 2057 0c30 00       		.byte	0
 2058 0c31 0A       		.uleb128 0xa
 2059 0c32 04       		.byte	0x4
 2060 0c33 B90A0000 		.4byte	0xab9
 2061 0c37 27       		.uleb128 0x27
 2062 0c38 94050000 		.4byte	.LASF173
 2063 0c3c 0F       		.byte	0xf
 2064 0c3d CB       		.byte	0xcb
 2065 0c3e 520C0000 		.4byte	0xc52
 2066 0c42 0D       		.uleb128 0xd
 2067 0c43 310C0000 		.4byte	0xc31
 2068 0c47 0D       		.uleb128 0xd
 2069 0c48 520C0000 		.4byte	0xc52
 2070 0c4c 0D       		.uleb128 0xd
 2071 0c4d 3A000000 		.4byte	0x3a
 2072 0c51 00       		.byte	0
 2073 0c52 0A       		.uleb128 0xa
 2074 0c53 04       		.byte	0x4
 2075 0c54 EE060000 		.4byte	0x6ee
 2076 0c58 28       		.uleb128 0x28
 2077 0c59 7A050000 		.4byte	.LASF178
 2078 0c5d 13       		.byte	0x13
 2079 0c5e 0901     		.2byte	0x109
 2080 0c60 0D       		.uleb128 0xd
 2081 0c61 EF000000 		.4byte	0xef
 2082 0c65 00       		.byte	0
ARM GAS  /tmp/ccwwDfJk.s 			page 62


 2083 0c66 00       		.byte	0
 2084              		.section	.debug_abbrev,"",%progbits
 2085              	.Ldebug_abbrev0:
 2086 0000 01       		.uleb128 0x1
 2087 0001 11       		.uleb128 0x11
 2088 0002 01       		.byte	0x1
 2089 0003 25       		.uleb128 0x25
 2090 0004 0E       		.uleb128 0xe
 2091 0005 13       		.uleb128 0x13
 2092 0006 0B       		.uleb128 0xb
 2093 0007 03       		.uleb128 0x3
 2094 0008 0E       		.uleb128 0xe
 2095 0009 1B       		.uleb128 0x1b
 2096 000a 0E       		.uleb128 0xe
 2097 000b 55       		.uleb128 0x55
 2098 000c 17       		.uleb128 0x17
 2099 000d 11       		.uleb128 0x11
 2100 000e 01       		.uleb128 0x1
 2101 000f 10       		.uleb128 0x10
 2102 0010 17       		.uleb128 0x17
 2103 0011 00       		.byte	0
 2104 0012 00       		.byte	0
 2105 0013 02       		.uleb128 0x2
 2106 0014 24       		.uleb128 0x24
 2107 0015 00       		.byte	0
 2108 0016 0B       		.uleb128 0xb
 2109 0017 0B       		.uleb128 0xb
 2110 0018 3E       		.uleb128 0x3e
 2111 0019 0B       		.uleb128 0xb
 2112 001a 03       		.uleb128 0x3
 2113 001b 08       		.uleb128 0x8
 2114 001c 00       		.byte	0
 2115 001d 00       		.byte	0
 2116 001e 03       		.uleb128 0x3
 2117 001f 24       		.uleb128 0x24
 2118 0020 00       		.byte	0
 2119 0021 0B       		.uleb128 0xb
 2120 0022 0B       		.uleb128 0xb
 2121 0023 3E       		.uleb128 0x3e
 2122 0024 0B       		.uleb128 0xb
 2123 0025 03       		.uleb128 0x3
 2124 0026 0E       		.uleb128 0xe
 2125 0027 00       		.byte	0
 2126 0028 00       		.byte	0
 2127 0029 04       		.uleb128 0x4
 2128 002a 16       		.uleb128 0x16
 2129 002b 00       		.byte	0
 2130 002c 03       		.uleb128 0x3
 2131 002d 0E       		.uleb128 0xe
 2132 002e 3A       		.uleb128 0x3a
 2133 002f 0B       		.uleb128 0xb
 2134 0030 3B       		.uleb128 0x3b
 2135 0031 0B       		.uleb128 0xb
 2136 0032 49       		.uleb128 0x49
 2137 0033 13       		.uleb128 0x13
 2138 0034 00       		.byte	0
 2139 0035 00       		.byte	0
ARM GAS  /tmp/ccwwDfJk.s 			page 63


 2140 0036 05       		.uleb128 0x5
 2141 0037 13       		.uleb128 0x13
 2142 0038 01       		.byte	0x1
 2143 0039 03       		.uleb128 0x3
 2144 003a 0E       		.uleb128 0xe
 2145 003b 0B       		.uleb128 0xb
 2146 003c 0B       		.uleb128 0xb
 2147 003d 3A       		.uleb128 0x3a
 2148 003e 0B       		.uleb128 0xb
 2149 003f 3B       		.uleb128 0x3b
 2150 0040 0B       		.uleb128 0xb
 2151 0041 01       		.uleb128 0x1
 2152 0042 13       		.uleb128 0x13
 2153 0043 00       		.byte	0
 2154 0044 00       		.byte	0
 2155 0045 06       		.uleb128 0x6
 2156 0046 0D       		.uleb128 0xd
 2157 0047 00       		.byte	0
 2158 0048 03       		.uleb128 0x3
 2159 0049 0E       		.uleb128 0xe
 2160 004a 3A       		.uleb128 0x3a
 2161 004b 0B       		.uleb128 0xb
 2162 004c 3B       		.uleb128 0x3b
 2163 004d 0B       		.uleb128 0xb
 2164 004e 49       		.uleb128 0x49
 2165 004f 13       		.uleb128 0x13
 2166 0050 38       		.uleb128 0x38
 2167 0051 0B       		.uleb128 0xb
 2168 0052 00       		.byte	0
 2169 0053 00       		.byte	0
 2170 0054 07       		.uleb128 0x7
 2171 0055 0D       		.uleb128 0xd
 2172 0056 00       		.byte	0
 2173 0057 03       		.uleb128 0x3
 2174 0058 08       		.uleb128 0x8
 2175 0059 3A       		.uleb128 0x3a
 2176 005a 0B       		.uleb128 0xb
 2177 005b 3B       		.uleb128 0x3b
 2178 005c 0B       		.uleb128 0xb
 2179 005d 49       		.uleb128 0x49
 2180 005e 13       		.uleb128 0x13
 2181 005f 38       		.uleb128 0x38
 2182 0060 0B       		.uleb128 0xb
 2183 0061 00       		.byte	0
 2184 0062 00       		.byte	0
 2185 0063 08       		.uleb128 0x8
 2186 0064 0D       		.uleb128 0xd
 2187 0065 00       		.byte	0
 2188 0066 03       		.uleb128 0x3
 2189 0067 08       		.uleb128 0x8
 2190 0068 3A       		.uleb128 0x3a
 2191 0069 0B       		.uleb128 0xb
 2192 006a 3B       		.uleb128 0x3b
 2193 006b 05       		.uleb128 0x5
 2194 006c 49       		.uleb128 0x49
 2195 006d 13       		.uleb128 0x13
 2196 006e 38       		.uleb128 0x38
ARM GAS  /tmp/ccwwDfJk.s 			page 64


 2197 006f 0B       		.uleb128 0xb
 2198 0070 00       		.byte	0
 2199 0071 00       		.byte	0
 2200 0072 09       		.uleb128 0x9
 2201 0073 0D       		.uleb128 0xd
 2202 0074 00       		.byte	0
 2203 0075 03       		.uleb128 0x3
 2204 0076 0E       		.uleb128 0xe
 2205 0077 3A       		.uleb128 0x3a
 2206 0078 0B       		.uleb128 0xb
 2207 0079 3B       		.uleb128 0x3b
 2208 007a 05       		.uleb128 0x5
 2209 007b 49       		.uleb128 0x49
 2210 007c 13       		.uleb128 0x13
 2211 007d 38       		.uleb128 0x38
 2212 007e 0B       		.uleb128 0xb
 2213 007f 00       		.byte	0
 2214 0080 00       		.byte	0
 2215 0081 0A       		.uleb128 0xa
 2216 0082 0F       		.uleb128 0xf
 2217 0083 00       		.byte	0
 2218 0084 0B       		.uleb128 0xb
 2219 0085 0B       		.uleb128 0xb
 2220 0086 49       		.uleb128 0x49
 2221 0087 13       		.uleb128 0x13
 2222 0088 00       		.byte	0
 2223 0089 00       		.byte	0
 2224 008a 0B       		.uleb128 0xb
 2225 008b 13       		.uleb128 0x13
 2226 008c 01       		.byte	0x1
 2227 008d 03       		.uleb128 0x3
 2228 008e 0E       		.uleb128 0xe
 2229 008f 0B       		.uleb128 0xb
 2230 0090 0B       		.uleb128 0xb
 2231 0091 3A       		.uleb128 0x3a
 2232 0092 0B       		.uleb128 0xb
 2233 0093 3B       		.uleb128 0x3b
 2234 0094 05       		.uleb128 0x5
 2235 0095 01       		.uleb128 0x1
 2236 0096 13       		.uleb128 0x13
 2237 0097 00       		.byte	0
 2238 0098 00       		.byte	0
 2239 0099 0C       		.uleb128 0xc
 2240 009a 15       		.uleb128 0x15
 2241 009b 01       		.byte	0x1
 2242 009c 27       		.uleb128 0x27
 2243 009d 19       		.uleb128 0x19
 2244 009e 01       		.uleb128 0x1
 2245 009f 13       		.uleb128 0x13
 2246 00a0 00       		.byte	0
 2247 00a1 00       		.byte	0
 2248 00a2 0D       		.uleb128 0xd
 2249 00a3 05       		.uleb128 0x5
 2250 00a4 00       		.byte	0
 2251 00a5 49       		.uleb128 0x49
 2252 00a6 13       		.uleb128 0x13
 2253 00a7 00       		.byte	0
ARM GAS  /tmp/ccwwDfJk.s 			page 65


 2254 00a8 00       		.byte	0
 2255 00a9 0E       		.uleb128 0xe
 2256 00aa 0F       		.uleb128 0xf
 2257 00ab 00       		.byte	0
 2258 00ac 0B       		.uleb128 0xb
 2259 00ad 0B       		.uleb128 0xb
 2260 00ae 00       		.byte	0
 2261 00af 00       		.byte	0
 2262 00b0 0F       		.uleb128 0xf
 2263 00b1 35       		.uleb128 0x35
 2264 00b2 00       		.byte	0
 2265 00b3 49       		.uleb128 0x49
 2266 00b4 13       		.uleb128 0x13
 2267 00b5 00       		.byte	0
 2268 00b6 00       		.byte	0
 2269 00b7 10       		.uleb128 0x10
 2270 00b8 13       		.uleb128 0x13
 2271 00b9 01       		.byte	0x1
 2272 00ba 0B       		.uleb128 0xb
 2273 00bb 0B       		.uleb128 0xb
 2274 00bc 3A       		.uleb128 0x3a
 2275 00bd 0B       		.uleb128 0xb
 2276 00be 3B       		.uleb128 0x3b
 2277 00bf 05       		.uleb128 0x5
 2278 00c0 01       		.uleb128 0x1
 2279 00c1 13       		.uleb128 0x13
 2280 00c2 00       		.byte	0
 2281 00c3 00       		.byte	0
 2282 00c4 11       		.uleb128 0x11
 2283 00c5 16       		.uleb128 0x16
 2284 00c6 00       		.byte	0
 2285 00c7 03       		.uleb128 0x3
 2286 00c8 0E       		.uleb128 0xe
 2287 00c9 3A       		.uleb128 0x3a
 2288 00ca 0B       		.uleb128 0xb
 2289 00cb 3B       		.uleb128 0x3b
 2290 00cc 05       		.uleb128 0x5
 2291 00cd 49       		.uleb128 0x49
 2292 00ce 13       		.uleb128 0x13
 2293 00cf 00       		.byte	0
 2294 00d0 00       		.byte	0
 2295 00d1 12       		.uleb128 0x12
 2296 00d2 17       		.uleb128 0x17
 2297 00d3 01       		.byte	0x1
 2298 00d4 0B       		.uleb128 0xb
 2299 00d5 0B       		.uleb128 0xb
 2300 00d6 3A       		.uleb128 0x3a
 2301 00d7 0B       		.uleb128 0xb
 2302 00d8 3B       		.uleb128 0x3b
 2303 00d9 0B       		.uleb128 0xb
 2304 00da 01       		.uleb128 0x1
 2305 00db 13       		.uleb128 0x13
 2306 00dc 00       		.byte	0
 2307 00dd 00       		.byte	0
 2308 00de 13       		.uleb128 0x13
 2309 00df 0D       		.uleb128 0xd
 2310 00e0 00       		.byte	0
ARM GAS  /tmp/ccwwDfJk.s 			page 66


 2311 00e1 03       		.uleb128 0x3
 2312 00e2 0E       		.uleb128 0xe
 2313 00e3 3A       		.uleb128 0x3a
 2314 00e4 0B       		.uleb128 0xb
 2315 00e5 3B       		.uleb128 0x3b
 2316 00e6 0B       		.uleb128 0xb
 2317 00e7 49       		.uleb128 0x49
 2318 00e8 13       		.uleb128 0x13
 2319 00e9 00       		.byte	0
 2320 00ea 00       		.byte	0
 2321 00eb 14       		.uleb128 0x14
 2322 00ec 0D       		.uleb128 0xd
 2323 00ed 00       		.byte	0
 2324 00ee 03       		.uleb128 0x3
 2325 00ef 0E       		.uleb128 0xe
 2326 00f0 3A       		.uleb128 0x3a
 2327 00f1 0B       		.uleb128 0xb
 2328 00f2 3B       		.uleb128 0x3b
 2329 00f3 05       		.uleb128 0x5
 2330 00f4 49       		.uleb128 0x49
 2331 00f5 13       		.uleb128 0x13
 2332 00f6 00       		.byte	0
 2333 00f7 00       		.byte	0
 2334 00f8 15       		.uleb128 0x15
 2335 00f9 26       		.uleb128 0x26
 2336 00fa 00       		.byte	0
 2337 00fb 49       		.uleb128 0x49
 2338 00fc 13       		.uleb128 0x13
 2339 00fd 00       		.byte	0
 2340 00fe 00       		.byte	0
 2341 00ff 16       		.uleb128 0x16
 2342 0100 13       		.uleb128 0x13
 2343 0101 01       		.byte	0x1
 2344 0102 0B       		.uleb128 0xb
 2345 0103 0B       		.uleb128 0xb
 2346 0104 3A       		.uleb128 0x3a
 2347 0105 0B       		.uleb128 0xb
 2348 0106 3B       		.uleb128 0x3b
 2349 0107 0B       		.uleb128 0xb
 2350 0108 01       		.uleb128 0x1
 2351 0109 13       		.uleb128 0x13
 2352 010a 00       		.byte	0
 2353 010b 00       		.byte	0
 2354 010c 17       		.uleb128 0x17
 2355 010d 04       		.uleb128 0x4
 2356 010e 01       		.byte	0x1
 2357 010f 0B       		.uleb128 0xb
 2358 0110 0B       		.uleb128 0xb
 2359 0111 3A       		.uleb128 0x3a
 2360 0112 0B       		.uleb128 0xb
 2361 0113 3B       		.uleb128 0x3b
 2362 0114 0B       		.uleb128 0xb
 2363 0115 01       		.uleb128 0x1
 2364 0116 13       		.uleb128 0x13
 2365 0117 00       		.byte	0
 2366 0118 00       		.byte	0
 2367 0119 18       		.uleb128 0x18
ARM GAS  /tmp/ccwwDfJk.s 			page 67


 2368 011a 28       		.uleb128 0x28
 2369 011b 00       		.byte	0
 2370 011c 03       		.uleb128 0x3
 2371 011d 0E       		.uleb128 0xe
 2372 011e 1C       		.uleb128 0x1c
 2373 011f 0D       		.uleb128 0xd
 2374 0120 00       		.byte	0
 2375 0121 00       		.byte	0
 2376 0122 19       		.uleb128 0x19
 2377 0123 04       		.uleb128 0x4
 2378 0124 01       		.byte	0x1
 2379 0125 0B       		.uleb128 0xb
 2380 0126 0B       		.uleb128 0xb
 2381 0127 3A       		.uleb128 0x3a
 2382 0128 0B       		.uleb128 0xb
 2383 0129 3B       		.uleb128 0x3b
 2384 012a 05       		.uleb128 0x5
 2385 012b 01       		.uleb128 0x1
 2386 012c 13       		.uleb128 0x13
 2387 012d 00       		.byte	0
 2388 012e 00       		.byte	0
 2389 012f 1A       		.uleb128 0x1a
 2390 0130 2E       		.uleb128 0x2e
 2391 0131 01       		.byte	0x1
 2392 0132 3F       		.uleb128 0x3f
 2393 0133 19       		.uleb128 0x19
 2394 0134 03       		.uleb128 0x3
 2395 0135 0E       		.uleb128 0xe
 2396 0136 3A       		.uleb128 0x3a
 2397 0137 0B       		.uleb128 0xb
 2398 0138 3B       		.uleb128 0x3b
 2399 0139 0B       		.uleb128 0xb
 2400 013a 27       		.uleb128 0x27
 2401 013b 19       		.uleb128 0x19
 2402 013c 49       		.uleb128 0x49
 2403 013d 13       		.uleb128 0x13
 2404 013e 11       		.uleb128 0x11
 2405 013f 01       		.uleb128 0x1
 2406 0140 12       		.uleb128 0x12
 2407 0141 06       		.uleb128 0x6
 2408 0142 40       		.uleb128 0x40
 2409 0143 18       		.uleb128 0x18
 2410 0144 9742     		.uleb128 0x2117
 2411 0146 19       		.uleb128 0x19
 2412 0147 01       		.uleb128 0x1
 2413 0148 13       		.uleb128 0x13
 2414 0149 00       		.byte	0
 2415 014a 00       		.byte	0
 2416 014b 1B       		.uleb128 0x1b
 2417 014c 898201   		.uleb128 0x4109
 2418 014f 00       		.byte	0
 2419 0150 11       		.uleb128 0x11
 2420 0151 01       		.uleb128 0x1
 2421 0152 31       		.uleb128 0x31
 2422 0153 13       		.uleb128 0x13
 2423 0154 00       		.byte	0
 2424 0155 00       		.byte	0
ARM GAS  /tmp/ccwwDfJk.s 			page 68


 2425 0156 1C       		.uleb128 0x1c
 2426 0157 898201   		.uleb128 0x4109
 2427 015a 01       		.byte	0x1
 2428 015b 11       		.uleb128 0x11
 2429 015c 01       		.uleb128 0x1
 2430 015d 31       		.uleb128 0x31
 2431 015e 13       		.uleb128 0x13
 2432 015f 01       		.uleb128 0x1
 2433 0160 13       		.uleb128 0x13
 2434 0161 00       		.byte	0
 2435 0162 00       		.byte	0
 2436 0163 1D       		.uleb128 0x1d
 2437 0164 8A8201   		.uleb128 0x410a
 2438 0167 00       		.byte	0
 2439 0168 02       		.uleb128 0x2
 2440 0169 18       		.uleb128 0x18
 2441 016a 9142     		.uleb128 0x2111
 2442 016c 18       		.uleb128 0x18
 2443 016d 00       		.byte	0
 2444 016e 00       		.byte	0
 2445 016f 1E       		.uleb128 0x1e
 2446 0170 898201   		.uleb128 0x4109
 2447 0173 01       		.byte	0x1
 2448 0174 11       		.uleb128 0x11
 2449 0175 01       		.uleb128 0x1
 2450 0176 31       		.uleb128 0x31
 2451 0177 13       		.uleb128 0x13
 2452 0178 00       		.byte	0
 2453 0179 00       		.byte	0
 2454 017a 1F       		.uleb128 0x1f
 2455 017b 34       		.uleb128 0x34
 2456 017c 00       		.byte	0
 2457 017d 03       		.uleb128 0x3
 2458 017e 08       		.uleb128 0x8
 2459 017f 3A       		.uleb128 0x3a
 2460 0180 0B       		.uleb128 0xb
 2461 0181 3B       		.uleb128 0x3b
 2462 0182 0B       		.uleb128 0xb
 2463 0183 49       		.uleb128 0x49
 2464 0184 13       		.uleb128 0x13
 2465 0185 00       		.byte	0
 2466 0186 00       		.byte	0
 2467 0187 20       		.uleb128 0x20
 2468 0188 34       		.uleb128 0x34
 2469 0189 00       		.byte	0
 2470 018a 03       		.uleb128 0x3
 2471 018b 0E       		.uleb128 0xe
 2472 018c 3A       		.uleb128 0x3a
 2473 018d 0B       		.uleb128 0xb
 2474 018e 3B       		.uleb128 0x3b
 2475 018f 0B       		.uleb128 0xb
 2476 0190 49       		.uleb128 0x49
 2477 0191 13       		.uleb128 0x13
 2478 0192 02       		.uleb128 0x2
 2479 0193 18       		.uleb128 0x18
 2480 0194 00       		.byte	0
 2481 0195 00       		.byte	0
ARM GAS  /tmp/ccwwDfJk.s 			page 69


 2482 0196 21       		.uleb128 0x21
 2483 0197 34       		.uleb128 0x34
 2484 0198 00       		.byte	0
 2485 0199 03       		.uleb128 0x3
 2486 019a 0E       		.uleb128 0xe
 2487 019b 3A       		.uleb128 0x3a
 2488 019c 0B       		.uleb128 0xb
 2489 019d 3B       		.uleb128 0x3b
 2490 019e 05       		.uleb128 0x5
 2491 019f 49       		.uleb128 0x49
 2492 01a0 13       		.uleb128 0x13
 2493 01a1 3F       		.uleb128 0x3f
 2494 01a2 19       		.uleb128 0x19
 2495 01a3 3C       		.uleb128 0x3c
 2496 01a4 19       		.uleb128 0x19
 2497 01a5 00       		.byte	0
 2498 01a6 00       		.byte	0
 2499 01a7 22       		.uleb128 0x22
 2500 01a8 34       		.uleb128 0x34
 2501 01a9 00       		.byte	0
 2502 01aa 03       		.uleb128 0x3
 2503 01ab 08       		.uleb128 0x8
 2504 01ac 3A       		.uleb128 0x3a
 2505 01ad 0B       		.uleb128 0xb
 2506 01ae 3B       		.uleb128 0x3b
 2507 01af 05       		.uleb128 0x5
 2508 01b0 49       		.uleb128 0x49
 2509 01b1 13       		.uleb128 0x13
 2510 01b2 3F       		.uleb128 0x3f
 2511 01b3 19       		.uleb128 0x19
 2512 01b4 3C       		.uleb128 0x3c
 2513 01b5 19       		.uleb128 0x19
 2514 01b6 00       		.byte	0
 2515 01b7 00       		.byte	0
 2516 01b8 23       		.uleb128 0x23
 2517 01b9 34       		.uleb128 0x34
 2518 01ba 00       		.byte	0
 2519 01bb 03       		.uleb128 0x3
 2520 01bc 0E       		.uleb128 0xe
 2521 01bd 3A       		.uleb128 0x3a
 2522 01be 0B       		.uleb128 0xb
 2523 01bf 3B       		.uleb128 0x3b
 2524 01c0 0B       		.uleb128 0xb
 2525 01c1 49       		.uleb128 0x49
 2526 01c2 13       		.uleb128 0x13
 2527 01c3 3F       		.uleb128 0x3f
 2528 01c4 19       		.uleb128 0x19
 2529 01c5 3C       		.uleb128 0x3c
 2530 01c6 19       		.uleb128 0x19
 2531 01c7 00       		.byte	0
 2532 01c8 00       		.byte	0
 2533 01c9 24       		.uleb128 0x24
 2534 01ca 2E       		.uleb128 0x2e
 2535 01cb 00       		.byte	0
 2536 01cc 3F       		.uleb128 0x3f
 2537 01cd 19       		.uleb128 0x19
 2538 01ce 03       		.uleb128 0x3
ARM GAS  /tmp/ccwwDfJk.s 			page 70


 2539 01cf 0E       		.uleb128 0xe
 2540 01d0 3A       		.uleb128 0x3a
 2541 01d1 0B       		.uleb128 0xb
 2542 01d2 3B       		.uleb128 0x3b
 2543 01d3 0B       		.uleb128 0xb
 2544 01d4 27       		.uleb128 0x27
 2545 01d5 19       		.uleb128 0x19
 2546 01d6 3C       		.uleb128 0x3c
 2547 01d7 19       		.uleb128 0x19
 2548 01d8 00       		.byte	0
 2549 01d9 00       		.byte	0
 2550 01da 25       		.uleb128 0x25
 2551 01db 2E       		.uleb128 0x2e
 2552 01dc 00       		.byte	0
 2553 01dd 3F       		.uleb128 0x3f
 2554 01de 19       		.uleb128 0x19
 2555 01df 03       		.uleb128 0x3
 2556 01e0 0E       		.uleb128 0xe
 2557 01e1 3A       		.uleb128 0x3a
 2558 01e2 0B       		.uleb128 0xb
 2559 01e3 3B       		.uleb128 0x3b
 2560 01e4 05       		.uleb128 0x5
 2561 01e5 27       		.uleb128 0x27
 2562 01e6 19       		.uleb128 0x19
 2563 01e7 3C       		.uleb128 0x3c
 2564 01e8 19       		.uleb128 0x19
 2565 01e9 00       		.byte	0
 2566 01ea 00       		.byte	0
 2567 01eb 26       		.uleb128 0x26
 2568 01ec 2E       		.uleb128 0x2e
 2569 01ed 01       		.byte	0x1
 2570 01ee 3F       		.uleb128 0x3f
 2571 01ef 19       		.uleb128 0x19
 2572 01f0 03       		.uleb128 0x3
 2573 01f1 0E       		.uleb128 0xe
 2574 01f2 3A       		.uleb128 0x3a
 2575 01f3 0B       		.uleb128 0xb
 2576 01f4 3B       		.uleb128 0x3b
 2577 01f5 05       		.uleb128 0x5
 2578 01f6 27       		.uleb128 0x27
 2579 01f7 19       		.uleb128 0x19
 2580 01f8 3C       		.uleb128 0x3c
 2581 01f9 19       		.uleb128 0x19
 2582 01fa 01       		.uleb128 0x1
 2583 01fb 13       		.uleb128 0x13
 2584 01fc 00       		.byte	0
 2585 01fd 00       		.byte	0
 2586 01fe 27       		.uleb128 0x27
 2587 01ff 2E       		.uleb128 0x2e
 2588 0200 01       		.byte	0x1
 2589 0201 3F       		.uleb128 0x3f
 2590 0202 19       		.uleb128 0x19
 2591 0203 03       		.uleb128 0x3
 2592 0204 0E       		.uleb128 0xe
 2593 0205 3A       		.uleb128 0x3a
 2594 0206 0B       		.uleb128 0xb
 2595 0207 3B       		.uleb128 0x3b
ARM GAS  /tmp/ccwwDfJk.s 			page 71


 2596 0208 0B       		.uleb128 0xb
 2597 0209 27       		.uleb128 0x27
 2598 020a 19       		.uleb128 0x19
 2599 020b 3C       		.uleb128 0x3c
 2600 020c 19       		.uleb128 0x19
 2601 020d 01       		.uleb128 0x1
 2602 020e 13       		.uleb128 0x13
 2603 020f 00       		.byte	0
 2604 0210 00       		.byte	0
 2605 0211 28       		.uleb128 0x28
 2606 0212 2E       		.uleb128 0x2e
 2607 0213 01       		.byte	0x1
 2608 0214 3F       		.uleb128 0x3f
 2609 0215 19       		.uleb128 0x19
 2610 0216 03       		.uleb128 0x3
 2611 0217 0E       		.uleb128 0xe
 2612 0218 3A       		.uleb128 0x3a
 2613 0219 0B       		.uleb128 0xb
 2614 021a 3B       		.uleb128 0x3b
 2615 021b 05       		.uleb128 0x5
 2616 021c 27       		.uleb128 0x27
 2617 021d 19       		.uleb128 0x19
 2618 021e 3C       		.uleb128 0x3c
 2619 021f 19       		.uleb128 0x19
 2620 0220 00       		.byte	0
 2621 0221 00       		.byte	0
 2622 0222 00       		.byte	0
 2623              		.section	.debug_aranges,"",%progbits
 2624 0000 1C000000 		.4byte	0x1c
 2625 0004 0200     		.2byte	0x2
 2626 0006 00000000 		.4byte	.Ldebug_info0
 2627 000a 04       		.byte	0x4
 2628 000b 00       		.byte	0
 2629 000c 0000     		.2byte	0
 2630 000e 0000     		.2byte	0
 2631 0010 00000000 		.4byte	.LFB219
 2632 0014 76000000 		.4byte	.LFE219-.LFB219
 2633 0018 00000000 		.4byte	0
 2634 001c 00000000 		.4byte	0
 2635              		.section	.debug_ranges,"",%progbits
 2636              	.Ldebug_ranges0:
 2637 0000 00000000 		.4byte	.LFB219
 2638 0004 76000000 		.4byte	.LFE219
 2639 0008 00000000 		.4byte	0
 2640 000c 00000000 		.4byte	0
 2641              		.section	.debug_line,"",%progbits
 2642              	.Ldebug_line0:
 2643 0000 C9020000 		.section	.debug_str,"MS",%progbits,1
 2643      02009602 
 2643      00000201 
 2643      FB0E0D00 
 2643      01010101 
 2644              	.LASF136:
 2645 0000 646D6172 		.ascii	"dmarx\000"
 2645      7800
 2646              	.LASF123:
 2647 0006 69326364 		.ascii	"i2cdutycycle_t\000"
ARM GAS  /tmp/ccwwDfJk.s 			page 72


 2647      75747963 
 2647      79636C65 
 2647      5F7400
 2648              	.LASF46:
 2649 0015 72656164 		.ascii	"ready_list_t\000"
 2649      795F6C69 
 2649      73745F74 
 2649      00
 2650              	.LASF86:
 2651 0022 77747472 		.ascii	"wttrp\000"
 2651      7000
 2652              	.LASF52:
 2653 0028 64656C74 		.ascii	"delta\000"
 2653      6100
 2654              	.LASF83:
 2655 002e 7264796D 		.ascii	"rdymsg\000"
 2655      736700
 2656              	.LASF12:
 2657 0035 75696E74 		.ascii	"uint64_t\000"
 2657      36345F74 
 2657      00
 2658              	.LASF45:
 2659 003e 70726576 		.ascii	"prev\000"
 2659      00
 2660              	.LASF82:
 2661 0043 706F7274 		.ascii	"port_intctx\000"
 2661      5F696E74 
 2661      63747800 
 2662              	.LASF57:
 2663 004f 73797374 		.ascii	"system_debug_t\000"
 2663      656D5F64 
 2663      65627567 
 2663      5F7400
 2664              	.LASF151:
 2665 005e 4C43445F 		.ascii	"LCD_STOP\000"
 2665      53544F50 
 2665      00
 2666              	.LASF148:
 2667 0067 4C43445F 		.ascii	"LCD_SET_2LINES\000"
 2667      5345545F 
 2667      324C494E 
 2667      455300
 2668              	.LASF77:
 2669 0076 54524953 		.ascii	"TRISE\000"
 2669      4500
 2670              	.LASF104:
 2671 007c 696F706F 		.ascii	"ioportmask_t\000"
 2671      72746D61 
 2671      736B5F74 
 2671      00
 2672              	.LASF13:
 2673 0089 6C6F6E67 		.ascii	"long long unsigned int\000"
 2673      206C6F6E 
 2673      6720756E 
 2673      7369676E 
 2673      65642069 
 2674              	.LASF133:
ARM GAS  /tmp/ccwwDfJk.s 			page 73


 2675 00a0 61646472 		.ascii	"addr\000"
 2675      00
 2676              	.LASF84:
 2677 00a5 65786974 		.ascii	"exitcode\000"
 2677      636F6465 
 2677      00
 2678              	.LASF102:
 2679 00ae 76656374 		.ascii	"vector\000"
 2679      6F7200
 2680              	.LASF64:
 2681 00b5 6D61696E 		.ascii	"mainthread\000"
 2681      74687265 
 2681      616400
 2682              	.LASF87:
 2683 00c0 73656E74 		.ascii	"sentmsg\000"
 2683      6D736700 
 2684              	.LASF54:
 2685 00c8 76697274 		.ascii	"virtual_timers_list_t\000"
 2685      75616C5F 
 2685      74696D65 
 2685      72735F6C 
 2685      6973745F 
 2686              	.LASF155:
 2687 00de 69326363 		.ascii	"i2ccfg\000"
 2687      666700
 2688              	.LASF165:
 2689 00e5 49544D5F 		.ascii	"ITM_RxBuffer\000"
 2689      52784275 
 2689      66666572 
 2689      00
 2690              	.LASF154:
 2691 00f2 69326370 		.ascii	"i2cp\000"
 2691      00
 2692              	.LASF42:
 2693 00f7 6E657874 		.ascii	"next\000"
 2693      00
 2694              	.LASF44:
 2695 00fc 63685F74 		.ascii	"ch_threads_queue\000"
 2695      68726561 
 2695      64735F71 
 2695      75657565 
 2695      00
 2696              	.LASF125:
 2697 010d 636C6F63 		.ascii	"clock_speed\000"
 2697      6B5F7370 
 2697      65656400 
 2698              	.LASF109:
 2699 0119 4932435F 		.ascii	"I2C_READY\000"
 2699      52454144 
 2699      5900
 2700              	.LASF11:
 2701 0123 6C6F6E67 		.ascii	"long long int\000"
 2701      206C6F6E 
 2701      6720696E 
 2701      7400
 2702              	.LASF1:
 2703 0131 7369676E 		.ascii	"signed char\000"
ARM GAS  /tmp/ccwwDfJk.s 			page 74


 2703      65642063 
 2703      68617200 
 2704              	.LASF158:
 2705 013d 626C696E 		.ascii	"blinking\000"
 2705      6B696E67 
 2705      00
 2706              	.LASF72:
 2707 0146 42535252 		.ascii	"BSRR\000"
 2707      00
 2708              	.LASF169:
 2709 014b 63685379 		.ascii	"chSysInit\000"
 2709      73496E69 
 2709      7400
 2710              	.LASF139:
 2711 0155 4C43445F 		.ascii	"LCD_CURSOR_ON\000"
 2711      43555253 
 2711      4F525F4F 
 2711      4E00
 2712              	.LASF63:
 2713 0163 76746C69 		.ascii	"vtlist\000"
 2713      737400
 2714              	.LASF33:
 2715 016a 6D736771 		.ascii	"msgqueue\000"
 2715      75657565 
 2715      00
 2716              	.LASF114:
 2717 0173 69326361 		.ascii	"i2caddr_t\000"
 2717      6464725F 
 2717      7400
 2718              	.LASF29:
 2719 017d 73746174 		.ascii	"state\000"
 2719      6500
 2720              	.LASF8:
 2721 0183 6C6F6E67 		.ascii	"long int\000"
 2721      20696E74 
 2721      00
 2722              	.LASF15:
 2723 018c 74737461 		.ascii	"tstate_t\000"
 2723      74655F74 
 2723      00
 2724              	.LASF53:
 2725 0195 66756E63 		.ascii	"func\000"
 2725      00
 2726              	.LASF132:
 2727 019a 74687265 		.ascii	"thread\000"
 2727      616400
 2728              	.LASF127:
 2729 01a1 49324343 		.ascii	"I2CConfig\000"
 2729      6F6E6669 
 2729      6700
 2730              	.LASF100:
 2731 01ab 73686966 		.ascii	"shift\000"
 2731      7400
 2732              	.LASF134:
 2733 01b1 7278646D 		.ascii	"rxdmamode\000"
 2733      616D6F64 
 2733      6500
ARM GAS  /tmp/ccwwDfJk.s 			page 75


 2734              	.LASF137:
 2735 01bb 646D6174 		.ascii	"dmatx\000"
 2735      7800
 2736              	.LASF118:
 2737 01c1 4F504D4F 		.ascii	"OPMODE_SMBUS_HOST\000"
 2737      44455F53 
 2737      4D425553 
 2737      5F484F53 
 2737      5400
 2738              	.LASF79:
 2739 01d3 72656761 		.ascii	"regarm_t\000"
 2739      726D5F74 
 2739      00
 2740              	.LASF101:
 2741 01dc 73656C66 		.ascii	"selfindex\000"
 2741      696E6465 
 2741      7800
 2742              	.LASF162:
 2743 01e6 4C434443 		.ascii	"LCDConfig\000"
 2743      6F6E6669 
 2743      6700
 2744              	.LASF124:
 2745 01f0 6F705F6D 		.ascii	"op_mode\000"
 2745      6F646500 
 2746              	.LASF32:
 2747 01f8 77616974 		.ascii	"waiting\000"
 2747      696E6700 
 2748              	.LASF140:
 2749 0200 6C63645F 		.ascii	"lcd_cursor_t\000"
 2749      63757273 
 2749      6F725F74 
 2749      00
 2750              	.LASF135:
 2751 020d 7478646D 		.ascii	"txdmamode\000"
 2751      616D6F64 
 2751      6500
 2752              	.LASF95:
 2753 0217 6D757465 		.ascii	"mutex_t\000"
 2753      785F7400 
 2754              	.LASF71:
 2755 021f 444D415F 		.ascii	"DMA_TypeDef\000"
 2755      54797065 
 2755      44656600 
 2756              	.LASF20:
 2757 022b 636E745F 		.ascii	"cnt_t\000"
 2757      7400
 2758              	.LASF0:
 2759 0231 756E7369 		.ascii	"unsigned int\000"
 2759      676E6564 
 2759      20696E74 
 2759      00
 2760              	.LASF166:
 2761 023e 49324344 		.ascii	"I2CD1\000"
 2761      3100
 2762              	.LASF5:
 2763 0244 75696E74 		.ascii	"uint16_t\000"
 2763      31365F74 
ARM GAS  /tmp/ccwwDfJk.s 			page 76


 2763      00
 2764              	.LASF88:
 2765 024d 77747365 		.ascii	"wtsemp\000"
 2765      6D7000
 2766              	.LASF67:
 2767 0254 43504152 		.ascii	"CPAR\000"
 2767      00
 2768              	.LASF10:
 2769 0259 6C6F6E67 		.ascii	"long unsigned int\000"
 2769      20756E73 
 2769      69676E65 
 2769      6420696E 
 2769      7400
 2770              	.LASF74:
 2771 026b 4750494F 		.ascii	"GPIO_TypeDef\000"
 2771      5F547970 
 2771      65446566 
 2771      00
 2772              	.LASF168:
 2773 0278 68616C49 		.ascii	"halInit\000"
 2773      6E697400 
 2774              	.LASF73:
 2775 0280 4C434B52 		.ascii	"LCKR\000"
 2775      00
 2776              	.LASF27:
 2777 0285 6E616D65 		.ascii	"name\000"
 2777      00
 2778              	.LASF23:
 2779 028a 71756575 		.ascii	"queue\000"
 2779      6500
 2780              	.LASF37:
 2781 0290 6D706F6F 		.ascii	"mpool\000"
 2781      6C00
 2782              	.LASF117:
 2783 0296 4F504D4F 		.ascii	"OPMODE_SMBUS_DEVICE\000"
 2783      44455F53 
 2783      4D425553 
 2783      5F444556 
 2783      49434500 
 2784              	.LASF6:
 2785 02aa 73686F72 		.ascii	"short unsigned int\000"
 2785      7420756E 
 2785      7369676E 
 2785      65642069 
 2785      6E7400
 2786              	.LASF150:
 2787 02bd 4C43445F 		.ascii	"LCD_UNINIT\000"
 2787      554E494E 
 2787      495400
 2788              	.LASF40:
 2789 02c8 63685F74 		.ascii	"ch_thread\000"
 2789      68726561 
 2789      6400
 2790              	.LASF160:
 2791 02d2 6C696E65 		.ascii	"lines\000"
 2791      7300
 2792              	.LASF99:
ARM GAS  /tmp/ccwwDfJk.s 			page 77


 2793 02d8 6373656C 		.ascii	"cselr\000"
 2793      7200
 2794              	.LASF18:
 2795 02de 6D73675F 		.ascii	"msg_t\000"
 2795      7400
 2796              	.LASF34:
 2797 02e4 6570656E 		.ascii	"epending\000"
 2797      64696E67 
 2797      00
 2798              	.LASF153:
 2799 02ed 6C63645F 		.ascii	"lcd_state_t\000"
 2799      73746174 
 2799      655F7400 
 2800              	.LASF60:
 2801 02f9 63685F73 		.ascii	"ch_system_t\000"
 2801      79737465 
 2801      6D5F7400 
 2802              	.LASF175:
 2803 0305 6D61696E 		.ascii	"main.c\000"
 2803      2E6300
 2804              	.LASF142:
 2805 030c 4C43445F 		.ascii	"LCD_BLINKING_ON\000"
 2805      424C494E 
 2805      4B494E47 
 2805      5F4F4E00 
 2806              	.LASF14:
 2807 031c 746D6F64 		.ascii	"tmode_t\000"
 2807      655F7400 
 2808              	.LASF120:
 2809 0324 5354445F 		.ascii	"STD_DUTY_CYCLE\000"
 2809      44555459 
 2809      5F435943 
 2809      4C4500
 2810              	.LASF47:
 2811 0333 63685F72 		.ascii	"ch_ready_list\000"
 2811      65616479 
 2811      5F6C6973 
 2811      7400
 2812              	.LASF19:
 2813 0341 6576656E 		.ascii	"eventmask_t\000"
 2813      746D6173 
 2813      6B5F7400 
 2814              	.LASF3:
 2815 034d 73686F72 		.ascii	"short int\000"
 2815      7420696E 
 2815      7400
 2816              	.LASF80:
 2817 0357 73746B61 		.ascii	"stkalign_t\000"
 2817      6C69676E 
 2817      5F7400
 2818              	.LASF25:
 2819 0362 6E657765 		.ascii	"newer\000"
 2819      7200
 2820              	.LASF164:
 2821 0368 6C636463 		.ascii	"lcdcfg\000"
 2821      666700
 2822              	.LASF98:
ARM GAS  /tmp/ccwwDfJk.s 			page 78


 2823 036f 636D6173 		.ascii	"cmask\000"
 2823      6B00
 2824              	.LASF36:
 2825 0375 7265616C 		.ascii	"realprio\000"
 2825      7072696F 
 2825      00
 2826              	.LASF141:
 2827 037e 4C43445F 		.ascii	"LCD_BLINKING_OFF\000"
 2827      424C494E 
 2827      4B494E47 
 2827      5F4F4646 
 2827      00
 2828              	.LASF108:
 2829 038f 4932435F 		.ascii	"I2C_STOP\000"
 2829      53544F50 
 2829      00
 2830              	.LASF65:
 2831 0398 73697A65 		.ascii	"sizetype\000"
 2831      74797065 
 2831      00
 2832              	.LASF38:
 2833 03a1 74687265 		.ascii	"thread_reference_t\000"
 2833      61645F72 
 2833      65666572 
 2833      656E6365 
 2833      5F7400
 2834              	.LASF55:
 2835 03b4 63685F76 		.ascii	"ch_virtual_timers_list\000"
 2835      69727475 
 2835      616C5F74 
 2835      696D6572 
 2835      735F6C69 
 2836              	.LASF161:
 2837 03cb 6261636B 		.ascii	"backlight\000"
 2837      6C696768 
 2837      7400
 2838              	.LASF130:
 2839 03d5 6572726F 		.ascii	"errors\000"
 2839      727300
 2840              	.LASF126:
 2841 03dc 64757479 		.ascii	"duty_cycle\000"
 2841      5F637963 
 2841      6C6500
 2842              	.LASF81:
 2843 03e7 706F7274 		.ascii	"port_context\000"
 2843      5F636F6E 
 2843      74657874 
 2843      00
 2844              	.LASF163:
 2845 03f4 4C434444 		.ascii	"LCDDriver\000"
 2845      72697665 
 2845      7200
 2846              	.LASF149:
 2847 03fe 6C63645F 		.ascii	"lcd_set_lines_t\000"
 2847      7365745F 
 2847      6C696E65 
 2847      735F7400 
ARM GAS  /tmp/ccwwDfJk.s 			page 79


 2848              	.LASF157:
 2849 040e 63757273 		.ascii	"cursor\000"
 2849      6F7200
 2850              	.LASF116:
 2851 0415 4F504D4F 		.ascii	"OPMODE_I2C\000"
 2851      44455F49 
 2851      324300
 2852              	.LASF24:
 2853 0420 7072696F 		.ascii	"prio\000"
 2853      00
 2854              	.LASF145:
 2855 0425 4C43445F 		.ascii	"LCD_SET_FONT_5X10\000"
 2855      5345545F 
 2855      464F4E54 
 2855      5F355831 
 2855      3000
 2856              	.LASF48:
 2857 0437 63757272 		.ascii	"current\000"
 2857      656E7400 
 2858              	.LASF167:
 2859 043f 4C434444 		.ascii	"LCDD1\000"
 2859      3100
 2860              	.LASF69:
 2861 0445 444D415F 		.ascii	"DMA_Channel_TypeDef\000"
 2861      4368616E 
 2861      6E656C5F 
 2861      54797065 
 2861      44656600 
 2862              	.LASF152:
 2863 0459 4C43445F 		.ascii	"LCD_ACTIVE\000"
 2863      41435449 
 2863      564500
 2864              	.LASF16:
 2865 0464 74726566 		.ascii	"trefs_t\000"
 2865      735F7400 
 2866              	.LASF113:
 2867 046c 69326373 		.ascii	"i2cstate_t\000"
 2867      74617465 
 2867      5F7400
 2868              	.LASF122:
 2869 0477 46415354 		.ascii	"FAST_DUTY_CYCLE_16_9\000"
 2869      5F445554 
 2869      595F4359 
 2869      434C455F 
 2869      31365F39 
 2870              	.LASF31:
 2871 048c 72656673 		.ascii	"refs\000"
 2871      00
 2872              	.LASF50:
 2873 0491 76697274 		.ascii	"virtual_timer_t\000"
 2873      75616C5F 
 2873      74696D65 
 2873      725F7400 
 2874              	.LASF103:
 2875 04a1 73746D33 		.ascii	"stm32_dma_stream_t\000"
 2875      325F646D 
 2875      615F7374 
ARM GAS  /tmp/ccwwDfJk.s 			page 80


 2875      7265616D 
 2875      5F7400
 2876              	.LASF17:
 2877 04b4 74707269 		.ascii	"tprio_t\000"
 2877      6F5F7400 
 2878              	.LASF110:
 2879 04bc 4932435F 		.ascii	"I2C_ACTIVE_TX\000"
 2879      41435449 
 2879      56455F54 
 2879      5800
 2880              	.LASF115:
 2881 04ca 69326366 		.ascii	"i2cflags_t\000"
 2881      6C616773 
 2881      5F7400
 2882              	.LASF131:
 2883 04d5 6D757465 		.ascii	"mutex\000"
 2883      7800
 2884              	.LASF58:
 2885 04db 63685F73 		.ascii	"ch_system_debug\000"
 2885      79737465 
 2885      6D5F6465 
 2885      62756700 
 2886              	.LASF96:
 2887 04eb 5F426F6F 		.ascii	"_Bool\000"
 2887      6C00
 2888              	.LASF7:
 2889 04f1 696E7433 		.ascii	"int32_t\000"
 2889      325F7400 
 2890              	.LASF2:
 2891 04f9 756E7369 		.ascii	"unsigned char\000"
 2891      676E6564 
 2891      20636861 
 2891      7200
 2892              	.LASF138:
 2893 0507 4C43445F 		.ascii	"LCD_CURSOR_OFF\000"
 2893      43555253 
 2893      4F525F4F 
 2893      464600
 2894              	.LASF107:
 2895 0516 4932435F 		.ascii	"I2C_UNINIT\000"
 2895      554E494E 
 2895      495400
 2896              	.LASF56:
 2897 0521 6C617374 		.ascii	"lasttime\000"
 2897      74696D65 
 2897      00
 2898              	.LASF90:
 2899 052a 65776D61 		.ascii	"ewmask\000"
 2899      736B00
 2900              	.LASF61:
 2901 0531 63685F73 		.ascii	"ch_system\000"
 2901      79737465 
 2901      6D00
 2902              	.LASF121:
 2903 053b 46415354 		.ascii	"FAST_DUTY_CYCLE_2\000"
 2903      5F445554 
 2903      595F4359 
ARM GAS  /tmp/ccwwDfJk.s 			page 81


 2903      434C455F 
 2903      3200
 2904              	.LASF97:
 2905 054d 6368616E 		.ascii	"channel\000"
 2905      6E656C00 
 2906              	.LASF91:
 2907 0555 63685F73 		.ascii	"ch_semaphore\000"
 2907      656D6170 
 2907      686F7265 
 2907      00
 2908              	.LASF112:
 2909 0562 4932435F 		.ascii	"I2C_LOCKED\000"
 2909      4C4F434B 
 2909      454400
 2910              	.LASF156:
 2911 056d 736C6176 		.ascii	"slaveaddress\000"
 2911      65616464 
 2911      72657373 
 2911      00
 2912              	.LASF178:
 2913 057a 63685468 		.ascii	"chThdSleep\000"
 2913      64536C65 
 2913      657000
 2914              	.LASF146:
 2915 0585 6C63645F 		.ascii	"lcd_set_font_t\000"
 2915      7365745F 
 2915      666F6E74 
 2915      5F7400
 2916              	.LASF173:
 2917 0594 6C636457 		.ascii	"lcdWriteString\000"
 2917      72697465 
 2917      53747269 
 2917      6E6700
 2918              	.LASF9:
 2919 05a3 75696E74 		.ascii	"uint32_t\000"
 2919      33325F74 
 2919      00
 2920              	.LASF89:
 2921 05ac 77746D74 		.ascii	"wtmtxp\000"
 2921      787000
 2922              	.LASF41:
 2923 05b3 63685F74 		.ascii	"ch_threads_list\000"
 2923      68726561 
 2923      64735F6C 
 2923      69737400 
 2924              	.LASF93:
 2925 05c3 6F776E65 		.ascii	"owner\000"
 2925      7200
 2926              	.LASF172:
 2927 05c9 6C636453 		.ascii	"lcdStart\000"
 2927      74617274 
 2927      00
 2928              	.LASF111:
 2929 05d2 4932435F 		.ascii	"I2C_ACTIVE_RX\000"
 2929      41435449 
 2929      56455F52 
 2929      5800
ARM GAS  /tmp/ccwwDfJk.s 			page 82


 2930              	.LASF70:
 2931 05e0 49464352 		.ascii	"IFCR\000"
 2931      00
 2932              	.LASF28:
 2933 05e5 77616261 		.ascii	"wabase\000"
 2933      736500
 2934              	.LASF94:
 2935 05ec 63686172 		.ascii	"char\000"
 2935      00
 2936              	.LASF26:
 2937 05f1 6F6C6465 		.ascii	"older\000"
 2937      7200
 2938              	.LASF129:
 2939 05f7 636F6E66 		.ascii	"config\000"
 2939      696700
 2940              	.LASF176:
 2941 05fe 2F686F6D 		.ascii	"/home/julian/MEGA/semestre_ix/Crasby/ChibiOS_17.6.2"
 2941      652F6A75 
 2941      6C69616E 
 2941      2F4D4547 
 2941      412F7365 
 2942 0631 2F64656D 		.ascii	"/demos/STM32/RT2-STM32F100-DISCOVERY\000"
 2942      6F732F53 
 2942      544D3332 
 2942      2F525432 
 2942      2D53544D 
 2943              	.LASF22:
 2944 0656 74687265 		.ascii	"thread_t\000"
 2944      61645F74 
 2944      00
 2945              	.LASF21:
 2946 065f 73797374 		.ascii	"systime_t\000"
 2946      696D655F 
 2946      7400
 2947              	.LASF49:
 2948 0669 76746675 		.ascii	"vtfunc_t\000"
 2948      6E635F74 
 2948      00
 2949              	.LASF59:
 2950 0672 70616E69 		.ascii	"panic_msg\000"
 2950      635F6D73 
 2950      6700
 2951              	.LASF147:
 2952 067c 4C43445F 		.ascii	"LCD_SET_1LINE\000"
 2952      5345545F 
 2952      314C494E 
 2952      4500
 2953              	.LASF128:
 2954 068a 49324344 		.ascii	"I2CDriver\000"
 2954      72697665 
 2954      7200
 2955              	.LASF106:
 2956 0694 696F706F 		.ascii	"ioportid_t\000"
 2956      72746964 
 2956      5F7400
 2957              	.LASF171:
 2958 069f 5F70616C 		.ascii	"_pal_lld_setgroupmode\000"
ARM GAS  /tmp/ccwwDfJk.s 			page 83


 2958      5F6C6C64 
 2958      5F736574 
 2958      67726F75 
 2958      706D6F64 
 2959              	.LASF51:
 2960 06b5 63685F76 		.ascii	"ch_virtual_timer\000"
 2960      69727475 
 2960      616C5F74 
 2960      696D6572 
 2960      00
 2961              	.LASF144:
 2962 06c6 4C43445F 		.ascii	"LCD_SET_FONT_5X8\000"
 2962      5345545F 
 2962      464F4E54 
 2962      5F355838 
 2962      00
 2963              	.LASF143:
 2964 06d7 6C63645F 		.ascii	"lcd_blinking_t\000"
 2964      626C696E 
 2964      6B696E67 
 2964      5F7400
 2965              	.LASF174:
 2966 06e6 474E5520 		.ascii	"GNU C 4.8.1 -mcpu=cortex-m3 -mno-thumb-interwork -m"
 2966      4320342E 
 2966      382E3120 
 2966      2D6D6370 
 2966      753D636F 
 2967 0719 7468756D 		.ascii	"thumb -ggdb -O2 -fomit-frame-pointer -falign-functi"
 2967      62202D67 
 2967      67646220 
 2967      2D4F3220 
 2967      2D666F6D 
 2968 074c 6F6E733D 		.ascii	"ons=16 -ffunction-sections -fdata-sections -fno-com"
 2968      3136202D 
 2968      6666756E 
 2968      6374696F 
 2968      6E2D7365 
 2969 077f 6D6F6E20 		.ascii	"mon -flto\000"
 2969      2D666C74 
 2969      6F00
 2970              	.LASF43:
 2971 0789 74687265 		.ascii	"threads_queue_t\000"
 2971      6164735F 
 2971      71756575 
 2971      655F7400 
 2972              	.LASF92:
 2973 0799 63685F6D 		.ascii	"ch_mutex\000"
 2973      75746578 
 2973      00
 2974              	.LASF159:
 2975 07a2 666F6E74 		.ascii	"font\000"
 2975      00
 2976              	.LASF66:
 2977 07a7 434E4454 		.ascii	"CNDTR\000"
 2977      5200
 2978              	.LASF68:
 2979 07ad 434D4152 		.ascii	"CMAR\000"
ARM GAS  /tmp/ccwwDfJk.s 			page 84


 2979      00
 2980              	.LASF62:
 2981 07b2 726C6973 		.ascii	"rlist\000"
 2981      7400
 2982              	.LASF4:
 2983 07b8 75696E74 		.ascii	"uint8_t\000"
 2983      385F7400 
 2984              	.LASF75:
 2985 07c0 4F415231 		.ascii	"OAR1\000"
 2985      00
 2986              	.LASF76:
 2987 07c5 4F415232 		.ascii	"OAR2\000"
 2987      00
 2988              	.LASF30:
 2989 07ca 666C6167 		.ascii	"flags\000"
 2989      7300
 2990              	.LASF85:
 2991 07d0 77746F62 		.ascii	"wtobjp\000"
 2991      6A7000
 2992              	.LASF170:
 2993 07d7 6C636449 		.ascii	"lcdInit\000"
 2993      6E697400 
 2994              	.LASF39:
 2995 07df 74687265 		.ascii	"threads_list_t\000"
 2995      6164735F 
 2995      6C697374 
 2995      5F7400
 2996              	.LASF78:
 2997 07ee 4932435F 		.ascii	"I2C_TypeDef\000"
 2997      54797065 
 2997      44656600 
 2998              	.LASF119:
 2999 07fa 6932636F 		.ascii	"i2copmode_t\000"
 2999      706D6F64 
 2999      655F7400 
 3000              	.LASF177:
 3001 0806 6D61696E 		.ascii	"main\000"
 3001      00
 3002              	.LASF35:
 3003 080b 6D74786C 		.ascii	"mtxlist\000"
 3003      69737400 
 3004              	.LASF105:
 3005 0813 696F6D6F 		.ascii	"iomode_t\000"
 3005      64655F74 
 3005      00
 3006              		.comm	__gnu_lto_v1,1,1
 3007              		.ident	"GCC: (Sourcery CodeBench Lite 2013.11-24) 4.8.1"
ARM GAS  /tmp/ccwwDfJk.s 			page 85


DEFINED SYMBOLS
                            *ABS*:00000000 main.c
     /tmp/ccwwDfJk.s:413    .text.startup.main:00000000 $t
     /tmp/ccwwDfJk.s:419    .text.startup.main:00000000 main
     /tmp/ccwwDfJk.s:505    .rodata.lcdcfg:00000000 .LANCHOR0
     /tmp/ccwwDfJk.s:488    .rodata.str1.4:00000000 .LC0
     /tmp/ccwwDfJk.s:491    .rodata.str1.4:00000010 .LC1
     /tmp/ccwwDfJk.s:487    .rodata.str1.4:00000000 $d
     /tmp/ccwwDfJk.s:494    .rodata.i2ccfg:00000000 $d
     /tmp/ccwwDfJk.s:497    .rodata.i2ccfg:00000000 i2ccfg
     /tmp/ccwwDfJk.s:504    .rodata.lcdcfg:00000000 $d
     /tmp/ccwwDfJk.s:508    .rodata.lcdcfg:00000000 lcdcfg
                            *COM*:00000001 __gnu_lto_v1
                     .debug_frame:00000010 $d

UNDEFINED SYMBOLS
halInit
chSysInit
lcdInit
_pal_lld_setgroupmode
LCDD1
lcdStart
lcdWriteString
chThdSleep
I2CD1
