ARM GAS  /tmp/ccjdOIf7.s 			page 1


   1              		.syntax unified
   2              		.cpu cortex-m3
   3              		.fpu softvfp
   4              		.eabi_attribute 20, 1
   5              		.eabi_attribute 21, 1
   6              		.eabi_attribute 23, 3
   7              		.eabi_attribute 24, 1
   8              		.eabi_attribute 25, 1
   9              		.eabi_attribute 26, 1
  10              		.eabi_attribute 30, 2
  11              		.eabi_attribute 34, 1
  12              		.eabi_attribute 18, 4
  13              		.thumb
  14              		.file	"nvic.c"
  15              		.text
  16              	.Ltext0:
  17              		.section	.gnu.lto_.jmpfuncs.dea032502c37c669,"",%progbits
  18 0000 789C6362 		.ascii	"x\234cb`b\300\006\270\2404\013\0033##\02333#\003\000"
  18      6062C006 
  18      B8A0340B 
  18      03332323 
  18      13333323 
  19 0016 01F00021 		.ascii	"\001\360\000!"
  20              		.text
  21              		.section	.gnu.lto_.inline.dea032502c37c669,"",%progbits
  22 0000 789C6D4C 		.ascii	"x\234mL\313\025\200 \014KK\205\352\305\021\330\300%"
  22      CB158020 
  22      0C4B4B85 
  22      EAC511D8 
  22      C025
  23 0012 5D84911C 		.ascii	"]\204\221\034\305\021LQy\036\354!}\371*\024\177\267"
  23      C5114C51 
  23      791EEC21 
  23      7DF92A14 
  23      7FB7
  24 0024 3FDF8065 		.ascii	"?\337\200e\026\025\011\022`\371\334\220[U\350\261\032"
  24      16150912 
  24      60F9DC90 
  24      5B55E8B1 
  24      1A
  25 0035 C89CAAD3 		.ascii	"\310\234\252\323\363\302TD\222\265zG\350Z\037QL&\322"
  25      F3C25444 
  25      92B57A47 
  25      E85A1F51 
  25      4C26D2
  26 0048 57127B9F 		.ascii	"W\022{\237\201PP\362[\035\346\250\342\002a/\015\002"
  26      815050F2 
  26      5B1DE6A8 
  26      E202612F 
  26      0D02
  27              		.text
  28              		.section	.gnu.lto_.pureconst.dea032502c37c669,"",%progbits
  29 0000 789C6362 		.ascii	"x\234cb`b\340d\200\000\026\006)F)&)f)\000\002\326\000"
  29      6062E064 
  29      80001606 
  29      29462926 
  29      29662900 
ARM GAS  /tmp/ccjdOIf7.s 			page 2


  30 0017 80       		.ascii	"\200"
  31              		.text
  32              		.section	.gnu.lto_nvicEnableVector.dea032502c37c669,"",%progbits
  33 0000 789C9D91 		.ascii	"x\234\235\221\277K\303@\024\307\337\273k\314\217\242"
  33      BF4BC340 
  33      14C7DFBB 
  33      6BCC8FA2 
  34 0010 AE3A5974 		.ascii	"\256:Yt\021\212\211N\016N\342\344\320\245T\320\261f"
  34      118A894E 
  34      0E4EE2E4 
  34      D0A554D0 
  34      B166
  35 0022 8801DB88 		.ascii	"\210\001\333\210\025q3m\272\351\320\301\305\352`\021"
  35      1571336D 
  35      BAE9D0C1 
  35      C5EA6011 
  36 0032 11C41F7F 		.ascii	"\021\304\037\177\200 \245\233C\0257')\256\202\210\223"
  36      8020A59B 
  36      43153727 
  36      29AE8288 
  36      93
  37 0043 A010DFE5 		.ascii	"\240\020\337\345l\245\"\016\036\311\335\273{\337\367"
  37      6CA5220E 
  37      1EC9DDBB 
  37      7BDFF7
  38 0052 BE9FE318 		.ascii	"\276\237\343\0300\3709\006\351O\323\361\004\255\310"
  38      30F83906 
  38      E94FD3F1 
  38      04ADC8
  39 0061 0159E506 		.ascii	"\001Y\345\006\240\2501D\021\000\302&\303\315\005\024"
  39      A0A83144 
  39      1100C226 
  39      C3CD0514 
  40 0071 521C869A 		.ascii	"R\034\206\232\357WZG\217olw\247^>\360?\302\020\321E"
  40      EF575A47 
  40      8F6F6C77 
  40      A75E3EF0 
  40      3FC210D1 
  41 0086 6A6B22D8 		.ascii	"jk\"\330\010\363\264\301D\264\260X\267\317\005\253\267"
  41      08F3B4C1 
  41      44B4B058 
  41      B7CF05AB 
  41      B7
  42 0097 C270FFB6 		.ascii	"\302p\377\266\3720\200\275\2109Q\344\"\347bRh\213*E"
  42      FA3080BD 
  42      883951E4 
  42      22E76252 
  42      688B2A45 
  43 00ab 310DB258 		.ascii	"1\015\262X#\037\2356`\320\244P\251\002e\262M\200p\240"
  43      231F9D36 
  43      60D0A450 
  43      A90265B2 
  43      4D8070A0 
  44 00bf 91A159B0 		.ascii	"\221\241Y\260\315!\023+oB\351)\010\3371\213\207$w\220"
  44      CD21132B 
  44      6F42E929 
  44      08DF318B 
ARM GAS  /tmp/ccjdOIf7.s 			page 3


  44      87247790 
  45 00d3 39488A26 		.ascii	"9H\212&\004g\274}\304\351T@\365\010\250&4feb\014N\375"
  45      0467BC7D 
  45      C4E95440 
  45      F508A826 
  45      34666562 
  46 00ea 72D19FA4 		.ascii	"r\321\237\244D\022ND\330\357\242\272\007U\222jB\257"
  46      44124E44 
  46      D8EFA2BA 
  46      0755926A 
  46      42AF
  47 00fc FB8DC0EF 		.ascii	"\373\215\300\357\213\356\243G\267XDy\033'\002\223\021"
  47      8BEEA347 
  47      B7584479 
  47      1B270293 
  47      11
  48 010d 8FCCCE83 		.ascii	"\217\314\316\203\343\355\321\266\237JyQ\004J\344Wz\016"
  48      E3EDD1B6 
  48      9F4A7951 
  48      044AE457 
  48      7A0E
  49 011f AE3A785A 		.ascii	"\256:xZTK\025\227\035<\335\221v0\004\022<x\355\310\015"
  49      544B1597 
  49      1D3CDD91 
  49      76300412 
  49      3C78EDC8 
  50 0134 915050A8 		.ascii	"\221PP\250\"\364\353\227x\027\374\224\213\3067|\374"
  50      22F4EB97 
  50      7817FC94 
  50      8BC6377C 
  50      FC
  51 0145 6F78FC42 		.ascii	"ox\374BV;\360\206lzOO\372\377\266\354\267\266wPlm\215"
  51      563BF086 
  51      6C7A4F4F 
  51      FAFFB6EC 
  51      B7B67750 
  52 015c C8A6ED91 		.ascii	"\310\246\355\221!\002z2\241O\232\246%?\257`-e\227\255"
  52      21027A32 
  52      A14F9AA6 
  52      253FAF60 
  52      2D6597AD 
  53 0170 156F75AD 		.ascii	"\025ou\255`\331^.\347\345\255\351tj&\265a\345\327]\333"
  53      60D95E2E 
  53      E7E5ADE9 
  53      746A26B5 
  53      61E5D75D 
  54 0185 B481E7CD 		.ascii	"\264\201\347\315\361O\265\353\222\340"
  54      F14FB5EB 
  54      92E0
  55              		.text
  56              		.section	.gnu.lto_nvicDisableVector.dea032502c37c669,"",%progbits
  57 0000 789C7D50 		.ascii	"x\234}P\277K\303P\020\276\357\245\321VAqt\262\350\""
  57      BF4BC350 
  57      10BEEFA5 
  57      D1564171 
  57      74B2E822 
  58 0014 14133A39 		.ascii	"\024\023:98\211s\027\251\240c\355P\003\266\021+\342"
ARM GAS  /tmp/ccjdOIf7.s 			page 4


  58      38897317 
  58      A9A063ED 
  58      5003B611 
  58      2BE2
  59 0026 D6D4D4CD 		.ascii	"\326\324\324\315\241\203\203?\026\213[\251?\300E\020"
  59      A183833F 
  59      168B5BA9 
  59      3FC04510 
  60 0036 A4141C1C 		.ascii	"\244\024\034\034*\370\037\024\027\301AD\227\016B\274"
  60      2AF81F14 
  60      17C14144 
  60      970E42BC 
  61 0046 4B1AA50E 		.ascii	"K\032\245\016\036\311\273{\367}\367\335\335S\244\350"
  61      1EC9BB7B 
  61      F77DF7DD 
  61      DD53A4E8 
  62 0056 AF8DF37F 		.ascii	"\257\215\363\177\017\242${h\004U}$*G\025 \001\201J\012"
  62      0FA2247B 
  62      6804557D 
  62      242A4715 
  62      2001814A 
  63 006b A5150815 		.ascii	"\245\025\010\025\223Ts\234jg\357\245\253\216\016\232"
  63      9354739C 
  63      6A67EFA5 
  63      AB8E0E9A 
  64 007b 9553E7CB 		.ascii	"\225S\347\313\363\000\013,k\200\262\240e\276 \356;\025"
  64      F3000B2C 
  64      6B80B2A0 
  64      65BE20EE 
  64      3B15
  65 008d E9EF73A9 		.ascii	"\351\357s\251\232\035\317k\\_=\3271\026\003\362ReA\323"
  65      9A1DCF6B 
  65      5C5F3DD7 
  65      311603F2 
  65      526541D3 
  66 00a1 28831A2B 		.ascii	"(\203\032+G\370B:\037R\247S\205\033\305I4\331\322|\312"
  66      47F8423A 
  66      1F52A753 
  66      851BC549 
  66      34D9D27C 
  67 00b6 344B50E2 		.ascii	"4KP\342\2656\271\027\356\347\376t\006g\320)\007\225"
  67      B536B917 
  67      EEE7FE74 
  67      0667D029 
  67      0795
  68 00c8 03A427D7 		.ascii	"\003\244'\327\021\265i\367\315\275C\210i\214I\322\275"
  68      11B569F7 
  68      CDBD4388 
  68      698C49D2 
  68      BD
  69 00d9 D5C25484 		.ascii	"\325\302T\204\263>}\302\247\273\347\356\307\017]\027"
  69      B33E7DC2 
  69      A7BBE7EE 
  69      C70F5D17 
  70 00e9 20026109 		.ascii	" \002a\011\326zx\037\016\240\031j8\225\2623gAOP]\302"
  70      D67A781F 
  70      0EA0196A 
ARM GAS  /tmp/ccjdOIf7.s 			page 5


  70      3895B233 
  70      67414F50 
  71 00ff 510B0327 		.ascii	"Q\013\003't\314\374A)\212:-\327\031\361w\217\372\033"
  71      74CCFC41 
  71      298A3A2D 
  71      D719F177 
  71      8FFA1B
  72 0112 AF22D89C 		.ascii	"\257\"\330\234\347\2430\322}\321\233\303\327.\372dg"
  72      E7A330D2 
  72      7DD19BC3 
  72      D72EFA64 
  72      67
  73 0123 2DC47E65 		.ascii	"-\304~e\207\376\227EO\254\247\357c1\011\236\250\334"
  73      87FE9745 
  73      4FACA7EF 
  73      6331099E 
  73      A8DC
  74 0135 A94F05C2 		.ascii	"\251O\005\302\241\245\231\306o&#$\014\303\014>\273h"
  74      A1A599C6 
  74      6F262324 
  74      0CC30C3E 
  74      BB68
  75 0147 AE65D6CD 		.ascii	"\256e\326\315\015{s\253hf\355|\336.\230\363\213\251"
  75      0D7B73AB 
  75      6866ED7C 
  75      DE2E98F3 
  75      8BA9
  76 0159 85D48E59 		.ascii	"\205\324\216Y\330\266\262F\226\264\202\221\374\006\256"
  76      D8B6B246 
  76      96B48291 
  76      FC06AE
  77 0168 7676D4   		.ascii	"vv\324"
  78              		.text
  79              		.section	.gnu.lto_nvicSetSystemHandlerPriority.dea032502c37c669,"",%progbits
  80 0000 789C6362 		.ascii	"x\234cb`b@\007\222@\374\001\210u\201\230\221\231\201"
  80      60624007 
  80      9240FC01 
  80      88758198 
  80      919981
  81 0013 9169C239 		.ascii	"\221i\3029\006\206F\016&FF\020\203\201\221\241\236\211"
  81      0686460E 
  81      26464610 
  81      838191A1 
  81      9E89
  82 0025 B13E9211 		.ascii	"\261>\222\021\254v=\323\201\007\377\377\257\373\322"
  82      AC763DD3 
  82      8107FFFF 
  82      AFFBD2
  83 0034 76EC20E3 		.ascii	"v\354 \3439evF\306\\F\240\211\231\214\014\314 \202\025"
  83      39657646 
  83      C65C46A0 
  83      89998C0C 
  83      CC208215 
  84 0048 C805A963 		.ascii	"\310\005\251cehih\230\240\220\313\010\264,\031\2541"
  84      65686968 
  84      98A090CB 
  84      08B42C19 
ARM GAS  /tmp/ccjdOIf7.s 			page 6


  84      AC31
  85 005a 0448824C 		.ascii	"\004H\202L\013\005\012\001i\346\263\014M\257\2337\367"
  85      0B050A01 
  85      69E6B30C 
  85      4DAF9B37 
  85      F7
  86 006b E926322E 		.ascii	"\351&2.ddeHgdJ\007i<\313\320\274\226\031&\304\014\024"
  86      64646548 
  86      67644A07 
  86      693CCBD0 
  86      BC961926 
  87 0082 8D60CC64 		.ascii	"\215`\314ddda\000\311\034\362\204H\3502\254ihil0\007"
  87      64646100 
  87      C91CF284 
  87      48E832AC 
  87      6968696C 
  88 0098 4A6833AC 		.ascii	"Jh3\254\0021y3\031\231f3\314\002*e\006\251gi\270\325"
  88      02317933 
  88      19996633 
  88      CC022A65 
  88      06A96769 
  89 00ae DCC0C700 		.ascii	"\334\300\307\000f\202\335\234\004q:\320HV\006\030\213"
  89      6682DD9C 
  89      04713AD0 
  89      48560618 
  89      8B
  90 00bf 9981E122 		.ascii	"\231\201\341\"C\343\203s\312\020Ca \004\350\012\240"
  90      43E38373 
  90      CA104361 
  90      2004E80A 
  90      A0
  91 00d0 F34061A4 		.ascii	"\363@a\244\255\247\247\017A\371\305\372\031\2119\372"
  91      ADA7A70F 
  91      41F9C5FA 
  91      198939FA 
  92 00e0 05F94525 		.ascii	"\005\371E%\305\372\311\371\271\271\371y\372\216A\276"
  92      C5FAC9F9 
  92      B9B9F979 
  92      FA8E41BE 
  93 00f0 CEBE15FA 		.ascii	"\316\276\025\372ye\231\311z\311\014\000\317\274E\347"
  93      796599C9 
  93      7AC90C00 
  93      CFBC45E7 
  94              		.text
  95              		.section	.gnu.lto_nvicClearPending.dea032502c37c669,"",%progbits
  96 0000 789C5D50 		.ascii	"x\234]P1H\303P\020\275\367\177\322\352\2428:Yt\021\212"
  96      3148C350 
  96      10BDF77F 
  96      D2EAA238 
  96      3A597411 
  97 0015 09BA3A89 		.ascii	"\011\272:\211\223C\027\251\240c\315P\003\266\021+\342"
  97      934317A9 
  97      A063CD50 
  97      03B6112B 
  97      E2
  98 0026 D65FD359 		.ascii	"\326_\323Y:\270\250\213\305M\252\356v)\335+\272;\024"
  98      3AB8A88B 
ARM GAS  /tmp/ccjdOIf7.s 			page 7


  98      C54DAAEE 
  98      7629DD2B 
  98      BA3B14
  99 0039 41280EAE 		.ascii	"A(\016\256.B\274KLA\217\237\177\367\337\275{w9E\212"
  99      2E42BC4B 
  99      4C418F9F 
  99      7FF7DFBD 
  99      7B773945 
 100 004e FEDB2C7F 		.ascii	"\376\333,\177\006D\313\354\241\011\252\365D\324\230"
 100      0644CBEC 
 100      A109AAF5 
 100      44D498
 101 005d 50800404 		.ascii	"P\200\004\004\252+\324w T\314S\333\230\326\360\375\353"
 101      AA2BD477 
 101      2054CC53 
 101      DB98D6F0 
 101      FDEB
 102 006f 595F9CF7 		.ascii	"Y_\234\367\232\327\346;\212\000\037,\353\200<\3206?"
 102      9AD7E63B 
 102      8A001F2C 
 102      EB803CD0 
 102      363F
 103 0081 908B9DB2 		.ascii	"\220\213\235\262\376\366yP\275a\024\275v;o#\314L\002"
 103      FEF67950 
 103      BD6114BD 
 103      763B6F23 
 103      CC4C02
 104 0094 15A9F2A1 		.ascii	"\025\251\362\2415\225\320fe\213\037d\313\225\021\230"
 104      3595D066 
 104      658B1F64 
 104      CB951198 
 105 00a4 2B6C6A72 		.ascii	"+ljr\267\034\2110[\221o\031i\013J\274\036Px\037Fg\213"
 105      B71C8930 
 105      5B916F19 
 105      690B4ABC 
 105      1E50781F 
 106 00bb 25DCC0A6 		.ascii	"%\334\300\2462T\031\220\306\\G4\240\323\317\360\003"
 106      32541990 
 106      C65C4734 
 106      A0D3CFF0 
 106      03
 107 00cc 694E734E 		.ascii	"iNsN\300\260\253S\310b4\246\317\305\364\360n\234\261"
 107      C0B0AB53 
 107      C86234A6 
 107      CFC5F4F0 
 107      6E9CB1
 108 00df 6318C2F9 		.ascii	"c\030\302\371\025z\034\013e8-`\177#A\226\250c\232\015"
 108      157A1C0B 
 108      65382D60 
 108      7F234196 
 108      A8639A0D 
 109 00f3 B3EAC3CA 		.ascii	"\263\352\303\312\323\255\204\323>\354+\272d\211\214"
 109      D3AD84D3 
 109      3EEC2BBA 
 109      64898C
 110 0102 E8644D3F 		.ascii	"\350dM?4S\361F\262\361\036v\221\354\203\007\2464\312"
 110      3453F146 
ARM GAS  /tmp/ccjdOIf7.s 			page 8


 110      B2F11E76 
 110      91EC8307 
 110      A634CA
 111 0115 10BD5063 		.ascii	"\020\275Pc8ZHDS+\362\320\374\247\302\313;\216\233\234"
 111      385A4844 
 111      532BF2D0 
 111      FCA7C2CB 
 111      3B8E9B9C 
 112 0129 A0E6EE95 		.ascii	"\240\346\356\225\366\335\203\340\360\250\346zA\245\022"
 112      F6DD83E0 
 112      F0A8E67A 
 112      41A512
 113 0138 54DDB5CD 		.ascii	"T\335\265\315\302z\341\304\255\036\373\236\343\221\256"
 113      C27AE1C4 
 113      AD1EFB9E 
 113      E391AE
 114 0147 3A2B3F72 		.ascii	":+?r\207f\302"
 114      8766C2
 115              		.text
 116              		.section	.gnu.lto_.symbol_nodes.dea032502c37c669,"",%progbits
 117 0000 789C6362 		.ascii	"x\234cb`b\260c\200\002\246\333\214\365\014\014\023\316"
 117      6062B063 
 117      8002A6DB 
 117      8CF50C0C 
 117      13CE
 118 0012 3130D4D7 		.ascii	"10\324\327\317\353`d\272\303X\317\210\304\275\313X\317"
 118      CFEB6064 
 118      BAC358CF 
 118      88C4BDCB 
 118      58CF
 119 0024 84C4BDC7 		.ascii	"\204\304\275\307X\317\214\3402\000\000q\306\023\317"
 119      58CF8CE0 
 119      32000071 
 119      C613CF
 120              		.text
 121              		.section	.gnu.lto_.refs.dea032502c37c669,"",%progbits
 122 0000 789C6362 		.ascii	"x\234cb`b`d\200\002\000\000F\000\006"
 122      60626064 
 122      80020000 
 122      460006
 123              		.text
 124              		.section	.gnu.lto_.decls.dea032502c37c669,"",%progbits
 125 0000 789CAD59 		.ascii	"x\234\255YmpT\325\031>\347\356\206$%Fp\254\205\031\034"
 125      6D7054D5 
 125      193EE7EE 
 125      86242546 
 125      70AC8519 
 126 0015 A2A38EA3 		.ascii	"\242\243\216\2435\313G\265\366\217\303\262\011f\177"
 126      35CB47B5 
 126      F68FC3B2 
 126      09667F
 127 0024 4433BBC0 		.ascii	"D3\273\3008\362#\034\226k\263\235d\227\331,\035\370"
 127      38F2231C 
 127      966BB39D 
 127      6497D92C 
 127      1DF8
 128 0036 7742C4D2 		.ascii	"wB\304\322\012c\370\322Ld2\033I\264@\0352@\020\001\353"
ARM GAS  /tmp/ccjdOIf7.s 			page 9


 128      0A63F8D2 
 128      4C64321B 
 128      49B4401D 
 128      32401001 
 129 004b FA855AB0 		.ascii	"\372\205Z\260\"\325RE\333\245\255U\3548 T\324\266t\373"
 129      22D55245 
 129      DBA5AD55 
 129      EC382054 
 129      D4B674FB 
 130 005f 9E73EFB9 		.ascii	"\236s\357\271\367\234\273{6w\035\357\344\274\367\334"
 130      F79CBB7B 
 130      36771DEF 
 130      E4BCF7DC 
 131 006f 7BCF79DE 		.ascii	"{\317y\336\347y\317\307}\367\306@\006\332\210\021*\302"
 131      E779CFC7 
 131      7DF7C640 
 131      06DA8811 
 131      2AC2
 132 0081 D13713A1 		.ascii	"\3217\023\241\031\006B5\010\241{\220{\004\241\214@\331"
 132      19064235 
 132      08A17B90 
 132      7B04A18C 
 132      40D9
 133 0093 0B6502CA 		.ascii	"\013e\002\312\021Tz\260\347\015v\333F\273\016\260\250"
 133      11547AB0 
 133      E70D76DB 
 133      46BB0EB0 
 133      A8
 134 00a4 1659782F 		.ascii	"\026Yx/By\005\3121(\347\241\274\005\345\004\224\000"
 134      427905CA 
 134      3128E7A1 
 134      BC05E504 
 134      9400
 135 00b6 944FA07C 		.ascii	"\224O\240|\004\345\270\335\207a\001\015\364\033(\273"
 135      04E5B8DD 
 135      8761010D 
 135      F41B28BB 
 136 00c6 3D7E1887 		.ascii	"=~\030\207\251\036?\302\207\300\024>\204O\206\365\236"
 136      A91E3FC2 
 136      87C0143E 
 136      844F86F5 
 136      9E
 137 00d7 ED07DB18 		.ascii	"\355\007\333\030\354\274\337\203=a\343`\273\357\005"
 137      ECBCDF83 
 137      3D61E360 
 137      BBEF05
 138 00e6 2897A0DC 		.ascii	"(\227\240\334\216\255{5\366y\302\346\375<\224\347\240"
 138      8EAD7B35 
 138      F679C2E6 
 138      FD3C94E7 
 138      A0
 139 00f7 FC10AB38 		.ascii	"\374\020\2538,>ue8z\371a[7\266\373\260\363\013\036N"
 139      2C3E7565 
 139      387AF961 
 139      5B37B6FB 
 139      B0F30B1E 
 140 010c B3D130CD 		.ascii	"\263\3210\315\025\012c\303\3071\335B\377[,\006\320u"
ARM GAS  /tmp/ccjdOIf7.s 			page 10


 140      150A63C3 
 140      C731DD42 
 140      FF5B2C06 
 140      D075
 141 011e 683B8523 		.ascii	"h;\205#\367\010\2458K\360=\337G\017`\202\033\353Q\023"
 141      F708A538 
 141      4BF03DDF 
 141      470F6082 
 141      1BEB5113 
 142 0132 AF34D473 		.ascii	"\2574\324s\307\010\021\374\024\276\216\327\002<\004"
 142      C70811FC 
 142      14BE8ED7 
 142      023C04
 143 0141 A81E6DA0 		.ascii	"\250\036m\240t\035\353\330\366\006\360*\327\353f4J\351"
 143      741DEBD8 
 143      F606F02A 
 143      D7EB6634 
 143      4AE9
 144 0153 40E18591 		.ascii	"@\341\205\221M!J\353\010\036\305\365\320w\035\306\350"
 144      4D214AEB 
 144      081EC5F5 
 144      D0771DC6 
 144      E8
 145 0164 36B40B9C 		.ascii	"6\264\013\234\016P\372\327[\014Tz\020\\[_rM\3603\370"
 145      0E50FAD7 
 145      5B0C547A 
 145      105C5B5F 
 145      724DF033 
 146 0179 366479E2 		.ascii	"6dy\342\217\355\012\233lW;\264,/\274\262$\340\000\030"
 146      8FED0A9B 
 146      6C573BB4 
 146      2C2FBCB2 
 146      24E00018 
 147 018d 680B7815 		.ascii	"h\013x\025\010\354\270\011\355\244t\013\204bt&\315\031"
 147      08ECB809 
 147      EDA4740B 
 147      84627426 
 147      CD19
 148 019f 82DB4EDE 		.ascii	"\202\333N\336j\004\317.\253\307\306\266\272\322\347"
 148      6A04CF2E 
 148      ABC7C6B6 
 148      BAD2E7
 149 01ae CD36D16D 		.ascii	"\3156\321m\314O7\204nAc,\326\233\350\372i\230\207\032"
 149      CC4F3784 
 149      6E41632C 
 149      D69BE8FA 
 149      6998871A 
 150 01c2 D9BD14A9 		.ascii	"\331\275\024\251\273\260\022\022k\314\362\007\2165\014"
 150      BBB01212 
 150      6BCCF207 
 150      8E350C
 151 01d1 F4158AC5 		.ascii	"\364\025\212\305\331\376\007l\\\0350\213\206',\273\313"
 151      D9FE076C 
 151      5C1D308B 
 151      86272CBB 
 151      CB
 152 01e2 86856E15 		.ascii	"\206\205n\025\332\010\336\003t\010\336\373\255\264\355"
ARM GAS  /tmp/ccjdOIf7.s 			page 11


 152      DA08DE03 
 152      7408DEFB 
 152      ADB4ED
 153 01f1 F56ADB57 		.ascii	"\365j\333WV\333\277\2046k\222\031\350hyVR\304\337\347"
 153      56DBBF84 
 153      366B9219 
 153      E8687956 
 153      52C4DFE7 
 154 0205 2D267C0D 		.ascii	"-&|\015\324\025W\314\263\\\314$\3354b&\274b\016\226"
 154      D41557CC 
 154      B35CCC24 
 154      DD346226 
 154      BC620E96 
 155 0219 1573F875 		.ascii	"\025s\370uG\3148\027s\266\274\230\315\336\020\037\371"
 155      47CC3817 
 155      73B6BC98 
 155      CDDE101F 
 155      F9
 156 022a 56AC8E78 		.ascii	"V\254\216xY\035UY\361e\332O\013ct\306\240\273L\353\204"
 156      591D5559 
 156      F165DA4F 
 156      0B6374C6 
 156      A0BB4CEB 
 157 023f 03B64B88 		.ascii	"\003\266K\210ez\356\337\006,S{]W\352@p\036\337\014\026"
 157      657AEEDF 
 157      062C537B 
 157      5D57EA40 
 157      701EDF0C 
 158 0254 AB8B12D7 		.ascii	"\253\213\022\327\273\225\"f\263\353\242G\272\335Fb;"
 158      BB952266 
 158      B3EBA247 
 158      BADD4662 
 158      3B
 159 0265 09C47434 		.ascii	"\011\304t4\300$7\0156\022\374\"\334\263\331\320\253"
 159      C024370D 
 159      3612FC22 
 159      DCB3D9D0 
 159      AB
 160 0276 059D0BD6 		.ascii	"\005\235\013\326n)\267{\251B;\202_\305\323\335\270P"
 160      6E29B77B 
 160      A9423B82 
 160      5FC5D3DD 
 160      B850
 161 0288 7BFBE24D 		.ascii	"{\373\342Mt\313\3505\233\263}\333\251\234\307\212\022"
 161      74CBE835 
 161      9BB37DDB 
 161      A99CC78A 
 161      12
 162 0299 D10C5D83 		.ascii	"\321\014]\2036s.\322\256\230+`\321\353\341Yn\304\277"
 162      36732ED2 
 162      AE982B60 
 162      D1EBE159 
 162      6EC4BF
 163 02ac 7CECED45 		.ascii	"|\354\355E|c<\206\257\201h\3551\324h\371\000b\216\337"
 163      7C633C86 
 163      AF8168ED 
 163      31D468F9 
ARM GAS  /tmp/ccjdOIf7.s 			page 12


 163      00628EDF 
 164 02c0 84CE5637 		.ascii	"\204\316V7\016K\363\305\323\0154h\335G\012\240r\334"
 164      0E4BF3C5 
 164      D30D3468 
 164      DD470AA0 
 164      72DC
 165 02d2 8072F4E1 		.ascii	"\200r\364\341\276\374\326\241\355\230\346^\306\"\202"
 165      BEFCD6A1 
 165      ED98E65E 
 165      C62282
 166 02e1 6F34DA33 		.ascii	"o4\3323\246\322\306N\360\030\237\000\223\357\312b \014"
 166      A6D2C64E 
 166      F0189F00 
 166      93EFCA62 
 166      200C
 167 02f3 D1BD4919 		.ascii	"\321\275I\031/\026\372Qi\274<\315\010\376}\325\303\365"
 167      2F16FA51 
 167      69BC3CCD 
 167      08FE7DD5 
 167      C3F5
 168 0305 B666B86A 		.ascii	"\266f\270j\225\321\022\255 \354\023<\354,ZeY88\002\264"
 168      95D112AD 
 168      20EC133C 
 168      EC2C5A65 
 168      59383802 
 169 031a D199C22C 		.ascii	"\321\231\302,\204\020\357m\017\016\020\235\240)\242"
 169      8410EF6D 
 169      0F0E109D 
 169      A029A2
 170 0329 FF72DBF1 		.ascii	"\377r\333\361\251\252\005\375A#\350\007H(8\\\242@q\253"
 170      A9AA05FD 
 170      4123E807 
 170      4828385C 
 170      A24071AB 
 171 033d 84B45401 		.ascii	"\204\264T\001L\202\307A\001\301'\200\232\201^\365\025"
 171      4C82C741 
 171      01C12780 
 171      9A815EF5 
 171      15
 172 034e 0E8AF5F1 		.ascii	"\016\212\365\361\030\344h\2478\332\233\276\250\345t"
 172      18E468A7 
 172      38DA9BBE 
 172      A8E574
 173 035d 68C06D48 		.ascii	"h\300mH\342v\312\0377C\317m\207\304\355\264?n:4\340"
 173      E276CA1F 
 173      3743CF6D 
 173      87C4EDB4 
 173      3F6E3A34 
 174 0372 362C713B 		.ascii	"6,q;\353\217[@\317m\\\342\366\017\177\334th\300m\237"
 174      EB8F5B40 
 174      CF6D5CE2 
 174      F60F7FDC 
 174      7468C06D 
 175 0387 C4ED823F 		.ascii	"\304\355\202?nA=\267\003\025\346x\243\000(\210M\366"
 175      6E413DB7 
 175      0315E678 
 175      A3002888 
ARM GAS  /tmp/ccjdOIf7.s 			page 13


 175      4DF6
 176 0399 EF554FF2 		.ascii	"\357UO\362\2175\223\374\307\316$\377\262D\203\352W\204"
 176      8F3593FC 
 176      C7CE24FF 
 176      B24483EA 
 176      5784
 177 03ab 44270242 		.ascii	"D'\002Br\360\301\361\345\004\277\302CR,\201S\337\025"
 177      72F0C1F1 
 177      E504BFC2 
 177      43522C81 
 177      53DF15
 178 03be 222653F4 		.ascii	"\"&S\36419T!&#\316>=p\255-\361\263\252\203\362OMP\372"
 178      31395421 
 178      2623CE3E 
 178      3D70AD2D 
 178      F1B3AA83 
 179 03d7 6B9CA8AC 		.ascii	"k\234\250\254\013xex<\013M\265\272\260\364\347\017\177"
 179      0B786578 
 179      3C0B4DB5 
 179      BAB0F4E7 
 179      0F7F
 180 03e9 D0C0A6CA 		.ascii	"\320\300\246\312[<\261\332\350\005TX\211\250\314*\203"
 180      5B3CB1DA 
 180      E8055458 
 180      89A8CC2A 
 180      83
 181 03fa 56EE90DF 		.ascii	"V\356\220\337N\004\377\216\2774\216\343\033\300\276"
 181      4E04FF8E 
 181      BF348EE3 
 181      1BC0BE
 182 0409 C3ED7BDC 		.ascii	"\303\355{\334\236\346\366}n\317p\373\021\267\177\341"
 182      9EE6F67D 
 182      6ECF70FB 
 182      11B77FE1 
 183 0419 F62CB77F 		.ascii	"\366,\267\177\343\366\023n\317q\3739X\347\230\212~\345"
 183      E3F6136E 
 183      CF71FB39 
 183      58E7988A 
 183      7EE5
 184 042b FE1AB15E 		.ascii	"\376\032\261^\250\272\250\236\307SE/Mz\261\\ti(i\365"
 184      A8BAA89E 
 184      C753452F 
 184      4D7AB15C 
 184      74692869 
 185 0440 92B615C1 		.ascii	"\222\266\025\301_T=\300\0275\003\354\020TZ\225K\010"
 185      5F543DC0 
 185      173503EC 
 185      10545A95 
 185      4B08
 186 0452 0A4E62B6 		.ascii	"\012Nb\266\321M\345\362_\234\301M\004_\342Y\305\346"
 186      D14DE5F2 
 186      5F9CC14D 
 186      045FE259 
 186      C5E6
 187 0464 C0A45985 		.ascii	"\300\244Y\205\007\204\371\274\354M*\266\236\341I\305"
 187      0784F9BC 
 187      EC4D2AB6 
ARM GAS  /tmp/ccjdOIf7.s 			page 14


 187      9EE149C5 
 188 0474 E5C9938A 		.ascii	"\345\311\223\212m\375\371'\236\334>\223%\025N*\221\377"
 188      6DFDF927 
 188      9EDC3E93 
 188      25154E2A 
 188      91FF
 189 0486 0E520903 		.ascii	"\016R\011\003\015q)\227+\317M\244\237\350\203g\244\211"
 189      0D712997 
 189      2BCF4DA4 
 189      9FE88367 
 189      A489
 190 0498 9EAB1AAC 		.ascii	"\236\253\032\254I\001\033\222\301\306\374\200\325\351"
 190      49011B92 
 190      C1C6FC80 
 190      D5E9
 191 04a6 99ED90C1 		.ascii	"\231\355\220\301vW\015\2462\033\226\301\306\375\200"
 191      76570DA6 
 191      321B96C1 
 191      C6FD80
 192 04b5 4DD3331B 		.ascii	"M\3233\033\227\301\016T\015&3\203w\3222\266\001_\340"
 192      97C10E54 
 192      0D263383 
 192      77D232B6 
 192      015FE0
 193 04c8 1BF0212F 		.ascii	"\033\360!/\226\262\236\354\352\014=\261\0032\261\243"
 193      96B29EEC 
 193      EA0C3DB1 
 193      0332B1A3 
 194 04d8 7E8835E9 		.ascii	"~\2105\351CvP\006{\331\017\330\255zf\207d\260\327\253"
 194      43765006 
 194      7BD90FD8 
 194      AD7A6687 
 194      64B0D7AB 
 195 04ec 0653991D 		.ascii	"\006S\231\035\226\301N\370\001\233\243gvT\006{\247j"
 195      96C14EF8 
 195      019BA367 
 195      7654067B 
 195      A76A
 196 04fe 3095D96F 		.ascii	"0\225\331oe\260\323~\300\356\3263;)\203}X5\230\304l"
 196      65B0D37E 
 196      C0EED633 
 196      3B29837D 
 196      583598C4 
 197 0513 5B5FFED4 		.ascii	"[_\376\3242\347\305\234[\300\266\340o\334]{\201\272"
 197      32E7C59C 
 197      5BC0B6E0 
 197      6FDC5D7B 
 197      81BA
 198 0525 809466A3 		.ascii	"\200\224f\243\332f\004?aT\273\271\017\032\3457w\365"
 198      DA66043F 
 198      6154BBB9 
 198      0F1AE537 
 198      77F5
 199 0537 67A368C5 		.ascii	"g\243h\3052H\257l\205\204]]\240\211!\354\272\357Z1\374"
 199      3248AF6C 
 199      85845D5D 
 199      A08921EC 
ARM GAS  /tmp/ccjdOIf7.s 			page 15


 199      BAEF5A31 
 200 054c 86C7F063 		.ascii	"\206\307\360c?1l\323\203\375Q\006;W5\230: \177Z\246"
 200      3F316CD3 
 200      83FD5106 
 200      3B573598 
 200      3A207F5A 
 201 0561 664AD278 		.ascii	"fJ\322xP']\231&\017HIB\345iFp\256\352\001\031\321\014"
 201      50275D99 
 201      260F4849 
 201      42E56946 
 201      70AEEA01 
 202 0578 88FB3D4C 		.ascii	"\210\373=Ln\005\262?\367\312VY\330\325\016]\020\373"
 202      6E05B23F 
 202      F7CA5659 
 202      D8D50E5D 
 202      10FB
 203 058a F21FE875 		.ascii	"\362\037\350u\347\034\250k+\351\3666\203\327e\325\272"
 203      E71CA86B 
 203      2BE9F636 
 203      83D765D5 
 203      BA
 204 059b 9FD6E80E 		.ascii	"\237\326\350\016*\272\237vu_\364\352VY\330\325\345\032"
 204      2ABA9F76 
 204      755FF4EA 
 204      5659D8D5 
 204      E51A
 205 05ad DD902C7C 		.ascii	"\335\220,|\270\214\315\035\306\224\340w\371\307\255"
 205      B88CCD1D 
 205      C694E077 
 205      F9C7AD
 206 05bc C9C05669 		.ascii	"\311\300Vi&\017l\015\177\226\267\206\257\374\314\304"
 206      260F6C0D 
 206      7F96B786 
 206      AFFCCCC4 
 207 05cc 0DE57E4E 		.ascii	"\015\345~N\226;\344<\207\340\257x\"\3625O.\377\303\355"
 207      963BE43C 
 207      87E0AF78 
 207      22F2354F 
 207      2EFFC3ED 
 208 05e0 156E8BDC 		.ascii	"\025n\213\334\366\031\314\366s\273\236\333_p\373Kn\037"
 208      F619CCF6 
 208      73BB9EDB 
 208      5F70FB4B 
 208      6E1F
 209 05f2 E57613B7 		.ascii	"\345v\023\267\217q\273\231\333\255\334n\347v\210\333"
 209      8F71BB99 
 209      DBADDC6E 
 209      E77688DB 
 210 0602 1DDC0E73 		.ascii	"\035\334\016s\273\223\333_s\273\313\320\247\263\227"
 210      BB93DB5F 
 210      73BBCBD0 
 210      A7B397
 211 0611 2AA4B37B 		.ascii	"*\244\263{\014'[\274\021\215\320\223'\013\353\317\017"
 211      0C275BBC 
 211      118DD093 
 211      270BEBCF 
 211      0F
ARM GAS  /tmp/ccjdOIf7.s 			page 16


 212 0622 E20D053A 		.ascii	"\342\015\005:@\377W,b7yu>\354\345+\177\011d\237\345"
 212      40FF572C 
 212      62377975 
 212      3EECE52B 
 212      7F09649F 
 213 0637 0DE92BE0 		.ascii	"\015\351+\340\214\362m\011\336k\260x\215K\263\313\252"
 213      8CF26D09 
 213      DE6BB078 
 213      8D4BB3CB 
 213      AA
 214 0648 8B9AF50D 		.ascii	"\213\232\365\015\360J\300\363\017\0157\370\225\273\332"
 214      F04AC0F3 
 214      0F0D37F8 
 214      95BBDA
 215 0657 4E3F75A6 		.ascii	"N?u\246\313\365\312Ba\3318k\252iF\360\276\252\027\312"
 215      CBF5CA42 
 215      61D9386B 
 215      AA6946F0 
 215      BEAA17CA 
 216 066b 7ECD4299 		.ascii	"~\315B\231\245\260\336\357.\224uA\317Wh/\013\003=\032"
 216      A5B0DEEF 
 216      2E947541 
 216      CF57682F 
 216      0B033D1A 
 217 067f 1429F5F7 		.ascii	"\024)\365\367X\345\366\346\346\220\365\227\356\015u"
 217      58E5F6E6 
 217      E690F597 
 217      EE0D75
 218 068e 91EED0AA 		.ascii	"\221\356\320\252t&\333\033J\244{z\322\251P8\326\036"
 218      7426DB1B 
 218      4AA47B7A 
 218      D2A95038 
 218      D61E
 219 06a0 695F134A 		.ascii	"i_\023J\375<\231hN\240x\250+\335c\206~\266\272;IR\241"
 219      FD3C9968 
 219      4EA078A8 
 219      2BDD6386 
 219      7EB6BA3B 
 220 06b7 F6D67BC3 		.ascii	"\366\326{\303\241^\263\307\354\315f\314\316\344\232"
 220      A15EB3C7 
 220      ECCD66CC 
 220      CEE49A
 221 06c6 506BCF0A 		.ascii	"Pk\317\012sEr%\340\220L\317\035\363\346\314\235\337"
 221      73457225 
 221      E0904CCF 
 221      1DF3E6CC 
 221      9DDF
 222 06d8 3C772EAF 		.ascii	"<w.\257\247\322)\363\016\223\254H\206\222\251D\367\352"
 222      A7D229F3 
 222      0E93AC48 
 222      8692A944 
 222      F7EA
 223 06ea 9566A837 		.ascii	"\225f\2507\2732\231\3126w\241\272\325p\236?\2573;\345"
 223      BB3299CA 
 223      3677A1BA 
 223      D5709E3F 
 223      AF333BE5 
ARM GAS  /tmp/ccjdOIf7.s 			page 17


 224 06fe DEFB9634 		.ascii	"\336\373\2264E\3204\346\2535EVt\233K\315D6\235\301\251"
 224      45D034E6 
 224      AB354556 
 224      749B4BCD 
 224      44369DC1 
 225 0713 E0AA4C32 		.ascii	"\340\252L2=\235\335oI\366\272\017f\261;q3\033_\333\233"
 225      3D9DDD6F 
 225      49F6BA0F 
 225      66B13B71 
 225      331B5FDB 
 226 0728 357BDA48 		.ascii	"5{\332Hje\267\231\351\200\246\231dvmm\227u\315\341\""
 226      6A65B799 
 226      E980A699 
 226      64766D6D 
 226      9775CDE1 
 227 073d DD26C974 		.ascii	"\335&\311t\230)p\371\323Z\346\357\356\316\354\034Y\267"
 227      982970F9 
 227      D35AE6EF 
 227      EECEEC1C 
 227      59B7
 228 074f ADD65C93 		.ascii	"\255\326\\\223\015E\332\343\321\270C3\221\006i\211\236"
 228      0D45DAE3 
 228      D1B84333 
 228      91066989 
 228      9E
 229 0760 F940B4FE 		.ascii	"\371@\264\376\276\245\321H\347\342\265\253\314`4\336"
 229      BEA5D148 
 229      E7E2B5AB 
 229      CC6034DE 
 230 0770 1AAB8FB5 		.ascii	"\032\253\217\265\202]\332\3322'\030\215\264\306\352"
 230      825DDADA 
 230      3227188D 
 230      B4C6EA
 231 077f 62D6D55C 		.ascii	"b\326\325\\x\330\341>\234\007\017\245\313\371\301hx"
 231      78D8E13E 
 231      9C070FA5 
 231      CBF9C168 
 231      78
 232 0790 A17BF923 		.ascii	"\241{\371##\332\341\\\334\031\214/\216\306\352\342\221"
 232      23DAE15C 
 232      DC198C2F 
 232      8EC6EAE2 
 232      91
 233 07a1 85DC494D 		.ascii	"\205\334IM\244cI\264\005\272\307c\301\245\213\357\217"
 233      A46349B4 
 233      05BAC763 
 233      C1A58BEF 
 233      8F
 234 07b2 D584A3B1 		.ascii	"\325\204\243\261H,\020\207\022a\347\266\216\232x\033"
 234      482C1087 
 234      1261E7B6 
 234      8E9A781B 
 235 07c2 7B185904 		.ascii	"{\030Y\004\246\215\231\02605\355\355\213\302"
 235      A68D9916 
 235      3035EDED 
 235      8BC2
 236 07d0 B1E04266 		.ascii	"\261\340Bf\302p\035\350X\024\013\264@\011\267\304\202"
ARM GAS  /tmp/ccjdOIf7.s 			page 18


 236      C2701DE8 
 236      58140BB4 
 236      4009B7C4 
 236      82
 237 07e1 F02C06FC 		.ascii	"\360,\006\374\3021\000\017Gb\301D\027\311\324uv>\264"
 237      C231000F 
 237      4762C144 
 237      17C9D475 
 237      763EB4
 238 07f4 3A95E8EC 		.ascii	":\225\350\354\274JT\232\357\272\363\256\237\374\037"
 238      BC4A549A 
 238      EFBAF3AE 
 238      9FFC1F
 239 0803 A96426DA 		.ascii	"\251d&\332"
 240              		.text
 241              		.section	.gnu.lto_.symtab.dea032502c37c669,"",%progbits
 242 0000 6E766963 		.ascii	"nvicEnableVector\000\000\000\000\000\000\000\000\000"
 242      456E6162 
 242      6C655665 
 242      63746F72 
 242      00000000 
 243 0019 000000A1 		.ascii	"\000\000\000\241\000\000\000nvicDisableVector\000\000"
 243      0000006E 
 243      76696344 
 243      69736162 
 243      6C655665 
 244 0033 00000000 		.ascii	"\000\000\000\000\000\000\000\000\000\000\257\000\000"
 244      00000000 
 244      0000AF00 
 244      00
 245 0040 006E7669 		.ascii	"\000nvicSetSystemHandlerPriority\000\000\000\000\000"
 245      63536574 
 245      53797374 
 245      656D4861 
 245      6E646C65 
 246 0062 00000000 		.ascii	"\000\000\000\000\000\000\000\265\000\000\000nvicCle"
 246      000000B5 
 246      0000006E 
 246      76696343 
 246      6C65
 247 0074 61725065 		.ascii	"arPending\000\000\000\000\000\000\000\000\000\000\000"
 247      6E64696E 
 247      67000000 
 247      00000000 
 247      00000000 
 248 0088 00BB0000 		.ascii	"\000\273\000\000\000"
 248      00
 249              		.text
 250              		.section	.gnu.lto_.opts,"",%progbits
 251 0000 272D6D63 		.ascii	"'-mcpu=cortex-m3' '-mno-thumb-interwork' '-mthumb' "
 251      70753D63 
 251      6F727465 
 251      782D6D33 
 251      2720272D 
 252 0033 272D6767 		.ascii	"'-ggdb' '-O2' '-fomit-frame-pointer' '-falign-funct"
 252      64622720 
 252      272D4F32 
ARM GAS  /tmp/ccjdOIf7.s 			page 19


 252      2720272D 
 252      666F6D69 
 253 0066 696F6E73 		.ascii	"ions=16' '-ffunction-sections' '-fdata-sections' '-"
 253      3D313627 
 253      20272D66 
 253      66756E63 
 253      74696F6E 
 254 0099 666E6F2D 		.ascii	"fno-common' '-flto'\000"
 254      636F6D6D 
 254      6F6E2720 
 254      272D666C 
 254      746F2700 
 255              		.text
 256              		.cfi_sections	.debug_frame
 257              		.section	.text.nvicEnableVector,"ax",%progbits
 258              		.align	2
 259              		.p2align 4,,15
 260              		.global	nvicEnableVector
 261              		.thumb
 262              		.thumb_func
 263              		.type	nvicEnableVector, %function
 264              	nvicEnableVector:
 265              	.LFB219:
 266              		.file 1 "../../../os/hal/ports/common/ARMCMx/nvic.c"
 267              		.loc 1 57 0
 268              		.cfi_startproc
 269              		@ args = 0, pretend = 0, frame = 0
 270              		@ frame_needed = 0, uses_anonymous_args = 0
 271              		@ link register save eliminated.
 272              	.LVL0:
 273              		.loc 1 65 0
 274 0000 00F01F03 		and	r3, r0, #31
 275 0004 0122     		movs	r2, #1
 276 0006 02FA03F3 		lsl	r3, r2, r3
 277 000a 4209     		lsrs	r2, r0, #5
 278 000c 9200     		lsls	r2, r2, #2
 279              		.loc 1 63 0
 280 000e 0901     		lsls	r1, r1, #4
 281              	.LVL1:
 282 0010 00F16040 		add	r0, r0, #-536870912
 283              	.LVL2:
 284 0014 02F16042 		add	r2, r2, #-536870912
 285 0018 02F56142 		add	r2, r2, #57600
 286 001c C9B2     		uxtb	r1, r1
 287 001e 00F56140 		add	r0, r0, #57600
 288              	.LVL3:
 289 0022 80F80013 		strb	r1, [r0, #768]
 290              		.loc 1 65 0
 291 0026 C2F88031 		str	r3, [r2, #384]
 292              		.loc 1 66 0
 293 002a 1360     		str	r3, [r2]
 294 002c 7047     		bx	lr
 295              		.cfi_endproc
 296              	.LFE219:
 297              		.size	nvicEnableVector, .-nvicEnableVector
 298 002e 00BF     		.section	.text.nvicDisableVector,"ax",%progbits
 299              		.align	2
ARM GAS  /tmp/ccjdOIf7.s 			page 20


 300              		.p2align 4,,15
 301              		.global	nvicDisableVector
 302              		.thumb
 303              		.thumb_func
 304              		.type	nvicDisableVector, %function
 305              	nvicDisableVector:
 306              	.LFB220:
 307              		.loc 1 74 0
 308              		.cfi_startproc
 309              		@ args = 0, pretend = 0, frame = 0
 310              		@ frame_needed = 0, uses_anonymous_args = 0
 311              		@ link register save eliminated.
 312              	.LVL4:
 313 0000 10B4     		push	{r4}
 314              		.cfi_def_cfa_offset 4
 315              		.cfi_offset 4, -4
 316              		.loc 1 76 0
 317 0002 00F01F03 		and	r3, r0, #31
 318 0006 0124     		movs	r4, #1
 319 0008 9C40     		lsls	r4, r4, r3
 320 000a 4FF46143 		mov	r3, #57600
 321 000e 4109     		lsrs	r1, r0, #5
 322 0010 CEF20003 		movt	r3, 57344
 323 0014 2031     		adds	r1, r1, #32
 324              		.loc 1 80 0
 325 0016 1844     		add	r0, r0, r3
 326              	.LVL5:
 327 0018 0022     		movs	r2, #0
 328              		.loc 1 76 0
 329 001a 43F82140 		str	r4, [r3, r1, lsl #2]
 330              		.loc 1 80 0
 331 001e 80F80023 		strb	r2, [r0, #768]
 332              		.loc 1 82 0
 333 0022 5DF8044B 		ldr	r4, [sp], #4
 334 0026 7047     		bx	lr
 335              		.cfi_endproc
 336              	.LFE220:
 337              		.size	nvicDisableVector, .-nvicDisableVector
 338 0028 AFF30080 		.section	.text.nvicSetSystemHandlerPriority,"ax",%progbits
 338      AFF30080 
 339              		.align	2
 340              		.p2align 4,,15
 341              		.global	nvicSetSystemHandlerPriority
 342              		.thumb
 343              		.thumb_func
 344              		.type	nvicSetSystemHandlerPriority, %function
 345              	nvicSetSystemHandlerPriority:
 346              	.LFB221:
 347              		.loc 1 90 0
 348              		.cfi_startproc
 349              		@ args = 0, pretend = 0, frame = 0
 350              		@ frame_needed = 0, uses_anonymous_args = 0
 351              		@ link register save eliminated.
 352              	.LVL6:
 353              		.loc 1 100 0
 354 0000 0901     		lsls	r1, r1, #4
 355              	.LVL7:
ARM GAS  /tmp/ccjdOIf7.s 			page 21


 356 0002 00F16040 		add	r0, r0, #-536870912
 357              	.LVL8:
 358 0006 C9B2     		uxtb	r1, r1
 359 0008 00F56D40 		add	r0, r0, #60672
 360              	.LVL9:
 361 000c 0176     		strb	r1, [r0, #24]
 362 000e 7047     		bx	lr
 363              		.cfi_endproc
 364              	.LFE221:
 365              		.size	nvicSetSystemHandlerPriority, .-nvicSetSystemHandlerPriority
 366              		.section	.text.nvicClearPending,"ax",%progbits
 367              		.align	2
 368              		.p2align 4,,15
 369              		.global	nvicClearPending
 370              		.thumb
 371              		.thumb_func
 372              		.type	nvicClearPending, %function
 373              	nvicClearPending:
 374              	.LFB222:
 375              		.loc 1 109 0
 376              		.cfi_startproc
 377              		@ args = 0, pretend = 0, frame = 0
 378              		@ frame_needed = 0, uses_anonymous_args = 0
 379              		@ link register save eliminated.
 380              	.LVL10:
 381              		.loc 1 111 0
 382 0000 00F01F03 		and	r3, r0, #31
 383 0004 0122     		movs	r2, #1
 384 0006 9A40     		lsls	r2, r2, r3
 385 0008 4009     		lsrs	r0, r0, #5
 386              	.LVL11:
 387 000a 4FF46143 		mov	r3, #57600
 388 000e 6030     		adds	r0, r0, #96
 389 0010 CEF20003 		movt	r3, 57344
 390 0014 43F82020 		str	r2, [r3, r0, lsl #2]
 391 0018 7047     		bx	lr
 392              		.cfi_endproc
 393              	.LFE222:
 394              		.size	nvicClearPending, .-nvicClearPending
 395 001a 00BFAFF3 		.text
 395      0080
 396              	.Letext0:
 397              		.file 2 "/home/julian/MEGA/semestre_ix/Embebidos/arm-2013.11/arm-none-eabi/include/stdint.h"
 398              		.file 3 "../../../os/common/ports/ARMCMx/compilers/GCC/chtypes.h"
 399              		.file 4 "../../../os/rt/include/chsystypes.h"
 400              		.file 5 "../../../os/rt/include/chschd.h"
 401              		.file 6 "../../../os/common/ext/CMSIS/include/core_cm3.h"
 402              		.file 7 "../../../os/common/ports/ARMCMx/chcore.h"
 403              		.file 8 "../../../os/common/ports/ARMCMx/chcore_v7m.h"
 404              		.file 9 "../../../os/rt/include/chsem.h"
 405              		.file 10 "../../../os/rt/include/chmtx.h"