ARM GAS  /tmp/ccjdOIf7.s 			page 1


   1              		.syntax unified
   2              		.cpu cortex-m3
   3              		.fpu softvfp
   4              		.eabi_attribute 20, 1
   5              		.eabi_attribute 21, 1
   6              		.eabi_attribute 23, 3
   7              		.eabi_attribute 24, 1
   8              		.eabi_attribute 25, 1
   9              		.eabi_attribute 26, 1
  10              		.eabi_attribute 30, 2
  11              		.eabi_attribute 34, 1
  12              		.eabi_attribute 18, 4
  13              		.thumb
  14              		.file	"nvic.c"
  15              		.text
  16              	.Ltext0:
  17              		.section	.gnu.lto_.jmpfuncs.dea032502c37c669,"",%progbits
  18 0000 789C6362 		.ascii	"x\234cb`b\300\006\270\2404\013\0033##\02333#\003\000"
  18      6062C006 
  18      B8A0340B 
  18      03332323 
  18      13333323 
  19 0016 01F00021 		.ascii	"\001\360\000!"
  20              		.text
  21              		.section	.gnu.lto_.inline.dea032502c37c669,"",%progbits
  22 0000 789C6D4C 		.ascii	"x\234mL\313\025\200 \014KK\205\352\305\021\330\300%"
  22      CB158020 
  22      0C4B4B85 
  22      EAC511D8 
  22      C025
  23 0012 5D84911C 		.ascii	"]\204\221\034\305\021LQy\036\354!}\371*\024\177\267"
  23      C5114C51 
  23      791EEC21 
  23      7DF92A14 
  23      7FB7
  24 0024 3FDF8065 		.ascii	"?\337\200e\026\025\011\022`\371\334\220[U\350\261\032"
  24      16150912 
  24      60F9DC90 
  24      5B55E8B1 
  24      1A
  25 0035 C89CAAD3 		.ascii	"\310\234\252\323\363\302TD\222\265zG\350Z\037QL&\322"
  25      F3C25444 
  25      92B57A47 
  25      E85A1F51 
  25      4C26D2
  26 0048 57127B9F 		.ascii	"W\022{\237\201PP\362[\035\346\250\342\002a/\015\002"
  26      815050F2 
  26      5B1DE6A8 
  26      E202612F 
  26      0D02
  27              		.text
  28              		.section	.gnu.lto_.pureconst.dea032502c37c669,"",%progbits
  29 0000 789C6362 		.ascii	"x\234cb`b\340d\200\000\026\006)F)&)f)\000\002\326\000"
  29      6062E064 
  29      80001606 
  29      29462926 
  29      29662900 
ARM GAS  /tmp/ccjdOIf7.s 			page 2


  30 0017 80       		.ascii	"\200"
  31              		.text
  32              		.section	.gnu.lto_nvicEnableVector.dea032502c37c669,"",%progbits
  33 0000 789C9D91 		.ascii	"x\234\235\221\277K\303@\024\307\337\273k\314\217\242"
  33      BF4BC340 
  33      14C7DFBB 
  33      6BCC8FA2 
  34 0010 AE3A5974 		.ascii	"\256:Yt\021\212\211N\016N\342\344\320\245T\320\261f"
  34      118A894E 
  34      0E4EE2E4 
  34      D0A554D0 
  34      B166
  35 0022 8801DB88 		.ascii	"\210\001\333\210\025q3m\272\351\320\301\305\352`\021"
  35      1571336D 
  35      BAE9D0C1 
  35      C5EA6011 
  36 0032 11C41F7F 		.ascii	"\021\304\037\177\200 \245\233C\0257')\256\202\210\223"
  36      8020A59B 
  36      43153727 
  36      29AE8288 
  36      93
  37 0043 A010DFE5 		.ascii	"\240\020\337\345l\245\"\016\036\311\335\273{\337\367"
  37      6CA5220E 
  37      1EC9DDBB 
  37      7BDFF7
  38 0052 BE9FE318 		.ascii	"\276\237\343\0300\3709\006\351O\323\361\004\255\310"
  38      30F83906 
  38      E94FD3F1 
  38      04ADC8
  39 0061 0159E506 		.ascii	"\001Y\345\006\240\2501D\021\000\302&\303\315\005\024"
  39      A0A83144 
  39      1100C226 
  39      C3CD0514 
  40 0071 521C869A 		.ascii	"R\034\206\232\357WZG\217olw\247^>\360?\302\020\321E"
  40      EF575A47 
  40      8F6F6C77 
  40      A75E3EF0 
  40      3FC210D1 
  41 0086 6A6B22D8 		.ascii	"jk\"\330\010\363\264\301D\264\260X\267\317\005\253\267"
  41      08F3B4C1 
  41      44B4B058 
  41      B7CF05AB 
  41      B7
  42 0097 C270FFB6 		.ascii	"\302p\377\266\3720\200\275\2109Q\344\"\347bRh\213*E"
  42      FA3080BD 
  42      883951E4 
  42      22E76252 
  42      688B2A45 
  43 00ab 310DB258 		.ascii	"1\015\262X#\037\2356`\320\244P\251\002e\262M\200p\240"
  43      231F9D36 
  43      60D0A450 
  43      A90265B2 
  43      4D8070A0 
  44 00bf 91A159B0 		.ascii	"\221\241Y\260\315!\023+oB\351)\010\3371\213\207$w\220"
  44      CD21132B 
  44      6F42E929 
  44      08DF318B 
ARM GAS  /tmp/ccjdOIf7.s 			page 3


  44      87247790 
  45 00d3 39488A26 		.ascii	"9H\212&\004g\274}\304\351T@\365\010\250&4feb\014N\375"
  45      0467BC7D 
  45      C4E95440 
  45      F508A826 
  45      34666562 
  46 00ea 72D19FA4 		.ascii	"r\321\237\244D\022ND\330\357\242\272\007U\222jB\257"
  46      44124E44 
  46      D8EFA2BA 
  46      0755926A 
  46      42AF
  47 00fc FB8DC0EF 		.ascii	"\373\215\300\357\213\356\243G\267XDy\033'\002\223\021"
  47      8BEEA347 
  47      B7584479 
  47      1B270293 
  47      11
  48 010d 8FCCCE83 		.ascii	"\217\314\316\203\343\355\321\266\237JyQ\004J\344Wz\016"
  48      E3EDD1B6 
  48      9F4A7951 
  48      044AE457 
  48      7A0E
  49 011f AE3A785A 		.ascii	"\256:xZTK\025\227\035<\335\221v0\004\022<x\355\310\015"
  49      544B1597 
  49      1D3CDD91 
  49      76300412 
  49      3C78EDC8 
  50 0134 915050A8 		.ascii	"\221PP\250\"\364\353\227x\027\374\224\213\3067|\374"
  50      22F4EB97 
  50      7817FC94 
  50      8BC6377C 
  50      FC
  51 0145 6F78FC42 		.ascii	"ox\374BV;\360\206lzOO\372\377\266\354\267\266wPlm\215"
  51      563BF086 
  51      6C7A4F4F 
  51      FAFFB6EC 
  51      B7B67750 
  52 015c C8A6ED91 		.ascii	"\310\246\355\221!\002z2\241O\232\246%?\257`-e\227\255"
  52      21027A32 
  52      A14F9AA6 
  52      253FAF60 
  52      2D6597AD 
  53 0170 156F75AD 		.ascii	"\025ou\255`\331^.\347\345\255\351tj&\265a\345\327]\333"
  53      60D95E2E 
  53      E7E5ADE9 
  53      746A26B5 
  53      61E5D75D 
  54 0185 B481E7CD 		.ascii	"\264\201\347\315\361O\265\353\222\340"
  54      F14FB5EB 
  54      92E0
  55              		.text
  56              		.section	.gnu.lto_nvicDisableVector.dea032502c37c669,"",%progbits
  57 0000 789C7D50 		.ascii	"x\234}P\277K\303P\020\276\357\245\321VAqt\262\350\""
  57      BF4BC350 
  57      10BEEFA5 
  57      D1564171 
  57      74B2E822 
  58 0014 14133A39 		.ascii	"\024\023:98\211s\027\251\240c\355P\003\266\021+\342"
ARM GAS  /tmp/ccjdOIf7.s 			page 4


  58      38897317 
  58      A9A063ED 
  58      5003B611 
  58      2BE2
  59 0026 D6D4D4CD 		.ascii	"\326\324\324\315\241\203\203?\026\213[\251?\300E\020"
  59      A183833F 
  59      168B5BA9 
  59      3FC04510 
  60 0036 A4141C1C 		.ascii	"\244\024\034\034*\370\037\024\027\301AD\227\016B\274"
  60      2AF81F14 
  60      17C14144 
  60      970E42BC 
  61 0046 4B1AA50E 		.ascii	"K\032\245\016\036\311\273{\367}\367\335\335S\244\350"
  61      1EC9BB7B 
  61      F77DF7DD 
  61      DD53A4E8 
  62 0056 AF8DF37F 		.ascii	"\257\215\363\177\017\242${h\004U}$*G\025 \001\201J\012"
  62      0FA2247B 
  62      6804557D 
  62      242A4715 
  62      2001814A 
  63 006b A5150815 		.ascii	"\245\025\010\025\223Ts\234jg\357\245\253\216\016\232"
  63      9354739C 
  63      6A67EFA5 
  63      AB8E0E9A 
  64 007b 9553E7CB 		.ascii	"\225S\347\313\363\000\013,k\200\262\240e\276 \356;\025"
  64      F3000B2C 
  64      6B80B2A0 
  64      65BE20EE 
  64      3B15
  65 008d E9EF73A9 		.ascii	"\351\357s\251\232\035\317k\\_=\3271\026\003\362ReA\323"
  65      9A1DCF6B 
  65      5C5F3DD7 
  65      311603F2 
  65      526541D3 
  66 00a1 28831A2B 		.ascii	"(\203\032+G\370B:\037R\247S\205\033\305I4\331\322|\312"
  66      47F8423A 
  66      1F52A753 
  66      851BC549 
  66      34D9D27C 
  67 00b6 344B50E2 		.ascii	"4KP\342\2656\271\027\356\347\376t\006g\320)\007\225"
  67      B536B917 
  67      EEE7FE74 
  67      0667D029 
  67      0795
  68 00c8 03A427D7 		.ascii	"\003\244'\327\021\265i\367\315\275C\210i\214I\322\275"
  68      11B569F7 
  68      CDBD4388 
  68      698C49D2 
  68      BD
  69 00d9 D5C25484 		.ascii	"\325\302T\204\263>}\302\247\273\347\356\307\017]\027"
  69      B33E7DC2 
  69      A7BBE7EE 
  69      C70F5D17 
  70 00e9 20026109 		.ascii	" \002a\011\326zx\037\016\240\031j8\225\2623gAOP]\302"
  70      D67A781F 
  70      0EA0196A 
ARM GAS  /tmp/ccjdOIf7.s 			page 5


  70      3895B233 
  70      67414F50 
  71 00ff 510B0327 		.ascii	"Q\013\003't\314\374A)\212:-\327\031\361w\217\372\033"
  71      74CCFC41 
  71      298A3A2D 
  71      D719F177 
  71      8FFA1B
  72 0112 AF22D89C 		.ascii	"\257\"\330\234\347\2430\322}\321\233\303\327.\372dg"
  72      E7A330D2 
  72      7DD19BC3 
  72      D72EFA64 
  72      67
  73 0123 2DC47E65 		.ascii	"-\304~e\207\376\227EO\254\247\357c1\011\236\250\334"
  73      87FE9745 
  73      4FACA7EF 
  73      6331099E 
  73      A8DC
  74 0135 A94F05C2 		.ascii	"\251O\005\302\241\245\231\306o&#$\014\303\014>\273h"
  74      A1A599C6 
  74      6F262324 
  74      0CC30C3E 
  74      BB68
  75 0147 AE65D6CD 		.ascii	"\256e\326\315\015{s\253hf\355|\336.\230\363\213\251"
  75      0D7B73AB 
  75      6866ED7C 
  75      DE2E98F3 
  75      8BA9
  76 0159 85D48E59 		.ascii	"\205\324\216Y\330\266\262F\226\264\202\221\374\006\256"
  76      D8B6B246 
  76      96B48291 
  76      FC06AE
  77 0168 7676D4   		.ascii	"vv\324"
  78              		.text
  79              		.section	.gnu.lto_nvicSetSystemHandlerPriority.dea032502c37c669,"",%progbits
  80 0000 789C6362 		.ascii	"x\234cb`b@\007\222@\374\001\210u\201\230\221\231\201"
  80      60624007 
  80      9240FC01 
  80      88758198 
  80      919981
  81 0013 9169C239 		.ascii	"\221i\3029\006\206F\016&FF\020\203\201\221\241\236\211"
  81      0686460E 
  81      26464610 
  81      838191A1 
  81      9E89
  82 0025 B13E9211 		.ascii	"\261>\222\021\254v=\323\201\007\377\377\257\373\322"
  82      AC763DD3 
  82      8107FFFF 
  82      AFFBD2
  83 0034 76EC20E3 		.ascii	"v\354 \3439evF\306\\F\240\211\231\214\014\314 \202\025"
  83      39657646 
  83      C65C46A0 
  83      89998C0C 
  83      CC208215 
  84 0048 C805A963 		.ascii	"\310\005\251cehih\230\240\220\313\010\264,\031\2541"
  84      65686968 
  84      98A090CB 
  84      08B42C19 
ARM GAS  /tmp/ccjdOIf7.s 			page 6


  84      AC31
  85 005a 0448824C 		.ascii	"\004H\202L\013\005\012\001i\346\263\014M\257\2337\367"
  85      0B050A01 
  85      69E6B30C 
  85      4DAF9B37 
  85      F7
  86 006b E926322E 		.ascii	"\351&2.ddeHgdJ\007i<\313\320\274\226\031&\304\014\024"
  86      64646548 
  86      67644A07 
  86      693CCBD0 
  86      BC961926 
  87 0082 8D60CC64 		.ascii	"\215`\314ddda\000\311\034\362\204H\3502\254ihil0\007"
  87      64646100 
  87      C91CF284 
  87      48E832AC 
  87      6968696C 
  88 0098 4A6833AC 		.ascii	"Jh3\254\0021y3\031\231f3\314\002*e\006\251gi\270\325"
  88      02317933 
  88      19996633 
  88      CC022A65 
  88      06A96769 
  89 00ae DCC0C700 		.ascii	"\334\300\307\000f\202\335\234\004q:\320HV\006\030\213"
  89      6682DD9C 
  89      04713AD0 
  89      48560618 
  89      8B
  90 00bf 9981E122 		.ascii	"\231\201\341\"C\343\203s\312\020Ca \004\350\012\240"
  90      43E38373 
  90      CA104361 
  90      2004E80A 
  90      A0
  91 00d0 F34061A4 		.ascii	"\363@a\244\255\247\247\017A\371\305\372\031\2119\372"
  91      ADA7A70F 
  91      41F9C5FA 
  91      198939FA 
  92 00e0 05F94525 		.ascii	"\005\371E%\305\372\311\371\271\271\371y\372\216A\276"
  92      C5FAC9F9 
  92      B9B9F979 
  92      FA8E41BE 
  93 00f0 CEBE15FA 		.ascii	"\316\276\025\372ye\231\311z\311\014\000\317\274E\347"
  93      796599C9 
  93      7AC90C00 
  93      CFBC45E7 
  94              		.text
  95              		.section	.gnu.lto_nvicClearPending.dea032502c37c669,"",%progbits
  96 0000 789C5D50 		.ascii	"x\234]P1H\303P\020\275\367\177\322\352\2428:Yt\021\212"
  96      3148C350 
  96      10BDF77F 
  96      D2EAA238 
  96      3A597411 
  97 0015 09BA3A89 		.ascii	"\011\272:\211\223C\027\251\240c\315P\003\266\021+\342"
  97      934317A9 
  97      A063CD50 
  97      03B6112B 
  97      E2
  98 0026 D65FD359 		.ascii	"\326_\323Y:\270\250\213\305M\252\356v)\335+\272;\024"
  98      3AB8A88B 
ARM GAS  /tmp/ccjdOIf7.s 			page 7


  98      C54DAAEE 
  98      7629DD2B 
  98      BA3B14
  99 0039 41280EAE 		.ascii	"A(\016\256.B\274KLA\217\237\177\367\337\275{w9E\212"
  99      2E42BC4B 
  99      4C418F9F 
  99      7FF7DFBD 
  99      7B773945 
 100 004e FEDB2C7F 		.ascii	"\376\333,\177\006D\313\354\241\011\252\365D\324\230"
 100      0644CBEC 
 100      A109AAF5 
 100      44D498
 101 005d 50800404 		.ascii	"P\200\004\004\252+\324w T\314S\333\230\326\360\375\353"
 101      AA2BD477 
 101      2054CC53 
 101      DB98D6F0 
 101      FDEB
 102 006f 595F9CF7 		.ascii	"Y_\234\367\232\327\346;\212\000\037,\353\200<\3206?"
 102      9AD7E63B 
 102      8A001F2C 
 102      EB803CD0 
 102      363F
 103 0081 908B9DB2 		.ascii	"\220\213\235\262\376\366yP\275a\024\275v;o#\314L\002"
 103      FEF67950 
 103      BD6114BD 
 103      763B6F23 
 103      CC4C02
 104 0094 15A9F2A1 		.ascii	"\025\251\362\2415\225\320fe\213\037d\313\225\021\230"
 104      3595D066 
 104      658B1F64 
 104      CB951198 
 105 00a4 2B6C6A72 		.ascii	"+ljr\267\034\2110[\221o\031i\013J\274\036Px\037Fg\213"
 105      B71C8930 
 105      5B916F19 
 105      690B4ABC 
 105      1E50781F 
 106 00bb 25DCC0A6 		.ascii	"%\334\300\2462T\031\220\306\\G4\240\323\317\360\003"
 106      32541990 
 106      C65C4734 
 106      A0D3CFF0 
 106      03
 107 00cc 694E734E 		.ascii	"iNsN\300\260\253S\310b4\246\317\305\364\360n\234\261"
 107      C0B0AB53 
 107      C86234A6 
 107      CFC5F4F0 
 107      6E9CB1
 108 00df 6318C2F9 		.ascii	"c\030\302\371\025z\034\013e8-`\177#A\226\250c\232\015"
 108      157A1C0B 
 108      65382D60 
 108      7F234196 
 108      A8639A0D 
 109 00f3 B3EAC3CA 		.ascii	"\263\352\303\312\323\255\204\323>\354+\272d\211\214"
 109      D3AD84D3 
 109      3EEC2BBA 
 109      64898C
 110 0102 E8644D3F 		.ascii	"\350dM?4S\361F\262\361\036v\221\354\203\007\2464\312"
 110      3453F146 
ARM GAS  /tmp/ccjdOIf7.s 			page 8


 110      B2F11E76 
 110      91EC8307 
 110      A634CA
 111 0115 10BD5063 		.ascii	"\020\275Pc8ZHDS+\362\320\374\247\302\313;\216\233\234"
 111      385A4844 
 111      532BF2D0 
 111      FCA7C2CB 
 111      3B8E9B9C 
 112 0129 A0E6EE95 		.ascii	"\240\346\356\225\366\335\203\340\360\250\346zA\245\022"
 112      F6DD83E0 
 112      F0A8E67A 
 112      41A512
 113 0138 54DDB5CD 		.ascii	"T\335\265\315\302z\341\304\255\036\373\236\343\221\256"
 113      C27AE1C4 
 113      AD1EFB9E 
 113      E391AE
 114 0147 3A2B3F72 		.ascii	":+?r\207f\302"
 114      8766C2
 115              		.text
 116              		.section	.gnu.lto_.symbol_nodes.dea032502c37c669,"",%progbits
 117 0000 789C6362 		.ascii	"x\234cb`b\260c\200\002\246\333\214\365\014\014\023\316"
 117      6062B063 
 117      8002A6DB 
 117      8CF50C0C 
 117      13CE
 118 0012 3130D4D7 		.ascii	"10\324\327\317\353`d\272\303X\317\210\304\275\313X\317"
 118      CFEB6064 
 118      BAC358CF 
 118      88C4BDCB 
 118      58CF
 119 0024 84C4BDC7 		.ascii	"\204\304\275\307X\317\214\3402\000\000q\306\023\317"
 119      58CF8CE0 
 119      32000071 
 119      C613CF
 120              		.text
 121              		.section	.gnu.lto_.refs.dea032502c37c669,"",%progbits
 122 0000 789C6362 		.ascii	"x\234cb`b`d\200\002\000\000F\000\006"
 122      60626064 
 122      80020000 
 122      460006
 123              		.text
 124              		.section	.gnu.lto_.decls.dea032502c37c669,"",%progbits
 125 0000 789CAD59 		.ascii	"x\234\255YmpT\325\031>\347\356\206$%Fp\254\205\031\034"
 125      6D7054D5 
 125      193EE7EE 
 125      86242546 
 125      70AC8519 
 126 0015 A2A38EA3 		.ascii	"\242\243\216\2435\313G\265\366\217\303\262\011f\177"
 126      35CB47B5 
 126      F68FC3B2 
 126      09667F
 127 0024 4433BBC0 		.ascii	"D3\273\3008\362#\034\226k\263\235d\227\331,\035\370"
 127      38F2231C 
 127      966BB39D 
 127      6497D92C 
 127      1DF8
 128 0036 7742C4D2 		.ascii	"wB\304\322\012c\370\322Ld2\033I\264@\0352@\020\001\353"
ARM GAS  /tmp/ccjdOIf7.s 			page 9


 128      0A63F8D2 
 128      4C64321B 
 128      49B4401D 
 128      32401001 
 129 004b FA855AB0 		.ascii	"\372\205Z\260\"\325RE\333\245\255U\3548 T\324\266t\373"
 129      22D55245 
 129      DBA5AD55 
 129      EC382054 
 129      D4B674FB 
 130 005f 9E73EFB9 		.ascii	"\236s\357\271\367\234\273{6w\035\357\344\274\367\334"
 130      F79CBB7B 
 130      36771DEF 
 130      E4BCF7DC 
 131 006f 7BCF79DE 		.ascii	"{\317y\336\347y\317\307}\367\306@\006\332\210\021*\302"
 131      E779CFC7 
 131      7DF7C640 
 131      06DA8811 
 131      2AC2
 132 0081 D13713A1 		.ascii	"\3217\023\241\031\006B5\010\241{\220{\004\241\214@\331"
 132      19064235 
 132      08A17B90 
 132      7B04A18C 
 132      40D9
 133 0093 0B6502CA 		.ascii	"\013e\002\312\021Tz\260\347\015v\333F\273\016\260\250"
 133      11547AB0 
 133      E70D76DB 
 133      46BB0EB0 
 133      A8
 134 00a4 1659782F 		.ascii	"\026Yx/By\005\3121(\347\241\274\005\345\004\224\000"
 134      427905CA 
 134      3128E7A1 
 134      BC05E504 
 134      9400
 135 00b6 944FA07C 		.ascii	"\224O\240|\004\345\270\335\207a\001\015\364\033(\273"
 135      04E5B8DD 
 135      8761010D 
 135      F41B28BB 
 136 00c6 3D7E1887 		.ascii	"=~\030\207\251\036?\302\207\300\024>\204O\206\365\236"
 136      A91E3FC2 
 136      87C0143E 
 136      844F86F5 
 136      9E
 137 00d7 ED07DB18 		.ascii	"\355\007\333\030\354\274\337\203=a\343`\273\357\005"
 137      ECBCDF83 
 137      3D61E360 
 137      BBEF05
 138 00e6 2897A0DC 		.ascii	"(\227\240\334\216\255{5\366y\302\346\375<\224\347\240"
 138      8EAD7B35 
 138      F679C2E6 
 138      FD3C94E7 
 138      A0
 139 00f7 FC10AB38 		.ascii	"\374\020\2538,>ue8z\371a[7\266\373\260\363\013\036N"
 139      2C3E7565 
 139      387AF961 
 139      5B37B6FB 
 139      B0F30B1E 
 140 010c B3D130CD 		.ascii	"\263\3210\315\025\012c\303\3071\335B\377[,\006\320u"
ARM GAS  /tmp/ccjdOIf7.s 			page 10


 140      150A63C3 
 140      C731DD42 
 140      FF5B2C06 
 140      D075
 141 011e 683B8523 		.ascii	"h;\205#\367\010\2458K\360=\337G\017`\202\033\353Q\023"
 141      F708A538 
 141      4BF03DDF 
 141      470F6082 
 141      1BEB5113 
 142 0132 AF34D473 		.ascii	"\2574\324s\307\010\021\374\024\276\216\327\002<\004"
 142      C70811FC 
 142      14BE8ED7 
 142      023C04
 143 0141 A81E6DA0 		.ascii	"\250\036m\240t\035\353\330\366\006\360*\327\353f4J\351"
 143      741DEBD8 
 143      F606F02A 
 143      D7EB6634 
 143      4AE9
 144 0153 40E18591 		.ascii	"@\341\205\221M!J\353\010\036\305\365\320w\035\306\350"
 144      4D214AEB 
 144      081EC5F5 
 144      D0771DC6 
 144      E8
 145 0164 36B40B9C 		.ascii	"6\264\013\234\016P\372\327[\014Tz\020\\[_rM\3603\370"
 145      0E50FAD7 
 145      5B0C547A 
 145      105C5B5F 
 145      724DF033 
 146 0179 366479E2 		.ascii	"6dy\342\217\355\012\233lW;\264,/\274\262$\340\000\030"
 146      8FED0A9B 
 146      6C573BB4 
 146      2C2FBCB2 
 146      24E00018 
 147 018d 680B7815 		.ascii	"h\013x\025\010\354\270\011\355\244t\013\204bt&\315\031"
 147      08ECB809 
 147      EDA4740B 
 147      84627426 
 147      CD19
 148 019f 82DB4EDE 		.ascii	"\202\333N\336j\004\317.\253\307\306\266\272\322\347"
 148      6A04CF2E 
 148      ABC7C6B6 
 148      BAD2E7
 149 01ae CD36D16D 		.ascii	"\3156\321m\314O7\204nAc,\326\233\350\372i\230\207\032"
 149      CC4F3784 
 149      6E41632C 
 149      D69BE8FA 
 149      6998871A 
 150 01c2 D9BD14A9 		.ascii	"\331\275\024\251\273\260\022\022k\314\362\007\2165\014"
 150      BBB01212 
 150      6BCCF207 
 150      8E350C
 151 01d1 F4158AC5 		.ascii	"\364\025\212\305\331\376\007l\\\0350\213\206',\273\313"
 151      D9FE076C 
 151      5C1D308B 
 151      86272CBB 
 151      CB
 152 01e2 86856E15 		.ascii	"\206\205n\025\332\010\336\003t\010\336\373\255\264\355"
ARM GAS  /tmp/ccjdOIf7.s 			page 11


 152      DA08DE03 
 152      7408DEFB 
 152      ADB4ED
 153 01f1 F56ADB57 		.ascii	"\365j\333WV\333\277\2046k\222\031\350hyVR\304\337\347"
 153      56DBBF84 
 153      366B9219 
 153      E8687956 
 153      52C4DFE7 
 154 0205 2D267C0D 		.ascii	"-&|\015\324\025W\314\263\\\314$\3354b&\274b\016\226"
 154      D41557CC 
 154      B35CCC24 
 154      DD346226 
 154      BC620E96 
 155 0219 1573F875 		.ascii	"\025s\370uG\3148\027s\266\274\230\315\336\020\037\371"
 155      47CC3817 
 155      73B6BC98 
 155      CDDE101F 
 155      F9
 156 022a 56AC8E78 		.ascii	"V\254\216xY\035UY\361e\332O\013ct\306\240\273L\353\204"
 156      591D5559 
 156      F165DA4F 
 156      0B6374C6 
 156      A0BB4CEB 
 157 023f 03B64B88 		.ascii	"\003\266K\210ez\356\337\006,S{]W\352@p\036\337\014\026"
 157      657AEEDF 
 157      062C537B 
 157      5D57EA40 
 157      701EDF0C 
 158 0254 AB8B12D7 		.ascii	"\253\213\022\327\273\225\"f\263\353\242G\272\335Fb;"
 158      BB952266 
 158      B3EBA247 
 158      BADD4662 
 158      3B
 159 0265 09C47434 		.ascii	"\011\304t4\300$7\0156\022\374\"\334\263\331\320\253"
 159      C024370D 
 159      3612FC22 
 159      DCB3D9D0 
 159      AB
 160 0276 059D0BD6 		.ascii	"\005\235\013\326n)\267{\251B;\202_\305\323\335\270P"
 160      6E29B77B 
 160      A9423B82 
 160      5FC5D3DD 
 160      B850
 161 0288 7BFBE24D 		.ascii	"{\373\342Mt\313\3505\233\263}\333\251\234\307\212\022"
 161      74CBE835 
 161      9BB37DDB 
 161      A99CC78A 
 161      12
 162 0299 D10C5D83 		.ascii	"\321\014]\2036s.\322\256\230+`\321\353\341Yn\304\277"
 162      36732ED2 
 162      AE982B60 
 162      D1EBE159 
 162      6EC4BF
 163 02ac 7CECED45 		.ascii	"|\354\355E|c<\206\257\201h\3551\324h\371\000b\216\337"
 163      7C633C86 
 163      AF8168ED 
 163      31D468F9 
ARM GAS  /tmp/ccjdOIf7.s 			page 12


 163      00628EDF 
 164 02c0 84CE5637 		.ascii	"\204\316V7\016K\363\305\323\0154h\335G\012\240r\334"
 164      0E4BF3C5 
 164      D30D3468 
 164      DD470AA0 
 164      72DC
 165 02d2 8072F4E1 		.ascii	"\200r\364\341\276\374\326\241\355\230\346^\306\"\202"
 165      BEFCD6A1 
 165      ED98E65E 
 165      C62282
 166 02e1 6F34DA33 		.ascii	"o4\3323\246\322\306N\360\030\237\000\223\357\312b \014"
 166      A6D2C64E 
 166      F0189F00 
 166      93EFCA62 
 166      200C
 167 02f3 D1BD4919 		.ascii	"\321\275I\031/\026\372Qi\274<\315\010\376}\325\303\365"
 167      2F16FA51 
 167      69BC3CCD 
 167      08FE7DD5 
 167      C3F5
 168 0305 B666B86A 		.ascii	"\266f\270j\225\321\022\255 \354\023<\354,ZeY88\002\264"
 168      95D112AD 
 168      20EC133C 
 168      EC2C5A65 
 168      59383802 
 169 031a D199C22C 		.ascii	"\321\231\302,\204\020\357m\017\016\020\235\240)\242"
 169      8410EF6D 
 169      0F0E109D 
 169      A029A2
 170 0329 FF72DBF1 		.ascii	"\377r\333\361\251\252\005\375A#\350\007H(8\\\242@q\253"
 170      A9AA05FD 
 170      4123E807 
 170      4828385C 
 170      A24071AB 
 171 033d 84B45401 		.ascii	"\204\264T\001L\202\307A\001\301'\200\232\201^\365\025"
 171      4C82C741 
 171      01C12780 
 171      9A815EF5 
 171      15
 172 034e 0E8AF5F1 		.ascii	"\016\212\365\361\030\344h\2478\332\233\276\250\345t"
 172      18E468A7 
 172      38DA9BBE 
 172      A8E574
 173 035d 68C06D48 		.ascii	"h\300mH\342v\312\0377C\317m\207\304\355\264?n:4\340"
 173      E276CA1F 
 173      3743CF6D 
 173      87C4EDB4 
 173      3F6E3A34 
 174 0372 362C713B 		.ascii	"6,q;\353\217[@\317m\\\342\366\017\177\334th\300m\237"
 174      EB8F5B40 
 174      CF6D5CE2 
 174      F60F7FDC 
 174      7468C06D 
 175 0387 C4ED823F 		.ascii	"\304\355\202?nA=\267\003\025\346x\243\000(\210M\366"
 175      6E413DB7 
 175      0315E678 
 175      A3002888 
ARM GAS  /tmp/ccjdOIf7.s 			page 13


 175      4DF6
 176 0399 EF554FF2 		.ascii	"\357UO\362\2175\223\374\307\316$\377\262D\203\352W\204"
 176      8F3593FC 
 176      C7CE24FF 
 176      B24483EA 
 176      5784
 177 03ab 44270242 		.ascii	"D'\002Br\360\301\361\345\004\277\302CR,\201S\337\025"
 177      72F0C1F1 
 177      E504BFC2 
 177      43522C81 
 177      53DF15
 178 03be 222653F4 		.ascii	"\"&S\36419T!&#\316>=p\255-\361\263\252\203\362OMP\372"
 178      31395421 
 178      2623CE3E 
 178      3D70AD2D 
 178      F1B3AA83 
 179 03d7 6B9CA8AC 		.ascii	"k\234\250\254\013xex<\013M\265\272\260\364\347\017\177"
 179      0B786578 
 179      3C0B4DB5 
 179      BAB0F4E7 
 179      0F7F
 180 03e9 D0C0A6CA 		.ascii	"\320\300\246\312[<\261\332\350\005TX\211\250\314*\203"
 180      5B3CB1DA 
 180      E8055458 
 180      89A8CC2A 
 180      83
 181 03fa 56EE90DF 		.ascii	"V\356\220\337N\004\377\216\2774\216\343\033\300\276"
 181      4E04FF8E 
 181      BF348EE3 
 181      1BC0BE
 182 0409 C3ED7BDC 		.ascii	"\303\355{\334\236\346\366}n\317p\373\021\267\177\341"
 182      9EE6F67D 
 182      6ECF70FB 
 182      11B77FE1 
 183 0419 F62CB77F 		.ascii	"\366,\267\177\343\366\023n\317q\3739X\347\230\212~\345"
 183      E3F6136E 
 183      CF71FB39 
 183      58E7988A 
 183      7EE5
 184 042b FE1AB15E 		.ascii	"\376\032\261^\250\272\250\236\307SE/Mz\261\\ti(i\365"
 184      A8BAA89E 
 184      C753452F 
 184      4D7AB15C 
 184      74692869 
 185 0440 92B615C1 		.ascii	"\222\266\025\301_T=\300\0275\003\354\020TZ\225K\010"
 185      5F543DC0 
 185      173503EC 
 185      10545A95 
 185      4B08
 186 0452 0A4E62B6 		.ascii	"\012Nb\266\321M\345\362_\234\301M\004_\342Y\305\346"
 186      D14DE5F2 
 186      5F9CC14D 
 186      045FE259 
 186      C5E6
 187 0464 C0A45985 		.ascii	"\300\244Y\205\007\204\371\274\354M*\266\236\341I\305"
 187      0784F9BC 
 187      EC4D2AB6 
ARM GAS  /tmp/ccjdOIf7.s 			page 14


 187      9EE149C5 
 188 0474 E5C9938A 		.ascii	"\345\311\223\212m\375\371'\236\334>\223%\025N*\221\377"
 188      6DFDF927 
 188      9EDC3E93 
 188      25154E2A 
 188      91FF
 189 0486 0E520903 		.ascii	"\016R\011\003\015q)\227+\317M\244\237\350\203g\244\211"
 189      0D712997 
 189      2BCF4DA4 
 189      9FE88367 
 189      A489
 190 0498 9EAB1AAC 		.ascii	"\236\253\032\254I\001\033\222\301\306\374\200\325\351"
 190      49011B92 
 190      C1C6FC80 
 190      D5E9
 191 04a6 99ED90C1 		.ascii	"\231\355\220\301vW\015\2462\033\226\301\306\375\200"
 191      76570DA6 
 191      321B96C1 
 191      C6FD80
 192 04b5 4DD3331B 		.ascii	"M\3233\033\227\301\016T\015&3\203w\3222\266\001_\340"
 192      97C10E54 
 192      0D263383 
 192      77D232B6 
 192      015FE0
 193 04c8 1BF0212F 		.ascii	"\033\360!/\226\262\236\354\352\014=\261\0032\261\243"
 193      96B29EEC 
 193      EA0C3DB1 
 193      0332B1A3 
 194 04d8 7E8835E9 		.ascii	"~\2105\351CvP\006{\331\017\330\255zf\207d\260\327\253"
 194      43765006 
 194      7BD90FD8 
 194      AD7A6687 
 194      64B0D7AB 
 195 04ec 0653991D 		.ascii	"\006S\231\035\226\301N\370\001\233\243gvT\006{\247j"
 195      96C14EF8 
 195      019BA367 
 195      7654067B 
 195      A76A
 196 04fe 3095D96F 		.ascii	"0\225\331oe\260\323~\300\356\3263;)\203}X5\230\304l"
 196      65B0D37E 
 196      C0EED633 
 196      3B29837D 
 196      583598C4 
 197 0513 5B5FFED4 		.ascii	"[_\376\3242\347\305\234[\300\266\340o\334]{\201\272"
 197      32E7C59C 
 197      5BC0B6E0 
 197      6FDC5D7B 
 197      81BA
 198 0525 809466A3 		.ascii	"\200\224f\243\332f\004?aT\273\271\017\032\3457w\365"
 198      DA66043F 
 198      6154BBB9 
 198      0F1AE537 
 198      77F5
 199 0537 67A368C5 		.ascii	"g\243h\3052H\257l\205\204]]\240\211!\354\272\357Z1\374"
 199      3248AF6C 
 199      85845D5D 
 199      A08921EC 
ARM GAS  /tmp/ccjdOIf7.s 			page 15


 199      BAEF5A31 
 200 054c 86C7F063 		.ascii	"\206\307\360c?1l\323\203\375Q\006;W5\230: \177Z\246"
 200      3F316CD3 
 200      83FD5106 
 200      3B573598 
 200      3A207F5A 
 201 0561 664AD278 		.ascii	"fJ\322xP']\231&\017HIB\345iFp\256\352\001\031\321\014"
 201      50275D99 
 201      260F4849 
 201      42E56946 
 201      70AEEA01 
 202 0578 88FB3D4C 		.ascii	"\210\373=Ln\005\262?\367\312VY\330\325\016]\020\373"
 202      6E05B23F 
 202      F7CA5659 
 202      D8D50E5D 
 202      10FB
 203 058a F21FE875 		.ascii	"\362\037\350u\347\034\250k+\351\3666\203\327e\325\272"
 203      E71CA86B 
 203      2BE9F636 
 203      83D765D5 
 203      BA
 204 059b 9FD6E80E 		.ascii	"\237\326\350\016*\272\237vu_\364\352VY\330\325\345\032"
 204      2ABA9F76 
 204      755FF4EA 
 204      5659D8D5 
 204      E51A
 205 05ad DD902C7C 		.ascii	"\335\220,|\270\214\315\035\306\224\340w\371\307\255"
 205      B88CCD1D 
 205      C694E077 
 205      F9C7AD
 206 05bc C9C05669 		.ascii	"\311\300Vi&\017l\015\177\226\267\206\257\374\314\304"
 206      260F6C0D 
 206      7F96B786 
 206      AFFCCCC4 
 207 05cc 0DE57E4E 		.ascii	"\015\345~N\226;\344<\207\340\257x\"\3625O.\377\303\355"
 207      963BE43C 
 207      87E0AF78 
 207      22F2354F 
 207      2EFFC3ED 
 208 05e0 156E8BDC 		.ascii	"\025n\213\334\366\031\314\366s\273\236\333_p\373Kn\037"
 208      F619CCF6 
 208      73BB9EDB 
 208      5F70FB4B 
 208      6E1F
 209 05f2 E57613B7 		.ascii	"\345v\023\267\217q\273\231\333\255\334n\347v\210\333"
 209      8F71BB99 
 209      DBADDC6E 
 209      E77688DB 
 210 0602 1DDC0E73 		.ascii	"\035\334\016s\273\223\333_s\273\313\320\247\263\227"
 210      BB93DB5F 
 210      73BBCBD0 
 210      A7B397
 211 0611 2AA4B37B 		.ascii	"*\244\263{\014'[\274\021\215\320\223'\013\353\317\017"
 211      0C275BBC 
 211      118DD093 
 211      270BEBCF 
 211      0F
ARM GAS  /tmp/ccjdOIf7.s 			page 16


 212 0622 E20D053A 		.ascii	"\342\015\005:@\377W,b7yu>\354\345+\177\011d\237\345"
 212      40FF572C 
 212      62377975 
 212      3EECE52B 
 212      7F09649F 
 213 0637 0DE92BE0 		.ascii	"\015\351+\340\214\362m\011\336k\260x\215K\263\313\252"
 213      8CF26D09 
 213      DE6BB078 
 213      8D4BB3CB 
 213      AA
 214 0648 8B9AF50D 		.ascii	"\213\232\365\015\360J\300\363\017\0157\370\225\273\332"
 214      F04AC0F3 
 214      0F0D37F8 
 214      95BBDA
 215 0657 4E3F75A6 		.ascii	"N?u\246\313\365\312Ba\3318k\252iF\360\276\252\027\312"
 215      CBF5CA42 
 215      61D9386B 
 215      AA6946F0 
 215      BEAA17CA 
 216 066b 7ECD4299 		.ascii	"~\315B\231\245\260\336\357.\224uA\317Wh/\013\003=\032"
 216      A5B0DEEF 
 216      2E947541 
 216      CF57682F 
 216      0B033D1A 
 217 067f 1429F5F7 		.ascii	"\024)\365\367X\345\366\346\346\220\365\227\356\015u"
 217      58E5F6E6 
 217      E690F597 
 217      EE0D75
 218 068e 91EED0AA 		.ascii	"\221\356\320\252t&\333\033J\244{z\322\251P8\326\036"
 218      7426DB1B 
 218      4AA47B7A 
 218      D2A95038 
 218      D61E
 219 06a0 695F134A 		.ascii	"i_\023J\375<\231hN\240x\250+\335c\206~\266\272;IR\241"
 219      FD3C9968 
 219      4EA078A8 
 219      2BDD6386 
 219      7EB6BA3B 
 220 06b7 F6D67BC3 		.ascii	"\366\326{\303\241^\263\307\354\315f\314\316\344\232"
 220      A15EB3C7 
 220      ECCD66CC 
 220      CEE49A
 221 06c6 506BCF0A 		.ascii	"Pk\317\012sEr%\340\220L\317\035\363\346\314\235\337"
 221      73457225 
 221      E0904CCF 
 221      1DF3E6CC 
 221      9DDF
 222 06d8 3C772EAF 		.ascii	"<w.\257\247\322)\363\016\223\254H\206\222\251D\367\352"
 222      A7D229F3 
 222      0E93AC48 
 222      8692A944 
 222      F7EA
 223 06ea 9566A837 		.ascii	"\225f\2507\2732\231\3126w\241\272\325p\236?\2573;\345"
 223      BB3299CA 
 223      3677A1BA 
 223      D5709E3F 
 223      AF333BE5 
ARM GAS  /tmp/ccjdOIf7.s 			page 17


 224 06fe DEFB9634 		.ascii	"\336\373\2264E\3204\346\2535EVt\233K\315D6\235\301\251"
 224      45D034E6 
 224      AB354556 
 224      749B4BCD 
 224      44369DC1 
 225 0713 E0AA4C32 		.ascii	"\340\252L2=\235\335oI\366\272\017f\261;q3\033_\333\233"
 225      3D9DDD6F 
 225      49F6BA0F 
 225      66B13B71 
 225      331B5FDB 
 226 0728 357BDA48 		.ascii	"5{\332Hje\267\231\351\200\246\231dvmm\227u\315\341\""
 226      6A65B799 
 226      E980A699 
 226      64766D6D 
 226      9775CDE1 
 227 073d DD26C974 		.ascii	"\335&\311t\230)p\371\323Z\346\357\356\316\354\034Y\267"
 227      982970F9 
 227      D35AE6EF 
 227      EECEEC1C 
 227      59B7
 228 074f ADD65C93 		.ascii	"\255\326\\\223\015E\332\343\321\270C3\221\006i\211\236"
 228      0D45DAE3 
 228      D1B84333 
 228      91066989 
 228      9E
 229 0760 F940B4FE 		.ascii	"\371@\264\376\276\245\321H\347\342\265\253\314`4\336"
 229      BEA5D148 
 229      E7E2B5AB 
 229      CC6034DE 
 230 0770 1AAB8FB5 		.ascii	"\032\253\217\265\202]\332\3322'\030\215\264\306\352"
 230      825DDADA 
 230      3227188D 
 230      B4C6EA
 231 077f 62D6D55C 		.ascii	"b\326\325\\x\330\341>\234\007\017\245\313\371\301hx"
 231      78D8E13E 
 231      9C070FA5 
 231      CBF9C168 
 231      78
 232 0790 A17BF923 		.ascii	"\241{\371##\332\341\\\334\031\214/\216\306\352\342\221"
 232      23DAE15C 
 232      DC198C2F 
 232      8EC6EAE2 
 232      91
 233 07a1 85DC494D 		.ascii	"\205\334IM\244cI\264\005\272\307c\301\245\213\357\217"
 233      A46349B4 
 233      05BAC763 
 233      C1A58BEF 
 233      8F
 234 07b2 D584A3B1 		.ascii	"\325\204\243\261H,\020\207\022a\347\266\216\232x\033"
 234      482C1087 
 234      1261E7B6 
 234      8E9A781B 
 235 07c2 7B185904 		.ascii	"{\030Y\004\246\215\231\02605\355\355\213\302"
 235      A68D9916 
 235      3035EDED 
 235      8BC2
 236 07d0 B1E04266 		.ascii	"\261\340Bf\302p\035\350X\024\013\264@\011\267\304\202"
ARM GAS  /tmp/ccjdOIf7.s 			page 18


 236      C2701DE8 
 236      58140BB4 
 236      4009B7C4 
 236      82
 237 07e1 F02C06FC 		.ascii	"\360,\006\374\3021\000\017Gb\301D\027\311\324uv>\264"
 237      C231000F 
 237      4762C144 
 237      17C9D475 
 237      763EB4
 238 07f4 3A95E8EC 		.ascii	":\225\350\354\274JT\232\357\272\363\256\237\374\037"
 238      BC4A549A 
 238      EFBAF3AE 
 238      9FFC1F
 239 0803 A96426DA 		.ascii	"\251d&\332"
 240              		.text
 241              		.section	.gnu.lto_.symtab.dea032502c37c669,"",%progbits
 242 0000 6E766963 		.ascii	"nvicEnableVector\000\000\000\000\000\000\000\000\000"
 242      456E6162 
 242      6C655665 
 242      63746F72 
 242      00000000 
 243 0019 000000A1 		.ascii	"\000\000\000\241\000\000\000nvicDisableVector\000\000"
 243      0000006E 
 243      76696344 
 243      69736162 
 243      6C655665 
 244 0033 00000000 		.ascii	"\000\000\000\000\000\000\000\000\000\000\257\000\000"
 244      00000000 
 244      0000AF00 
 244      00
 245 0040 006E7669 		.ascii	"\000nvicSetSystemHandlerPriority\000\000\000\000\000"
 245      63536574 
 245      53797374 
 245      656D4861 
 245      6E646C65 
 246 0062 00000000 		.ascii	"\000\000\000\000\000\000\000\265\000\000\000nvicCle"
 246      000000B5 
 246      0000006E 
 246      76696343 
 246      6C65
 247 0074 61725065 		.ascii	"arPending\000\000\000\000\000\000\000\000\000\000\000"
 247      6E64696E 
 247      67000000 
 247      00000000 
 247      00000000 
 248 0088 00BB0000 		.ascii	"\000\273\000\000\000"
 248      00
 249              		.text
 250              		.section	.gnu.lto_.opts,"",%progbits
 251 0000 272D6D63 		.ascii	"'-mcpu=cortex-m3' '-mno-thumb-interwork' '-mthumb' "
 251      70753D63 
 251      6F727465 
 251      782D6D33 
 251      2720272D 
 252 0033 272D6767 		.ascii	"'-ggdb' '-O2' '-fomit-frame-pointer' '-falign-funct"
 252      64622720 
 252      272D4F32 
ARM GAS  /tmp/ccjdOIf7.s 			page 19


 252      2720272D 
 252      666F6D69 
 253 0066 696F6E73 		.ascii	"ions=16' '-ffunction-sections' '-fdata-sections' '-"
 253      3D313627 
 253      20272D66 
 253      66756E63 
 253      74696F6E 
 254 0099 666E6F2D 		.ascii	"fno-common' '-flto'\000"
 254      636F6D6D 
 254      6F6E2720 
 254      272D666C 
 254      746F2700 
 255              		.text
 256              		.cfi_sections	.debug_frame
 257              		.section	.text.nvicEnableVector,"ax",%progbits
 258              		.align	2
 259              		.p2align 4,,15
 260              		.global	nvicEnableVector
 261              		.thumb
 262              		.thumb_func
 263              		.type	nvicEnableVector, %function
 264              	nvicEnableVector:
 265              	.LFB219:
 266              		.file 1 "../../../os/hal/ports/common/ARMCMx/nvic.c"
 267              		.loc 1 57 0
 268              		.cfi_startproc
 269              		@ args = 0, pretend = 0, frame = 0
 270              		@ frame_needed = 0, uses_anonymous_args = 0
 271              		@ link register save eliminated.
 272              	.LVL0:
 273              		.loc 1 65 0
 274 0000 00F01F03 		and	r3, r0, #31
 275 0004 0122     		movs	r2, #1
 276 0006 02FA03F3 		lsl	r3, r2, r3
 277 000a 4209     		lsrs	r2, r0, #5
 278 000c 9200     		lsls	r2, r2, #2
 279              		.loc 1 63 0
 280 000e 0901     		lsls	r1, r1, #4
 281              	.LVL1:
 282 0010 00F16040 		add	r0, r0, #-536870912
 283              	.LVL2:
 284 0014 02F16042 		add	r2, r2, #-536870912
 285 0018 02F56142 		add	r2, r2, #57600
 286 001c C9B2     		uxtb	r1, r1
 287 001e 00F56140 		add	r0, r0, #57600
 288              	.LVL3:
 289 0022 80F80013 		strb	r1, [r0, #768]
 290              		.loc 1 65 0
 291 0026 C2F88031 		str	r3, [r2, #384]
 292              		.loc 1 66 0
 293 002a 1360     		str	r3, [r2]
 294 002c 7047     		bx	lr
 295              		.cfi_endproc
 296              	.LFE219:
 297              		.size	nvicEnableVector, .-nvicEnableVector
 298 002e 00BF     		.section	.text.nvicDisableVector,"ax",%progbits
 299              		.align	2
ARM GAS  /tmp/ccjdOIf7.s 			page 20


 300              		.p2align 4,,15
 301              		.global	nvicDisableVector
 302              		.thumb
 303              		.thumb_func
 304              		.type	nvicDisableVector, %function
 305              	nvicDisableVector:
 306              	.LFB220:
 307              		.loc 1 74 0
 308              		.cfi_startproc
 309              		@ args = 0, pretend = 0, frame = 0
 310              		@ frame_needed = 0, uses_anonymous_args = 0
 311              		@ link register save eliminated.
 312              	.LVL4:
 313 0000 10B4     		push	{r4}
 314              		.cfi_def_cfa_offset 4
 315              		.cfi_offset 4, -4
 316              		.loc 1 76 0
 317 0002 00F01F03 		and	r3, r0, #31
 318 0006 0124     		movs	r4, #1
 319 0008 9C40     		lsls	r4, r4, r3
 320 000a 4FF46143 		mov	r3, #57600
 321 000e 4109     		lsrs	r1, r0, #5
 322 0010 CEF20003 		movt	r3, 57344
 323 0014 2031     		adds	r1, r1, #32
 324              		.loc 1 80 0
 325 0016 1844     		add	r0, r0, r3
 326              	.LVL5:
 327 0018 0022     		movs	r2, #0
 328              		.loc 1 76 0
 329 001a 43F82140 		str	r4, [r3, r1, lsl #2]
 330              		.loc 1 80 0
 331 001e 80F80023 		strb	r2, [r0, #768]
 332              		.loc 1 82 0
 333 0022 5DF8044B 		ldr	r4, [sp], #4
 334 0026 7047     		bx	lr
 335              		.cfi_endproc
 336              	.LFE220:
 337              		.size	nvicDisableVector, .-nvicDisableVector
 338 0028 AFF30080 		.section	.text.nvicSetSystemHandlerPriority,"ax",%progbits
 338      AFF30080 
 339              		.align	2
 340              		.p2align 4,,15
 341              		.global	nvicSetSystemHandlerPriority
 342              		.thumb
 343              		.thumb_func
 344              		.type	nvicSetSystemHandlerPriority, %function
 345              	nvicSetSystemHandlerPriority:
 346              	.LFB221:
 347              		.loc 1 90 0
 348              		.cfi_startproc
 349              		@ args = 0, pretend = 0, frame = 0
 350              		@ frame_needed = 0, uses_anonymous_args = 0
 351              		@ link register save eliminated.
 352              	.LVL6:
 353              		.loc 1 100 0
 354 0000 0901     		lsls	r1, r1, #4
 355              	.LVL7:
ARM GAS  /tmp/ccjdOIf7.s 			page 21


 356 0002 00F16040 		add	r0, r0, #-536870912
 357              	.LVL8:
 358 0006 C9B2     		uxtb	r1, r1
 359 0008 00F56D40 		add	r0, r0, #60672
 360              	.LVL9:
 361 000c 0176     		strb	r1, [r0, #24]
 362 000e 7047     		bx	lr
 363              		.cfi_endproc
 364              	.LFE221:
 365              		.size	nvicSetSystemHandlerPriority, .-nvicSetSystemHandlerPriority
 366              		.section	.text.nvicClearPending,"ax",%progbits
 367              		.align	2
 368              		.p2align 4,,15
 369              		.global	nvicClearPending
 370              		.thumb
 371              		.thumb_func
 372              		.type	nvicClearPending, %function
 373              	nvicClearPending:
 374              	.LFB222:
 375              		.loc 1 109 0
 376              		.cfi_startproc
 377              		@ args = 0, pretend = 0, frame = 0
 378              		@ frame_needed = 0, uses_anonymous_args = 0
 379              		@ link register save eliminated.
 380              	.LVL10:
 381              		.loc 1 111 0
 382 0000 00F01F03 		and	r3, r0, #31
 383 0004 0122     		movs	r2, #1
 384 0006 9A40     		lsls	r2, r2, r3
 385 0008 4009     		lsrs	r0, r0, #5
 386              	.LVL11:
 387 000a 4FF46143 		mov	r3, #57600
 388 000e 6030     		adds	r0, r0, #96
 389 0010 CEF20003 		movt	r3, 57344
 390 0014 43F82020 		str	r2, [r3, r0, lsl #2]
 391 0018 7047     		bx	lr
 392              		.cfi_endproc
 393              	.LFE222:
 394              		.size	nvicClearPending, .-nvicClearPending
 395 001a 00BFAFF3 		.text
 395      0080
 396              	.Letext0:
 397              		.file 2 "/home/julian/MEGA/semestre_ix/Embebidos/arm-2013.11/arm-none-eabi/include/stdint.h"
 398              		.file 3 "../../../os/common/ports/ARMCMx/compilers/GCC/chtypes.h"
 399              		.file 4 "../../../os/rt/include/chsystypes.h"
 400              		.file 5 "../../../os/rt/include/chschd.h"
 401              		.file 6 "../../../os/common/ext/CMSIS/include/core_cm3.h"
 402              		.file 7 "../../../os/common/ports/ARMCMx/chcore.h"
 403              		.file 8 "../../../os/common/ports/ARMCMx/chcore_v7m.h"
 404              		.file 9 "../../../os/rt/include/chsem.h"
 405              		.file 10 "../../../os/rt/include/chmtx.h"
 406              		.section	.debug_info,"",%progbits
 407              	.Ldebug_info0:
 408 0000 52090000 		.4byte	0x952
 409 0004 0400     		.2byte	0x4
 410 0006 00000000 		.4byte	.Ldebug_abbrev0
 411 000a 04       		.byte	0x4
ARM GAS  /tmp/ccjdOIf7.s 			page 22


 412 000b 01       		.uleb128 0x1
 413 000c 57020000 		.4byte	.LASF118
 414 0010 01       		.byte	0x1
 415 0011 26000000 		.4byte	.LASF119
 416 0015 EE010000 		.4byte	.LASF120
 417 0019 00000000 		.4byte	.Ldebug_ranges0+0
 418 001d 00000000 		.4byte	0
 419 0021 00000000 		.4byte	.Ldebug_line0
 420 0025 02       		.uleb128 0x2
 421 0026 04       		.byte	0x4
 422 0027 05       		.byte	0x5
 423 0028 696E7400 		.ascii	"int\000"
 424 002c 03       		.uleb128 0x3
 425 002d 04       		.byte	0x4
 426 002e 07       		.byte	0x7
 427 002f 73000000 		.4byte	.LASF0
 428 0033 03       		.uleb128 0x3
 429 0034 01       		.byte	0x1
 430 0035 06       		.byte	0x6
 431 0036 28050000 		.4byte	.LASF1
 432 003a 04       		.uleb128 0x4
 433 003b 37030000 		.4byte	.LASF4
 434 003f 02       		.byte	0x2
 435 0040 2A       		.byte	0x2a
 436 0041 45000000 		.4byte	0x45
 437 0045 03       		.uleb128 0x3
 438 0046 01       		.byte	0x1
 439 0047 08       		.byte	0x8
 440 0048 D3040000 		.4byte	.LASF2
 441 004c 03       		.uleb128 0x3
 442 004d 02       		.byte	0x2
 443 004e 05       		.byte	0x5
 444 004f 17040000 		.4byte	.LASF3
 445 0053 04       		.uleb128 0x4
 446 0054 C0030000 		.4byte	.LASF5
 447 0058 02       		.byte	0x2
 448 0059 36       		.byte	0x36
 449 005a 5E000000 		.4byte	0x5e
 450 005e 03       		.uleb128 0x3
 451 005f 02       		.byte	0x2
 452 0060 07       		.byte	0x7
 453 0061 3A050000 		.4byte	.LASF6
 454 0065 04       		.uleb128 0x4
 455 0066 BD040000 		.4byte	.LASF7
 456 006a 02       		.byte	0x2
 457 006b 4F       		.byte	0x4f
 458 006c 70000000 		.4byte	0x70
 459 0070 03       		.uleb128 0x3
 460 0071 04       		.byte	0x4
 461 0072 05       		.byte	0x5
 462 0073 21040000 		.4byte	.LASF8
 463 0077 04       		.uleb128 0x4
 464 0078 1C010000 		.4byte	.LASF9
 465 007c 02       		.byte	0x2
 466 007d 50       		.byte	0x50
 467 007e 82000000 		.4byte	0x82
 468 0082 03       		.uleb128 0x3
ARM GAS  /tmp/ccjdOIf7.s 			page 23


 469 0083 04       		.byte	0x4
 470 0084 07       		.byte	0x7
 471 0085 98040000 		.4byte	.LASF10
 472 0089 03       		.uleb128 0x3
 473 008a 08       		.byte	0x8
 474 008b 05       		.byte	0x5
 475 008c 61030000 		.4byte	.LASF11
 476 0090 04       		.uleb128 0x4
 477 0091 56040000 		.4byte	.LASF12
 478 0095 02       		.byte	0x2
 479 0096 78       		.byte	0x78
 480 0097 9B000000 		.4byte	0x9b
 481 009b 03       		.uleb128 0x3
 482 009c 08       		.byte	0x8
 483 009d 07       		.byte	0x7
 484 009e 72010000 		.4byte	.LASF13
 485 00a2 04       		.uleb128 0x4
 486 00a3 AD030000 		.4byte	.LASF14
 487 00a7 03       		.byte	0x3
 488 00a8 3C       		.byte	0x3c
 489 00a9 3A000000 		.4byte	0x3a
 490 00ad 04       		.uleb128 0x4
 491 00ae 28030000 		.4byte	.LASF15
 492 00b2 03       		.byte	0x3
 493 00b3 3D       		.byte	0x3d
 494 00b4 3A000000 		.4byte	0x3a
 495 00b8 04       		.uleb128 0x4
 496 00b9 90040000 		.4byte	.LASF16
 497 00bd 03       		.byte	0x3
 498 00be 3E       		.byte	0x3e
 499 00bf 3A000000 		.4byte	0x3a
 500 00c3 04       		.uleb128 0x4
 501 00c4 50010000 		.4byte	.LASF17
 502 00c8 03       		.byte	0x3
 503 00c9 40       		.byte	0x40
 504 00ca 77000000 		.4byte	0x77
 505 00ce 04       		.uleb128 0x4
 506 00cf 75030000 		.4byte	.LASF18
 507 00d3 03       		.byte	0x3
 508 00d4 41       		.byte	0x41
 509 00d5 65000000 		.4byte	0x65
 510 00d9 04       		.uleb128 0x4
 511 00da 32010000 		.4byte	.LASF19
 512 00de 03       		.byte	0x3
 513 00df 43       		.byte	0x43
 514 00e0 77000000 		.4byte	0x77
 515 00e4 04       		.uleb128 0x4
 516 00e5 89010000 		.4byte	.LASF20
 517 00e9 03       		.byte	0x3
 518 00ea 45       		.byte	0x45
 519 00eb 65000000 		.4byte	0x65
 520 00ef 04       		.uleb128 0x4
 521 00f0 57000000 		.4byte	.LASF21
 522 00f4 04       		.byte	0x4
 523 00f5 35       		.byte	0x35
 524 00f6 53000000 		.4byte	0x53
 525 00fa 04       		.uleb128 0x4
ARM GAS  /tmp/ccjdOIf7.s 			page 24


 526 00fb C4010000 		.4byte	.LASF22
 527 00ff 04       		.byte	0x4
 528 0100 3F       		.byte	0x3f
 529 0101 05010000 		.4byte	0x105
 530 0105 05       		.uleb128 0x5
 531 0106 48030000 		.4byte	.LASF40
 532 010a 44       		.byte	0x44
 533 010b 05       		.byte	0x5
 534 010c 9A       		.byte	0x9a
 535 010d E3010000 		.4byte	0x1e3
 536 0111 06       		.uleb128 0x6
 537 0112 B7040000 		.4byte	.LASF23
 538 0116 05       		.byte	0x5
 539 0117 9B       		.byte	0x9b
 540 0118 18020000 		.4byte	0x218
 541 011c 00       		.byte	0
 542 011d 06       		.uleb128 0x6
 543 011e FF020000 		.4byte	.LASF24
 544 0122 05       		.byte	0x5
 545 0123 9C       		.byte	0x9c
 546 0124 C3000000 		.4byte	0xc3
 547 0128 08       		.byte	0x8
 548 0129 07       		.uleb128 0x7
 549 012a 63747800 		.ascii	"ctx\000"
 550 012e 05       		.byte	0x5
 551 012f 9D       		.byte	0x9d
 552 0130 CF060000 		.4byte	0x6cf
 553 0134 0C       		.byte	0xc
 554 0135 06       		.uleb128 0x6
 555 0136 CD040000 		.4byte	.LASF25
 556 013a 05       		.byte	0x5
 557 013b 9F       		.byte	0x9f
 558 013c EE010000 		.4byte	0x1ee
 559 0140 10       		.byte	0x10
 560 0141 06       		.uleb128 0x6
 561 0142 6A050000 		.4byte	.LASF26
 562 0146 05       		.byte	0x5
 563 0147 A0       		.byte	0xa0
 564 0148 EE010000 		.4byte	0x1ee
 565 014c 14       		.byte	0x14
 566 014d 06       		.uleb128 0x6
 567 014e 78040000 		.4byte	.LASF27
 568 0152 05       		.byte	0x5
 569 0153 A7       		.byte	0xa7
 570 0154 34080000 		.4byte	0x834
 571 0158 18       		.byte	0x18
 572 0159 06       		.uleb128 0x6
 573 015a 1C030000 		.4byte	.LASF28
 574 015e 05       		.byte	0x5
 575 015f B0       		.byte	0xb0
 576 0160 46080000 		.4byte	0x846
 577 0164 1C       		.byte	0x1c
 578 0165 06       		.uleb128 0x6
 579 0166 04050000 		.4byte	.LASF29
 580 016a 05       		.byte	0x5
 581 016b B5       		.byte	0xb5
 582 016c AD000000 		.4byte	0xad
ARM GAS  /tmp/ccjdOIf7.s 			page 25


 583 0170 20       		.byte	0x20
 584 0171 06       		.uleb128 0x6
 585 0172 51000000 		.4byte	.LASF30
 586 0176 05       		.byte	0x5
 587 0177 B9       		.byte	0xb9
 588 0178 A2000000 		.4byte	0xa2
 589 017c 21       		.byte	0x21
 590 017d 06       		.uleb128 0x6
 591 017e 99000000 		.4byte	.LASF31
 592 0182 05       		.byte	0x5
 593 0183 BE       		.byte	0xbe
 594 0184 B8000000 		.4byte	0xb8
 595 0188 22       		.byte	0x22
 596 0189 08       		.uleb128 0x8
 597 018a 7500     		.ascii	"u\000"
 598 018c 05       		.byte	0x5
 599 018d 0F01     		.2byte	0x10f
 600 018f 69070000 		.4byte	0x769
 601 0193 24       		.byte	0x24
 602 0194 09       		.uleb128 0x9
 603 0195 E1040000 		.4byte	.LASF32
 604 0199 05       		.byte	0x5
 605 019a 1401     		.2byte	0x114
 606 019c F4010000 		.4byte	0x1f4
 607 01a0 28       		.byte	0x28
 608 01a1 09       		.uleb128 0x9
 609 01a2 3F030000 		.4byte	.LASF33
 610 01a6 05       		.byte	0x5
 611 01a7 1A01     		.2byte	0x11a
 612 01a9 18020000 		.4byte	0x218
 613 01ad 2C       		.byte	0x2c
 614 01ae 09       		.uleb128 0x9
 615 01af 6A000000 		.4byte	.LASF34
 616 01b3 05       		.byte	0x5
 617 01b4 2001     		.2byte	0x120
 618 01b6 D9000000 		.4byte	0xd9
 619 01ba 34       		.byte	0x34
 620 01bb 09       		.uleb128 0x9
 621 01bc A5010000 		.4byte	.LASF35
 622 01c0 05       		.byte	0x5
 623 01c1 2701     		.2byte	0x127
 624 01c3 2E080000 		.4byte	0x82e
 625 01c7 38       		.byte	0x38
 626 01c8 09       		.uleb128 0x9
 627 01c9 61000000 		.4byte	.LASF36
 628 01cd 05       		.byte	0x5
 629 01ce 2B01     		.2byte	0x12b
 630 01d0 C3000000 		.4byte	0xc3
 631 01d4 3C       		.byte	0x3c
 632 01d5 09       		.uleb128 0x9
 633 01d6 79050000 		.4byte	.LASF37
 634 01da 05       		.byte	0x5
 635 01db 3201     		.2byte	0x132
 636 01dd CB020000 		.4byte	0x2cb
 637 01e1 40       		.byte	0x40
 638 01e2 00       		.byte	0
 639 01e3 04       		.uleb128 0x4
ARM GAS  /tmp/ccjdOIf7.s 			page 26


 640 01e4 09030000 		.4byte	.LASF38
 641 01e8 04       		.byte	0x4
 642 01e9 44       		.byte	0x44
 643 01ea EE010000 		.4byte	0x1ee
 644 01ee 0A       		.uleb128 0xa
 645 01ef 04       		.byte	0x4
 646 01f0 FA000000 		.4byte	0xfa
 647 01f4 04       		.uleb128 0x4
 648 01f5 85000000 		.4byte	.LASF39
 649 01f9 04       		.byte	0x4
 650 01fa 49       		.byte	0x49
 651 01fb FF010000 		.4byte	0x1ff
 652 01ff 05       		.uleb128 0x5
 653 0200 00000000 		.4byte	.LASF41
 654 0204 04       		.byte	0x4
 655 0205 05       		.byte	0x5
 656 0206 88       		.byte	0x88
 657 0207 18020000 		.4byte	0x218
 658 020b 06       		.uleb128 0x6
 659 020c 80000000 		.4byte	.LASF42
 660 0210 05       		.byte	0x5
 661 0211 89       		.byte	0x89
 662 0212 EE010000 		.4byte	0x1ee
 663 0216 00       		.byte	0
 664 0217 00       		.byte	0
 665 0218 04       		.uleb128 0x4
 666 0219 95010000 		.4byte	.LASF43
 667 021d 04       		.byte	0x4
 668 021e 50       		.byte	0x50
 669 021f 23020000 		.4byte	0x223
 670 0223 05       		.uleb128 0x5
 671 0224 F2000000 		.4byte	.LASF44
 672 0228 08       		.byte	0x8
 673 0229 05       		.byte	0x5
 674 022a 8F       		.byte	0x8f
 675 022b 48020000 		.4byte	0x248
 676 022f 06       		.uleb128 0x6
 677 0230 80000000 		.4byte	.LASF42
 678 0234 05       		.byte	0x5
 679 0235 90       		.byte	0x90
 680 0236 EE010000 		.4byte	0x1ee
 681 023a 00       		.byte	0
 682 023b 06       		.uleb128 0x6
 683 023c ED000000 		.4byte	.LASF45
 684 0240 05       		.byte	0x5
 685 0241 91       		.byte	0x91
 686 0242 EE010000 		.4byte	0x1ee
 687 0246 04       		.byte	0x4
 688 0247 00       		.byte	0
 689 0248 04       		.uleb128 0x4
 690 0249 AA040000 		.4byte	.LASF46
 691 024d 04       		.byte	0x4
 692 024e 57       		.byte	0x57
 693 024f 53020000 		.4byte	0x253
 694 0253 0B       		.uleb128 0xb
 695 0254 C1000000 		.4byte	.LASF47
 696 0258 1C       		.byte	0x1c
ARM GAS  /tmp/ccjdOIf7.s 			page 27


 697 0259 05       		.byte	0x5
 698 025a 6A01     		.2byte	0x16a
 699 025c AF020000 		.4byte	0x2af
 700 0260 09       		.uleb128 0x9
 701 0261 B7040000 		.4byte	.LASF23
 702 0265 05       		.byte	0x5
 703 0266 6B01     		.2byte	0x16b
 704 0268 18020000 		.4byte	0x218
 705 026c 00       		.byte	0
 706 026d 09       		.uleb128 0x9
 707 026e FF020000 		.4byte	.LASF24
 708 0272 05       		.byte	0x5
 709 0273 6C01     		.2byte	0x16c
 710 0275 C3000000 		.4byte	0xc3
 711 0279 08       		.byte	0x8
 712 027a 08       		.uleb128 0x8
 713 027b 63747800 		.ascii	"ctx\000"
 714 027f 05       		.byte	0x5
 715 0280 6E01     		.2byte	0x16e
 716 0282 CF060000 		.4byte	0x6cf
 717 0286 0C       		.byte	0xc
 718 0287 09       		.uleb128 0x9
 719 0288 CD040000 		.4byte	.LASF25
 720 028c 05       		.byte	0x5
 721 028d 7101     		.2byte	0x171
 722 028f EE010000 		.4byte	0x1ee
 723 0293 10       		.byte	0x10
 724 0294 09       		.uleb128 0x9
 725 0295 6A050000 		.4byte	.LASF26
 726 0299 05       		.byte	0x5
 727 029a 7201     		.2byte	0x172
 728 029c EE010000 		.4byte	0x1ee
 729 02a0 14       		.byte	0x14
 730 02a1 09       		.uleb128 0x9
 731 02a2 58050000 		.4byte	.LASF48
 732 02a6 05       		.byte	0x5
 733 02a7 7501     		.2byte	0x175
 734 02a9 EE010000 		.4byte	0x1ee
 735 02ad 18       		.byte	0x18
 736 02ae 00       		.byte	0
 737 02af 04       		.uleb128 0x4
 738 02b0 03010000 		.4byte	.LASF49
 739 02b4 04       		.byte	0x4
 740 02b5 5C       		.byte	0x5c
 741 02b6 BA020000 		.4byte	0x2ba
 742 02ba 0A       		.uleb128 0xa
 743 02bb 04       		.byte	0x4
 744 02bc C0020000 		.4byte	0x2c0
 745 02c0 0C       		.uleb128 0xc
 746 02c1 CB020000 		.4byte	0x2cb
 747 02c5 0D       		.uleb128 0xd
 748 02c6 CB020000 		.4byte	0x2cb
 749 02ca 00       		.byte	0
 750 02cb 0E       		.uleb128 0xe
 751 02cc 04       		.byte	0x4
 752 02cd 04       		.uleb128 0x4
 753 02ce 8E030000 		.4byte	.LASF50
ARM GAS  /tmp/ccjdOIf7.s 			page 28


 754 02d2 04       		.byte	0x4
 755 02d3 61       		.byte	0x61
 756 02d4 D8020000 		.4byte	0x2d8
 757 02d8 0B       		.uleb128 0xb
 758 02d9 61010000 		.4byte	.LASF51
 759 02dd 14       		.byte	0x14
 760 02de 05       		.byte	0x5
 761 02df 4501     		.2byte	0x145
 762 02e1 27030000 		.4byte	0x327
 763 02e5 09       		.uleb128 0x9
 764 02e6 80000000 		.4byte	.LASF42
 765 02ea 05       		.byte	0x5
 766 02eb 4601     		.2byte	0x146
 767 02ed 4C080000 		.4byte	0x84c
 768 02f1 00       		.byte	0
 769 02f2 09       		.uleb128 0x9
 770 02f3 ED000000 		.4byte	.LASF45
 771 02f7 05       		.byte	0x5
 772 02f8 4701     		.2byte	0x147
 773 02fa 4C080000 		.4byte	0x84c
 774 02fe 04       		.byte	0x4
 775 02ff 09       		.uleb128 0x9
 776 0300 34050000 		.4byte	.LASF52
 777 0304 05       		.byte	0x5
 778 0305 4801     		.2byte	0x148
 779 0307 EF000000 		.4byte	0xef
 780 030b 08       		.byte	0x8
 781 030c 09       		.uleb128 0x9
 782 030d CF000000 		.4byte	.LASF53
 783 0311 05       		.byte	0x5
 784 0312 4901     		.2byte	0x149
 785 0314 AF020000 		.4byte	0x2af
 786 0318 0C       		.byte	0xc
 787 0319 08       		.uleb128 0x8
 788 031a 70617200 		.ascii	"par\000"
 789 031e 05       		.byte	0x5
 790 031f 4B01     		.2byte	0x14b
 791 0321 CB020000 		.4byte	0x2cb
 792 0325 10       		.byte	0x10
 793 0326 00       		.byte	0
 794 0327 04       		.uleb128 0x4
 795 0328 E9040000 		.4byte	.LASF54
 796 032c 04       		.byte	0x4
 797 032d 66       		.byte	0x66
 798 032e 32030000 		.4byte	0x332
 799 0332 0B       		.uleb128 0xb
 800 0333 AD010000 		.4byte	.LASF55
 801 0337 0C       		.byte	0xc
 802 0338 05       		.byte	0x5
 803 0339 5501     		.2byte	0x155
 804 033b 74030000 		.4byte	0x374
 805 033f 09       		.uleb128 0x9
 806 0340 80000000 		.4byte	.LASF42
 807 0344 05       		.byte	0x5
 808 0345 5601     		.2byte	0x156
 809 0347 4C080000 		.4byte	0x84c
 810 034b 00       		.byte	0
ARM GAS  /tmp/ccjdOIf7.s 			page 29


 811 034c 09       		.uleb128 0x9
 812 034d ED000000 		.4byte	.LASF45
 813 0351 05       		.byte	0x5
 814 0352 5801     		.2byte	0x158
 815 0354 4C080000 		.4byte	0x84c
 816 0358 04       		.byte	0x4
 817 0359 09       		.uleb128 0x9
 818 035a 34050000 		.4byte	.LASF52
 819 035e 05       		.byte	0x5
 820 035f 5A01     		.2byte	0x15a
 821 0361 EF000000 		.4byte	0xef
 822 0365 08       		.byte	0x8
 823 0366 09       		.uleb128 0x9
 824 0367 4D040000 		.4byte	.LASF56
 825 036b 05       		.byte	0x5
 826 036c 6201     		.2byte	0x162
 827 036e EF000000 		.4byte	0xef
 828 0372 0A       		.byte	0xa
 829 0373 00       		.byte	0
 830 0374 04       		.uleb128 0x4
 831 0375 52030000 		.4byte	.LASF57
 832 0379 04       		.byte	0x4
 833 037a 6B       		.byte	0x6b
 834 037b 7F030000 		.4byte	0x37f
 835 037f 0B       		.uleb128 0xb
 836 0380 0C010000 		.4byte	.LASF58
 837 0384 04       		.byte	0x4
 838 0385 05       		.byte	0x5
 839 0386 7C01     		.2byte	0x17c
 840 0388 9A030000 		.4byte	0x39a
 841 038c 09       		.uleb128 0x9
 842 038d A3030000 		.4byte	.LASF59
 843 0391 05       		.byte	0x5
 844 0392 8401     		.2byte	0x184
 845 0394 52080000 		.4byte	0x852
 846 0398 00       		.byte	0
 847 0399 00       		.byte	0
 848 039a 04       		.uleb128 0x4
 849 039b 0F050000 		.4byte	.LASF60
 850 039f 04       		.byte	0x4
 851 03a0 70       		.byte	0x70
 852 03a1 A5030000 		.4byte	0x3a5
 853 03a5 0B       		.uleb128 0xb
 854 03a6 43040000 		.4byte	.LASF61
 855 03aa 70       		.byte	0x70
 856 03ab 05       		.byte	0x5
 857 03ac 9C01     		.2byte	0x19c
 858 03ae E7030000 		.4byte	0x3e7
 859 03b2 09       		.uleb128 0x9
 860 03b3 5F040000 		.4byte	.LASF62
 861 03b7 05       		.byte	0x5
 862 03b8 A001     		.2byte	0x1a0
 863 03ba 48020000 		.4byte	0x248
 864 03be 00       		.byte	0
 865 03bf 09       		.uleb128 0x9
 866 03c0 AD000000 		.4byte	.LASF63
 867 03c4 05       		.byte	0x5
ARM GAS  /tmp/ccjdOIf7.s 			page 30


 868 03c5 A401     		.2byte	0x1a4
 869 03c7 27030000 		.4byte	0x327
 870 03cb 1C       		.byte	0x1c
 871 03cc 08       		.uleb128 0x8
 872 03cd 64626700 		.ascii	"dbg\000"
 873 03d1 05       		.byte	0x5
 874 03d2 A801     		.2byte	0x1a8
 875 03d4 74030000 		.4byte	0x374
 876 03d8 28       		.byte	0x28
 877 03d9 09       		.uleb128 0x9
 878 03da B5030000 		.4byte	.LASF64
 879 03de 05       		.byte	0x5
 880 03df AC01     		.2byte	0x1ac
 881 03e1 FA000000 		.4byte	0xfa
 882 03e5 2C       		.byte	0x2c
 883 03e6 00       		.byte	0
 884 03e7 0F       		.uleb128 0xf
 885 03e8 040E     		.2byte	0xe04
 886 03ea 06       		.byte	0x6
 887 03eb 7F01     		.2byte	0x17f
 888 03ed A3040000 		.4byte	0x4a3
 889 03f1 09       		.uleb128 0x9
 890 03f2 3E010000 		.4byte	.LASF65
 891 03f6 06       		.byte	0x6
 892 03f7 8101     		.2byte	0x181
 893 03f9 BA040000 		.4byte	0x4ba
 894 03fd 00       		.byte	0
 895 03fe 09       		.uleb128 0x9
 896 03ff E5030000 		.4byte	.LASF66
 897 0403 06       		.byte	0x6
 898 0404 8201     		.2byte	0x182
 899 0406 BF040000 		.4byte	0x4bf
 900 040a 20       		.byte	0x20
 901 040b 09       		.uleb128 0x9
 902 040c FF040000 		.4byte	.LASF67
 903 0410 06       		.byte	0x6
 904 0411 8301     		.2byte	0x183
 905 0413 CF040000 		.4byte	0x4cf
 906 0417 80       		.byte	0x80
 907 0418 09       		.uleb128 0x9
 908 0419 58010000 		.4byte	.LASF68
 909 041d 06       		.byte	0x6
 910 041e 8401     		.2byte	0x184
 911 0420 BF040000 		.4byte	0x4bf
 912 0424 A0       		.byte	0xa0
 913 0425 10       		.uleb128 0x10
 914 0426 60050000 		.4byte	.LASF69
 915 042a 06       		.byte	0x6
 916 042b 8501     		.2byte	0x185
 917 042d D4040000 		.4byte	0x4d4
 918 0431 0001     		.2byte	0x100
 919 0433 10       		.uleb128 0x10
 920 0434 EF030000 		.4byte	.LASF70
 921 0438 06       		.byte	0x6
 922 0439 8601     		.2byte	0x186
 923 043b BF040000 		.4byte	0x4bf
 924 043f 2001     		.2byte	0x120
ARM GAS  /tmp/ccjdOIf7.s 			page 31


 925 0441 10       		.uleb128 0x10
 926 0442 9E030000 		.4byte	.LASF71
 927 0446 06       		.byte	0x6
 928 0447 8701     		.2byte	0x187
 929 0449 D9040000 		.4byte	0x4d9
 930 044d 8001     		.2byte	0x180
 931 044f 10       		.uleb128 0x10
 932 0450 F9030000 		.4byte	.LASF72
 933 0454 06       		.byte	0x6
 934 0455 8801     		.2byte	0x188
 935 0457 BF040000 		.4byte	0x4bf
 936 045b A001     		.2byte	0x1a0
 937 045d 10       		.uleb128 0x10
 938 045e 0A050000 		.4byte	.LASF73
 939 0462 06       		.byte	0x6
 940 0463 8901     		.2byte	0x189
 941 0465 DE040000 		.4byte	0x4de
 942 0469 0002     		.2byte	0x200
 943 046b 10       		.uleb128 0x10
 944 046c 03040000 		.4byte	.LASF74
 945 0470 06       		.byte	0x6
 946 0471 8A01     		.2byte	0x18a
 947 0473 E3040000 		.4byte	0x4e3
 948 0477 2002     		.2byte	0x220
 949 0479 11       		.uleb128 0x11
 950 047a 495000   		.ascii	"IP\000"
 951 047d 06       		.byte	0x6
 952 047e 8B01     		.2byte	0x18b
 953 0480 03050000 		.4byte	0x503
 954 0484 0003     		.2byte	0x300
 955 0486 10       		.uleb128 0x10
 956 0487 0D040000 		.4byte	.LASF75
 957 048b 06       		.byte	0x6
 958 048c 8C01     		.2byte	0x18c
 959 048e 08050000 		.4byte	0x508
 960 0492 F003     		.2byte	0x3f0
 961 0494 10       		.uleb128 0x10
 962 0495 C9030000 		.4byte	.LASF76
 963 0499 06       		.byte	0x6
 964 049a 8D01     		.2byte	0x18d
 965 049c 19050000 		.4byte	0x519
 966 04a0 000E     		.2byte	0xe00
 967 04a2 00       		.byte	0
 968 04a3 12       		.uleb128 0x12
 969 04a4 77000000 		.4byte	0x77
 970 04a8 B3040000 		.4byte	0x4b3
 971 04ac 13       		.uleb128 0x13
 972 04ad B3040000 		.4byte	0x4b3
 973 04b1 07       		.byte	0x7
 974 04b2 00       		.byte	0
 975 04b3 03       		.uleb128 0x3
 976 04b4 04       		.byte	0x4
 977 04b5 07       		.byte	0x7
 978 04b6 87040000 		.4byte	.LASF77
 979 04ba 14       		.uleb128 0x14
 980 04bb A3040000 		.4byte	0x4a3
 981 04bf 12       		.uleb128 0x12
ARM GAS  /tmp/ccjdOIf7.s 			page 32


 982 04c0 77000000 		.4byte	0x77
 983 04c4 CF040000 		.4byte	0x4cf
 984 04c8 13       		.uleb128 0x13
 985 04c9 B3040000 		.4byte	0x4b3
 986 04cd 17       		.byte	0x17
 987 04ce 00       		.byte	0
 988 04cf 14       		.uleb128 0x14
 989 04d0 A3040000 		.4byte	0x4a3
 990 04d4 14       		.uleb128 0x14
 991 04d5 A3040000 		.4byte	0x4a3
 992 04d9 14       		.uleb128 0x14
 993 04da A3040000 		.4byte	0x4a3
 994 04de 14       		.uleb128 0x14
 995 04df A3040000 		.4byte	0x4a3
 996 04e3 12       		.uleb128 0x12
 997 04e4 77000000 		.4byte	0x77
 998 04e8 F3040000 		.4byte	0x4f3
 999 04ec 13       		.uleb128 0x13
 1000 04ed B3040000 		.4byte	0x4b3
 1001 04f1 37       		.byte	0x37
 1002 04f2 00       		.byte	0
 1003 04f3 12       		.uleb128 0x12
 1004 04f4 3A000000 		.4byte	0x3a
 1005 04f8 03050000 		.4byte	0x503
 1006 04fc 13       		.uleb128 0x13
 1007 04fd B3040000 		.4byte	0x4b3
 1008 0501 EF       		.byte	0xef
 1009 0502 00       		.byte	0
 1010 0503 14       		.uleb128 0x14
 1011 0504 F3040000 		.4byte	0x4f3
 1012 0508 12       		.uleb128 0x12
 1013 0509 77000000 		.4byte	0x77
 1014 050d 19050000 		.4byte	0x519
 1015 0511 15       		.uleb128 0x15
 1016 0512 B3040000 		.4byte	0x4b3
 1017 0516 8302     		.2byte	0x283
 1018 0518 00       		.byte	0
 1019 0519 14       		.uleb128 0x14
 1020 051a 77000000 		.4byte	0x77
 1021 051e 16       		.uleb128 0x16
 1022 051f 65040000 		.4byte	.LASF78
 1023 0523 06       		.byte	0x6
 1024 0524 8E01     		.2byte	0x18e
 1025 0526 E7030000 		.4byte	0x3e7
 1026 052a 17       		.uleb128 0x17
 1027 052b 8C       		.byte	0x8c
 1028 052c 06       		.byte	0x6
 1029 052d A101     		.2byte	0x1a1
 1030 052f 45060000 		.4byte	0x645
 1031 0533 09       		.uleb128 0x9
 1032 0534 D4010000 		.4byte	.LASF79
 1033 0538 06       		.byte	0x6
 1034 0539 A301     		.2byte	0x1a3
 1035 053b 45060000 		.4byte	0x645
 1036 053f 00       		.byte	0
 1037 0540 09       		.uleb128 0x9
 1038 0541 23030000 		.4byte	.LASF80
ARM GAS  /tmp/ccjdOIf7.s 			page 33


 1039 0545 06       		.byte	0x6
 1040 0546 A401     		.2byte	0x1a4
 1041 0548 19050000 		.4byte	0x519
 1042 054c 04       		.byte	0x4
 1043 054d 09       		.uleb128 0x9
 1044 054e 82040000 		.4byte	.LASF81
 1045 0552 06       		.byte	0x6
 1046 0553 A501     		.2byte	0x1a5
 1047 0555 19050000 		.4byte	0x519
 1048 0559 08       		.byte	0x8
 1049 055a 09       		.uleb128 0x9
 1050 055b 31030000 		.4byte	.LASF82
 1051 055f 06       		.byte	0x6
 1052 0560 A601     		.2byte	0x1a6
 1053 0562 19050000 		.4byte	0x519
 1054 0566 0C       		.byte	0xc
 1055 0567 08       		.uleb128 0x8
 1056 0568 53435200 		.ascii	"SCR\000"
 1057 056c 06       		.byte	0x6
 1058 056d A701     		.2byte	0x1a7
 1059 056f 19050000 		.4byte	0x519
 1060 0573 10       		.byte	0x10
 1061 0574 08       		.uleb128 0x8
 1062 0575 43435200 		.ascii	"CCR\000"
 1063 0579 06       		.byte	0x6
 1064 057a A801     		.2byte	0x1a8
 1065 057c 19050000 		.4byte	0x519
 1066 0580 14       		.byte	0x14
 1067 0581 08       		.uleb128 0x8
 1068 0582 53485000 		.ascii	"SHP\000"
 1069 0586 06       		.byte	0x6
 1070 0587 A901     		.2byte	0x1a9
 1071 0589 5A060000 		.4byte	0x65a
 1072 058d 18       		.byte	0x18
 1073 058e 09       		.uleb128 0x9
 1074 058f 6F030000 		.4byte	.LASF83
 1075 0593 06       		.byte	0x6
 1076 0594 AA01     		.2byte	0x1aa
 1077 0596 19050000 		.4byte	0x519
 1078 059a 24       		.byte	0x24
 1079 059b 09       		.uleb128 0x9
 1080 059c 7B030000 		.4byte	.LASF84
 1081 05a0 06       		.byte	0x6
 1082 05a1 AB01     		.2byte	0x1ab
 1083 05a3 19050000 		.4byte	0x519
 1084 05a7 28       		.byte	0x28
 1085 05a8 09       		.uleb128 0x9
 1086 05a9 FA020000 		.4byte	.LASF85
 1087 05ad 06       		.byte	0x6
 1088 05ae AC01     		.2byte	0x1ac
 1089 05b0 19050000 		.4byte	0x519
 1090 05b4 2C       		.byte	0x2c
 1091 05b5 09       		.uleb128 0x9
 1092 05b6 94000000 		.4byte	.LASF86
 1093 05ba 06       		.byte	0x6
 1094 05bb AD01     		.2byte	0x1ad
 1095 05bd 19050000 		.4byte	0x519
ARM GAS  /tmp/ccjdOIf7.s 			page 34


 1096 05c1 30       		.byte	0x30
 1097 05c2 09       		.uleb128 0x9
 1098 05c3 DF030000 		.4byte	.LASF87
 1099 05c7 06       		.byte	0x6
 1100 05c8 AE01     		.2byte	0x1ae
 1101 05ca 19050000 		.4byte	0x519
 1102 05ce 34       		.byte	0x34
 1103 05cf 09       		.uleb128 0x9
 1104 05d0 7D040000 		.4byte	.LASF88
 1105 05d4 06       		.byte	0x6
 1106 05d5 AF01     		.2byte	0x1af
 1107 05d7 19050000 		.4byte	0x519
 1108 05db 38       		.byte	0x38
 1109 05dc 09       		.uleb128 0x9
 1110 05dd E9010000 		.4byte	.LASF89
 1111 05e1 06       		.byte	0x6
 1112 05e2 B001     		.2byte	0x1b0
 1113 05e4 19050000 		.4byte	0x519
 1114 05e8 3C       		.byte	0x3c
 1115 05e9 08       		.uleb128 0x8
 1116 05ea 50465200 		.ascii	"PFR\000"
 1117 05ee 06       		.byte	0x6
 1118 05ef B101     		.2byte	0x1b1
 1119 05f1 6F060000 		.4byte	0x66f
 1120 05f5 40       		.byte	0x40
 1121 05f6 08       		.uleb128 0x8
 1122 05f7 44465200 		.ascii	"DFR\000"
 1123 05fb 06       		.byte	0x6
 1124 05fc B201     		.2byte	0x1b2
 1125 05fe 45060000 		.4byte	0x645
 1126 0602 48       		.byte	0x48
 1127 0603 08       		.uleb128 0x8
 1128 0604 41445200 		.ascii	"ADR\000"
 1129 0608 06       		.byte	0x6
 1130 0609 B301     		.2byte	0x1b3
 1131 060b 45060000 		.4byte	0x645
 1132 060f 4C       		.byte	0x4c
 1133 0610 09       		.uleb128 0x9
 1134 0611 2D010000 		.4byte	.LASF90
 1135 0615 06       		.byte	0x6
 1136 0616 B401     		.2byte	0x1b4
 1137 0618 89060000 		.4byte	0x689
 1138 061c 50       		.byte	0x50
 1139 061d 09       		.uleb128 0x9
 1140 061e 65050000 		.4byte	.LASF91
 1141 0622 06       		.byte	0x6
 1142 0623 B501     		.2byte	0x1b5
 1143 0625 A3060000 		.4byte	0x6a3
 1144 0629 60       		.byte	0x60
 1145 062a 09       		.uleb128 0x9
 1146 062b E5030000 		.4byte	.LASF66
 1147 062f 06       		.byte	0x6
 1148 0630 B601     		.2byte	0x1b6
 1149 0632 93060000 		.4byte	0x693
 1150 0636 74       		.byte	0x74
 1151 0637 09       		.uleb128 0x9
 1152 0638 10000000 		.4byte	.LASF92
ARM GAS  /tmp/ccjdOIf7.s 			page 35


 1153 063c 06       		.byte	0x6
 1154 063d B701     		.2byte	0x1b7
 1155 063f 19050000 		.4byte	0x519
 1156 0643 88       		.byte	0x88
 1157 0644 00       		.byte	0
 1158 0645 18       		.uleb128 0x18
 1159 0646 19050000 		.4byte	0x519
 1160 064a 12       		.uleb128 0x12
 1161 064b 3A000000 		.4byte	0x3a
 1162 064f 5A060000 		.4byte	0x65a
 1163 0653 13       		.uleb128 0x13
 1164 0654 B3040000 		.4byte	0x4b3
 1165 0658 0B       		.byte	0xb
 1166 0659 00       		.byte	0
 1167 065a 14       		.uleb128 0x14
 1168 065b 4A060000 		.4byte	0x64a
 1169 065f 12       		.uleb128 0x12
 1170 0660 77000000 		.4byte	0x77
 1171 0664 6F060000 		.4byte	0x66f
 1172 0668 13       		.uleb128 0x13
 1173 0669 B3040000 		.4byte	0x4b3
 1174 066d 01       		.byte	0x1
 1175 066e 00       		.byte	0
 1176 066f 18       		.uleb128 0x18
 1177 0670 74060000 		.4byte	0x674
 1178 0674 14       		.uleb128 0x14
 1179 0675 5F060000 		.4byte	0x65f
 1180 0679 12       		.uleb128 0x12
 1181 067a 77000000 		.4byte	0x77
 1182 067e 89060000 		.4byte	0x689
 1183 0682 13       		.uleb128 0x13
 1184 0683 B3040000 		.4byte	0x4b3
 1185 0687 03       		.byte	0x3
 1186 0688 00       		.byte	0
 1187 0689 18       		.uleb128 0x18
 1188 068a 8E060000 		.4byte	0x68e
 1189 068e 14       		.uleb128 0x14
 1190 068f 79060000 		.4byte	0x679
 1191 0693 12       		.uleb128 0x12
 1192 0694 77000000 		.4byte	0x77
 1193 0698 A3060000 		.4byte	0x6a3
 1194 069c 13       		.uleb128 0x13
 1195 069d B3040000 		.4byte	0x4b3
 1196 06a1 04       		.byte	0x4
 1197 06a2 00       		.byte	0
 1198 06a3 18       		.uleb128 0x18
 1199 06a4 A8060000 		.4byte	0x6a8
 1200 06a8 14       		.uleb128 0x14
 1201 06a9 93060000 		.4byte	0x693
 1202 06ad 16       		.uleb128 0x16
 1203 06ae 6F040000 		.4byte	.LASF93
 1204 06b2 06       		.byte	0x6
 1205 06b3 B801     		.2byte	0x1b8
 1206 06b5 2A050000 		.4byte	0x52a
 1207 06b9 04       		.uleb128 0x4
 1208 06ba 1D000000 		.4byte	.LASF94
 1209 06be 07       		.byte	0x7
ARM GAS  /tmp/ccjdOIf7.s 			page 36


 1210 06bf 65       		.byte	0x65
 1211 06c0 CB020000 		.4byte	0x2cb
 1212 06c4 04       		.uleb128 0x4
 1213 06c5 4D050000 		.4byte	.LASF95
 1214 06c9 07       		.byte	0x7
 1215 06ca 6D       		.byte	0x6d
 1216 06cb 90000000 		.4byte	0x90
 1217 06cf 05       		.uleb128 0x5
 1218 06d0 B4000000 		.4byte	.LASF96
 1219 06d4 04       		.byte	0x4
 1220 06d5 07       		.byte	0x7
 1221 06d6 89       		.byte	0x89
 1222 06d7 E7060000 		.4byte	0x6e7
 1223 06db 07       		.uleb128 0x7
 1224 06dc 737000   		.ascii	"sp\000"
 1225 06df 07       		.byte	0x7
 1226 06e0 8A       		.byte	0x8a
 1227 06e1 63070000 		.4byte	0x763
 1228 06e5 00       		.byte	0
 1229 06e6 00       		.byte	0
 1230 06e7 0B       		.uleb128 0xb
 1231 06e8 2A040000 		.4byte	.LASF97
 1232 06ec 24       		.byte	0x24
 1233 06ed 08       		.byte	0x8
 1234 06ee 5901     		.2byte	0x159
 1235 06f0 63070000 		.4byte	0x763
 1236 06f4 08       		.uleb128 0x8
 1237 06f5 723400   		.ascii	"r4\000"
 1238 06f8 08       		.byte	0x8
 1239 06f9 6C01     		.2byte	0x16c
 1240 06fb B9060000 		.4byte	0x6b9
 1241 06ff 00       		.byte	0
 1242 0700 08       		.uleb128 0x8
 1243 0701 723500   		.ascii	"r5\000"
 1244 0704 08       		.byte	0x8
 1245 0705 6D01     		.2byte	0x16d
 1246 0707 B9060000 		.4byte	0x6b9
 1247 070b 04       		.byte	0x4
 1248 070c 08       		.uleb128 0x8
 1249 070d 723600   		.ascii	"r6\000"
 1250 0710 08       		.byte	0x8
 1251 0711 6E01     		.2byte	0x16e
 1252 0713 B9060000 		.4byte	0x6b9
 1253 0717 08       		.byte	0x8
 1254 0718 08       		.uleb128 0x8
 1255 0719 723700   		.ascii	"r7\000"
 1256 071c 08       		.byte	0x8
 1257 071d 6F01     		.2byte	0x16f
 1258 071f B9060000 		.4byte	0x6b9
 1259 0723 0C       		.byte	0xc
 1260 0724 08       		.uleb128 0x8
 1261 0725 723800   		.ascii	"r8\000"
 1262 0728 08       		.byte	0x8
 1263 0729 7001     		.2byte	0x170
 1264 072b B9060000 		.4byte	0x6b9
 1265 072f 10       		.byte	0x10
 1266 0730 08       		.uleb128 0x8
ARM GAS  /tmp/ccjdOIf7.s 			page 37


 1267 0731 723900   		.ascii	"r9\000"
 1268 0734 08       		.byte	0x8
 1269 0735 7101     		.2byte	0x171
 1270 0737 B9060000 		.4byte	0x6b9
 1271 073b 14       		.byte	0x14
 1272 073c 08       		.uleb128 0x8
 1273 073d 72313000 		.ascii	"r10\000"
 1274 0741 08       		.byte	0x8
 1275 0742 7201     		.2byte	0x172
 1276 0744 B9060000 		.4byte	0x6b9
 1277 0748 18       		.byte	0x18
 1278 0749 08       		.uleb128 0x8
 1279 074a 72313100 		.ascii	"r11\000"
 1280 074e 08       		.byte	0x8
 1281 074f 7301     		.2byte	0x173
 1282 0751 B9060000 		.4byte	0x6b9
 1283 0755 1C       		.byte	0x1c
 1284 0756 08       		.uleb128 0x8
 1285 0757 6C7200   		.ascii	"lr\000"
 1286 075a 08       		.byte	0x8
 1287 075b 7401     		.2byte	0x174
 1288 075d B9060000 		.4byte	0x6b9
 1289 0761 20       		.byte	0x20
 1290 0762 00       		.byte	0
 1291 0763 0A       		.uleb128 0xa
 1292 0764 04       		.byte	0x4
 1293 0765 E7060000 		.4byte	0x6e7
 1294 0769 19       		.uleb128 0x19
 1295 076a 04       		.byte	0x4
 1296 076b 05       		.byte	0x5
 1297 076c D2       		.byte	0xd2
 1298 076d CC070000 		.4byte	0x7cc
 1299 0771 1A       		.uleb128 0x1a
 1300 0772 CD010000 		.4byte	.LASF98
 1301 0776 05       		.byte	0x5
 1302 0777 D9       		.byte	0xd9
 1303 0778 CE000000 		.4byte	0xce
 1304 077c 1A       		.uleb128 0x1a
 1305 077d 70050000 		.4byte	.LASF99
 1306 0781 05       		.byte	0x5
 1307 0782 E0       		.byte	0xe0
 1308 0783 CE000000 		.4byte	0xce
 1309 0787 1A       		.uleb128 0x1a
 1310 0788 9E000000 		.4byte	.LASF100
 1311 078c 05       		.byte	0x5
 1312 078d E7       		.byte	0xe7
 1313 078e CB020000 		.4byte	0x2cb
 1314 0792 1A       		.uleb128 0x1a
 1315 0793 22050000 		.4byte	.LASF101
 1316 0797 05       		.byte	0x5
 1317 0798 EE       		.byte	0xee
 1318 0799 CC070000 		.4byte	0x7cc
 1319 079d 1A       		.uleb128 0x1a
 1320 079e 25010000 		.4byte	.LASF102
 1321 07a2 05       		.byte	0x5
 1322 07a3 F3       		.byte	0xf3
 1323 07a4 CE000000 		.4byte	0xce
ARM GAS  /tmp/ccjdOIf7.s 			page 38


 1324 07a8 1A       		.uleb128 0x1a
 1325 07a9 1B050000 		.4byte	.LASF103
 1326 07ad 05       		.byte	0x5
 1327 07ae FC       		.byte	0xfc
 1328 07af F7070000 		.4byte	0x7f7
 1329 07b3 1B       		.uleb128 0x1b
 1330 07b4 16000000 		.4byte	.LASF104
 1331 07b8 05       		.byte	0x5
 1332 07b9 0501     		.2byte	0x105
 1333 07bb 2E080000 		.4byte	0x82e
 1334 07bf 1B       		.uleb128 0x1b
 1335 07c0 D4000000 		.4byte	.LASF105
 1336 07c4 05       		.byte	0x5
 1337 07c5 0D01     		.2byte	0x10d
 1338 07c7 D9000000 		.4byte	0xd9
 1339 07cb 00       		.byte	0
 1340 07cc 0A       		.uleb128 0xa
 1341 07cd 04       		.byte	0x4
 1342 07ce E3010000 		.4byte	0x1e3
 1343 07d2 05       		.uleb128 0x5
 1344 07d3 43010000 		.4byte	.LASF106
 1345 07d7 0C       		.byte	0xc
 1346 07d8 09       		.byte	0x9
 1347 07d9 34       		.byte	0x34
 1348 07da F7070000 		.4byte	0x7f7
 1349 07de 06       		.uleb128 0x6
 1350 07df B7040000 		.4byte	.LASF23
 1351 07e3 09       		.byte	0x9
 1352 07e4 35       		.byte	0x35
 1353 07e5 18020000 		.4byte	0x218
 1354 07e9 00       		.byte	0
 1355 07ea 07       		.uleb128 0x7
 1356 07eb 636E7400 		.ascii	"cnt\000"
 1357 07ef 09       		.byte	0x9
 1358 07f0 37       		.byte	0x37
 1359 07f1 E4000000 		.4byte	0xe4
 1360 07f5 08       		.byte	0x8
 1361 07f6 00       		.byte	0
 1362 07f7 0A       		.uleb128 0xa
 1363 07f8 04       		.byte	0x4
 1364 07f9 D2070000 		.4byte	0x7d2
 1365 07fd 05       		.uleb128 0x5
 1366 07fe E0010000 		.4byte	.LASF107
 1367 0802 10       		.byte	0x10
 1368 0803 0A       		.byte	0xa
 1369 0804 39       		.byte	0x39
 1370 0805 2E080000 		.4byte	0x82e
 1371 0809 06       		.uleb128 0x6
 1372 080a B7040000 		.4byte	.LASF23
 1373 080e 0A       		.byte	0xa
 1374 080f 3A       		.byte	0x3a
 1375 0810 18020000 		.4byte	0x218
 1376 0814 00       		.byte	0
 1377 0815 06       		.uleb128 0x6
 1378 0816 8F010000 		.4byte	.LASF108
 1379 081a 0A       		.byte	0xa
 1380 081b 3C       		.byte	0x3c
ARM GAS  /tmp/ccjdOIf7.s 			page 39


 1381 081c EE010000 		.4byte	0x1ee
 1382 0820 08       		.byte	0x8
 1383 0821 06       		.uleb128 0x6
 1384 0822 80000000 		.4byte	.LASF42
 1385 0826 0A       		.byte	0xa
 1386 0827 3E       		.byte	0x3e
 1387 0828 62080000 		.4byte	0x862
 1388 082c 0C       		.byte	0xc
 1389 082d 00       		.byte	0
 1390 082e 0A       		.uleb128 0xa
 1391 082f 04       		.byte	0x4
 1392 0830 FD070000 		.4byte	0x7fd
 1393 0834 0A       		.uleb128 0xa
 1394 0835 04       		.byte	0x4
 1395 0836 3A080000 		.4byte	0x83a
 1396 083a 18       		.uleb128 0x18
 1397 083b 3F080000 		.4byte	0x83f
 1398 083f 03       		.uleb128 0x3
 1399 0840 01       		.byte	0x1
 1400 0841 08       		.byte	0x8
 1401 0842 04030000 		.4byte	.LASF109
 1402 0846 0A       		.uleb128 0xa
 1403 0847 04       		.byte	0x4
 1404 0848 C4060000 		.4byte	0x6c4
 1405 084c 0A       		.uleb128 0xa
 1406 084d 04       		.byte	0x4
 1407 084e CD020000 		.4byte	0x2cd
 1408 0852 14       		.uleb128 0x14
 1409 0853 34080000 		.4byte	0x834
 1410 0857 04       		.uleb128 0x4
 1411 0858 C5040000 		.4byte	.LASF110
 1412 085c 0A       		.byte	0xa
 1413 085d 34       		.byte	0x34
 1414 085e FD070000 		.4byte	0x7fd
 1415 0862 0A       		.uleb128 0xa
 1416 0863 04       		.byte	0x4
 1417 0864 57080000 		.4byte	0x857
 1418 0868 03       		.uleb128 0x3
 1419 0869 01       		.byte	0x1
 1420 086a 02       		.byte	0x2
 1421 086b DA010000 		.4byte	.LASF111
 1422 086f 1C       		.uleb128 0x1c
 1423 0870 CE030000 		.4byte	.LASF112
 1424 0874 01       		.byte	0x1
 1425 0875 39       		.byte	0x39
 1426 0876 00000000 		.4byte	.LFB219
 1427 087a 2E000000 		.4byte	.LFE219-.LFB219
 1428 087e 01       		.uleb128 0x1
 1429 087f 9C       		.byte	0x9c
 1430 0880 A1080000 		.4byte	0x8a1
 1431 0884 1D       		.uleb128 0x1d
 1432 0885 6E00     		.ascii	"n\000"
 1433 0887 01       		.byte	0x1
 1434 0888 39       		.byte	0x39
 1435 0889 77000000 		.4byte	0x77
 1436 088d 00000000 		.4byte	.LLST0
 1437 0891 1E       		.uleb128 0x1e
ARM GAS  /tmp/ccjdOIf7.s 			page 40


 1438 0892 FF020000 		.4byte	.LASF24
 1439 0896 01       		.byte	0x1
 1440 0897 39       		.byte	0x39
 1441 0898 77000000 		.4byte	0x77
 1442 089c 35000000 		.4byte	.LLST1
 1443 08a0 00       		.byte	0
 1444 08a1 1C       		.uleb128 0x1c
 1445 08a2 DB000000 		.4byte	.LASF113
 1446 08a6 01       		.byte	0x1
 1447 08a7 4A       		.byte	0x4a
 1448 08a8 00000000 		.4byte	.LFB220
 1449 08ac 28000000 		.4byte	.LFE220-.LFB220
 1450 08b0 01       		.uleb128 0x1
 1451 08b1 9C       		.byte	0x9c
 1452 08b2 C4080000 		.4byte	0x8c4
 1453 08b6 1D       		.uleb128 0x1d
 1454 08b7 6E00     		.ascii	"n\000"
 1455 08b9 01       		.byte	0x1
 1456 08ba 4A       		.byte	0x4a
 1457 08bb 77000000 		.4byte	0x77
 1458 08bf 56000000 		.4byte	.LLST2
 1459 08c3 00       		.byte	0
 1460 08c4 1C       		.uleb128 0x1c
 1461 08c5 7F050000 		.4byte	.LASF114
 1462 08c9 01       		.byte	0x1
 1463 08ca 5A       		.byte	0x5a
 1464 08cb 00000000 		.4byte	.LFB221
 1465 08cf 10000000 		.4byte	.LFE221-.LFB221
 1466 08d3 01       		.uleb128 0x1
 1467 08d4 9C       		.byte	0x9c
 1468 08d5 01090000 		.4byte	0x901
 1469 08d9 1E       		.uleb128 0x1e
 1470 08da A5000000 		.4byte	.LASF115
 1471 08de 01       		.byte	0x1
 1472 08df 5A       		.byte	0x5a
 1473 08e0 77000000 		.4byte	0x77
 1474 08e4 77000000 		.4byte	.LLST3
 1475 08e8 1E       		.uleb128 0x1e
 1476 08e9 FF020000 		.4byte	.LASF24
 1477 08ed 01       		.byte	0x1
 1478 08ee 5A       		.byte	0x5a
 1479 08ef 77000000 		.4byte	0x77
 1480 08f3 AC000000 		.4byte	.LLST4
 1481 08f7 1F       		.uleb128 0x1f
 1482 08f8 80030000 		.4byte	.LASF121
 1483 08fc 11090000 		.4byte	0x911
 1484 0900 00       		.byte	0
 1485 0901 12       		.uleb128 0x12
 1486 0902 3F080000 		.4byte	0x83f
 1487 0906 11090000 		.4byte	0x911
 1488 090a 13       		.uleb128 0x13
 1489 090b B3040000 		.4byte	0x4b3
 1490 090f 1C       		.byte	0x1c
 1491 0910 00       		.byte	0
 1492 0911 18       		.uleb128 0x18
 1493 0912 01090000 		.4byte	0x901
 1494 0916 1C       		.uleb128 0x1c
ARM GAS  /tmp/ccjdOIf7.s 			page 41


 1495 0917 46020000 		.4byte	.LASF116
 1496 091b 01       		.byte	0x1
 1497 091c 6D       		.byte	0x6d
 1498 091d 00000000 		.4byte	.LFB222
 1499 0921 1A000000 		.4byte	.LFE222-.LFB222
 1500 0925 01       		.uleb128 0x1
 1501 0926 9C       		.byte	0x9c
 1502 0927 39090000 		.4byte	0x939
 1503 092b 1D       		.uleb128 0x1d
 1504 092c 6E00     		.ascii	"n\000"
 1505 092e 01       		.byte	0x1
 1506 092f 6D       		.byte	0x6d
 1507 0930 77000000 		.4byte	0x77
 1508 0934 CD000000 		.4byte	.LLST5
 1509 0938 00       		.byte	0
 1510 0939 20       		.uleb128 0x20
 1511 093a 36040000 		.4byte	.LASF117
 1512 093e 06       		.byte	0x6
 1513 093f 9606     		.2byte	0x696
 1514 0941 45090000 		.4byte	0x945
 1515 0945 14       		.uleb128 0x14
 1516 0946 65000000 		.4byte	0x65
 1517 094a 21       		.uleb128 0x21
 1518 094b 636800   		.ascii	"ch\000"
 1519 094e 05       		.byte	0x5
 1520 094f D201     		.2byte	0x1d2
 1521 0951 9A030000 		.4byte	0x39a
 1522 0955 00       		.byte	0
 1523              		.section	.debug_abbrev,"",%progbits
 1524              	.Ldebug_abbrev0:
 1525 0000 01       		.uleb128 0x1
 1526 0001 11       		.uleb128 0x11
 1527 0002 01       		.byte	0x1
 1528 0003 25       		.uleb128 0x25
 1529 0004 0E       		.uleb128 0xe
 1530 0005 13       		.uleb128 0x13
 1531 0006 0B       		.uleb128 0xb
 1532 0007 03       		.uleb128 0x3
 1533 0008 0E       		.uleb128 0xe
 1534 0009 1B       		.uleb128 0x1b
 1535 000a 0E       		.uleb128 0xe
 1536 000b 55       		.uleb128 0x55
 1537 000c 17       		.uleb128 0x17
 1538 000d 11       		.uleb128 0x11
 1539 000e 01       		.uleb128 0x1
 1540 000f 10       		.uleb128 0x10
 1541 0010 17       		.uleb128 0x17
 1542 0011 00       		.byte	0
 1543 0012 00       		.byte	0
 1544 0013 02       		.uleb128 0x2
 1545 0014 24       		.uleb128 0x24
 1546 0015 00       		.byte	0
 1547 0016 0B       		.uleb128 0xb
 1548 0017 0B       		.uleb128 0xb
 1549 0018 3E       		.uleb128 0x3e
 1550 0019 0B       		.uleb128 0xb
 1551 001a 03       		.uleb128 0x3
ARM GAS  /tmp/ccjdOIf7.s 			page 42


 1552 001b 08       		.uleb128 0x8
 1553 001c 00       		.byte	0
 1554 001d 00       		.byte	0
 1555 001e 03       		.uleb128 0x3
 1556 001f 24       		.uleb128 0x24
 1557 0020 00       		.byte	0
 1558 0021 0B       		.uleb128 0xb
 1559 0022 0B       		.uleb128 0xb
 1560 0023 3E       		.uleb128 0x3e
 1561 0024 0B       		.uleb128 0xb
 1562 0025 03       		.uleb128 0x3
 1563 0026 0E       		.uleb128 0xe
 1564 0027 00       		.byte	0
 1565 0028 00       		.byte	0
 1566 0029 04       		.uleb128 0x4
 1567 002a 16       		.uleb128 0x16
 1568 002b 00       		.byte	0
 1569 002c 03       		.uleb128 0x3
 1570 002d 0E       		.uleb128 0xe
 1571 002e 3A       		.uleb128 0x3a
 1572 002f 0B       		.uleb128 0xb
 1573 0030 3B       		.uleb128 0x3b
 1574 0031 0B       		.uleb128 0xb
 1575 0032 49       		.uleb128 0x49
 1576 0033 13       		.uleb128 0x13
 1577 0034 00       		.byte	0
 1578 0035 00       		.byte	0
 1579 0036 05       		.uleb128 0x5
 1580 0037 13       		.uleb128 0x13
 1581 0038 01       		.byte	0x1
 1582 0039 03       		.uleb128 0x3
 1583 003a 0E       		.uleb128 0xe
 1584 003b 0B       		.uleb128 0xb
 1585 003c 0B       		.uleb128 0xb
 1586 003d 3A       		.uleb128 0x3a
 1587 003e 0B       		.uleb128 0xb
 1588 003f 3B       		.uleb128 0x3b
 1589 0040 0B       		.uleb128 0xb
 1590 0041 01       		.uleb128 0x1
 1591 0042 13       		.uleb128 0x13
 1592 0043 00       		.byte	0
 1593 0044 00       		.byte	0
 1594 0045 06       		.uleb128 0x6
 1595 0046 0D       		.uleb128 0xd
 1596 0047 00       		.byte	0
 1597 0048 03       		.uleb128 0x3
 1598 0049 0E       		.uleb128 0xe
 1599 004a 3A       		.uleb128 0x3a
 1600 004b 0B       		.uleb128 0xb
 1601 004c 3B       		.uleb128 0x3b
 1602 004d 0B       		.uleb128 0xb
 1603 004e 49       		.uleb128 0x49
 1604 004f 13       		.uleb128 0x13
 1605 0050 38       		.uleb128 0x38
 1606 0051 0B       		.uleb128 0xb
 1607 0052 00       		.byte	0
 1608 0053 00       		.byte	0
ARM GAS  /tmp/ccjdOIf7.s 			page 43


 1609 0054 07       		.uleb128 0x7
 1610 0055 0D       		.uleb128 0xd
 1611 0056 00       		.byte	0
 1612 0057 03       		.uleb128 0x3
 1613 0058 08       		.uleb128 0x8
 1614 0059 3A       		.uleb128 0x3a
 1615 005a 0B       		.uleb128 0xb
 1616 005b 3B       		.uleb128 0x3b
 1617 005c 0B       		.uleb128 0xb
 1618 005d 49       		.uleb128 0x49
 1619 005e 13       		.uleb128 0x13
 1620 005f 38       		.uleb128 0x38
 1621 0060 0B       		.uleb128 0xb
 1622 0061 00       		.byte	0
 1623 0062 00       		.byte	0
 1624 0063 08       		.uleb128 0x8
 1625 0064 0D       		.uleb128 0xd
 1626 0065 00       		.byte	0
 1627 0066 03       		.uleb128 0x3
 1628 0067 08       		.uleb128 0x8
 1629 0068 3A       		.uleb128 0x3a
 1630 0069 0B       		.uleb128 0xb
 1631 006a 3B       		.uleb128 0x3b
 1632 006b 05       		.uleb128 0x5
 1633 006c 49       		.uleb128 0x49
 1634 006d 13       		.uleb128 0x13
 1635 006e 38       		.uleb128 0x38
 1636 006f 0B       		.uleb128 0xb
 1637 0070 00       		.byte	0
 1638 0071 00       		.byte	0
 1639 0072 09       		.uleb128 0x9
 1640 0073 0D       		.uleb128 0xd
 1641 0074 00       		.byte	0
 1642 0075 03       		.uleb128 0x3
 1643 0076 0E       		.uleb128 0xe
 1644 0077 3A       		.uleb128 0x3a
 1645 0078 0B       		.uleb128 0xb
 1646 0079 3B       		.uleb128 0x3b
 1647 007a 05       		.uleb128 0x5
 1648 007b 49       		.uleb128 0x49
 1649 007c 13       		.uleb128 0x13
 1650 007d 38       		.uleb128 0x38
 1651 007e 0B       		.uleb128 0xb
 1652 007f 00       		.byte	0
 1653 0080 00       		.byte	0
 1654 0081 0A       		.uleb128 0xa
 1655 0082 0F       		.uleb128 0xf
 1656 0083 00       		.byte	0
 1657 0084 0B       		.uleb128 0xb
 1658 0085 0B       		.uleb128 0xb
 1659 0086 49       		.uleb128 0x49
 1660 0087 13       		.uleb128 0x13
 1661 0088 00       		.byte	0
 1662 0089 00       		.byte	0
 1663 008a 0B       		.uleb128 0xb
 1664 008b 13       		.uleb128 0x13
 1665 008c 01       		.byte	0x1
ARM GAS  /tmp/ccjdOIf7.s 			page 44


 1666 008d 03       		.uleb128 0x3
 1667 008e 0E       		.uleb128 0xe
 1668 008f 0B       		.uleb128 0xb
 1669 0090 0B       		.uleb128 0xb
 1670 0091 3A       		.uleb128 0x3a
 1671 0092 0B       		.uleb128 0xb
 1672 0093 3B       		.uleb128 0x3b
 1673 0094 05       		.uleb128 0x5
 1674 0095 01       		.uleb128 0x1
 1675 0096 13       		.uleb128 0x13
 1676 0097 00       		.byte	0
 1677 0098 00       		.byte	0
 1678 0099 0C       		.uleb128 0xc
 1679 009a 15       		.uleb128 0x15
 1680 009b 01       		.byte	0x1
 1681 009c 27       		.uleb128 0x27
 1682 009d 19       		.uleb128 0x19
 1683 009e 01       		.uleb128 0x1
 1684 009f 13       		.uleb128 0x13
 1685 00a0 00       		.byte	0
 1686 00a1 00       		.byte	0
 1687 00a2 0D       		.uleb128 0xd
 1688 00a3 05       		.uleb128 0x5
 1689 00a4 00       		.byte	0
 1690 00a5 49       		.uleb128 0x49
 1691 00a6 13       		.uleb128 0x13
 1692 00a7 00       		.byte	0
 1693 00a8 00       		.byte	0
 1694 00a9 0E       		.uleb128 0xe
 1695 00aa 0F       		.uleb128 0xf
 1696 00ab 00       		.byte	0
 1697 00ac 0B       		.uleb128 0xb
 1698 00ad 0B       		.uleb128 0xb
 1699 00ae 00       		.byte	0
 1700 00af 00       		.byte	0
 1701 00b0 0F       		.uleb128 0xf
 1702 00b1 13       		.uleb128 0x13
 1703 00b2 01       		.byte	0x1
 1704 00b3 0B       		.uleb128 0xb
 1705 00b4 05       		.uleb128 0x5
 1706 00b5 3A       		.uleb128 0x3a
 1707 00b6 0B       		.uleb128 0xb
 1708 00b7 3B       		.uleb128 0x3b
 1709 00b8 05       		.uleb128 0x5
 1710 00b9 01       		.uleb128 0x1
 1711 00ba 13       		.uleb128 0x13
 1712 00bb 00       		.byte	0
 1713 00bc 00       		.byte	0
 1714 00bd 10       		.uleb128 0x10
 1715 00be 0D       		.uleb128 0xd
 1716 00bf 00       		.byte	0
 1717 00c0 03       		.uleb128 0x3
 1718 00c1 0E       		.uleb128 0xe
 1719 00c2 3A       		.uleb128 0x3a
 1720 00c3 0B       		.uleb128 0xb
 1721 00c4 3B       		.uleb128 0x3b
 1722 00c5 05       		.uleb128 0x5
ARM GAS  /tmp/ccjdOIf7.s 			page 45


 1723 00c6 49       		.uleb128 0x49
 1724 00c7 13       		.uleb128 0x13
 1725 00c8 38       		.uleb128 0x38
 1726 00c9 05       		.uleb128 0x5
 1727 00ca 00       		.byte	0
 1728 00cb 00       		.byte	0
 1729 00cc 11       		.uleb128 0x11
 1730 00cd 0D       		.uleb128 0xd
 1731 00ce 00       		.byte	0
 1732 00cf 03       		.uleb128 0x3
 1733 00d0 08       		.uleb128 0x8
 1734 00d1 3A       		.uleb128 0x3a
 1735 00d2 0B       		.uleb128 0xb
 1736 00d3 3B       		.uleb128 0x3b
 1737 00d4 05       		.uleb128 0x5
 1738 00d5 49       		.uleb128 0x49
 1739 00d6 13       		.uleb128 0x13
 1740 00d7 38       		.uleb128 0x38
 1741 00d8 05       		.uleb128 0x5
 1742 00d9 00       		.byte	0
 1743 00da 00       		.byte	0
 1744 00db 12       		.uleb128 0x12
 1745 00dc 01       		.uleb128 0x1
 1746 00dd 01       		.byte	0x1
 1747 00de 49       		.uleb128 0x49
 1748 00df 13       		.uleb128 0x13
 1749 00e0 01       		.uleb128 0x1
 1750 00e1 13       		.uleb128 0x13
 1751 00e2 00       		.byte	0
 1752 00e3 00       		.byte	0
 1753 00e4 13       		.uleb128 0x13
 1754 00e5 21       		.uleb128 0x21
 1755 00e6 00       		.byte	0
 1756 00e7 49       		.uleb128 0x49
 1757 00e8 13       		.uleb128 0x13
 1758 00e9 2F       		.uleb128 0x2f
 1759 00ea 0B       		.uleb128 0xb
 1760 00eb 00       		.byte	0
 1761 00ec 00       		.byte	0
 1762 00ed 14       		.uleb128 0x14
 1763 00ee 35       		.uleb128 0x35
 1764 00ef 00       		.byte	0
 1765 00f0 49       		.uleb128 0x49
 1766 00f1 13       		.uleb128 0x13
 1767 00f2 00       		.byte	0
 1768 00f3 00       		.byte	0
 1769 00f4 15       		.uleb128 0x15
 1770 00f5 21       		.uleb128 0x21
 1771 00f6 00       		.byte	0
 1772 00f7 49       		.uleb128 0x49
 1773 00f8 13       		.uleb128 0x13
 1774 00f9 2F       		.uleb128 0x2f
 1775 00fa 05       		.uleb128 0x5
 1776 00fb 00       		.byte	0
 1777 00fc 00       		.byte	0
 1778 00fd 16       		.uleb128 0x16
 1779 00fe 16       		.uleb128 0x16
ARM GAS  /tmp/ccjdOIf7.s 			page 46


 1780 00ff 00       		.byte	0
 1781 0100 03       		.uleb128 0x3
 1782 0101 0E       		.uleb128 0xe
 1783 0102 3A       		.uleb128 0x3a
 1784 0103 0B       		.uleb128 0xb
 1785 0104 3B       		.uleb128 0x3b
 1786 0105 05       		.uleb128 0x5
 1787 0106 49       		.uleb128 0x49
 1788 0107 13       		.uleb128 0x13
 1789 0108 00       		.byte	0
 1790 0109 00       		.byte	0
 1791 010a 17       		.uleb128 0x17
 1792 010b 13       		.uleb128 0x13
 1793 010c 01       		.byte	0x1
 1794 010d 0B       		.uleb128 0xb
 1795 010e 0B       		.uleb128 0xb
 1796 010f 3A       		.uleb128 0x3a
 1797 0110 0B       		.uleb128 0xb
 1798 0111 3B       		.uleb128 0x3b
 1799 0112 05       		.uleb128 0x5
 1800 0113 01       		.uleb128 0x1
 1801 0114 13       		.uleb128 0x13
 1802 0115 00       		.byte	0
 1803 0116 00       		.byte	0
 1804 0117 18       		.uleb128 0x18
 1805 0118 26       		.uleb128 0x26
 1806 0119 00       		.byte	0
 1807 011a 49       		.uleb128 0x49
 1808 011b 13       		.uleb128 0x13
 1809 011c 00       		.byte	0
 1810 011d 00       		.byte	0
 1811 011e 19       		.uleb128 0x19
 1812 011f 17       		.uleb128 0x17
 1813 0120 01       		.byte	0x1
 1814 0121 0B       		.uleb128 0xb
 1815 0122 0B       		.uleb128 0xb
 1816 0123 3A       		.uleb128 0x3a
 1817 0124 0B       		.uleb128 0xb
 1818 0125 3B       		.uleb128 0x3b
 1819 0126 0B       		.uleb128 0xb
 1820 0127 01       		.uleb128 0x1
 1821 0128 13       		.uleb128 0x13
 1822 0129 00       		.byte	0
 1823 012a 00       		.byte	0
 1824 012b 1A       		.uleb128 0x1a
 1825 012c 0D       		.uleb128 0xd
 1826 012d 00       		.byte	0
 1827 012e 03       		.uleb128 0x3
 1828 012f 0E       		.uleb128 0xe
 1829 0130 3A       		.uleb128 0x3a
 1830 0131 0B       		.uleb128 0xb
 1831 0132 3B       		.uleb128 0x3b
 1832 0133 0B       		.uleb128 0xb
 1833 0134 49       		.uleb128 0x49
 1834 0135 13       		.uleb128 0x13
 1835 0136 00       		.byte	0
 1836 0137 00       		.byte	0
ARM GAS  /tmp/ccjdOIf7.s 			page 47


 1837 0138 1B       		.uleb128 0x1b
 1838 0139 0D       		.uleb128 0xd
 1839 013a 00       		.byte	0
 1840 013b 03       		.uleb128 0x3
 1841 013c 0E       		.uleb128 0xe
 1842 013d 3A       		.uleb128 0x3a
 1843 013e 0B       		.uleb128 0xb
 1844 013f 3B       		.uleb128 0x3b
 1845 0140 05       		.uleb128 0x5
 1846 0141 49       		.uleb128 0x49
 1847 0142 13       		.uleb128 0x13
 1848 0143 00       		.byte	0
 1849 0144 00       		.byte	0
 1850 0145 1C       		.uleb128 0x1c
 1851 0146 2E       		.uleb128 0x2e
 1852 0147 01       		.byte	0x1
 1853 0148 3F       		.uleb128 0x3f
 1854 0149 19       		.uleb128 0x19
 1855 014a 03       		.uleb128 0x3
 1856 014b 0E       		.uleb128 0xe
 1857 014c 3A       		.uleb128 0x3a
 1858 014d 0B       		.uleb128 0xb
 1859 014e 3B       		.uleb128 0x3b
 1860 014f 0B       		.uleb128 0xb
 1861 0150 27       		.uleb128 0x27
 1862 0151 19       		.uleb128 0x19
 1863 0152 11       		.uleb128 0x11
 1864 0153 01       		.uleb128 0x1
 1865 0154 12       		.uleb128 0x12
 1866 0155 06       		.uleb128 0x6
 1867 0156 40       		.uleb128 0x40
 1868 0157 18       		.uleb128 0x18
 1869 0158 9742     		.uleb128 0x2117
 1870 015a 19       		.uleb128 0x19
 1871 015b 01       		.uleb128 0x1
 1872 015c 13       		.uleb128 0x13
 1873 015d 00       		.byte	0
 1874 015e 00       		.byte	0
 1875 015f 1D       		.uleb128 0x1d
 1876 0160 05       		.uleb128 0x5
 1877 0161 00       		.byte	0
 1878 0162 03       		.uleb128 0x3
 1879 0163 08       		.uleb128 0x8
 1880 0164 3A       		.uleb128 0x3a
 1881 0165 0B       		.uleb128 0xb
 1882 0166 3B       		.uleb128 0x3b
 1883 0167 0B       		.uleb128 0xb
 1884 0168 49       		.uleb128 0x49
 1885 0169 13       		.uleb128 0x13
 1886 016a 02       		.uleb128 0x2
 1887 016b 17       		.uleb128 0x17
 1888 016c 00       		.byte	0
 1889 016d 00       		.byte	0
 1890 016e 1E       		.uleb128 0x1e
 1891 016f 05       		.uleb128 0x5
 1892 0170 00       		.byte	0
 1893 0171 03       		.uleb128 0x3
ARM GAS  /tmp/ccjdOIf7.s 			page 48


 1894 0172 0E       		.uleb128 0xe
 1895 0173 3A       		.uleb128 0x3a
 1896 0174 0B       		.uleb128 0xb
 1897 0175 3B       		.uleb128 0x3b
 1898 0176 0B       		.uleb128 0xb
 1899 0177 49       		.uleb128 0x49
 1900 0178 13       		.uleb128 0x13
 1901 0179 02       		.uleb128 0x2
 1902 017a 17       		.uleb128 0x17
 1903 017b 00       		.byte	0
 1904 017c 00       		.byte	0
 1905 017d 1F       		.uleb128 0x1f
 1906 017e 34       		.uleb128 0x34
 1907 017f 00       		.byte	0
 1908 0180 03       		.uleb128 0x3
 1909 0181 0E       		.uleb128 0xe
 1910 0182 49       		.uleb128 0x49
 1911 0183 13       		.uleb128 0x13
 1912 0184 34       		.uleb128 0x34
 1913 0185 19       		.uleb128 0x19
 1914 0186 00       		.byte	0
 1915 0187 00       		.byte	0
 1916 0188 20       		.uleb128 0x20
 1917 0189 34       		.uleb128 0x34
 1918 018a 00       		.byte	0
 1919 018b 03       		.uleb128 0x3
 1920 018c 0E       		.uleb128 0xe
 1921 018d 3A       		.uleb128 0x3a
 1922 018e 0B       		.uleb128 0xb
 1923 018f 3B       		.uleb128 0x3b
 1924 0190 05       		.uleb128 0x5
 1925 0191 49       		.uleb128 0x49
 1926 0192 13       		.uleb128 0x13
 1927 0193 3F       		.uleb128 0x3f
 1928 0194 19       		.uleb128 0x19
 1929 0195 3C       		.uleb128 0x3c
 1930 0196 19       		.uleb128 0x19
 1931 0197 00       		.byte	0
 1932 0198 00       		.byte	0
 1933 0199 21       		.uleb128 0x21
 1934 019a 34       		.uleb128 0x34
 1935 019b 00       		.byte	0
 1936 019c 03       		.uleb128 0x3
 1937 019d 08       		.uleb128 0x8
 1938 019e 3A       		.uleb128 0x3a
 1939 019f 0B       		.uleb128 0xb
 1940 01a0 3B       		.uleb128 0x3b
 1941 01a1 05       		.uleb128 0x5
 1942 01a2 49       		.uleb128 0x49
 1943 01a3 13       		.uleb128 0x13
 1944 01a4 3F       		.uleb128 0x3f
 1945 01a5 19       		.uleb128 0x19
 1946 01a6 3C       		.uleb128 0x3c
 1947 01a7 19       		.uleb128 0x19
 1948 01a8 00       		.byte	0
 1949 01a9 00       		.byte	0
 1950 01aa 00       		.byte	0
ARM GAS  /tmp/ccjdOIf7.s 			page 49


 1951              		.section	.debug_loc,"",%progbits
 1952              	.Ldebug_loc0:
 1953              	.LLST0:
 1954 0000 00000000 		.4byte	.LVL0
 1955 0004 14000000 		.4byte	.LVL2
 1956 0008 0100     		.2byte	0x1
 1957 000a 50       		.byte	0x50
 1958 000b 14000000 		.4byte	.LVL2
 1959 000f 22000000 		.4byte	.LVL3
 1960 0013 0700     		.2byte	0x7
 1961 0015 70       		.byte	0x70
 1962 0016 80808080 		.sleb128 536870912
 1962      02
 1963 001b 9F       		.byte	0x9f
 1964 001c 22000000 		.4byte	.LVL3
 1965 0020 2E000000 		.4byte	.LFE219
 1966 0024 0700     		.2byte	0x7
 1967 0026 70       		.byte	0x70
 1968 0027 80BEFCFF 		.sleb128 536813312
 1968      01
 1969 002c 9F       		.byte	0x9f
 1970 002d 00000000 		.4byte	0
 1971 0031 00000000 		.4byte	0
 1972              	.LLST1:
 1973 0035 00000000 		.4byte	.LVL0
 1974 0039 10000000 		.4byte	.LVL1
 1975 003d 0100     		.2byte	0x1
 1976 003f 51       		.byte	0x51
 1977 0040 10000000 		.4byte	.LVL1
 1978 0044 2E000000 		.4byte	.LFE219
 1979 0048 0400     		.2byte	0x4
 1980 004a F3       		.byte	0xf3
 1981 004b 01       		.uleb128 0x1
 1982 004c 51       		.byte	0x51
 1983 004d 9F       		.byte	0x9f
 1984 004e 00000000 		.4byte	0
 1985 0052 00000000 		.4byte	0
 1986              	.LLST2:
 1987 0056 00000000 		.4byte	.LVL4
 1988 005a 18000000 		.4byte	.LVL5
 1989 005e 0100     		.2byte	0x1
 1990 0060 50       		.byte	0x50
 1991 0061 18000000 		.4byte	.LVL5
 1992 0065 28000000 		.4byte	.LFE220
 1993 0069 0400     		.2byte	0x4
 1994 006b F3       		.byte	0xf3
 1995 006c 01       		.uleb128 0x1
 1996 006d 50       		.byte	0x50
 1997 006e 9F       		.byte	0x9f
 1998 006f 00000000 		.4byte	0
 1999 0073 00000000 		.4byte	0
 2000              	.LLST3:
 2001 0077 00000000 		.4byte	.LVL6
 2002 007b 06000000 		.4byte	.LVL8
 2003 007f 0100     		.2byte	0x1
 2004 0081 50       		.byte	0x50
 2005 0082 06000000 		.4byte	.LVL8
ARM GAS  /tmp/ccjdOIf7.s 			page 50


 2006 0086 0C000000 		.4byte	.LVL9
 2007 008a 0700     		.2byte	0x7
 2008 008c 70       		.byte	0x70
 2009 008d 80808080 		.sleb128 536870912
 2009      02
 2010 0092 9F       		.byte	0x9f
 2011 0093 0C000000 		.4byte	.LVL9
 2012 0097 10000000 		.4byte	.LFE221
 2013 009b 0700     		.2byte	0x7
 2014 009d 70       		.byte	0x70
 2015 009e 80A6FCFF 		.sleb128 536810240
 2015      01
 2016 00a3 9F       		.byte	0x9f
 2017 00a4 00000000 		.4byte	0
 2018 00a8 00000000 		.4byte	0
 2019              	.LLST4:
 2020 00ac 00000000 		.4byte	.LVL6
 2021 00b0 02000000 		.4byte	.LVL7
 2022 00b4 0100     		.2byte	0x1
 2023 00b6 51       		.byte	0x51
 2024 00b7 02000000 		.4byte	.LVL7
 2025 00bb 10000000 		.4byte	.LFE221
 2026 00bf 0400     		.2byte	0x4
 2027 00c1 F3       		.byte	0xf3
 2028 00c2 01       		.uleb128 0x1
 2029 00c3 51       		.byte	0x51
 2030 00c4 9F       		.byte	0x9f
 2031 00c5 00000000 		.4byte	0
 2032 00c9 00000000 		.4byte	0
 2033              	.LLST5:
 2034 00cd 00000000 		.4byte	.LVL10
 2035 00d1 0A000000 		.4byte	.LVL11
 2036 00d5 0100     		.2byte	0x1
 2037 00d7 50       		.byte	0x50
 2038 00d8 0A000000 		.4byte	.LVL11
 2039 00dc 1A000000 		.4byte	.LFE222
 2040 00e0 0400     		.2byte	0x4
 2041 00e2 F3       		.byte	0xf3
 2042 00e3 01       		.uleb128 0x1
 2043 00e4 50       		.byte	0x50
 2044 00e5 9F       		.byte	0x9f
 2045 00e6 00000000 		.4byte	0
 2046 00ea 00000000 		.4byte	0
 2047              		.section	.debug_aranges,"",%progbits
 2048 0000 34000000 		.4byte	0x34
 2049 0004 0200     		.2byte	0x2
 2050 0006 00000000 		.4byte	.Ldebug_info0
 2051 000a 04       		.byte	0x4
 2052 000b 00       		.byte	0
 2053 000c 0000     		.2byte	0
 2054 000e 0000     		.2byte	0
 2055 0010 00000000 		.4byte	.LFB219
 2056 0014 2E000000 		.4byte	.LFE219-.LFB219
 2057 0018 00000000 		.4byte	.LFB220
 2058 001c 28000000 		.4byte	.LFE220-.LFB220
 2059 0020 00000000 		.4byte	.LFB221
 2060 0024 10000000 		.4byte	.LFE221-.LFB221
ARM GAS  /tmp/ccjdOIf7.s 			page 51


 2061 0028 00000000 		.4byte	.LFB222
 2062 002c 1A000000 		.4byte	.LFE222-.LFB222
 2063 0030 00000000 		.4byte	0
 2064 0034 00000000 		.4byte	0
 2065              		.section	.debug_ranges,"",%progbits
 2066              	.Ldebug_ranges0:
 2067 0000 00000000 		.4byte	.LFB219
 2068 0004 2E000000 		.4byte	.LFE219
 2069 0008 00000000 		.4byte	.LFB220
 2070 000c 28000000 		.4byte	.LFE220
 2071 0010 00000000 		.4byte	.LFB221
 2072 0014 10000000 		.4byte	.LFE221
 2073 0018 00000000 		.4byte	.LFB222
 2074 001c 1A000000 		.4byte	.LFE222
 2075 0020 00000000 		.4byte	0
 2076 0024 00000000 		.4byte	0
 2077              		.section	.debug_line,"",%progbits
 2078              	.Ldebug_line0:
 2079 0000 DC010000 		.section	.debug_str,"MS",%progbits,1
 2079      02008A01 
 2079      00000201 
 2079      FB0E0D00 
 2079      01010101 
 2080              	.LASF41:
 2081 0000 63685F74 		.ascii	"ch_threads_list\000"
 2081      68726561 
 2081      64735F6C 
 2081      69737400 
 2082              	.LASF92:
 2083 0010 43504143 		.ascii	"CPACR\000"
 2083      5200
 2084              	.LASF104:
 2085 0016 77746D74 		.ascii	"wtmtxp\000"
 2085      787000
 2086              	.LASF94:
 2087 001d 72656761 		.ascii	"regarm_t\000"
 2087      726D5F74 
 2087      00
 2088              	.LASF119:
 2089 0026 2E2E2F2E 		.ascii	"../../../os/hal/ports/common/ARMCMx/nvic.c\000"
 2089      2E2F2E2E 
 2089      2F6F732F 
 2089      68616C2F 
 2089      706F7274 
 2090              	.LASF30:
 2091 0051 666C6167 		.ascii	"flags\000"
 2091      7300
 2092              	.LASF21:
 2093 0057 73797374 		.ascii	"systime_t\000"
 2093      696D655F 
 2093      7400
 2094              	.LASF36:
 2095 0061 7265616C 		.ascii	"realprio\000"
 2095      7072696F 
 2095      00
 2096              	.LASF34:
 2097 006a 6570656E 		.ascii	"epending\000"
ARM GAS  /tmp/ccjdOIf7.s 			page 52


 2097      64696E67 
 2097      00
 2098              	.LASF0:
 2099 0073 756E7369 		.ascii	"unsigned int\000"
 2099      676E6564 
 2099      20696E74 
 2099      00
 2100              	.LASF42:
 2101 0080 6E657874 		.ascii	"next\000"
 2101      00
 2102              	.LASF39:
 2103 0085 74687265 		.ascii	"threads_list_t\000"
 2103      6164735F 
 2103      6C697374 
 2103      5F7400
 2104              	.LASF86:
 2105 0094 44465352 		.ascii	"DFSR\000"
 2105      00
 2106              	.LASF31:
 2107 0099 72656673 		.ascii	"refs\000"
 2107      00
 2108              	.LASF100:
 2109 009e 77746F62 		.ascii	"wtobjp\000"
 2109      6A7000
 2110              	.LASF115:
 2111 00a5 68616E64 		.ascii	"handler\000"
 2111      6C657200 
 2112              	.LASF63:
 2113 00ad 76746C69 		.ascii	"vtlist\000"
 2113      737400
 2114              	.LASF96:
 2115 00b4 706F7274 		.ascii	"port_context\000"
 2115      5F636F6E 
 2115      74657874 
 2115      00
 2116              	.LASF47:
 2117 00c1 63685F72 		.ascii	"ch_ready_list\000"
 2117      65616479 
 2117      5F6C6973 
 2117      7400
 2118              	.LASF53:
 2119 00cf 66756E63 		.ascii	"func\000"
 2119      00
 2120              	.LASF105:
 2121 00d4 65776D61 		.ascii	"ewmask\000"
 2121      736B00
 2122              	.LASF113:
 2123 00db 6E766963 		.ascii	"nvicDisableVector\000"
 2123      44697361 
 2123      626C6556 
 2123      6563746F 
 2123      7200
 2124              	.LASF45:
 2125 00ed 70726576 		.ascii	"prev\000"
 2125      00
 2126              	.LASF44:
 2127 00f2 63685F74 		.ascii	"ch_threads_queue\000"
ARM GAS  /tmp/ccjdOIf7.s 			page 53


 2127      68726561 
 2127      64735F71 
 2127      75657565 
 2127      00
 2128              	.LASF49:
 2129 0103 76746675 		.ascii	"vtfunc_t\000"
 2129      6E635F74 
 2129      00
 2130              	.LASF58:
 2131 010c 63685F73 		.ascii	"ch_system_debug\000"
 2131      79737465 
 2131      6D5F6465 
 2131      62756700 
 2132              	.LASF9:
 2133 011c 75696E74 		.ascii	"uint32_t\000"
 2133      33325F74 
 2133      00
 2134              	.LASF102:
 2135 0125 73656E74 		.ascii	"sentmsg\000"
 2135      6D736700 
 2136              	.LASF90:
 2137 012d 4D4D4652 		.ascii	"MMFR\000"
 2137      00
 2138              	.LASF19:
 2139 0132 6576656E 		.ascii	"eventmask_t\000"
 2139      746D6173 
 2139      6B5F7400 
 2140              	.LASF65:
 2141 013e 49534552 		.ascii	"ISER\000"
 2141      00
 2142              	.LASF106:
 2143 0143 63685F73 		.ascii	"ch_semaphore\000"
 2143      656D6170 
 2143      686F7265 
 2143      00
 2144              	.LASF17:
 2145 0150 74707269 		.ascii	"tprio_t\000"
 2145      6F5F7400 
 2146              	.LASF68:
 2147 0158 52534552 		.ascii	"RSERVED1\000"
 2147      56454431 
 2147      00
 2148              	.LASF51:
 2149 0161 63685F76 		.ascii	"ch_virtual_timer\000"
 2149      69727475 
 2149      616C5F74 
 2149      696D6572 
 2149      00
 2150              	.LASF13:
 2151 0172 6C6F6E67 		.ascii	"long long unsigned int\000"
 2151      206C6F6E 
 2151      6720756E 
 2151      7369676E 
 2151      65642069 
 2152              	.LASF20:
 2153 0189 636E745F 		.ascii	"cnt_t\000"
 2153      7400
ARM GAS  /tmp/ccjdOIf7.s 			page 54


 2154              	.LASF108:
 2155 018f 6F776E65 		.ascii	"owner\000"
 2155      7200
 2156              	.LASF43:
 2157 0195 74687265 		.ascii	"threads_queue_t\000"
 2157      6164735F 
 2157      71756575 
 2157      655F7400 
 2158              	.LASF35:
 2159 01a5 6D74786C 		.ascii	"mtxlist\000"
 2159      69737400 
 2160              	.LASF55:
 2161 01ad 63685F76 		.ascii	"ch_virtual_timers_list\000"
 2161      69727475 
 2161      616C5F74 
 2161      696D6572 
 2161      735F6C69 
 2162              	.LASF22:
 2163 01c4 74687265 		.ascii	"thread_t\000"
 2163      61645F74 
 2163      00
 2164              	.LASF98:
 2165 01cd 7264796D 		.ascii	"rdymsg\000"
 2165      736700
 2166              	.LASF79:
 2167 01d4 43505549 		.ascii	"CPUID\000"
 2167      4400
 2168              	.LASF111:
 2169 01da 5F426F6F 		.ascii	"_Bool\000"
 2169      6C00
 2170              	.LASF107:
 2171 01e0 63685F6D 		.ascii	"ch_mutex\000"
 2171      75746578 
 2171      00
 2172              	.LASF89:
 2173 01e9 41465352 		.ascii	"AFSR\000"
 2173      00
 2174              	.LASF120:
 2175 01ee 2F686F6D 		.ascii	"/home/julian/MEGA/semestre_ix/Crasby/ChibiOS_17.6.2"
 2175      652F6A75 
 2175      6C69616E 
 2175      2F4D4547 
 2175      412F7365 
 2176 0221 2F64656D 		.ascii	"/demos/STM32/RT2-STM32F100-DISCOVERY\000"
 2176      6F732F53 
 2176      544D3332 
 2176      2F525432 
 2176      2D53544D 
 2177              	.LASF116:
 2178 0246 6E766963 		.ascii	"nvicClearPending\000"
 2178      436C6561 
 2178      7250656E 
 2178      64696E67 
 2178      00
 2179              	.LASF118:
 2180 0257 474E5520 		.ascii	"GNU C 4.8.1 -mcpu=cortex-m3 -mno-thumb-interwork -m"
 2180      4320342E 
ARM GAS  /tmp/ccjdOIf7.s 			page 55


 2180      382E3120 
 2180      2D6D6370 
 2180      753D636F 
 2181 028a 7468756D 		.ascii	"thumb -ggdb -O2 -fomit-frame-pointer -falign-functi"
 2181      62202D67 
 2181      67646220 
 2181      2D4F3220 
 2181      2D666F6D 
 2182 02bd 6F6E733D 		.ascii	"ons=16 -ffunction-sections -fdata-sections -fno-com"
 2182      3136202D 
 2182      6666756E 
 2182      6374696F 
 2182      6E2D7365 
 2183 02f0 6D6F6E20 		.ascii	"mon -flto\000"
 2183      2D666C74 
 2183      6F00
 2184              	.LASF85:
 2185 02fa 48465352 		.ascii	"HFSR\000"
 2185      00
 2186              	.LASF24:
 2187 02ff 7072696F 		.ascii	"prio\000"
 2187      00
 2188              	.LASF109:
 2189 0304 63686172 		.ascii	"char\000"
 2189      00
 2190              	.LASF38:
 2191 0309 74687265 		.ascii	"thread_reference_t\000"
 2191      61645F72 
 2191      65666572 
 2191      656E6365 
 2191      5F7400
 2192              	.LASF28:
 2193 031c 77616261 		.ascii	"wabase\000"
 2193      736500
 2194              	.LASF80:
 2195 0323 49435352 		.ascii	"ICSR\000"
 2195      00
 2196              	.LASF15:
 2197 0328 74737461 		.ascii	"tstate_t\000"
 2197      74655F74 
 2197      00
 2198              	.LASF82:
 2199 0331 41495243 		.ascii	"AIRCR\000"
 2199      5200
 2200              	.LASF4:
 2201 0337 75696E74 		.ascii	"uint8_t\000"
 2201      385F7400 
 2202              	.LASF33:
 2203 033f 6D736771 		.ascii	"msgqueue\000"
 2203      75657565 
 2203      00
 2204              	.LASF40:
 2205 0348 63685F74 		.ascii	"ch_thread\000"
 2205      68726561 
 2205      6400
 2206              	.LASF57:
 2207 0352 73797374 		.ascii	"system_debug_t\000"
ARM GAS  /tmp/ccjdOIf7.s 			page 56


 2207      656D5F64 
 2207      65627567 
 2207      5F7400
 2208              	.LASF11:
 2209 0361 6C6F6E67 		.ascii	"long long int\000"
 2209      206C6F6E 
 2209      6720696E 
 2209      7400
 2210              	.LASF83:
 2211 036f 53484353 		.ascii	"SHCSR\000"
 2211      5200
 2212              	.LASF18:
 2213 0375 6D73675F 		.ascii	"msg_t\000"
 2213      7400
 2214              	.LASF84:
 2215 037b 43465352 		.ascii	"CFSR\000"
 2215      00
 2216              	.LASF121:
 2217 0380 5F5F6675 		.ascii	"__func__.6569\000"
 2217      6E635F5F 
 2217      2E363536 
 2217      3900
 2218              	.LASF50:
 2219 038e 76697274 		.ascii	"virtual_timer_t\000"
 2219      75616C5F 
 2219      74696D65 
 2219      725F7400 
 2220              	.LASF71:
 2221 039e 49435052 		.ascii	"ICPR\000"
 2221      00
 2222              	.LASF59:
 2223 03a3 70616E69 		.ascii	"panic_msg\000"
 2223      635F6D73 
 2223      6700
 2224              	.LASF14:
 2225 03ad 746D6F64 		.ascii	"tmode_t\000"
 2225      655F7400 
 2226              	.LASF64:
 2227 03b5 6D61696E 		.ascii	"mainthread\000"
 2227      74687265 
 2227      616400
 2228              	.LASF5:
 2229 03c0 75696E74 		.ascii	"uint16_t\000"
 2229      31365F74 
 2229      00
 2230              	.LASF76:
 2231 03c9 53544952 		.ascii	"STIR\000"
 2231      00
 2232              	.LASF112:
 2233 03ce 6E766963 		.ascii	"nvicEnableVector\000"
 2233      456E6162 
 2233      6C655665 
 2233      63746F72 
 2233      00
 2234              	.LASF87:
 2235 03df 4D4D4641 		.ascii	"MMFAR\000"
 2235      5200
ARM GAS  /tmp/ccjdOIf7.s 			page 57


 2236              	.LASF66:
 2237 03e5 52455345 		.ascii	"RESERVED0\000"
 2237      52564544 
 2237      3000
 2238              	.LASF70:
 2239 03ef 52455345 		.ascii	"RESERVED2\000"
 2239      52564544 
 2239      3200
 2240              	.LASF72:
 2241 03f9 52455345 		.ascii	"RESERVED3\000"
 2241      52564544 
 2241      3300
 2242              	.LASF74:
 2243 0403 52455345 		.ascii	"RESERVED4\000"
 2243      52564544 
 2243      3400
 2244              	.LASF75:
 2245 040d 52455345 		.ascii	"RESERVED5\000"
 2245      52564544 
 2245      3500
 2246              	.LASF3:
 2247 0417 73686F72 		.ascii	"short int\000"
 2247      7420696E 
 2247      7400
 2248              	.LASF8:
 2249 0421 6C6F6E67 		.ascii	"long int\000"
 2249      20696E74 
 2249      00
 2250              	.LASF97:
 2251 042a 706F7274 		.ascii	"port_intctx\000"
 2251      5F696E74 
 2251      63747800 
 2252              	.LASF117:
 2253 0436 49544D5F 		.ascii	"ITM_RxBuffer\000"
 2253      52784275 
 2253      66666572 
 2253      00
 2254              	.LASF61:
 2255 0443 63685F73 		.ascii	"ch_system\000"
 2255      79737465 
 2255      6D00
 2256              	.LASF56:
 2257 044d 6C617374 		.ascii	"lasttime\000"
 2257      74696D65 
 2257      00
 2258              	.LASF12:
 2259 0456 75696E74 		.ascii	"uint64_t\000"
 2259      36345F74 
 2259      00
 2260              	.LASF62:
 2261 045f 726C6973 		.ascii	"rlist\000"
 2261      7400
 2262              	.LASF78:
 2263 0465 4E564943 		.ascii	"NVIC_Type\000"
 2263      5F547970 
 2263      6500
 2264              	.LASF93:
ARM GAS  /tmp/ccjdOIf7.s 			page 58


 2265 046f 5343425F 		.ascii	"SCB_Type\000"
 2265      54797065 
 2265      00
 2266              	.LASF27:
 2267 0478 6E616D65 		.ascii	"name\000"
 2267      00
 2268              	.LASF88:
 2269 047d 42464152 		.ascii	"BFAR\000"
 2269      00
 2270              	.LASF81:
 2271 0482 56544F52 		.ascii	"VTOR\000"
 2271      00
 2272              	.LASF77:
 2273 0487 73697A65 		.ascii	"sizetype\000"
 2273      74797065 
 2273      00
 2274              	.LASF16:
 2275 0490 74726566 		.ascii	"trefs_t\000"
 2275      735F7400 
 2276              	.LASF10:
 2277 0498 6C6F6E67 		.ascii	"long unsigned int\000"
 2277      20756E73 
 2277      69676E65 
 2277      6420696E 
 2277      7400
 2278              	.LASF46:
 2279 04aa 72656164 		.ascii	"ready_list_t\000"
 2279      795F6C69 
 2279      73745F74 
 2279      00
 2280              	.LASF23:
 2281 04b7 71756575 		.ascii	"queue\000"
 2281      6500
 2282              	.LASF7:
 2283 04bd 696E7433 		.ascii	"int32_t\000"
 2283      325F7400 
 2284              	.LASF110:
 2285 04c5 6D757465 		.ascii	"mutex_t\000"
 2285      785F7400 
 2286              	.LASF25:
 2287 04cd 6E657765 		.ascii	"newer\000"
 2287      7200
 2288              	.LASF2:
 2289 04d3 756E7369 		.ascii	"unsigned char\000"
 2289      676E6564 
 2289      20636861 
 2289      7200
 2290              	.LASF32:
 2291 04e1 77616974 		.ascii	"waiting\000"
 2291      696E6700 
 2292              	.LASF54:
 2293 04e9 76697274 		.ascii	"virtual_timers_list_t\000"
 2293      75616C5F 
 2293      74696D65 
 2293      72735F6C 
 2293      6973745F 
 2294              	.LASF67:
ARM GAS  /tmp/ccjdOIf7.s 			page 59


 2295 04ff 49434552 		.ascii	"ICER\000"
 2295      00
 2296              	.LASF29:
 2297 0504 73746174 		.ascii	"state\000"
 2297      6500
 2298              	.LASF73:
 2299 050a 49414252 		.ascii	"IABR\000"
 2299      00
 2300              	.LASF60:
 2301 050f 63685F73 		.ascii	"ch_system_t\000"
 2301      79737465 
 2301      6D5F7400 
 2302              	.LASF103:
 2303 051b 77747365 		.ascii	"wtsemp\000"
 2303      6D7000
 2304              	.LASF101:
 2305 0522 77747472 		.ascii	"wttrp\000"
 2305      7000
 2306              	.LASF1:
 2307 0528 7369676E 		.ascii	"signed char\000"
 2307      65642063 
 2307      68617200 
 2308              	.LASF52:
 2309 0534 64656C74 		.ascii	"delta\000"
 2309      6100
 2310              	.LASF6:
 2311 053a 73686F72 		.ascii	"short unsigned int\000"
 2311      7420756E 
 2311      7369676E 
 2311      65642069 
 2311      6E7400
 2312              	.LASF95:
 2313 054d 73746B61 		.ascii	"stkalign_t\000"
 2313      6C69676E 
 2313      5F7400
 2314              	.LASF48:
 2315 0558 63757272 		.ascii	"current\000"
 2315      656E7400 
 2316              	.LASF69:
 2317 0560 49535052 		.ascii	"ISPR\000"
 2317      00
 2318              	.LASF91:
 2319 0565 49534152 		.ascii	"ISAR\000"
 2319      00
 2320              	.LASF26:
 2321 056a 6F6C6465 		.ascii	"older\000"
 2321      7200
 2322              	.LASF99:
 2323 0570 65786974 		.ascii	"exitcode\000"
 2323      636F6465 
 2323      00
 2324              	.LASF37:
 2325 0579 6D706F6F 		.ascii	"mpool\000"
 2325      6C00
 2326              	.LASF114:
 2327 057f 6E766963 		.ascii	"nvicSetSystemHandlerPriority\000"
 2327      53657453 
ARM GAS  /tmp/ccjdOIf7.s 			page 60


 2327      79737465 
 2327      6D48616E 
 2327      646C6572 
 2328              		.comm	__gnu_lto_v1,1,1
 2329              		.ident	"GCC: (Sourcery CodeBench Lite 2013.11-24) 4.8.1"
ARM GAS  /tmp/ccjdOIf7.s 			page 61


DEFINED SYMBOLS
                            *ABS*:00000000 nvic.c
     /tmp/ccjdOIf7.s:258    .text.nvicEnableVector:00000000 $t
     /tmp/ccjdOIf7.s:264    .text.nvicEnableVector:00000000 nvicEnableVector
     /tmp/ccjdOIf7.s:299    .text.nvicDisableVector:00000000 $t
     /tmp/ccjdOIf7.s:305    .text.nvicDisableVector:00000000 nvicDisableVector
     /tmp/ccjdOIf7.s:339    .text.nvicSetSystemHandlerPriority:00000000 $t
     /tmp/ccjdOIf7.s:345    .text.nvicSetSystemHandlerPriority:00000000 nvicSetSystemHandlerPriority
     /tmp/ccjdOIf7.s:367    .text.nvicClearPending:00000000 $t
     /tmp/ccjdOIf7.s:373    .text.nvicClearPending:00000000 nvicClearPending
                            *COM*:00000001 __gnu_lto_v1
                     .debug_frame:00000010 $d

NO UNDEFINED SYMBOLS
