ARM GAS  /tmp/ccbQw3se.s 			page 1


   1              		.syntax unified
   2              		.cpu cortex-m3
   3              		.fpu softvfp
   4              		.eabi_attribute 20, 1
   5              		.eabi_attribute 21, 1
   6              		.eabi_attribute 23, 3
   7              		.eabi_attribute 24, 1
   8              		.eabi_attribute 25, 1
   9              		.eabi_attribute 26, 1
  10              		.eabi_attribute 30, 2
  11              		.eabi_attribute 34, 1
  12              		.eabi_attribute 18, 4
  13              		.thumb
  14              		.file	"test_root.c"
  15              		.text
  16              	.Ltext0:
  17              		.section	.gnu.lto_.jmpfuncs.9f9ffdeeb4d45d36,"",%progbits
  18 0000 789C6362 		.ascii	"x\234cb`b\300\006>\001q+\020\2630002U3\374j\230\321"
  18      6062C006 
  18      3E01712B 
  18      10B33030 
  18      30325533 
  19 0018 2090C9C8 		.ascii	" \220\311\310 \307\3008\267a\206C&##X\025\222\024\223"
  19      20C7C038 
  19      B7618643 
  19      26232358 
  19      15921493 
  20 002c 1C833844 		.ascii	"\034\2038D\212\031]\212E\216A\033\"\305\212E\227\031"
  20      8A195D8A 
  20      458E411B 
  20      22C58A45 
  20      9719
  21 003e 0E5D6C72 		.ascii	"\016]lr\014^\020)v,\272\202q\333\225\216\333\256\"\024"
  21      0C5E1029 
  21      762CBA82 
  21      71DB958E 
  21      DBAE2214 
  22 0052 5D40C8C0 		.ascii	"]@\310\300\014\"X\200\312\"\0303\0319@\276\022uL)K\314"
  22      0C225880 
  22      CA221833 
  22      193940BE 
  22      12754C29 
  23 0068 4B4E4D51 		.ascii	"KNMQ\310N-\312K\315Q\310\315OIe\020\326\322\322R\010"
  23      C84E2DCA 
  23      4BCD51C8 
  23      CD4F4965 
  23      10D6D2D2 
  24 007e C82F2A51 		.ascii	"\310/*Q\360\314K\313\267R\000\002\006.g ?\265B\327\327"
  24      F0CC4BCB 
  24      B7520002 
  24      062E6720 
  24      3FB542D7 
  25 0093 18220DE4 		.ascii	"\030\"\015\344\246*\204%\026e&\346\225X)0p8\006\371"
  25      A62A8425 
  25      166526E6 
  25      95582930 
  25      703806F9 
ARM GAS  /tmp/ccbQw3se.s 			page 2


  26 00a7 9699EBFA 		.ascii	"\226\231\353\372B$\035\213\22232KR\223KJ\213R\201\222"
  26      42241D8B 
  26      9233324B 
  26      52934B4A 
  26      8B528192 
  27 00bb 5CEECECE 		.ascii	"\\\356\316\316\012&z\026z\2060\275\271\005\2319\251"
  27      0A267A16 
  27      7A8630BD 
  27      B9059939 
  27      A9
  28 00cc 45609315 		.ascii	"E`\223\025\030\000\355\375Xi"
  28      1800EDFD 
  28      5869
  29              		.text
  30              		.section	.gnu.lto_.inline.9f9ffdeeb4d45d36,"",%progbits
  31 0000 789C6362 		.ascii	"x\234cb`b\300\006\246Ai\026\006\006\341[\014\214`Ul"
  31      6062C006 
  31      A6416916 
  31      0606E15B 
  31      0C8C6055 
  32 0015 0BE4C18A 		.ascii	"\013\344\301\212\231\270\031@\"D\223\214\014\334'@\034"
  32      99B81940 
  32      2244938C 
  32      0CDC2740 
  32      1C
  33 0026 9E179F99 		.ascii	"\236\027\237\231\221\014\001JL\360cf\3409\003\222\343"
  33      910C014A 
  33      4CF06366 
  33      E0390392 
  33      E3
  34 0037 5BB38A05 		.ascii	"[\263\212\005]\216\205\201C\000(\305\366A\017\315j\006"
  34      5D8E8581 
  34      430028C5 
  34      F6410FCD 
  34      6A06
  35 0049 0080DD0D 		.ascii	"\000\200\335\015M"
  35      4D
  36              		.text
  37              		.section	.gnu.lto_.pureconst.9f9ffdeeb4d45d36,"",%progbits
  38 0000 789C6362 		.ascii	"x\234cb`b\340d\200\000\026\006\011F\011f\011\026+\000"
  38      6062E064 
  38      80001606 
  38      09460966 
  38      09162B00 
  39 0014 02DE009C 		.ascii	"\002\336\000\234"
  40              		.text
  41              		.section	.gnu.lto_test_print_port_info.9f9ffdeeb4d45d36,"",%progbits
  42 0000 789C6362 		.ascii	"x\234cb`b@\007\222@\\\000\024\336\000\244\031\231\031"
  42      60624007 
  42      92405C00 
  42      14DE00A4 
  42      199919
  43 0013 1899269C 		.ascii	"\030\231&\234c`h\344`bd\0041\030\030\031\352\231\030"
  43      636068E4 
  43      60626404 
  43      31181819 
  43      EA9918
ARM GAS  /tmp/ccbQw3se.s 			page 3


  44 0026 EB2319C1 		.ascii	"\353#\031\301j\3273\035x\360\377\377\272\177\307\226"
  44      6AD7331D 
  44      78F0FFFF 
  44      BA7FC796 
  45 0036 FC619CCB 		.ascii	"\374a\234\313\304\005\024aehih\230\240\300\300\220\014"
  45      C4051461 
  45      65686968 
  45      98A0C0C0 
  45      900C
  46 0048 56110224 		.ascii	"V\021\002$A\332B\031\231@4\363y\206\226\007\247\026"
  46      41DA4219 
  46      994034F3 
  46      79869607 
  46      A716
  47 005a B327322E 		.ascii	"\263'2.dd\005JW3\374j\350h\020\310d\004*\207\230\010"
  47      6464054A 
  47      5733FC6A 
  47      E86810C8 
  47      64042A87 
  48 0070 1299D1D0 		.ascii	"\022\231\321\320`\233\311\310(\307\2403\267a\206C&P"
  48      609BC9C8 
  48      28C7A033 
  48      B7618643 
  48      2650
  49 0082 2B547D26 		.ascii	"+T}&\320=\014 #N?\306j\004\023\262\021\201\231\214,"
  49      D03D0C20 
  49      234E3FC6 
  49      6A0413B2 
  49      1181998C 
  50 0097 720C0E10 		.ascii	"r\014\016\020#X1\2148K\264+\274q\271\342\034q\256`\223"
  50      2358318C 
  50      384BB42B 
  50      BC71B9E2 
  50      1C71AE60 
  51 00ac 63888718 		.ascii	"c\210\207\030\301\216a\304\015\242]\221\201\313\025"
  51      C18E61C4 
  51      0DA25D91 
  51      81CB15
  52 00bb 37890E8B 		.ascii	"7\211\016\213\032\\aq\207hW\2643\342r\306]\342\234\301"
  52      1A5C6171 
  52      876857B4 
  52      33E272C6 
  52      5DE29CC1 
  53 00cf 21C7301B 		.ascii	"!\3070\033j\006'\212\031\027\031\032\037\334W\206\031"
  53      6A06278A 
  53      1917191A 
  53      1FDC5786 
  53      19
  54 00e0 01012140 		.ascii	"\001\001!@'\000S\015\310\014M==}\010*I-.\321/*\321/"
  54      2700530D 
  54      C80C4D3D 
  54      3D7D082A 
  54      492D2ED1 
  55 00f8 CE2F2D4A 		.ascii	"\316/-JN\205pAD|Q~~\211^2\203\260\226\226\226\202s~"
  55      4E857041 
  55      447C517E 
  55      7E895E32 
ARM GAS  /tmp/ccbQw3se.s 			page 4


  55      83B09696 
  56 0110 6E41664E 		.ascii	"nAfNj\221\225\002\0100p\271;;+\230\350Y\350\031B\244"
  56      6A919502 
  56      083070B9 
  56      3B3B2B98 
  56      E859E819 
  57 0126 1D8B9233 		.ascii	"\035\213\22232KR\223KJ\213R\255\024\0308\034\203|\313"
  57      324B5293 
  57      4B4A8B52 
  57      AD141838 
  57      1C837CCB 
  58 013a CC757D61 		.ascii	"\314u}az\213R\025\302\022\2132\023\363J\200\222\\@~"
  58      7A8B5215 
  58      C2128B32 
  58      13F34A80 
  58      925C407E 
  59 014e 496A85AE 		.ascii	"Ij\205\256\2571D:\000\310U\360\314K\313\007\233\315"
  59      AF31443A 
  59      00C855F0 
  59      CC4BCB07 
  59      9BCD
  60 0160 20EA9852 		.ascii	" \352\230R\226\230\227\234\232\242\220\235Z\224\227"
  60      9698979C 
  60      9AA2909D 
  60      5A9497
  61 016f 9AA3909B 		.ascii	"\232\243\220\233\237\222\312\000\00026\327)"
  61      9F92CA00 
  61      003236D7 
  61      29
  62              		.text
  63              		.section	.gnu.lto_test_terminate_threads.9f9ffdeeb4d45d36,"",%progbits
  64 0000 789C5D92 		.ascii	"x\234]\222\277k\024A\024\307\277\337\231\235\33551 "
  64      BF6B1441 
  64      14C7BFDF 
  64      999DDD35 
  64      3120
  65 0012 36B62190 		.ascii	"6\266!\220B\310\335a\343\377`\237\023\255BX\302\261"
  65      42C8DD61 
  65      E3FF609F 
  65      13AD4258 
  65      C2B1
  66 0024 851C5CCE 		.ascii	"\205\034\\\316*Efs'\244\021\202Xh4\220 \011\026\202"
  66      2A456673 
  66      27A41182 
  66      58683490 
  66      20091682 
  67 0038 7F804DAE 		.ascii	"\177\200M\256\220\344\212\030R\012\026\253\205\215\376"
  67      90E48A18 
  67      520A16AB 
  67      858DFE
  68 0047 01211C5C 		.ascii	"\001!\034\\\336\354\354\336E\207\335y\363f\336\373\274"
  68      DEECECDE 
  68      4587DD79 
  68      F366DEFB 
  68      BC
  69 0058 1F330A0A 		.ascii	"\0373\012\012\377\217\307\362\217\010\324D2\006\325"
  69      FF8FC7F2 
ARM GAS  /tmp/ccbQw3se.s 			page 5


  69      8F08D444 
  69      3206D5
  70 0067 CE37208B 		.ascii	"\3167 \213\025C\277\320*8y\010;c\206\367`o\0074~\333"
  70      1543BFD0 
  70      2A387908 
  70      3B6386F7 
  70      606F0734 
  71 007d F8F3411C 		.ascii	"\370\363A\034*\375r\0001\210zsb\020\221n\037\304\246"
  71      2AFD7200 
  71      31887A73 
  71      6210916E 
  71      1FC4A6
  72 0090 D2810923 		.ascii	"\322\201\011#n>\245\213\303\005\034X\373*\177q\364\223"
  72      6E3EA58B 
  72      C3051C58 
  72      FB2A7F71 
  72      F493
  73 00a2 6FED717F 		.ascii	"o\355q\177\337\216\306c2\245\344\264D$\304\023Q8_\010"
  73      DF8EC663 
  73      32A5E4B4 
  73      4424C413 
  73      51385F08 
  74 00b6 15FC9BE4 		.ascii	"\025\374\233\344gu\234\217\307\243\213O\277\366x7&V"
  74      67759C8F 
  74      C7A38B4F 
  74      BFF67837 
  74      2656
  75 00c8 79203C83 		.ascii	"y <\203\224:*\025\031\006}kw\346+=)\342.\313,\2315\251"
  75      943A2A15 
  75      19067D6B 
  75      77E62B3D 
  75      29E22ECB 
  76 00e0 44E821B6 		.ascii	"D\350!\266\362\335\257\341*?\320\224\216.\336$P\223"
  76      F2DDAFE1 
  76      2A3FD094 
  76      8E2EDE24 
  76      5093
  77 00f2 1A528E3E 		.ascii	"\032R\216>\303\326\217\313\243\201\362\206-\232\032"
  77      C3D68FCB 
  77      A381F286 
  77      2D9A1A
  78 0101 9624D83B 		.ascii	"\226$\330;\354f\326\336I\031l\340\312n\273\225yVx;\212"
  78      EC66D6DE 
  78      49196CE0 
  78      CA6EBB95 
  78      7956783B 
  79 0116 29102D4E 		.ascii	")\020-Nq\247\350\377\315\036L \316H\337\254\253\311"
  79      71A7E8FF 
  79      CD1E4C20 
  79      CE48DFAC 
  79      ABC9
  80 0128 005F6AFA 		.ascii	"\000_j\372\034\375\374\375\341\254\267\003&\3540)Y\342"
  80      1CFDFCFD 
  80      E1ACB703 
  80      26EC3029 
  80      59E2
  81 013a 9B32AA7C 		.ascii	"\2332\252|L\231bo\273\367\347\365\243\212\036I\340\242"
ARM GAS  /tmp/ccbQw3se.s 			page 6


  81      4C99626F 
  81      BBF7E7F5 
  81      A38A1E49 
  81      E0A2
  82 014c 16E73284 		.ascii	"\026\3472\204\272Yck\352\034B\356\307\365!\306\344\220"
  82      BA59636B 
  82      EA1C42EE 
  82      C7F521C6 
  82      E490
  83 015e 45A6BFB3 		.ascii	"E\246\277\263\250by\320\364\022\276\203e\233\324G-0"
  83      A86279D0 
  83      F412BE83 
  83      659BD447 
  83      2D30
  84 0170 F3E69663 		.ascii	"\363\346\226cE\256\245\027\310\362\275\305*w?\226\005"
  84      45AEA517 
  84      C8F2BDC5 
  84      2A773F96 
  84      05
  85 0181 D99B738F 		.ascii	"\331\233s\217\355~\275\336\360_wm\275\333\350t\033\353"
  85      ED7EBDDE 
  85      F05F776D 
  85      BDDBE874 
  85      1BEB
  86 0193 EDE79D64 		.ascii	"\355\347\235d\315\253nZ\351\264\333\335z\002\246\327"
  86      CDAB6E5A 
  86      E9B4DBDD 
  86      7A02A6D7 
  87 01a3 62768594 		.ascii	"bv\205\224"
  88              		.text
  89              		.section	.gnu.lto_test_wait_threads.9f9ffdeeb4d45d36,"",%progbits
  90 0000 789C9552 		.ascii	"x\234\225R\277k\024A\024\376\276\231\235\335M0 6\266"
  90      BF6B1441 
  90      14FEBE99 
  90      9DDD4D30 
  90      2036B6
  91 0013 41B01072 		.ascii	"A\260\020rw\330\330\371\007\010\226\271`\252\020\226"
  91      77D8D8F9 
  91      070896B9 
  91      60AA1096 
  92 0023 10B69083 		.ascii	"\020\266\220\203\313\245J\221\331\334\011i\204 \010"
  92      CBA54A91 
  92      D9DC0969 
  92      842008
  93 0032 519B8434 		.ascii	"Q\233\2044b\022S*\261\311\025\242W\250\244\020\024,"
  93      6212532A 
  93      B1C915A2 
  93      57A8A410 
  93      142C
  94 0044 364552F9 		.ascii	"6ER\371\007\210\010\347\233\235\335Kb\347cwf\336\257"
  94      078808E7 
  94      9B9DDD4B 
  94      62E76377 
  94      66DEAF
  95 0057 EF7DEFCD 		.ascii	"\357}\357\315((\374+3\362\337\027sMv\306\240\332\370"
  95      2828FC2B 
  95      33F2DF17 
ARM GAS  /tmp/ccbQw3se.s 			page 7


  95      734D76C6 
  95      A0DAF8
  96 006a 0C64B162 		.ascii	"\014d\261b\350\017Z\005\037\356\300\216\233\301u\330"
  96      E80F5A05 
  96      1FEEC08E 
  96      9BC175D8 
  97 007a 2B018D37 		.ascii	"+\001\2157\033\357\357\307\241\322\217\373\220\200\250"
  97      1BEFEFC7 
  97      A1D28FFB 
  97      9080A8
  98 0089 3B210111 		.ascii	";!\001\021\351\354 V\225\016L\030qu\226\256\016o`\333"
  98      E9EC2056 
  98      950E4C18 
  98      717596AE 
  98      0E6F60DB 
  99 009d DA27F9E9 		.ascii	"\332'\371\351\253\023>\263G\275-\373g8$S\012\247)\""
  99      AB133EB3 
  99      47BD2DFB 
  99      67382453 
  99      0AA72922 
 100 00b1 211E88C2 		.ascii	"!\036\210\302\311bS\301e\222\007\352(\037\016\367\276"
 100      C96253C1 
 100      659207EA 
 100      281F0EF7 
 100      BE
 101 00c2 FE3A39E4 		.ascii	"\376:9\344\2651b\236\333\202g\220R\307\245\"b\320\263"
 101      B531629E 
 101      DB826790 
 101      52C7A522 
 101      62D0B3
 102 00d5 7663B2D2 		.ascii	"vc\262\322\223\242\356\264\254\302\254I%\233\036`-\337"
 102      93A2EEB4 
 102      ACC2AC49 
 102      259B1E60 
 102      2DDF
 103 00e7 7F1FCE73 		.ascii	"\177\037\316s\207\246Lt\365F\205\232\324\220v\364'\254"
 103      87A64C74 
 103      F546859A 
 103      D49076F4 
 103      27AC
 104 00f9 FDF8B6DB 		.ascii	"\375\370\266\333W>p\221\246\206))\366\002\3173k\257"
 104      573E7091 
 104      A6862929 
 104      F602CF33 
 104      6BAF
 105 010b A60C56F0 		.ascii	"\246\014V\360\333\256\273\223yXd;\024S@,\362\034\356"
 105      DBAEBB93 
 105      7958643B 
 105      1453402C 
 105      F21CEE
 106 011e 237A3FB3 		.ascii	"#z?\263\333#\020\027\244/\366\325d\200w5\375\005\275"
 106      DB231017 
 106      A42FF6D5 
 106      64807735 
 106      FD05BD
 107 0131 FCE0D1B8 		.ascii	"\374\340\321\270\217\003F\330aRbIn\312\010\020Zo7_\037"
 107      8F0346D8 
ARM GAS  /tmp/ccbQw3se.s 			page 8


 107      61526249 
 107      6ECA0810 
 107      5A6F375F 
 108 0146 97B46AD8 		.ascii	"\227\264j\330\263\"w\377\233\330%\036Mq\373\226\273"
 108      B32277FF 
 108      9BD8251E 
 108      4D71FB96 
 108      BB
 109 0157 EBDD374F 		.ascii	"\353\3357O\357Ulc\211/f\343\262\006P\027g&\336*9\204"
 109      EF556C63 
 109      892F66E3 
 109      B2065017 
 109      6726DE2A 
 110 016d DCB79BAB 		.ascii	"\334\267\233\253X*'\213\316\317\262\250\302\362@\347"
 110      582A278B 
 110      CECFB2A8 
 110      C2F240E7 
 111 017d 97FA1D2C 		.ascii	"\227\372\035,\307\256^j\0013\233c\016+rWt\214,?\274"
 111      C7AE5E6A 
 111      01339B63 
 111      0E2B7257 
 111      748C2C3F 
 112 0192 59CDC2CB 		.ascii	"Y\315\302\313\264@v'\334\343\275U\2577\374\327YX\352"
 112      B4407627 
 112      DCE3BD55 
 112      AF37FCD7 
 112      5958EA
 113 01a5 34DA9DC6 		.ascii	"4\332\235\306Rk\271\235,x\325-s\355V\253SO\300\364/"
 113      526BB99D 
 113      2C78D52D 
 113      73ED56AB 
 113      534FC0F4 
 114 01ba 44D69701 		.ascii	"D\326\227\001"
 115              		.text
 116              		.section	.gnu.lto_test_wait_tick.9f9ffdeeb4d45d36,"",%progbits
 117 0000 789C8D53 		.ascii	"x\234\215SOH\024a\024\177of\326]5\303c\377X\027!(\252"
 117      4F481461 
 117      147F6F66 
 117      D65D35C3 
 117      63FF5817 
 118 0017 9DD443D7 		.ascii	"\235\324C\327\302.\202{q\015\254\3132\216\303\356\300"
 118      C22E827B 
 118      710DACCB 
 118      328EC3EE 
 118      C0
 119 0028 8E2333E3 		.ascii	"\216#3\343\242tpV\367\020\005!\013Q$R\226\011k\241T"
 119      A2747056 
 119      F7100521 
 119      0B512452 
 119      96096BA1 
 120 003d 0405125B 		.ascii	"\004\005\022['=\270b7\365\262\027\021\205\302\350\322"
 120      273DB862 
 120      37F5B217 
 120      1185C2E8 
 120      D2
 121 004e 1F707BDF 		.ascii	"\037p{\337\214\215\353f\3410\3377\3377\357}\277\367"
 121      8C8DEB66 
ARM GAS  /tmp/ccbQw3se.s 			page 9


 121      E130DF37 
 121      DF37EF7D 
 121      BFF7
 122 0060 FBBDDF0C 		.ascii	"\373\275\337\014\007\034T^\307iH<@\027\002 \017\310"
 122      071C545E 
 122      C769483C 
 122      40170220 
 122      0FC8
 123 0072 8D1600D2 		.ascii	"\215\026\000\322\001\016\221-\000a\210\303\241\353\350"
 123      010E912D 
 123      006188C3 
 123      A1EBE8
 124 0081 E4CE72F9 		.ascii	"\344\316r\371b\2514\263s{r\016_p\001\001T\004\037M,"
 124      62A934B3 
 124      737B720E 
 124      5F700101 
 124      54041F4D 
 125 0096 EA838C6D 		.ascii	"\352\203\214m\217\206\000d'\267\223f\006p\0159\366\344"
 125      8F860064 
 125      27B79366 
 125      06700D39 
 125      F6E4
 126 00a8 9720535C 		.ascii	"\227 S\\x\346\227p\002}\024\276\011?\355[v\275\212\234"
 126      78E69770 
 126      027D14BE 
 126      093FED5B 
 126      76BD8A9C 
 127 00bc 8C2E7617 		.ascii	"\214.v\027\022\016\022\030qY\200\341\000@#L\330v\266"
 127      120E1218 
 127      715980E1 
 127      0040234C 
 127      D876B6
 128 00cf F82EB7F8 		.ascii	"\370.\267\370\001\263#\366\274\235\311\227J\330\240"
 128      01B323F6 
 128      BC9DC997 
 128      4AD8A0
 129 00de A2C0C10D 		.ascii	"\242\300\301\015du\330\031_\310yT\011\373e\261w\002"
 129      6475D819 
 129      5FC87954 
 129      09FB65B1 
 129      7702
 130 00f0 B181020C 		.ascii	"\261\201\002\014\177\235\037\231:\341\361s\027\371o"
 130      7F9D1F99 
 130      3AE1F173 
 130      17F96F
 131 00ff 9FC6F833 		.ascii	"\237\306\3703\022>\305F\217|\376\371\275\357\265\247"
 131      123EC546 
 131      8F7CFEF9 
 131      BDEFB5A7 
 132 010f BC5DEEFE 		.ascii	"\274]\356\376\373:O\227K&\377c\365\3561\373qz\324\336"
 132      FB3A4F97 
 132      4B26FF63 
 132      F5EE31FB 
 132      717AD4DE 
 133 0123 212A4498 		.ascii	"!*D\230\203e\334\243R\357R\371\253\311\273\200w\326"
 133      8365DCA3 
 133      52EF52F9 
ARM GAS  /tmp/ccbQw3se.s 			page 10


 133      ABC9BB80 
 133      77D6
 134 0135 9BA9D74E 		.ascii	"\233\251\327N\007dt\222dR+\243@\2035\205\232\215\260"
 134      07647492 
 134      64522BA3 
 134      40833585 
 134      9A8DB0
 135 0148 42AF28C6 		.ascii	"B\257(\306\273V\005a\013\307\355\007\227U\364\357S\265"
 135      BB560561 
 135      0BC7ED07 
 135      9755F4EF 
 135      53B5
 136 015a 17FFBC1B 		.ascii	"\027\377\274\033\017\270\245\026\341\343\352\334\257"
 136      0FB8A516 
 136      E1E3EADC 
 136      AF
 137 0167 CD5C162B 		.ascii	"\315\\\026+\005oL\255\361|\231\270qO\234]zs\222\021"
 137      056F4CAD 
 137      F17C99B8 
 137      714F9C5D 
 137      7A739211 
 138 017b CB39C4AA 		.ascii	"\3139\304\252h\370i8\200q\024\316\301\264\235I\027\327"
 138      68F86938 
 138      807114CE 
 138      C1B49D49 
 138      17D7
 139 018d 960A5914 		.ascii	"\226\012Y\024T\254\036\203\207\244\237\254\253aljm\272"
 139      54AC1E83 
 139      87A49FAC 
 139      AB616C6A 
 139      6DBA
 140 019f 048758AD 		.ascii	"\004\207X\255C\240\233\331)\341kW\321\"\014\177\031"
 140      43A09BD9 
 140      29E16B57 
 140      D1220C7F 
 140      19
 141 01b0 392AE12B 		.ascii	"9*\341+\332\306\321Gp\216\273\333[\353\263k\350V\224"
 141      DAC6D147 
 141      708EBBDB 
 141      5BEBB36B 
 141      E85694
 142 01c3 70DAF1A0 		.ascii	"p\332\361\240\322\366\315B\245\355\022NR\333\016\341"
 142      D2F6CD42 
 142      A5ED124E 
 142      52DB0EE1 
 143 01d3 3BFCCFF7 		.ascii	";\374\317\367\255q\346\373\333\375\276?\252\013\226"
 143      AD71E6FB 
 143      DBFDBE3F 
 143      AA0B96
 144 01e2 7DC25E8F 		.ascii	"}\302^\217\346\353\366\372R\355\032Vs\200Y\022\316\320"
 144      E6EBF6FA 
 144      52ED1A56 
 144      73805912 
 144      CED0
 145 01f4 C22BFDC7 		.ascii	"\302+\375\307\034\011_b\320\245\265\014\351\355'+G\\"
 145      1C095F62 
 145      D0A5B50C 
ARM GAS  /tmp/ccbQw3se.s 			page 11


 145      E9ED272B 
 145      475C
 146 0206 F3E32E00 		.ascii	"\363\343.\000\373I\220\375\034,\371l8,\272\267\245\230"
 146      FB4990FD 
 146      1C2CF96C 
 146      382CBAB7 
 146      A598
 147 0218 966858A2 		.ascii	"\226hX\242\251\367\033\262\342n\331\0243t\335\012\313"
 147      A9F71BB2 
 147      E26ED914 
 147      3374DD0A 
 147      CB
 148 0229 70C1CBD4 		.ascii	"p\301\313\324MQ\3265M\357\025\373t\3032\305+\035\221"
 148      4D51D635 
 148      4DEF15FB 
 148      74C332C5 
 148      2B1D91
 149 023c D6C88028 		.ascii	"\326\310\200('d\335Pb\251KZ8\001\276\224\224\354W\232"
 149      2764DD50 
 149      62A94B5A 
 149      3801BE94 
 149      94EC579A 
 150 0250 0E38A30C 		.ascii	"\0168\243\014Xbk$\332\026\025\325^9\331\337\243\210"
 150      58626B24 
 150      DA1615D5 
 150      5E39D9DF 
 150      A388
 151 0262 B266AA66 		.ascii	"\262f\252f,.\313t\256\241\374\004\261\361r\022\346\240"
 151      2C2ECB74 
 151      AEA1FC04 
 151      B1F17212 
 151      E6A0
 152 0274 49F1E03F 		.ascii	"I\361\340?\343)\213\302~\312\262TM\251\217D;B\335\222"
 152      E3298BC2 
 152      7ECAB254 
 152      4DA98F44 
 152      3B42DD92 
 153 0288 A9F419EA 		.ascii	"\251\364\031\352\371\320\351\213\300\031\340\327\024"
 153      F9D0E98B 
 153      C019E0D7 
 153      14
 154 0295 4D3706A1 		.ascii	"M7\006\241\245\034\"!%wUD;#-\315b{\373U\261\263-\222"
 154      A51C2221 
 154      25775544 
 154      3B232DCD 
 154      627BFB55 
 155 02ad 6A629118 		.ascii	"jb\221\030\251O&{\010W<\244xV\333\240\374\337\347\001"
 155      A94F267B 
 155      08573CA4 
 155      7856DBA0 
 155      FCDFE701 
 156 02c1 4241     		.ascii	"BA"
 157              		.text
 158              		.section	.gnu.lto_.symbol_nodes.9f9ffdeeb4d45d36,"",%progbits
 159 0000 789C4DCD 		.ascii	"x\234M\315IR\002A\020@\321\374U]\315$\342F\206sy\240"
 159      49520241 
 159      1040D1FC 
ARM GAS  /tmp/ccbQw3se.s 			page 12


 159      555DCD24 
 159      E2468673 
 160 0016 24828D4B 		.ascii	"$\202\215KO\340\306\215\367`\317\005\034\240i\006Q\300"
 160      4FE0C68D 
 160      F760CF05 
 160      1CA06906 
 160      51C0
 161 0028 31581A76 		.ascii	"1X\032v\322\0256\265y\361#3\262\2348\271B\312\347\036"
 161      D21536B5 
 161      79F12333 
 161      B29C38B9 
 161      42CAE71E 
 162 003c 51919B89 		.ascii	"Q\221\233\211\210\352\3555n\206RexF\202\212\313Pw\262"
 162      88EAED35 
 162      6E865265 
 162      7846828A 
 162      CB5077B2 
 163 0050 3447FDC9 		.ascii	"4G\375\311\322\024\212\245\360\2043\036\360FN\"\005"
 163      D2148AA5 
 163      F084331E 
 163      F0464E22 
 163      05
 164 0061 0B82B124 		.ascii	"\013\202\261$5V\324\2145u\343\205\206\261\241i\274\322"
 164      3556D48C 
 164      3575E385 
 164      86B1A169 
 164      BCD2
 165 0073 32DE3833 		.ascii	"2\33683\266\264\215\035\347\306\236\216\361\316E\001"
 165      B6B48D1D 
 165      E7C69E8E 
 165      F1CE4501 
 166 0083 9F68527E 		.ascii	"\237hR~?\034\302\007\032\252\372B\323\252\276\321ZU"
 166      3F1CC207 
 166      1AAAFA42 
 166      D3AABED1 
 166      5A55
 167 0095 3F68FDBF 		.ascii	"?h\375\277\274te4\373-\274\224\273\243]\031\307\316"
 167      BC746534 
 167      FB2DBC94 
 167      BBA35D19 
 167      C7CE
 168 00a7 638FB238 		.ascii	"c\217\2628\317\342<vn\322\223\374\376\220z\337/M\006"
 168      CFE23C76 
 168      6ED293FC 
 168      FE907ADF 
 168      2F4D06
 169 00ba C77BF207 		.ascii	"\307{\362\007\246E_\201"
 169      A6455F81 
 170              		.text
 171              		.section	.gnu.lto_.refs.9f9ffdeeb4d45d36,"",%progbits
 172 0000 789C35C1 		.ascii	"x\2345\301\307\021\2000\014\0000[\\\350\201P6a\377\335"
 172      C7118030 
 172      0C00305B 
 172      5CE88150 
 172      3661FFDD 
 173 0014 78704842 		.ascii	"xpHB<\361\311\014\272\220J\321\377\353`4\231-V\325f"
 173      3CF1C90C 
ARM GAS  /tmp/ccbQw3se.s 			page 13


 173      BA904AD1 
 173      FFEB6034 
 173      992D56D5 
 174 0029 D71C4E97 		.ascii	"\327\034N\227;^\"\266\001\\"
 174      3B5E22B6 
 174      015C
 175              		.text
 176              		.section	.gnu.lto_.decls.9f9ffdeeb4d45d36,"",%progbits
 177 0000 789CA59B 		.ascii	"x\234\245\233\015p\024E\276\300\247gv\263Y\022\276\325"
 177      0D701445 
 177      BEC0A767 
 177      76B35912 
 177      BED5
 178 0012 87752AE1 		.ascii	"\207u*\341N\337;\255\007\311\022D\254zw\300\005\012"
 178      4EDF3BAD 
 178      07C91244 
 178      AC7A77C0 
 178      050A
 179 0024 AD927B54 		.ascii	"\255\222{T\202\357Yu\365\336\336\260\031\310\036\233"
 179      82EF5975 
 179      F5DEDEB0 
 179      19C81E9B 
 180 0034 DDBCDD09 		.ascii	"\335\274\335\011\201\272W\345\020(\340\020\216\220\200"
 180      81BA57E5 
 180      1028E010 
 180      8E9080
 181 0043 443E42F8 		.ascii	"D>B\370P\020\025\021D@0,\010\030\203b\370\376\022XD"
 181      50101511 
 181      4440302C 
 181      08188362 
 181      F8FE1258 
 182 0058 0CF03C45 		.ascii	"\014\360<E\020\025\002\354\373w\317\314\316\307\366"
 182      101502EC 
 182      FB77CFCC 
 182      CEC7F6
 183 0067 ECCEC014 		.ascii	"\354\316\300\024\335\314L\272\177\377\177\377\373\337"
 183      DDCC4CBA 
 183      7FFF7FFF 
 183      FBDF
 184 0075 DDFFE999 		.ascii	"\335\377\351\231e\031\226y\204e\230$\034\333\2062\314"
 184      65199679 
 184      84659824 
 184      1CDB8632 
 184      CC
 185 0086 EFBA308C 		.ascii	"\357\2720\214\233a\230\337C\362BZ\001i%\2445\220\326"
 185      9B6198DF 
 185      43F2425A 
 185      016925A4 
 185      3590D6
 186 0099 425A07E9 		.ascii	"BZ\007\351-H\357@Z\017i\003#\037\270\354\026H\333!\265"
 186      2D48EF40 
 186      5A0F6903 
 186      231FB8EC 
 186      1648DB21 
 187 00ae 40DA0569 		.ascii	"@\332\005i/\244\375\220>\207T\203\030\346\257\220z\302"
 187      2FA4FD90 
 187      3E875483 
ARM GAS  /tmp/ccbQw3se.s 			page 14


 187      18E6AF90 
 187      7AC2
 188 00c0 F9CBF0FF 		.ascii	"\371\313\360\3774Hs!-\206\264\031\322VH\333!\265@\332"
 188      34487321 
 188      2D86B419 
 188      D25648DB 
 188      21B540DA 
 189 00d4 05690FA4 		.ascii	"\005i\017\244O \265A\372\034R;\244\303\220\216A:\211"
 189      4F20B541 
 189      FA1C523B 
 189      A4C3908E 
 189      413A89
 190 00e7 18C381E5 		.ascii	"\030\303\201\345\202\332\314i\244\351\271\217\242\253"
 190      82DACC69 
 190      A4E9B98F 
 190      A2AB
 191 00f5 DA167C70 		.ascii	"\332\026|pJ\275\375\212\236\346\003\267#\227\221m\321"
 191      4ABDFD8A 
 191      9EE603B7 
 191      2397916D 
 191      D1
 192 0106 0D523EA4 		.ascii	"\015R>\244vH\022\310\370\022\322\031H\007\224\262\254"
 192      764812C8 
 192      F812D219 
 192      480794B2 
 192      AC
 193 0117 521EB713 		.ascii	"R\036\267\023)\355\323\037-YXg!MF\032\253E\261\027\215"
 193      29EDD31F 
 193      2D595867 
 193      214D461A 
 193      AB45B117 
 194 012c B54BA9EF 		.ascii	"\265K\251\357Ql\177\016\376\376\277\220:t\354\004\\"
 194      516C7F0E 
 194      FEFEBF90 
 194      3A74EC04 
 194      5C
 195 013d 7F05E96B 		.ascii	"\177\005\351kH\027!\375\023+\263nC\226\2470p_\364\201"
 195      481721FD 
 195      132BB36E 
 195      4396A730 
 195      705FF481 
 196 0151 FBBF82F4 		.ascii	"\373\277\202\364\030\244~\220\236\202\324\037R\021\244"
 196      18A47E90 
 196      9E82D41F 
 196      5211A4
 197 0160 624883D9 		.ascii	"bH\203\331t\273\3441\263%\251Vj\236!=\327\332\255'S"
 197      74BBE431 
 197      B325A956 
 197      6A9E213D 
 197      D7DAAD27 
 198 0175 27C151D0 		.ascii	"'\301Q\320\330\315\313\314\302\267\023\257K}\3720\314"
 198      D8CDCBCC 
 198      C2B713AF 
 198      4B7DFA30 
 198      CC
 199 0186 4B884770 		.ascii	"K\210Gp+\227\234\344{\211\360'\230\325P\024\312\263"
 199      2B979CE4 
ARM GAS  /tmp/ccbQw3se.s 			page 15


 199      7B89F027 
 199      98D55014 
 199      CAB3
 200 0198 3C5A85BC 		.ascii	"<Z\205\274\320P\026\245\343\361!\377\035\037\270\272"
 200      D05016A5 
 200      E3F121FF 
 200      1D1FB8BA 
 201 01a8 7CAE9E25 		.ascii	"|\256\236%Q\212\276\026\251\370\007\225j+QOrF\224\221"
 201      518ABE16 
 201      A9F80795 
 201      6A2B514F 
 201      72469491 
 202 01bc 141D4909 		.ascii	"\024\035I\011\245J\201Z\303\245\324xC'(\337\253\235"
 202      A54A815A 
 202      C3A5D478 
 202      432728DF 
 202      AB9D
 203 01ce 3CA0A862 		.ascii	"<\240\250bUo\005\312\313b\020Y]\245~cJ\325\336\012`"
 203      556F05CA 
 203      CB621059 
 203      5DA57E63 
 203      4AD5DE0A 
 204 01e3 AD6355DF 		.ascii	"\255cU\337\264P\265W\026U\3278Su\214Z\277\213R\377-"
 204      B450B557 
 204      1655D738 
 204      53758C5A 
 204      BF8B52FF 
 205 01f8 C79ABE6D 		.ascii	"\307\232\276m\241\2517\213\246\3532k\332<\314\244\352"
 205      A1A9378B 
 205      A6EB326B 
 205      DA3CCCA4 
 205      EA
 206 0209 301590AB 		.ascii	"0\025\220\253\000\326;V\365]\013U=YT}GSU\361|i\206\364"
 206      00D63B56 
 206      F55D0B55 
 206      3D59547D 
 206      475355F1 
 207 0221 DBB5DD52 		.ascii	"\333\265\335R5z\2505\360\020\"\256_\227xw\311\203\222"
 207      357AA835 
 207      F01022AE 
 207      5F977877 
 207      C98392
 208 0234 8B471B88 		.ascii	"\213G\033\210\363\377+b\236b\336\224G\304\356_\245\215"
 208      F3FF2B62 
 208      9E62DE94 
 208      47C4EE5F 
 208      A58D
 209 0246 0127DCCE 		.ascii	"\001'\334\316m\037s\222\224\313\243\367\011y>B\240\341"
 209      6D1F7392 
 209      94CBA3F7 
 209      09793E42 
 209      A0E1
 210 0258 26F49402 		.ascii	"&\364\224\002\342\021\347\325\203\311\265Z\000\3238"
 210      E211E7D5 
 210      83C9B55A 
 210      00D338
 211 0267 AF76924C 		.ascii	"\257v\222Lr\214\263\302}\231&\2519\221\270\321v\216"
ARM GAS  /tmp/ccbQw3se.s 			page 16


 211      728CB3C2 
 211      7D9926A9 
 211      3991B8D1 
 211      768E
 212 0279 7F4D8A4F 		.ascii	"\177M\212O\227\222\311\227\231\207\230\205J\007HH\344"
 212      9792C997 
 212      99879885 
 212      4A074848 
 212      E4
 213 028a D1EF1FB4 		.ascii	"\321\357\037\2644\344V\364\220r\366\242\"\230\205\251"
 213      34E456F4 
 213      9072F6A2 
 213      229885A9 
 214 029a DFD80086 		.ascii	"\337\330\000\206\371g\346u\314\223\326J\034\241\341"
 214      F967E675 
 214      CC93D64A 
 214      1CA1E1
 215 02a9 F25B505F 		.ascii	"\362[P_\243\242\333\220a\272\222\365\2127\265\345\327"
 215      A3A2DB90 
 215      61BA92F5 
 215      8A37B5E5 
 215      D7
 216 02ba 4D4D2493 		.ascii	"MM$\223}eY,,\036v\350\333\315\364\035T\372\0213\375"
 216      7D65592C 
 216      2C1E76E8 
 216      DBCDF41D 
 216      54FA1133 
 217 02cf AA2D7A8B 		.ascii	"\252-z\213\231\276\223JO\266\315}Xj\256\215'\223C\315"
 217      99BE934A 
 217      4FB6CD7D 
 217      586AAE8D 
 217      279343CD 
 218 02e3 26DD80AC 		.ascii	"&\335\200\254\235z7\305\246\265,U\257Zi\303Z\311-\343"
 218      9D7A37C5 
 218      A6B52C55 
 218      AF5A69C3 
 218      5AC92DE3 
 219 02f7 70855DA0 		.ascii	"p\205]\240\030\315\323\024\336\307\351j&\352\022\207"
 219      18CDD314 
 219      DEC7E96A 
 219      26EA1287 
 220 0307 0F7D578B 		.ascii	"\017}W\213\346Okn\225\256&\223\335\035t\376>EQN\226"
 220      E64F6B6E 
 220      95AE2693 
 220      DD1D74FE 
 220      3E45514E 
 221 031c 6118F4A9 		.ascii	"a\030\364\251\005%\336\247Qs\177\303\212\302\243\325"
 221      0525DEA7 
 221      51737FC3 
 221      8AC2A3D5 
 222 032c E809BBAB 		.ascii	"\350\011\273\253E\232\360Vm\010k\206\"\266Z\237f+\271"
 222      459AF056 
 222      6D086B86 
 222      22B65A9F 
 222      662BB9
 223 033f 501BADF5 		.ascii	"P\033\255\365\361\255\373\347HHu\202}\304\011\266[\000"
 223      F1ADFBE7 
ARM GAS  /tmp/ccbQw3se.s 			page 17


 223      48487582 
 223      7DC409B6 
 223      5B00
 224 0351 3EA39A6F 		.ascii	">\243\232o\351\253{\\\257I\273\235\216\234\003\031\214"
 224      E9AB7B5C 
 224      AF49BB9D 
 224      8E9C0319 
 224      8C
 225 0362 D78B994F 		.ascii	"\327\213\231O\346\366V\315r\315.\0250\202I\315\034\337"
 225      E6F656CD 
 225      72CD2E15 
 225      308249CD 
 225      1CDF
 226 0374 2F7F14CF 		.ascii	"/\177\024\317H\007Q/\200\\1i\235\025\3022\327I\225#"
 226      4807512F 
 226      805C3169 
 226      9D15C232 
 226      D7499523 
 227 0388 505DAE28 		.ascii	"P]\256(\257\361\211\316Egj\321Th\201\3747\206b\014\345"
 227      AFF189CE 
 227      45676AD1 
 227      546881FC 
 227      3786620C 
 228 039d E8C73443 		.ascii	"\350\3074C\205\370\317mK\221\324\274\033QD\032&yE\355"
 228      85F8CF6D 
 228      4B91D4BC 
 228      1B51441A 
 228      267945ED 
 229 03b1 79575A5D 		.ascii	"yWZ]d\302;A\024o\342\250\2127\017\263\302@\027\223*"
 229      64C23B41 
 229      146FE2A8 
 229      8A370FB3 
 229      C2401793 
 230 03c6 A7D3143F 		.ascii	"\247\323\024?\376\205\252\370i\033\212\327\306\017\316"
 230      FE85AAF8 
 230      691B8AD7 
 230      C60FCE
 231 03d5 5EF63056 		.ascii	"^\3660V\234G\355\340N,\2633\305\245u[j\225Q\275\265"
 231      9C47EDE0 
 231      4E2CB333 
 231      C5A5755B 
 231      6A9551BD 
 232 03ea 9BD7C43B 		.ascii	"\233\327\304;\004\363\011\257\302\3668\206\025\320T"
 232      04F309AF 
 232      C2F63886 
 232      15D054
 233 03f9 55BD4F6B 		.ascii	"U\275Ok-\217\316\220\201s\026\365\203<\001y\352`\231"
 233      2D8FCE90 
 233      817316F5 
 233      833C0179 
 233      EA6099
 234 040c 4F39B54F 		.ascii	"O9\265Oi\246\313\336\204\233mK\211I\224\001,;$}\030"
 234      69A6CBDE 
 234      849B6D4B 
 234      89499401 
 234      2C3B247D 
 235 0421 2ADDB9B3 		.ascii	"*\335\271\263i\317A4\215X\375k\262\202\315r\031;\324"
ARM GAS  /tmp/ccbQw3se.s 			page 18


 235      69CF4134 
 235      8D58FD6B 
 235      B282CD72 
 235      193BD4
 236 0434 3EAA73C5 		.ascii	">\252s\305\334B\342\031\035\004T\3472/\205\036\323R"
 236      DC42E219 
 236      1D0454E7 
 236      322F851E 
 236      D352
 237 0446 E831AE6E 		.ascii	"\3501\256n\036\257v\202\237\210\2723N\213\263\314k."
 237      1EAF7682 
 237      9F88BA33 
 237      4E8BB3CC 
 237      6B2E
 238 0458 930169DD 		.ascii	"\223\001i\335\226ke@\354\204g\353Q\3034\251\265Hu\344"
 238      966B6540 
 238      EC8467EB 
 238      51C334A9 
 238      B54875E4 
 239 046c 1CAB5683 		.ascii	"\034\253V\203\357\023a\337\232\035y\313\205\326'\033"
 239      EF1361DF 
 239      9A1D79CB 
 239      85D6271B 
 240 047c 25A987FC 		.ascii	"%\251\207\374\247\354~\274\271m\021\351\264\254\263"
 240      A7EC7EBC 
 240      B96D11E9 
 240      B4ACB3
 241 048b 08AB8A7F 		.ascii	"\010\253\212\177\234\210?J\304\377`\026\337\320\321"
 241      9C883F4A 
 241      C4FF6016 
 241      DFD0D1
 242 049a FA2759FC 		.ascii	"\372'Y\374\017\266\304o;\276 ]\274\345\354\247\364\365"
 242      0FB6C46F 
 242      3BBE205D 
 242      BCE5ECA7 
 242      F4F5
 243 04ac 960B971E 		.ascii	"\226\013\227\036YN\204\334 \303e\236\333\334\331C\363"
 243      594E84DC 
 243      20C3659E 
 243      DBDCD943 
 243      F3
 244 04bd F4B2C8B5 		.ascii	"\364\262\310\265\256\000\3134\272U\355\357i\264B3/\375"
 244      AE00CB34 
 244      BA55EDEF 
 244      69B44233 
 244      2FFD
 245 04cf D79B1B25 		.ascii	"\327\233\033%\351o9\252\016K\034\023\013\014\206\330"
 245      E96F39AA 
 245      0E4B1C13 
 245      0B0C86D8 
 246 04df 719C8C7F 		.ascii	"q\234\214\177\031\326d\007f\351H\265\361\026=l\205c"
 246      19D66407 
 246      66E948B5 
 246      F1163D6C 
 246      8563
 247 04f1 9851B376 		.ascii	"\230Q\263v=l\265\035X\017k\315\016\351ak\034\303\214"
 247      3D6CB51D 
ARM GAS  /tmp/ccbQw3se.s 			page 19


 247      580F6BCD 
 247      0EE9616B 
 247      1CC38C
 248 0504 9A1DD1C3 		.ascii	"\232\035\321\303\326\331\201\365\261\326\354\230\036"
 248      D6D981F5 
 248      B1D6EC98 
 248      1E
 249 0511 B6DE31CC 		.ascii	"\266\3361\314\250\331\011=l\243\035X\001E\263\324a\025"
 249      A8D9093D 
 249      6CA31D58 
 249      0145B3D4 
 249      6115
 250 0523 095CD522 		.ascii	"\011\\\325\"\031\226\331\354V'\004\207>\315h\214\255"
 250      1996D9EC 
 250      56270487 
 250      3ECD688C 
 250      AD
 251 0534 6EA73398 		.ascii	"n\2473\230\241\3350\203\235[)\317`\352R\266\303\016"
 251      A1DD3083 
 251      9D5B29CF 
 251      60EA52B6 
 251      C30E
 252 0546 3183C3D4 		.ascii	"1\203\303\324\355\327\255\213\273\035\303\214\335\322"
 252      EDD7AD8B 
 252      BB1DC38C 
 252      DDD2
 253 0554 24C35A09 		.ascii	"$\303Z\011\254\325\016,\203\303\264c\030-r\215\317\220"
 253      ACD50E2C 
 253      83C3B463 
 253      182D728D 
 253      CF90
 254 0566 66A1A9EF 		.ascii	"f\241\251\357=\2221\222\2019\354\321ud\016k`\361\202"
 254      3D923192 
 254      8139ECD1 
 254      75640E6B 
 254      60F182
 255 0579 F5B99BBA 		.ascii	"\365\271\233\272\362\331bu\236\237\367od\355{\225\240"
 255      F2D96275 
 255      9E9FF76F 
 255      64ED7B95 
 255      A0
 256 058a 4EA44D87 		.ascii	"N\244M\207^\323\332\3475.f^\257v\222T\017\343\026\215"
 256      5ED3DAE7 
 256      352E665E 
 256      AF769254 
 256      0FE3168D 
 257 059e ED3A56AE 		.ascii	"\355:V\256Z\317\352\\\365\274c\323\233\335\354\247z"
 257      5ACFEA5C 
 257      F5BC63D3 
 257      9BDDECA7 
 257      7A
 258 05af 74BD566A 		.ascii	"t\275Vj,\322\355>Y=,\250\261\306\331\226\337\021#-!"
 258      2CD2ED3E 
 258      593D2CA8 
 258      B1C6D996 
 258      DF11232D 
 259 05c4 46BA44B7 		.ascii	"F\272D\267\267\015P\347\345[,\0015\021\320\017i\326"
ARM GAS  /tmp/ccbQw3se.s 			page 20


 259      B70D50E7 
 259      E55B2C01 
 259      3511D00F 
 259      69D6
 260 05d6 46266B23 		.ascii	"F&k#\243\345R\317)\312c\212\223\262,s\323l:\203\212"
 260      A3E552CF 
 260      29CA638A 
 260      93B22C73 
 260      D36C3A83 
 261 05eb 19269394 		.ascii	"\031&\223\224\351n;7]\223b\272U\244\305\311\264\026"
 261      E96E3B37 
 261      5D9362BA 
 261      55A4C5C9 
 261      B416
 262 05fd 634B386B 		.ascii	"cK8k\306\314\034\247\315\31056cQ\362\036\232\261Sn\306"
 262      C6CC1CA7 
 262      CDC83536 
 262      6351F21E 
 262      9AB1536E 
 263 0612 5AD28CB9 		.ascii	"Z\322\214\2719\367\337\214\205\216\233\321C\327\014"
 263      39F7DF8C 
 263      858E9BD1 
 263      43D70C
 264 0621 F2D8B140 		.ascii	"\362\330\261@\236/{3\365\231#>\262\371\304\3666\204"
 264      9E2F7B33 
 264      F599233E 
 264      B2F9C4F6 
 264      3684
 265 0633 5BF1A307 		.ascii	"[\361\243\007P\201|;\373\243\326\365\003\272\360\\\262"
 265      50817C3B 
 265      FBA3D6F5 
 265      03BAF05C 
 265      B2
 266 0644 159E9F4D 		.ascii	"\025\236\237M\205\347\033\210\311\026\347P\006\215-"
 266      85E71B88 
 266      C916E750 
 266      068D2D
 267 0653 54E79D39 		.ascii	"T\347\2359\375\211\3557\021Ps\232\355sL\246\3171\232"
 267      FD89ED37 
 267      1150739A 
 267      ED734CA6 
 267      CF319A
 268 0666 1E2EB1A4 		.ascii	"\036.\261\244_\310,\363\262r\007_x\230{\256\3072k\211"
 268      5FC82CF3 
 268      B272075F 
 268      78987BAE 
 268      C7326B89 
 269 067a 1AD87CF7 		.ascii	"\032\330|\367\022\006\342\307\335\257\033\324\345N\266"
 269      1206E2C7 
 269      DDAF1BD4 
 269      E54EB6
 270 0689 D0BBF745 		.ascii	"\320\273\367E\254\215/\237\247>V\016\305k\324\326\373"
 270      AC8D2F9F 
 270      A73E560E 
 270      C56BD4D6 
 270      FB
 271 069a C4EDF8C2 		.ascii	"\304\355\370\302\274F\231\002\355\203\026s\260\372\274"
ARM GAS  /tmp/ccbQw3se.s 			page 21


 271      BC469902 
 271      ED831673 
 271      B0FABC
 272 06a9 7D2121CF 		.ascii	"}!!\317u\037\261\344!7\255\333\332\221)\322\3067tE\254"
 272      751FB1E4 
 272      2137ADDB 
 272      DA9129D2 
 272      C6377445 
 273 06be 3C79877E 		.ascii	"<y\207~98t\277\335p\374\206\251\033N\334\247\335n*\335"
 273      393874BF 
 273      DD70FC86 
 273      A91B4EDC 
 273      A7DD6E2A 
 274 06d3 90EDA9E8 		.ascii	"\220\355\251\350\317*+\2374$A\304\356eM\017E\333\177"
 274      CF2A2B9F 
 274      342441C4 
 274      EE654D0F 
 274      45DB7F
 275 06e6 4ECC40B5 		.ascii	"N\314@\265d\034\341\277e\037\252\247/z\245\372|y\227"
 275      641CE1BF 
 275      651FAAA7 
 275      2F7AA5FA 
 275      7C7997
 276 06f9 83475F21 		.ascii	"\203G_!V\241\322b\200\254\346\211\237\025Z\213\234\014"
 276      56A1D262 
 276      80ACE689 
 276      9F155A8B 
 276      9C0C
 277 070b FA7DEAA0 		.ascii	"\372}\352\240o\223\347I\217\271\3237\231\347IG\203\256"
 277      6F93E749 
 277      8FB9D337 
 277      99E74947 
 277      83AE
 278 071d C1838CCD 		.ascii	"\301\203\214\315\261\373p\223:\254\234j\217\336\251"
 278      B1FB7093 
 278      3AAC9C6A 
 278      8FDEA9
 279 072c 1679EECB 		.ascii	"\026y\356\313\005\300\251\366\255\226\235*\233\023H"
 279      05C0A9F6 
 279      AD969D2A 
 279      9B1348
 280 073b A9773C3D 		.ascii	"\251w<=\210\344&\"\371\240\331\013\226w\266\316T\266"
 280      88E42622 
 280      F9A0D90B 
 280      9677B6CE 
 280      54B6
 281 074d 980EDAF2 		.ascii	"\230\016\332\362\202\033\024/8x\217^\000.}\371SDpr("
 281      821B142F 
 281      38788F5E 
 281      002E7DF9 
 281      53447072 
 282 0762 FD494A49 		.ascii	"\375IJI\207\275\240\340n\013N\015#\373W\374\344E\274"
 282      87BDA0E0 
 282      6E0B4E0D 
 282      23FB57FC 
 282      E445BC
 283 0775 649D64F1 		.ascii	"d\235d\361\376\335\347i\256%[F\347Z\232\031yt\230\305"
ARM GAS  /tmp/ccbQw3se.s 			page 22


 283      FEDDE769 
 283      AE255B46 
 283      E75A9A19 
 283      797498C5 
 284 0789 7B574758 		.ascii	"{WGX\274wu\224\344\307Y\335\016\226\225[\234`u\373\275"
 284      BC777594 
 284      E4C759DD 
 284      0E96955B 
 284      9C6075FB 
 285 079e E7CC66B4 		.ascii	"\347\314f\264\373\204\223UL\273\336\373\216\336\247"
 285      FB849355 
 285      4CBBDEFB 
 285      8EDEA7
 286 07ad F7DD3A7E 		.ascii	"\367\335:~\300\205_\252p\0166\323\316\356U\007\356Y"
 286      C0855FAA 
 286      700E36D3 
 286      CEEE5507 
 286      EE59
 287 07bf 3270BF4C 		.ascii	"2p\277L\263n\20794\265\263\253u\351^\233\222"
 287      B36E8739 
 287      34B5B3AB 
 287      75E95E9B 
 287      92
 288 07d0 3A58E67B 		.ascii	":X\346{\217\215\200\277\200b\365\324B{l\201\315\235"
 288      8F8D80BF 
 288      8062F5D4 
 288      427B6C81 
 288      CD9D
 289 07e2 31F595DB 		.ascii	"1\365\225\3337qy\247\370k\342i?\230lac\203M\312\305"
 289      377179A7 
 289      F86BE269 
 289      3F986C61 
 289      63834DCA 
 290 07f7 553ACCC3 		.ascii	"U:\314\303\270s\321g\352Nq\207\215a\\\033\337d\330)"
 290      B873D167 
 290      EA4E7187 
 290      8D615C1B 
 290      DF64D829 
 291 080b 563DB023 		.ascii	"V=\260#\263\007f\264\247\241\013;t\003\3442\031 W\364"
 291      B30766B4 
 291      A7A10B3B 
 291      7403E432 
 291      192057F4 
 292 081f 838265EA 		.ascii	"\203\202e\352rm\330\376\267V\256\010\323\320!y\213^"
 292      726DD8FE 
 292      B756AE08 
 292      D3D02179 
 292      8B5E
 293 0831 DD746F34 		.ascii	"\335to4\363h\023\221\201\247\357Kx\242?L\036\302e\037"
 293      F3681391 
 293      81A7EF4B 
 293      78A23F4C 
 293      1EC2651F 
 294 0845 5D6147B9 		.ascii	"]aG\271\"k\330\362\206\224qI\204\262\316\016o\210Uc"
 294      226BD8F2 
 294      86947149 
 294      84B2CE0E 
ARM GAS  /tmp/ccbQw3se.s 			page 23


 294      6F885563 
 295 0859 6BE35B0E 		.ascii	"k\343[\016/Ux\362\206\364F\307<\243~G\033\014\361\334"
 295      2F5578F2 
 295      86F446C7 
 295      3CA37E47 
 295      1B0CF1DC 
 296 086d 763BB861 		.ascii	"v;\270a\266\373^{\377\302\243cdc\3778\331\330\277@\362"
 296      B6FB5E7B 
 296      FFC2A363 
 296      6463FF38 
 296      D9D8BF40 
 297 0882 FF23F92B 		.ascii	"\377#\371+d\242\234K\362y$\237O\362\305$_I\3625$\177"
 297      64A29C4B 
 297      F279249F 
 297      4FF2C524 
 297      5F49F235 
 298 0898 9BE41748 		.ascii	"\233\344\027H\376-\311\277#\371U\222_#\371\217v&\\S"
 298      FE2DC9BF 
 298      23F95592 
 298      5F23F98F 
 298      76265C53 
 299 08ac 0C687AC9 		.ascii	"\014hz\311\266+\227\376\216\354'\226\366\216l\331\261"
 299      B62B97FE 
 299      8EEC2796 
 299      F68E6CD9 
 299      B1
 300 08bd BB0DD6AF 		.ascii	"\273\015\326\257\030q\264g\245\305/\254\3415\231\252"
 300      1871B467 
 300      A5C52FAC 
 300      E13599AA 
 301 08cd 96419776 		.ascii	"\226A\227v\013]n\321t\211o\252\237\363\260\264\202\372"
 301      0B5D6ED1 
 301      74896FAA 
 301      9FF3B0B4 
 301      82FA
 302 08df 5636C3EB 		.ascii	"V6\303\353\272\333f=6\220\307J\203\036\247,\364\270"
 302      BADB663D 
 302      3690C74A 
 302      831EA72C 
 302      F4B8
 303 08f1 6BD4E3D7 		.ascii	"k\324\343\327\314\012)\321\236\270\321v\373=\004\363"
 303      CC0A29D1 
 303      9EB8D176 
 303      FB3D04F3 
 304 0901 572B8C4E 		.ascii	"W+\214N\210\260\372\252\037t\340\200\0367R\321\2449"
 304      88B0FAAA 
 304      1F74E080 
 304      1E3752D1 
 304      A439
 305 0913 B5FC3EA0 		.ascii	"\265\374>\240\340$\316\351g\022S9\372g\022\256\224\352"
 305      E024CEE9 
 305      67125339 
 305      FA6712AE 
 305      94EA
 306 0925 1753AA5B 		.ascii	"\027S\252[\212\255\345X}\0136\304\343w>Y\000s\012\204"
 306      8AADE558 
 306      7D0B36C4 
ARM GAS  /tmp/ccbQw3se.s 			page 24


 306      E3773E59 
 306      00730A84 
 307 0939 C477417F 		.ascii	"\304wA\177M\375T@\021\317\364\026 }C\337B\262\336.C"
 307      4DFD5440 
 307      11CFF416 
 307      207D43DF 
 307      42B2DE2E 
 308 094e 33986586 		.ascii	"3\230e\206b\026\255\271\346K\226\371G\366f\316T\232"
 308      6216ADB9 
 308      E64B96F9 
 308      47F666CE 
 308      549A
 309 0960 3988D924 		.ascii	"9\210\331$\315\212\217\341\321t\340\246\206\361_\231"
 309      CD8A8FE1 
 309      D174E0A6 
 309      86F15F99 
 310 0970 5B1258BD 		.ascii	"[\022X\275\332\362S\234&\315\227\343\343U\366\245|\005"
 310      DAF2539C 
 310      26CD97E3 
 310      E355F6A5 
 310      7C05
 311 0982 FE8AE3AE 		.ascii	"\376\212\343\256\233c\321u\035\371\214\301ji\025gs\251"
 311      9B63D175 
 311      1DF98CC1 
 311      6A691567 
 311      73A9
 312 0994 404676B8 		.ascii	"@Fv\270\370\311\231\357\242\272\3469\260\372\221w\335"
 312      F8C999EF 
 312      A2BAE639 
 312      B0FA9177 
 312      DD
 313 09a5 581796B9 		.ascii	"X\027\226\271j\266\210Ak\342\355,s\033\012)\216\217"
 313      6AB68841 
 313      6BE2ED2C 
 313      731B0A29 
 313      8E8F
 314 09b7 FFE64EED 		.ascii	"\377\346N\355\343\020I\177\347\364\356\255`\0203\202"
 314      E310497F 
 314      E7F4EEAD 
 314      60103382 
 315 09c7 F9184C15 		.ascii	"\371\030L\025O\316\374\027\322o\252\345d\315`.\343~"
 315      4FCEFC17 
 315      D26FAAE5 
 315      64CD602E 
 315      E37E
 316 09d9 AD6B572B 		.ascii	"\255kW+\253\253\313\252u\347\317\266S\267\316\255\253"
 316      ABABCBAA 
 316      75E7CFB6 
 316      53B7CEAD 
 316      AB
 317 09ea CBA9751B 		.ascii	"\313\251u\033l\325=\341\321\325u\251u\027\332\252\333"
 317      6CD53DE1 
 317      D1D575A9 
 317      7517DAAA 
 317      DB
 318 09fb DC45336F 		.ascii	"\334E3os<~\343\037\020\350Kd\202\243\214\005\303S{\\"
 318      733C7EE3 
ARM GAS  /tmp/ccbQw3se.s 			page 25


 318      1F10E84B 
 318      6482A38C 
 318      05C3537B 
 319 0a10 8BB4617D 		.ascii	"\213\264a}AY\202\355\304\341\372\275>\210\202\262\306"
 319      415982ED 
 319      C4E1FABD 
 319      3E8882B2 
 319      C6
 320 0a21 E63C5ACE 		.ascii	"\346<Z\316=A{\357o,F>\200\343\214\001Q\274S(\220\357"
 320      3D417BEF 
 320      6F2C463E 
 320      80E38C01 
 320      51BC5328 
 321 0a37 660F85EE 		.ascii	"f\017\205\356\334i\225\237AZ\311T\\\307\262\012\360"
 321      DC69959F 
 321      415AC954 
 321      5CC7B20A 
 321      F0
 322 0a48 9E82E478 		.ascii	"\236\202\344x\3622\301\231\2664\360\3478V\256\375:g"
 322      F232C199 
 322      B634F0E7 
 322      3856AEFD 
 322      3A67
 323 0a5a 7A1138DD 		.ascii	"z\0218\335\213\034\252P`P\241n\037\011f0\227ef\333\201"
 323      8B1CAA50 
 323      6050A16E 
 323      1F096630 
 323      976566DB 
 324 0a6f 6578A6AA 		.ascii	"ex\246\252\327\303\032\034\303\012LFW#\203\225\034\371"
 324      D7C31A1C 
 324      C30A4C46 
 324      57238395 
 324      1CF9
 325 0a81 5686C3EB 		.ascii	"V\206\303\353\367j\222\257!\371\233\234!N\\\3425?.\310"
 325      F76A92AF 
 325      21F99B9C 
 325      214E5CE2 
 325      353F2EC8 
 326 0a95 9DAAE369 		.ascii	"\235\252\343i}\317d'\322\373\300\324YM\026\355#_\023"
 326      7DCF6427 
 326      D2FBC0D4 
 326      594D16ED 
 326      235F13
 327 0aa8 7286BD25 		.ascii	"r\206\275%K$\217\226j%\325\271\2103\006g<Z\342x\002"
 327      4B248F96 
 327      6A25D5B9 
 327      88330667 
 327      3C5AE278 
 328 0abd 7DC76202 		.ascii	"}\307b\002\355\2322\331\033^\363\024\230&v=Lq\2171\357"
 328      ED9A32D9 
 328      1B5EF314 
 328      9826763D 
 328      4C718F31 
 329 0ad2 79974972 		.ascii	"y\227Ir_\311\213C\202\223\0252\254\016\215\022\254\354"
 329      5FC98B43 
 329      82931532 
 329      AC0E8D12 
ARM GAS  /tmp/ccbQw3se.s 			page 26


 329      ACEC
 330 0ae4 1F71D405 		.ascii	"\037q\324\005\002\253\272Lg\017\375}\275\235x\364\276"
 330      02ABBA4C 
 330      670FFD7D 
 330      BD9D78F4 
 330      BE
 331 0af5 D2CEF4C3 		.ascii	"\322\316\364\303\252\235\033\215\363\375\325\272\304"
 331      AA9D1B8D 
 331      F3FDD5BA 
 331      C4
 332 0b02 C2F59F36 		.ascii	"\302\365\2376\240\005R\263\032`@\033\311\224\377\243"
 332      A00552B3 
 332      1A60401B 
 332      C994FFA3 
 333 0b12 D71CA6F0 		.ascii	"\327\034\246\360\350\003\372\034\2566hv\013'KP\320\313"
 333      E803FA1C 
 333      AE366876 
 333      0B274B50 
 333      D0CB
 334 0b24 36D2D15B 		.ascii	"6\322\321[\273\244\243\267\321\320\254f+\023z\363\007"
 334      BBA4A3B7 
 334      D1D0AC66 
 334      2B137AF3 
 334      07
 335 0b35 74F46D0A 		.ascii	"t\364m\012z\007\015\315iZ\3574\242?\372\220\216\216"
 335      7A070DCD 
 335      695AEF34 
 335      A23FFA90 
 335      8E8E
 336 0b47 E7A5A377 		.ascii	"\347\245\243w\322\320.\015\275\307g@\037m\241\243\247"
 336      D2D02E0D 
 336      BDC76740 
 336      1F6DA1A3 
 336      A7
 337 0b58 E7A7A377 		.ascii	"\347\247\243w\323\320n\315 {\215\3503_\321\321\255\024"
 337      D3D06ECD 
 337      207B8DE8 
 337      335FD1D1 
 337      AD14
 338 0b6a F45E1A3A 		.ascii	"\364^\032:G\323\372\023#\372\3067t\364\234\256\351\350"
 338      47D3FA13 
 338      23FAC637 
 338      74F49CAE 
 338      E9E8
 339 0b7c 561ADAA3 		.ascii	"V\032\332\243i\375\231\021}\347\012\035\335NA\357\247"
 339      69FD9911 
 339      7DE70A1D 
 339      DD4E41EF 
 339      A7
 340 0b8d A17335AD 		.ascii	"\241s5\255\017\030\321\013\277\247\243\027tKG\037\240"
 340      0F18D10B 
 340      BFA7A317 
 340      744B471F 
 340      A0
 341 0b9e A1BD9AD6 		.ascii	"\241\275\232\326_\030\321\313\256\323\321'(\350\203"
 341      5F18D1CB 
 341      AED3D127 
ARM GAS  /tmp/ccbQw3se.s 			page 27


 341      28E883
 342 0bad 3474174D 		.ascii	"4t\027M\353\243F\364\346\237\351\350\245\335\323\321"
 342      EBA346F4 
 342      E69FE9E8 
 342      A5DDD3D1 
 343 0bbd 4768E83C 		.ascii	"Gh\350<M\353cF\364G\235tt\202\202>NC\347k\350\343&\277"
 343      4DEB6346 
 343      F4479D74 
 343      7482823E 
 343      4E43E76B 
 344 0bd5 4ED2D1AB 		.ascii	"N\322\321\253{\244\243O\321\320]\311\211:\265\233\326"
 344      7BA4A34F 
 344      D1D05DC9 
 344      893AB59B 
 344      D6
 345 0be6 8D7D1916 		.ascii	"\215}\031\026\371\323\034\375kr\371\371\307\252\326"
 345      F9D31CFD 
 345      6B72F9F9 
 345      C7AAD6
 346 0bf5 9796B50E 		.ascii	"\227\226\265\016d\220u\306\262\026~\374\264\252u\326"
 346      649075C6 
 346      B2167EFC 
 346      B4AA75D6 
 347 0c05 B2D6ED0C 		.ascii	"\262\326\355\014\265\316i\265\254>\2147}\272\313\243"
 347      B5CE69B5 
 347      AC3E8C37 
 347      7DBACBA3 
 348 0c15 84E355EF 		.ascii	"\204\343U\357\274\305\252\207\214\242\315\277\036\030"
 348      BCC5AA87 
 348      8CA2CDBF 
 348      1E18
 349 0c23 A296F328 		.ascii	"\242\226\363(\234\257\034K\276`!9G\221LH\3232n\205\362"
 349      9CAF1C4B 
 349      BE602139 
 349      47914C48 
 349      D3326E85 
 350 0c38 E812D906 		.ascii	"\350\022\331\006\311\276\257I\213usT\324\237\231T\004"
 350      C9BEAF49 
 350      8B757354 
 350      D49F9954 
 350      04
 351 0c49 7D66D5B5 		.ascii	"}f\325\265\260\274\251z\221\303\273_\227M\356\233\225"
 351      B0BCA97A 
 351      91C3BB5F 
 351      974DEE9B 
 351      95
 352 0c5a 439432C7 		.ascii	"C\2242\307\314\015\247\363\361\347\267\227\262G\315"
 352      CC0DA7F3 
 352      F1E7B797 
 352      B247CD
 353 0c69 D3A7C517 		.ascii	"\323\247\305\027\236N\355Iq\270go\020\025.\335[\330"
 353      9E4EED49 
 353      71B8676F 
 353      10152EDD 
 353      5BD8
 354 0c7b 0CBC574F 		.ascii	"\014\274WO\2230S\206\335t\014+0\300\032\365\260;v`V"
 354      93305386 
ARM GAS  /tmp/ccbQw3se.s 			page 28


 354      DD740C2B 
 354      30C01AF5 
 354      B03B7660 
 355 0c90 0130C016 		.ascii	"\0010\300\026\353a\265=\235\302\214\232-\325\303f\332"
 355      EB61B53D 
 355      9DC28C9A 
 355      2DD5C366 
 355      DA
 356 0ca1 81597D86 		.ascii	"\201Y}\206\004\260&=l\266c\230Q\263\015z\330\337\355"
 356      04B0263D 
 356      6CB66398 
 356      51B30D7A 
 356      D8DFED
 357 0cb4 C0AC3E43 		.ascii	"\300\254>C\002\330F=l\201c\230Q\263\367\365\260\305"
 357      02D8463D 
 357      6C816398 
 357      51B3F7F5 
 357      B0C5
 358 0cc6 766005D6 		.ascii	"v`\005\326\232}\240\207-w\0143j\266U\017[e\007f\265"
 358      9A7DA087 
 358      2D770C33 
 358      6AB6550F 
 358      5B650766 
 359 0cdb A50DB00F 		.ascii	"\245\015\260\017\365\2605\216aF\315v\350ao\331\201\025"
 359      F5B0358E 
 359      6146CD76 
 359      E8616FD9 
 359      8115
 360 0ced 59693635 		.ascii	"Yi65\336\362\247:^\037\333c\252:\255\230\036\305\365"
 360      DEF2A73A 
 360      5E1FDB63 
 360      AA3AAD98 
 360      1EC5F5
 361 0d00 C53A9065 		.ascii	"\305:\220e1\036\315p9\235\211g\272\3503\261\376\027"
 361      311ECD70 
 361      399D8967 
 361      BAE833B1 
 361      FE17
 362 0d12 425A29FC 		.ascii	"BZ)\374\331\203\271\331F-h\3556\032\261]o\304Mv\214"
 362      D983B9D9 
 362      462D68ED 
 362      361AB15D 
 362      6FC44D76 
 363 0d27 38CC1A76 		.ascii	"8\314\032vH\017\333j\007\366\234\265\257\034\321\303"
 363      480FDB6A 
 363      07F69CB5 
 363      AF1CD1C3 
 364 0d37 76388619 		.ascii	"v8\206\0315;\246\207\355\262\003\033c\255\331\011=l"
 364      353BA687 
 364      EDB2031B 
 364      63ADD909 
 364      3D6C
 365 0d49 8F63985E 		.ascii	"\217c\230^\263\251\361S\232\343\341\237O\030<o\230q"
 365      B3A9F153 
 365      9AE3E19F 
 365      4F183C6F 
 365      9871
ARM GAS  /tmp/ccbQw3se.s 			page 29


 366 0d5b B63514EB 		.ascii	"\2665\024\353\310\360\253\274\205.u_\365\274q_\365\274"
 366      C8F0ABBC 
 366      852E755F 
 366      F5BC715F 
 366      F5BC
 367 0d6d B6AFDA66 		.ascii	"\266\257\332f\326\333@QN_\242\030\201v\350WZ\036]&\373"
 367      D6DB4051 
 367      4E5FA218 
 367      8176E857 
 367      5A1E5D26 
 368 0d82 1E57C8CE 		.ascii	"\036W\310\316\304\267$\377\216\344WI~\215\344?\222\374"
 368      C4B724FF 
 368      8EE45749 
 368      7E8DE43F 
 368      92FC
 369 0d94 2792FF42 		.ascii	"'\222\377B\362[$\277M\362\273$\227\\8\257%\371t\222"
 369      F25B24BF 
 369      4DF2BB24 
 369      975C38AF 
 369      25F97492 
 370 0da8 FF8DE4AF 		.ascii	"\377\215\344\257\220|.\311\347\221|>\311\033\\\272]"
 370      907C2EC9 
 370      E7917C3E 
 370      C91B5CBA 
 370      5D
 371 0db9 10537C77 		.ascii	"\020S|w1\303~\307\"W*\276\303/\034\342W\023-\353OMT"
 371      31C37EC7 
 371      22572ABE 
 371      C32F1CE2 
 371      57132DEB 
 372 0dd0 7F5AD74F 		.ascii	"\177Z\327O\376y\027\313|\327\323\034@S\177\320\325\350"
 372      FE7917CB 
 372      7CD7D31C 
 372      40537FD0 
 372      D5E8
 373 0de2 CAF883AE 		.ascii	"\312\370\203\256\327\\io8@\340\374\215\327\376\373m"
 373      D75C696F 
 373      3840E0FC 
 373      8DD7FEFB 
 373      6D
 374 0df3 FC5DBB74 		.ascii	"\374]\273t7\371\362\324\351H\375q[s/\252L\311\370\343"
 374      37F9F2D4 
 374      E948FD71 
 374      5B732FAA 
 374      4CC9F8E3 
 375 0e07 B6252ED3 		.ascii	"\266%.\323\217\333\226R\205\324w\264/F\363\247I\362"
 375      8FDB9652 
 375      85D477B4 
 375      2F46F3A7 
 375      49F2
 376 0e19 2B9DE65C 		.ascii	"+\235\346\\U\310:[B\232\314B\226S\205\234\334t\355\271"
 376      55C83A5B 
 376      429ACC42 
 376      9653859C 
 376      DC74EDB9 
 377 0e2d 9B5A4BFA 		.ascii	"\233ZK\372\331\177_\263\322ez_\323\221\376\276\346\033"
 377      D97F5FB3 
ARM GAS  /tmp/ccbQw3se.s 			page 30


 377      D2657A5F 
 377      D391FEBE 
 377      E61B
 378 0e3f 83AACA5E 		.ascii	"\203\252\312^\367\217\275\224\030\371qf\225$\325K\007"
 378      F78FBD94 
 378      18F97166 
 378      9524D54B 
 378      07
 379 0e50 F7E5D721 		.ascii	"\367\345\327!\365\007)\265\275\311v\236\326)\246\270"
 379      F50729B5 
 379      BDC9769E 
 379      D629A6B8 
 380 0e60 557935AF 		.ascii	"Uy5\257\264\370\372\3241}R-^an\361jj\213w\256\337\035"
 380      B4F8FAD4 
 380      317D522D 
 380      5E616EF1 
 380      6A6A8B77 
 381 0e77 DC66E83B 		.ascii	"\334f\350;\331_f\365\266\345/\3532\373\313[T\231?}\330"
 381      D95F66F5 
 381      B6E52FEB 
 381      32FBCB5B 
 381      54993F7D 
 382 0e8c F6689A83 		.ascii	"\366h\232\203\356\267'\360\235\314\002\327S\005\336"
 382      EEB727F0 
 382      9DCC02D7 
 382      5305DE
 383 0e9b 6D39F564 		.ascii	"m9\365d\232\300\206\007l\011\334\220Y\340{\026#\342"
 383      9AC08607 
 383      6C09DC90 
 383      59E07B16 
 383      23E2
 384 0ead 50056D44 		.ascii	"P\005mD\274A\227ir\326M\346\256{\337jD,\243\215\210"
 384      BC419769 
 384      72D64DE6 
 384      AE7BDF6A 
 384      442CA38D 
 385 0ec2 8DB6847C 		.ascii	"\215\266\204|`\026\262\305(\204q\005*\370\350\343\003"
 385      6016B2C5 
 385      28847105 
 385      2AF8E8E3 
 385      03
 386 0ed3 0614CAFF 		.ascii	"\006\024\312\377\"\261\302\250X\030\014\007B\325\345"
 386      22B1C2A8 
 386      58180C07 
 386      42D5E5
 387 0ee2 4261A022 		.ascii	"Ba\240\"6%&N\251\022b\003*\030/>\017V\012~1g\324\037"
 387      3625264E 
 387      A9126203 
 387      2A182F3E 
 387      0F560A7E 
 388 0efa 5F2C2861 		.ascii	"_,(a\312\012+\"\225B\341_\252CA>\\8z\344\250\341\205"
 388      CA0A2B22 
 388      9542E15F 
 388      AA43413E 
 388      5C387AE4 
 389 0f11 31A15288 		.ascii	"1\241R\210\211Q\301\037\234\\8\262r\2340.X\016D>Z\331"
 389      8951C11F 
ARM GAS  /tmp/ccbQw3se.s 			page 31


 389      9C5C38B2 
 389      729C302E 
 389      580E443E 
 390 0f27 7F6091AF 		.ascii	"\177`\221\257x\200\317G\316\303\221\260\320_\340\307"
 390      7880CF47 
 390      CEC391B0 
 390      D05FE0C7 
 391 0f37 05538262 		.ascii	"\005S\202bby0,\202\220\334j\370\3377\330/>\231RI\004"
 391      6279302C 
 391      8290DC6A 
 391      F8DF37D8 
 391      2F3E9952 
 392 0f4d 22562A16 		.ascii	"\"V*\026\251\216\006\004\371\022g\376h$\"\016\0100\017"
 392      A98E0604 
 392      F91267FE 
 392      6824220E 
 392      08300F
 393 0f60 908BAA28 		.ascii	"\220\213\252(T\364WE\242\242?\030\036\037y\210\334\024"
 393      54F45745 
 393      A2A23F18 
 393      1E1F7988 
 393      DC14
 394 0f72 85686530 		.ascii	"\205he0\314\213\240sET\340\313c=\311\355\032>(\252w"
 394      CC8BA073 
 394      4554E0CB 
 394      633DC9ED 
 394      1A3E28AA 
 395 0f87 BAE9EE04 		.ascii	"\272\351\356\004\003\023\0371\212\015\005\307\201\021"
 395      03131F31 
 395      8A0D05C7 
 395      8111
 396 0f95 FCF81C94 		.ascii	"\374\370\034\224\313\327$\205\302]\264"
 396      CBD72485 
 396      C25DB4
 397 0fa0 8BDF589A 		.ascii	"\213\337X\232O\021\202\033&\237\372E/\346\221\363\002"
 397      4F11821B 
 397      269FFA45 
 397      2FE691F3 
 397      02
 398 0fb1 6BAB072A 		.ascii	"k\253\007*\312\241Nw\245\272\377\177\252\205jhC\217"
 398      CAA14E77 
 398      A5BAFF7F 
 398      AA856A68 
 398      438F
 399 0fc3 5455E596 		.ascii	"TU\345\226+,L\026]UQa\222\233\\\017\321\023\003\221"
 399      2B2C4C16 
 399      5D555161 
 399      929B5C0F 
 399      D1130391 
 400 0fd7 CACA48B8 		.ascii	"\312\312H\270\020\233$V8\274tt\311\350\311\370^U0$D"
 400      109B2456 
 400      38BC7474 
 400      C9E8C9F8 
 400      5E553024 
 401 0fec 6385A34A 		.ascii	"c\205\243JJ\260~J\337zDhH\304/\022\363\027\017\364"
 401      4AB07E4A 
 401      DF7A4468 
ARM GAS  /tmp/ccbQw3se.s 			page 32


 401      48C42F12 
 401      F3170FF4 
 402 1000 63683092 		.ascii	"ch0\222O\314\031\210\204E\020\363dVvE \022\025\000\226"
 402      4FCC1988 
 402      844510F3 
 402      64567645 
 402      20121500 
 403 1015 A7F48218 		.ascii	"\247\364\202\030\020'\367\267W\313?\351\231Jl\244\250"
 403      1027F7B7 
 403      57CB3FE9 
 403      994A6CA4 
 403      A8
 404 1026 30011CC4 		.ascii	"0\001\034\304/\262\321Al\364i6:\230\215>\303F\207\260"
 404      2FB2D141 
 404      6CF46936 
 404      3A988D3E 
 404      C34687B0 
 405 103a D167B9A8 		.ascii	"\321g\271\250\257\010\222\217\015E\331X\025\007hwX\250"
 405      AF08928F 
 405      0D45D958 
 405      15076877 
 405      58A8
 406 104c 11A2EE48 		.ascii	"\021\242\356H\250\\\210\272\302|\245\320%&N\344C\301"
 406      A85C88BA 
 406      C27CA5D0 
 406      25264EE4 
 406      43C1
 407 105e 0961A51D 		.ascii	"\011a\245\035\203\007\201\253\326\360\343\370\230\220"
 407      830781AB 
 407      D6F0E3F8 
 407      9890
 408 106c 2BC644E2 		.ascii	"+\306D\342\006\036\374\207!~\321M\256=be\244\034\356"
 408      061EFC87 
 408      217ED14D 
 408      AE3D6265 
 408      A41CEE
 409 107f BAC787F8 		.ascii	"\272\307\207\370\0111\0178\356\370\030\264\035\377\347"
 409      09310F38 
 409      EEF818B4 
 409      1DFFE7
 410 108e AE8C4D80 		.ascii	"\256\214M\200\342\2129r\242\345S\340F\25609(\006\240"
 410      E28A3972 
 410      A2E553E0 
 410      46AE3039 
 410      2806A0
 411 10a1 4A4E8D18 		.ascii	"JN\215\030\031\367\227\252^J\247B\005!*\204\003\030"
 411      19F797AA 
 411      5E4AA742 
 411      05212A84 
 411      0318
 412 10b3 55238AD1 		.ascii	"U#\212\321*OL\010\213P!\037z\014\306\004_U\001\215\354"
 412      2A4F4C08 
 412      8B50211F 
 412      7A0CC604 
 412      5F55018D 
 413 10c8 6BDDDF02 		.ascii	"k\335\337\002n\275;\000\036,r\220\003\036nU\345B\355"
 413      6EBD3B00 
ARM GAS  /tmp/ccbQw3se.s 			page 33


 413      1E2C7290 
 413      031E6E55 
 413      E542ED
 414 10db CA6A30BE 		.ascii	"\312j0\276u\315Jq2\256\031\251\011\013Q\017)\213\333"
 414      75CD4A71 
 414      32AE19A9 
 414      090B510F 
 414      298BDB
 415 10ee 2CC2EDAA 		.ascii	",\302\355\252<a\022V\202\217M\204[B\015>A\325\335T\377"
 415      3C611256 
 415      828F4D84 
 415      5B420D3E 
 415      41D5DD54 
 416 1103 0905F1F8 		.ascii	"\011\005\361\370\350\256\363(|\307\203\007B0<!\027t"
 416      E8AEF328 
 416      7CC78307 
 416      42303C21 
 416      1774
 417 1115 271E952B 		.ascii	"'\036\225+T\011a\030\233\023<\200\304%\240\213\370\020"
 417      54096118 
 417      9B133C80 
 417      C425A08B 
 417      F810
 418 1127 760E7765 		.ascii	"v\016weU$\022\352\026\250\030[Q>V\035g^r\371\237\000"
 418      552412EA 
 418      16A8185B 
 418      513E561D 
 418      675E72F9 
 419 113d E942CECA 		.ascii	"\351B\316\312B\202P\345Q$\2605|\036\0314\343\252\307"
 419      428250E5 
 419      5124B035 
 419      7C1E1934 
 419      E3AAC7
 420 1150 83BD3CA4 		.ascii	"\203\275<\244\257\204rwL\020\253\253rE\201\217\226C"
 420      AF847277 
 420      4C10ABAB 
 420      7245818F 
 420      9643
 421 1162 3B3CC264 		.ascii	";<\302d!\000\015!\343+\000}\347\027\345\241\026\253"
 421      21000D21 
 421      E32B007D 
 421      E717E5A1 
 421      16AB
 422 1174 0E8A428F 		.ascii	"\016\212B\217\001\345\274\310\017\320n\370\262\317\023"
 422      01E5BCC8 
 422      0FD06EF8 
 422      B2CF13
 423 1183 31019A82 		.ascii	"1\001\232\202;\247\250\310\007\306\352\231v\323\031"
 423      3BA7A8C8 
 423      07C6EA99 
 423      76D319
 424 1192 63208D31 		.ascii	"c \2151\320\031\243\230\306(v\306\030Dc\014r\306x\232"
 424      D019A398 
 424      C62876C6 
 424      1844630C 
 424      72C6789A 
 425 11a6 C678DA19 		.ascii	"\306x\332\031c0\2151\330\031\343\031\032\343\031g\214"
ARM GAS  /tmp/ccbQw3se.s 			page 34


 425      63308D31 
 425      D819E319 
 425      1AE31967 
 425      8C
 426 11b7 2134C610 		.ascii	"!4\306\020g\214gi\214g\0351|E\024\206\257\310\031\203"
 426      678C6769 
 426      8C671D31 
 426      7C451486 
 426      AFC81983 
 427 11cb E6A73E67 		.ascii	"\346\247>g~\352\243\371\251\317\231\237\372h~\352+\036"
 427      7EEAA3F9 
 427      A9CF999F 
 427      FA687EEA 
 427      2B1E
 428 11dd A89F8E2A 		.ascii	"\250\237\216*\370\2202\243\227\215\035]<\260\360\205"
 428      F89032A3 
 428      978D1D5D 
 428      3CB0F085 
 429 11ed 1746148E 		.ascii	"\027F\024\216}~\364$\037,\352\225x\356\014\342\271-"
 429      7D7EF424 
 429      1F2CEA95 
 429      78EE0CE2 
 429      B92D
 430 11ff 2F750133 		.ascii	"/u\0013\\I\251\017\322@W\331\350\222R\327\210\347G\226"
 430      5C49A90F 
 430      D24057D9 
 430      E89252D7 
 430      88E74796 
 431 1213 B265A5DC 		.ascii	"\262e\245\334\310Q\245\356\222\222\321\245>\222\017"
 431      C851A5EE 
 431      9292D1A5 
 431      3E920F
 432 1222 7495948C 		.ascii	"t\225\224\214,\345J\3768\226\033SV\302\015/-\345JK\340"
 432      2CE54AFE 
 432      38961B53 
 432      56C20D2F 
 432      2DE54A4B 
 433 1237 1A2AFC61 		.ascii	"\032*\374a\304\330Rn\004\2569zx)\373\357r\255b(\377"
 433      C4D8526E 
 433      04AE397A 
 433      7829FBEF 
 433      72AD6228 
 434 124c 52E96396 		.ascii	"R\351c\226\363\344$\274~\367\014T\374\307\330Q\202X"
 434      F3E424BC 
 434      7EF70C54 
 434      FCC7D851 
 434      8258
 435 125e 06818C50 		.ascii	"\006\201\214P9\026b\231\014S\362\024\022\363\004*\240"
 435      39166299 
 435      0C53F214 
 435      12F3042A 
 435      A0
 436 126f F00B91C0 		.ascii	"\360\013\221\300D/Y\324Bp\346\323\327Q\2264X\037\013"
 436      442F59D4 
 436      4270E6D3 
 436      D7519634 
 436      581F0B
ARM GAS  /tmp/ccbQw3se.s 			page 35


 437 1282 4B46973D 		.ascii	"KF\227=_\246\021*c\301\230\177B \000\224\256~0\237\350"
 437      5FA6112A 
 437      63C1987F 
 437      42200094 
 437      AE7E309F 
 438 1297 FFC3F0B2 		.ascii	"\377\303\360\262\221cJ\237\357\312\207j\370)1X C\301"
 438      91634A9F 
 438      EFCA876A 
 438      F8293158 
 438      2043C1
 439 12aa B0E09EC4 		.ascii	"\260\340\236\304\207\252\205^i\232\275Ths\345\304!Y"
 439      87AA855E 
 439      699ABD54 
 439      6873E5C4 
 439      2159
 440 12bc 1484F426 		.ascii	"\024\204\364&\012\222+\377\004A>+\266\327Q\360\027?"
 440      0A922BFF 
 440      04413E2B 
 440      B6D751F0 
 440      173F
 441 12ce 74712884 		.ascii	"tq(\204\203\216^\362\031a\004\"\325\260\366G\363\210"
 441      838E5EF2 
 441      19610422 
 441      D5B0F647 
 441      F388
 442 12e0 155E0CE3 		.ascii	"\025^\014\343\326\313\213{59\377\177\035\277\334l"
 442      D6CB8B7B 
 442      3539FF7F 
 442      1DBFDC6C 
 443              		.text
 444              		.section	.gnu.lto_.symtab.9f9ffdeeb4d45d36,"",%progbits
 445 0000 74657374 		.ascii	"test_print_port_info\000\000\000\000\000\000\000\000"
 445      5F707269 
 445      6E745F70 
 445      6F72745F 
 445      696E666F 
 446 001c 00000000 		.ascii	"\000\000\000\000\267\000\000\000test_terminate_thre"
 446      B7000000 
 446      74657374 
 446      5F746572 
 446      6D696E61 
 447 0037 61647300 		.ascii	"ads\000\000\000\000\000\000\000\000\000\000\000\000"
 447      00000000 
 447      00000000 
 447      000000
 448 0046 BB000000 		.ascii	"\273\000\000\000threads\000\000\000\000\000\000\000"
 448      74687265 
 448      61647300 
 448      00000000 
 448      0000
 449 0058 00000000 		.ascii	"\000\000\000\000\000\177\001\000\000test_wait_threa"
 449      007F0100 
 449      00746573 
 449      745F7761 
 449      69745F74 
 450 0070 64730000 		.ascii	"ds\000\000\000\000\000\000\000\000\000\000\000\000\276"
 450      00000000 
ARM GAS  /tmp/ccbQw3se.s 			page 36


 450      00000000 
 450      0000BE
 451 007f 00000074 		.ascii	"\000\000\000test_wait_tick\000\000\000\000\000\000\000"
 451      6573745F 
 451      77616974 
 451      5F746963 
 451      6B000000 
 452 0097 00000000 		.ascii	"\000\000\000\000\000\301\000\000\000wa\000\000\000\000"
 452      00C10000 
 452      00776100 
 452      000000
 453 00a6 00000000 		.ascii	"\000\000\000\000\000\000\000\000\203\001\000\000tes"
 453      00000000 
 453      83010000 
 453      746573
 454 00b5 745F6275 		.ascii	"t_buffer\000\000\000\000\000\000\000\000\000\000\000"
 454      66666572 
 454      00000000 
 454      00000000 
 454      000000
 455 00c8 008D0100 		.ascii	"\000\215\001\000\000test_suite\000\000\000\000\000\000"
 455      00746573 
 455      745F7375 
 455      69746500 
 455      00000000 
 456 00dd 00000000 		.ascii	"\000\000\000\000\000\000\232\001\000\000test_sequen"
 456      00009A01 
 456      00007465 
 456      73745F73 
 456      65717565 
 457 00f2 63655F30 		.ascii	"ce_001\000\000\002\000\000\000\000\000\000\000\000\000"
 457      30310000 
 457      02000000 
 457      00000000 
 457      0000
 458 0104 B5010000 		.ascii	"\265\001\000\000test_sequence_002\000\000\002\000\000"
 458      74657374 
 458      5F736571 
 458      75656E63 
 458      655F3030 
 459 011e 00000000 		.ascii	"\000\000\000\000\000\000\000\270\001\000\000test_se"
 459      000000B8 
 459      01000074 
 459      6573745F 
 459      7365
 460 0130 7175656E 		.ascii	"quence_003\000\000\002\000\000\000\000\000\000\000\000"
 460      63655F30 
 460      30330000 
 460      02000000 
 460      00000000 
 461 0145 00BB0100 		.ascii	"\000\273\001\000\000test_sequence_004\000\000\002\000"
 461      00746573 
 461      745F7365 
 461      7175656E 
 461      63655F30 
 462 015f 00000000 		.ascii	"\000\000\000\000\000\000\000\000\276\001\000\000tes"
 462      00000000 
ARM GAS  /tmp/ccbQw3se.s 			page 37


 462      BE010000 
 462      746573
 463 016e 745F7365 		.ascii	"t_sequence_005\000\000\002\000\000\000\000\000\000\000"
 463      7175656E 
 463      63655F30 
 463      30350000 
 463      02000000 
 464 0186 0000C101 		.ascii	"\000\000\301\001\000\000test_sequence_006\000\000\002"
 464      00007465 
 464      73745F73 
 464      65717565 
 464      6E63655F 
 465 01a0 00000000 		.ascii	"\000\000\000\000\000\000\000\000\000\304\001\000\000"
 465      00000000 
 465      00C40100 
 465      00
 466 01ad 74657374 		.ascii	"test_sequence_007\000\000\002\000\000\000\000\000\000"
 466      5F736571 
 466      75656E63 
 466      655F3030 
 466      37000002 
 467 01c7 000000C7 		.ascii	"\000\000\000\307\001\000\000test_sequence_008\000\000"
 467      01000074 
 467      6573745F 
 467      73657175 
 467      656E6365 
 468 01e1 02000000 		.ascii	"\002\000\000\000\000\000\000\000\000\000\312\001\000"
 468      00000000 
 468      0000CA01 
 468      00
 469 01ee 00746573 		.ascii	"\000test_sequence_009\000\000\002\000\000\000\000\000"
 469      745F7365 
 469      7175656E 
 469      63655F30 
 469      30390000 
 470 0208 00000000 		.ascii	"\000\000\000\000\315\001\000\000test_sequence_010\000"
 470      CD010000 
 470      74657374 
 470      5F736571 
 470      75656E63 
 471 0222 00020000 		.ascii	"\000\002\000\000\000\000\000\000\000\000\000\320\001"
 471      00000000 
 471      000000D0 
 471      01
 472 022f 00007465 		.ascii	"\000\000test_sequence_011\000\000\002\000\000\000\000"
 472      73745F73 
 472      65717565 
 472      6E63655F 
 472      30313100 
 473 0249 00000000 		.ascii	"\000\000\000\000\000\323\001\000\000test_sequence_0"
 473      00D30100 
 473      00746573 
 473      745F7365 
 473      7175656E 
 474 0261 31320000 		.ascii	"12\000\000\002\000\000\000\000\000\000\000\000\000\326"
 474      02000000 
 474      00000000 
ARM GAS  /tmp/ccbQw3se.s 			page 38


 474      0000D6
 475 0270 01000074 		.ascii	"\001\000\000test_sequence_013\000\000\002\000\000\000"
 475      6573745F 
 475      73657175 
 475      656E6365 
 475      5F303133 
 476 028a 00000000 		.ascii	"\000\000\000\000\000\000\331\001\000\000test_printl"
 476      0000D901 
 476      00007465 
 476      73745F70 
 476      72696E74 
 477 029f 6E000002 		.ascii	"n\000\000\002\000\000\000\000\000\000\000\000\000\305"
 477      00000000 
 477      00000000 
 477      00C5
 478 02ad 00000074 		.ascii	"\000\000\000test_print\000\000\002\000\000\000\000\000"
 478      6573745F 
 478      7072696E 
 478      74000002 
 478      00000000 
 479 02c2 00000000 		.ascii	"\000\000\000\000\313\000\000\000chThdTerminate\000\000"
 479      CB000000 
 479      63685468 
 479      64546572 
 479      6D696E61 
 480 02da 02000000 		.ascii	"\002\000\000\000\000\000\000\000\000\000\315\000\000"
 480      00000000 
 480      0000CD00 
 480      00
 481 02e7 00636854 		.ascii	"\000chThdWait\000\000\002\000\000\000\000\000\000\000"
 481      68645761 
 481      69740000 
 481      02000000 
 481      00000000 
 482 02fb 00007701 		.ascii	"\000\000w\001\000\000chThdSleep\000\000\002\000\000"
 482      00006368 
 482      54686453 
 482      6C656570 
 482      00000200 
 483 0310 00000000 		.ascii	"\000\000\000\000\000\000\000{\001\000\000"
 483      0000007B 
 483      010000
 484              		.text
 485              		.section	.gnu.lto_.opts,"",%progbits
 486 0000 272D6D63 		.ascii	"'-mcpu=cortex-m3' '-mno-thumb-interwork' '-mthumb' "
 486      70753D63 
 486      6F727465 
 486      782D6D33 
 486      2720272D 
 487 0033 272D6767 		.ascii	"'-ggdb' '-O2' '-fomit-frame-pointer' '-falign-funct"
 487      64622720 
 487      272D4F32 
 487      2720272D 
 487      666F6D69 
 488 0066 696F6E73 		.ascii	"ions=16' '-ffunction-sections' '-fdata-sections' '-"
 488      3D313627 
 488      20272D66 
ARM GAS  /tmp/ccbQw3se.s 			page 39


 488      66756E63 
 488      74696F6E 
 489 0099 666E6F2D 		.ascii	"fno-common' '-flto'\000"
 489      636F6D6D 
 489      6F6E2720 
 489      272D666C 
 489      746F2700 
 490              		.text
 491              		.cfi_sections	.debug_frame
 492              		.section	.text.test_print_port_info,"ax",%progbits
 493              		.align	2
 494              		.p2align 4,,15
 495              		.global	test_print_port_info
 496              		.thumb
 497              		.thumb_func
 498              		.type	test_print_port_info, %function
 499              	test_print_port_info:
 500              	.LFB219:
 501              		.file 1 "../../../test/rt/source/test/test_root.c"
 502              		.loc 1 95 0
 503              		.cfi_startproc
 504              		@ args = 0, pretend = 0, frame = 0
 505              		@ frame_needed = 0, uses_anonymous_args = 0
 506              		.loc 1 98 0
 507 0000 40F20000 		movw	r0, #:lower16:.LC0
 508              		.loc 1 95 0
 509 0004 08B5     		push	{r3, lr}
 510              		.cfi_def_cfa_offset 8
 511              		.cfi_offset 3, -8
 512              		.cfi_offset 14, -4
 513              		.loc 1 98 0
 514 0006 C0F20000 		movt	r0, #:upper16:.LC0
 515 000a FFF7FEFF 		bl	test_print
 516              	.LVL0:
 517              		.loc 1 99 0
 518 000e 40F20000 		movw	r0, #:lower16:.LC1
 519 0012 C0F20000 		movt	r0, #:upper16:.LC1
 520 0016 FFF7FEFF 		bl	test_println
 521              	.LVL1:
 522              		.loc 1 101 0
 523 001a 40F20000 		movw	r0, #:lower16:.LC2
 524 001e C0F20000 		movt	r0, #:upper16:.LC2
 525 0022 FFF7FEFF 		bl	test_print
 526              	.LVL2:
 527              		.loc 1 102 0
 528 0026 40F20000 		movw	r0, #:lower16:.LC3
 529 002a C0F20000 		movt	r0, #:upper16:.LC3
 530 002e FFF7FEFF 		bl	test_println
 531              	.LVL3:
 532              		.loc 1 104 0
 533 0032 40F20000 		movw	r0, #:lower16:.LC4
 534 0036 C0F20000 		movt	r0, #:upper16:.LC4
 535 003a FFF7FEFF 		bl	test_print
 536              	.LVL4:
 537              		.loc 1 105 0
 538 003e 40F20000 		movw	r0, #:lower16:.LC5
 539 0042 C0F20000 		movt	r0, #:upper16:.LC5
ARM GAS  /tmp/ccbQw3se.s 			page 40


 540 0046 FFF7FEFF 		bl	test_println
 541              	.LVL5:
 542              		.loc 1 108 0
 543 004a 40F20000 		movw	r0, #:lower16:.LC6
 544 004e C0F20000 		movt	r0, #:upper16:.LC6
 545 0052 FFF7FEFF 		bl	test_print
 546              	.LVL6:
 547              		.loc 1 111 0
 548 0056 BDE80840 		pop	{r3, lr}
 549              		.loc 1 109 0
 550 005a 40F20000 		movw	r0, #:lower16:.LC7
 551 005e C0F20000 		movt	r0, #:upper16:.LC7
 552 0062 FFF7FEBF 		b	test_println
 553              	.LVL7:
 554              		.cfi_endproc
 555              	.LFE219:
 556              		.size	test_print_port_info, .-test_print_port_info
 557 0066 00BFAFF3 		.section	.text.test_terminate_threads,"ax",%progbits
 557      0080AFF3 
 557      0080
 558              		.align	2
 559              		.p2align 4,,15
 560              		.global	test_terminate_threads
 561              		.thumb
 562              		.thumb_func
 563              		.type	test_terminate_threads, %function
 564              	test_terminate_threads:
 565              	.LFB220:
 566              		.loc 1 135 0
 567              		.cfi_startproc
 568              		@ args = 0, pretend = 0, frame = 0
 569              		@ frame_needed = 0, uses_anonymous_args = 0
 570              	.LVL8:
 571 0000 38B5     		push	{r3, r4, r5, lr}
 572              		.cfi_def_cfa_offset 16
 573              		.cfi_offset 3, -16
 574              		.cfi_offset 4, -12
 575              		.cfi_offset 5, -8
 576              		.cfi_offset 14, -4
 577 0002 064C     		ldr	r4, .L10
 578 0004 04F11405 		add	r5, r4, #20
 579              	.LVL9:
 580              	.L5:
 581              		.loc 1 139 0
 582 0008 54F8043F 		ldr	r3, [r4, #4]!
 583              		.loc 1 140 0
 584 000c 1846     		mov	r0, r3
 585              		.loc 1 139 0
 586 000e 0BB1     		cbz	r3, .L3
 587              		.loc 1 140 0
 588 0010 FFF7FEFF 		bl	chThdTerminate
 589              	.LVL10:
 590              	.L3:
 591              		.loc 1 138 0
 592 0014 AC42     		cmp	r4, r5
 593 0016 F7D1     		bne	.L5
 594              		.loc 1 141 0
ARM GAS  /tmp/ccbQw3se.s 			page 41


 595 0018 38BD     		pop	{r3, r4, r5, pc}
 596              	.L11:
 597 001a 00BF     		.align	2
 598              	.L10:
 599 001c FCFFFFFF 		.word	.LANCHOR0-4
 600              		.cfi_endproc
 601              	.LFE220:
 602              		.size	test_terminate_threads, .-test_terminate_threads
 603              		.section	.text.test_wait_threads,"ax",%progbits
 604              		.align	2
 605              		.p2align 4,,15
 606              		.global	test_wait_threads
 607              		.thumb
 608              		.thumb_func
 609              		.type	test_wait_threads, %function
 610              	test_wait_threads:
 611              	.LFB221:
 612              		.loc 1 146 0
 613              		.cfi_startproc
 614              		@ args = 0, pretend = 0, frame = 0
 615              		@ frame_needed = 0, uses_anonymous_args = 0
 616              	.LVL11:
 617 0000 70B5     		push	{r4, r5, r6, lr}
 618              		.cfi_def_cfa_offset 16
 619              		.cfi_offset 4, -16
 620              		.cfi_offset 5, -12
 621              		.cfi_offset 6, -8
 622              		.cfi_offset 14, -4
 623 0002 40F20004 		movw	r4, #:lower16:.LANCHOR0
 624 0006 C0F20004 		movt	r4, #:upper16:.LANCHOR0
 625 000a 04F11405 		add	r5, r4, #20
 626              		.loc 1 152 0
 627 000e 0026     		movs	r6, #0
 628              	.LVL12:
 629              	.L15:
 630              		.loc 1 150 0
 631 0010 54F8043B 		ldr	r3, [r4], #4
 632              		.loc 1 151 0
 633 0014 1846     		mov	r0, r3
 634              		.loc 1 150 0
 635 0016 1BB1     		cbz	r3, .L13
 636              		.loc 1 151 0
 637 0018 FFF7FEFF 		bl	chThdWait
 638              	.LVL13:
 639              		.loc 1 152 0
 640 001c 44F8046C 		str	r6, [r4, #-4]
 641              	.L13:
 642              		.loc 1 149 0
 643 0020 AC42     		cmp	r4, r5
 644 0022 F5D1     		bne	.L15
 645              		.loc 1 154 0
 646 0024 70BD     		pop	{r4, r5, r6, pc}
 647              		.cfi_endproc
 648              	.LFE221:
 649              		.size	test_wait_threads, .-test_wait_threads
 650 0026 00BFAFF3 		.section	.text.test_wait_tick,"ax",%progbits
 650      0080AFF3 
ARM GAS  /tmp/ccbQw3se.s 			page 42


 650      0080
 651              		.align	2
 652              		.p2align 4,,15
 653              		.global	test_wait_tick
 654              		.thumb
 655              		.thumb_func
 656              		.type	test_wait_tick, %function
 657              	test_wait_tick:
 658              	.LFB222:
 659              		.loc 1 159 0
 660              		.cfi_startproc
 661              		@ args = 0, pretend = 0, frame = 0
 662              		@ frame_needed = 0, uses_anonymous_args = 0
 663 0000 08B5     		push	{r3, lr}
 664              		.cfi_def_cfa_offset 8
 665              		.cfi_offset 3, -8
 666              		.cfi_offset 14, -4
 667              		.loc 1 161 0
 668 0002 0120     		movs	r0, #1
 669 0004 FFF7FEFF 		bl	chThdSleep
 670              	.LVL14:
 671              	.LBB50:
 672              	.LBB51:
 673              	.LBB52:
 674              	.LBB53:
 675              	.LBB54:
 676              	.LBB55:
 677              		.file 2 "../../../os/common/ext/CMSIS/include/cmsis_gcc.h"
 678              		.loc 2 264 0
 679 0008 2023     		movs	r3, #32
 680              	@ 264 "../../../os/common/ext/CMSIS/include/cmsis_gcc.h" 1
 681 000a 83F31188 		MSR basepri, r3
 682              	@ 0 "" 2
 683              		.thumb
 684              	.LBE55:
 685              	.LBE54:
 686              	.LBE53:
 687              	.LBE52:
 688              	.LBB56:
 689              	.LBB57:
 690              	.LBB58:
 691              	.LBB59:
 692              		.file 3 "../../../os/hal/ports/STM32/LLD/TIMv1/hal_st_lld.h"
 693              		.loc 3 141 0
 694 000e 4FF08043 		mov	r3, #1073741824
 695 0012 586A     		ldr	r0, [r3, #36]
 696              	.LVL15:
 697              	.LBE59:
 698              	.LBE58:
 699              	.LBE57:
 700              	.LBE56:
 701              	.LBB60:
 702              	.LBB61:
 703              	.LBB62:
 704              	.LBB63:
 705              	.LBB64:
 706              		.loc 2 264 0
ARM GAS  /tmp/ccbQw3se.s 			page 43


 707 0014 0023     		movs	r3, #0
 708              	@ 264 "../../../os/common/ext/CMSIS/include/cmsis_gcc.h" 1
 709 0016 83F31188 		MSR basepri, r3
 710              	@ 0 "" 2
 711              		.thumb
 712              	.LBE64:
 713              	.LBE63:
 714              	.LBE62:
 715              	.LBE61:
 716              	.LBE60:
 717              	.LBE51:
 718              	.LBE50:
 719              		.loc 1 163 0
 720 001a 80B2     		uxth	r0, r0
 721 001c 08BD     		pop	{r3, pc}
 722              		.cfi_endproc
 723              	.LFE222:
 724              		.size	test_wait_tick, .-test_wait_tick
 725              		.global	wa
 726              		.global	threads
 727              		.global	test_buffer
 728              		.global	test_suite
 729 001e 00BF     		.section	.bss.test_buffer,"aw",%nobits
 730              		.align	3
 731              		.type	test_buffer, %object
 732              		.size	test_buffer, 1640
 733              	test_buffer:
 734 0000 00000000 		.space	1640
 734      00000000 
 734      00000000 
 734      00000000 
 734      00000000 
 735              		.section	.data.test_suite,"aw",%progbits
 736              		.align	2
 737              		.type	test_suite, %object
 738              		.size	test_suite, 56
 739              	test_suite:
 740 0000 00000000 		.word	test_sequence_001
 741 0004 00000000 		.word	test_sequence_002
 742 0008 00000000 		.word	test_sequence_003
 743 000c 00000000 		.word	test_sequence_004
 744 0010 00000000 		.word	test_sequence_005
 745 0014 00000000 		.word	test_sequence_006
 746 0018 00000000 		.word	test_sequence_007
 747 001c 00000000 		.word	test_sequence_008
 748 0020 00000000 		.word	test_sequence_009
 749 0024 00000000 		.word	test_sequence_010
 750 0028 00000000 		.word	test_sequence_011
 751 002c 00000000 		.word	test_sequence_012
 752 0030 00000000 		.word	test_sequence_013
 753 0034 00000000 		.word	0
 754              		.section	.rodata.wa,"a",%progbits
 755              		.align	2
 756              		.type	wa, %object
 757              		.size	wa, 20
 758              	wa:
 759 0000 00000000 		.word	test_buffer
ARM GAS  /tmp/ccbQw3se.s 			page 44


 760 0004 48010000 		.word	test_buffer+328
 761 0008 90020000 		.word	test_buffer+656
 762 000c D8030000 		.word	test_buffer+984
 763 0010 20050000 		.word	test_buffer+1312
 764              		.section	.rodata.str1.4,"aMS",%progbits,1
 765              		.align	2
 766              	.LC0:
 767 0000 2A2A2A20 		.ascii	"*** Compiler:     \000"
 767      436F6D70 
 767      696C6572 
 767      3A202020 
 767      202000
 768 0013 00       		.space	1
 769              	.LC1:
 770 0014 47434320 		.ascii	"GCC 4.8.1\000"
 770      342E382E 
 770      3100
 771 001e 0000     		.space	2
 772              	.LC2:
 773 0020 2A2A2A20 		.ascii	"*** Architecture: \000"
 773      41726368 
 773      69746563 
 773      74757265 
 773      3A2000
 774 0033 00       		.space	1
 775              	.LC3:
 776 0034 41524D76 		.ascii	"ARMv7-M\000"
 776      372D4D00 
 777              	.LC4:
 778 003c 2A2A2A20 		.ascii	"*** Core Variant: \000"
 778      436F7265 
 778      20566172 
 778      69616E74 
 778      3A2000
 779 004f 00       		.space	1
 780              	.LC5:
 781 0050 436F7274 		.ascii	"Cortex-M3\000"
 781      65782D4D 
 781      3300
 782 005a 0000     		.space	2
 783              	.LC6:
 784 005c 2A2A2A20 		.ascii	"*** Port Info:    \000"
 784      506F7274 
 784      20496E66 
 784      6F3A2020 
 784      202000
 785 006f 00       		.space	1
 786              	.LC7:
 787 0070 41647661 		.ascii	"Advanced kernel mode\000"
 787      6E636564 
 787      206B6572 
 787      6E656C20 
 787      6D6F6465 
 788 0085 000000   		.section	.bss.threads,"aw",%nobits
 789              		.align	2
 790              		.set	.LANCHOR0,. + 0
 791              		.type	threads, %object
ARM GAS  /tmp/ccbQw3se.s 			page 45


 792              		.size	threads, 20
 793              	threads:
 794 0000 00000000 		.space	20
 794      00000000 
 794      00000000 
 794      00000000 
 794      00000000 
 795              		.text
 796              	.Letext0:
 797              		.file 4 "/home/julian/MEGA/semestre_ix/Embebidos/arm-2013.11/lib/gcc/arm-none-eabi/4.8.1/include/s
 798              		.file 5 "/home/julian/MEGA/semestre_ix/Embebidos/arm-2013.11/arm-none-eabi/include/stdint.h"
 799              		.file 6 "../../../os/common/ports/ARMCMx/compilers/GCC/chtypes.h"
 800              		.file 7 "../../../os/rt/include/chsystypes.h"
 801              		.file 8 "../../../os/rt/include/chschd.h"
 802              		.file 9 "../../../os/common/ports/ARMCMx/chcore.h"
 803              		.file 10 "../../../os/common/ports/ARMCMx/chcore_v7m.h"
 804              		.file 11 "../../../os/hal/ports/STM32/LLD/TIMv1/stm32_tim.h"
 805              		.file 12 "../../../os/rt/include/chsem.h"
 806              		.file 13 "../../../os/rt/include/chmtx.h"
 807              		.file 14 "../../../test/lib/ch_test.h"
 808              		.file 15 "../../../os/common/ports/ARMCMx/chcore_timer.h"
 809              		.file 16 "../../../os/rt/include/chsys.h"
 810              		.file 17 "../../../os/rt/include/chvt.h"
 811              		.file 18 "../../../os/common/ext/CMSIS/include/core_cm3.h"
 812              		.file 19 "../../../test/rt/source/test/test_sequence_001.h"
 813              		.file 20 "../../../test/rt/source/test/test_sequence_002.h"
 814              		.file 21 "../../../test/rt/source/test/test_sequence_003.h"
 815              		.file 22 "../../../test/rt/source/test/test_sequence_004.h"
 816              		.file 23 "../../../test/rt/source/test/test_sequence_005.h"
 817              		.file 24 "../../../test/rt/source/test/test_sequence_006.h"
 818              		.file 25 "../../../test/rt/source/test/test_sequence_007.h"
 819              		.file 26 "../../../test/rt/source/test/test_sequence_008.h"
 820              		.file 27 "../../../test/rt/source/test/test_sequence_009.h"
 821              		.file 28 "../../../test/rt/source/test/test_sequence_010.h"
 822              		.file 29 "../../../test/rt/source/test/test_sequence_011.h"
 823              		.file 30 "../../../test/rt/source/test/test_sequence_012.h"
 824              		.file 31 "../../../test/rt/source/test/test_sequence_013.h"
 825              		.file 32 "../../../os/rt/include/chthreads.h"