ARM GAS  /tmp/ccDW51PZ.s 			page 1


   1              		.syntax unified
   2              		.cpu cortex-m3
   3              		.fpu softvfp
   4              		.eabi_attribute 20, 1
   5              		.eabi_attribute 21, 1
   6              		.eabi_attribute 23, 3
   7              		.eabi_attribute 24, 1
   8              		.eabi_attribute 25, 1
   9              		.eabi_attribute 26, 1
  10              		.eabi_attribute 30, 2
  11              		.eabi_attribute 34, 1
  12              		.eabi_attribute 18, 4
  13              		.thumb
  14              		.file	"chmsg.c"
  15              		.text
  16              	.Ltext0:
  17              		.section	.gnu.lto_.jmpfuncs.4f9d1600967e0a7f,"",%progbits
  18 0000 789C6362 		.ascii	"x\234cb`b\300\0064\24143\0033#S\004c&#\003\017\003\003"
  18      6062C006 
  18      34A13433 
  18      03332353 
  18      04632623 
  19 0018 23035035 		.ascii	"#\003P5\224\313\007\224cf\002)``,\003*\004\0009\234"
  19      94CB0794 
  19      63660229 
  19      60602C03 
  19      2A040039 
  20 002d 025F     		.ascii	"\002_"
  21              		.text
  22              		.section	.gnu.lto_.inline.4f9d1600967e0a7f,"",%progbits
  23 0000 789C6362 		.ascii	"x\234cb`b\300\006\342\24043\003\203\210\014##\003#\220"
  23      6062C006 
  23      E2A03433 
  23      0383880C 
  23      23230323 
  24 0015 CD247E63 		.ascii	"\315$~c3#\003\347\0153\260\026&n\006\240(\230\234\340"
  24      332303E7 
  24      0D33B016 
  24      266E06A0 
  24      28989CE0 
  25 0029 C7C420C8 		.ascii	"\307\304 \310\017\344H\034\330\315\310\300\266@\036"
  25      0FE4481C 
  25      D8CDC8C0 
  25      B6401E
  26 0038 49013303 		.ascii	"I\0013\003\207\000P\206e\201<\\\202\231\007(9\301o\202"
  26      87005086 
  26      65813C5C 
  26      82990728 
  26      39C16F82 
  27 004c 1F0300E2 		.ascii	"\037\003\000\342\275\012T"
  27      BD0A54
  28              		.text
  29              		.section	.gnu.lto_.pureconst.4f9d1600967e0a7f,"",%progbits
  30 0000 789C6362 		.ascii	"x\234cb`b`g\200\000f\006+&+f+\000\002\361\000\302"
  30      60626067 
  30      80006606 
  30      2B262B66 
ARM GAS  /tmp/ccDW51PZ.s 			page 2


  30      2B0002F1 
  31              		.text
  32              		.section	.gnu.lto_chMsgSend.4f9d1600967e0a7f,"",%progbits
  33 0000 789C9D54 		.ascii	"x\234\235T_h\024G\030\377\276\235\275\354y\311ec\205"
  33      5F681447 
  33      18FFBE9D 
  33      BDEC79C9 
  33      656385
  34 0013 82AD8D87 		.ascii	"\202\255\215\207 \024\265\331j\037Z_l\213OE\002\305"
  34      2014B5D9 
  34      6A1F5A5F 
  34      6C8B4F45 
  34      02C5
  35 0025 28AD4FB2 		.ascii	"(\255O\262\031\217d\301\365\316\333S\264>8\227\244\320"
  35      198F64C1 
  35      F5CEDB53 
  35      B43E3897 
  35      A4D0
  36 0037 52050915 		.ascii	"R\005\011\025bUZ\021J\254\240P(\255\370\207\223JL\024"
  36      62555A11 
  36      4AACA050 
  36      28ADF887 
  36      934A4C14 
  37 004b CF3F7DB1 		.ascii	"\317?}\261\241\350a\251\265-h\253/\242\201\35373\273"
  37      A1E861A9 
  37      B52D68AB 
  37      2FA281EB 
  37      3733BB
  38 005e 9BCB199B 		.ascii	"\233\313\031\233\320\275\333\235og\347\373\315o~\337"
  38      D0BDDB9D 
  38      6F67E7FB 
  38      CD6F7EDF 
  39 006e CCCF0003 		.ascii	"\314\317\000\003\032\257\025t\337l\002\370\213ZL\000"
  39      1AAF1574 
  39      DF6C02F8 
  39      8B5A4C00 
  40 007e 1AFB2A00 		.ascii	"\032\373*\000\245\244a\260\021\033D\312\274\264\012"
  40      A5A461B0 
  40      111B44CA 
  40      BCB40A
  41 008d 440B4353 		.ascii	"D\013CSw\233\2102\000\204\335\0063q\367\006\224\030"
  41      779B8832 
  41      0084DD06 
  41      3371F706 
  41      9418
  42 009f B8088E08 		.ascii	"\270\010\216\0101X\375\370\376=< \312\003_\211\211Z"
  42      3158FDF8 
  42      FE3D3C20 
  42      CA035F89 
  42      895A
  43 00b1 0DD1439A 		.ascii	"\015\321C\232\257\035\201#|H/\230Q\215aN%p\322(Wk\265"
  43      AF1D8123 
  43      7C482F98 
  43      518D614E 
  43      2570D228 
  44 00c8 89EFEEDD 		.ascii	"\211\357\356\335\271\212s_d\340\342\021\302K\240\217"
  44      B98A735F 
ARM GAS  /tmp/ccDW51PZ.s 			page 3


  44      64E0E211 
  44      C24BA08F 
  45 00d8 60D10393 		.ascii	"`\321\003\223\340!K\321\303L\003\365\331\024\311\264"
  45      E0214BD1 
  45      C34C03F5 
  45      D914C9B4 
  46 00e8 040C08B1 		.ascii	"\004\014\010\261/\243G\373H\013\343\252\177\035=%\305"
  46      2FA347FB 
  46      480BE3AA 
  46      7F1D3D25 
  46      C5
  47 00f9 F5D4452D 		.ascii	"\365\324E-\273\002}\343C\304\313\305\243\264\274\036"
  47      BB027DE3 
  47      43C4CBC5 
  47      A3B4BC1E 
  48 0109 644BE11B 		.ascii	"dK\341\033A\327\007\004\263\024\226x\2308\010_\224\204"
  48      41D70704 
  48      B3149678 
  48      9838085F 
  48      9484
  49 011b 68F3B069 		.ascii	"h\363\260i\027<\021\237\310\310\362\221\021\226\244"
  49      173C119F 
  49      C8C8F291 
  49      1196A4
  50 012a 6B2992DD 		.ascii	"k)\222\335\010a\033\0060\006}\345W4\250\346\320#S\250"
  50      08611B06 
  50      30067DE5 
  50      5734A8E6 
  50      D02353A8 
  51 013e 370910CA 		.ascii	"7\011\020\312\261\377\330\225\3638\330/F\305@\231\364"
  51      B1FFD895 
  51      F338D82F 
  51      46C54099 
  51      F4
  52 014f 58E861D2 		.ascii	"X\350a\322\200\367g\322C\366%3\024T\240\357\237\023"
  52      80F767D2 
  52      43F62533 
  52      1454A0EF 
  52      9F13
  53 0161 FD5FBF14 		.ascii	"\375_\277\024\2564Zr\371\370\215\203\354U\027\207i\316"
  53      AE345A72 
  53      F9F88D83 
  53      EC551787 
  53      69CE
  54 0173 B8EFD7CF 		.ascii	"\270\357\327\317\0377/\210\337>\275E,57\216r>\203n\246"
  54      1F372F88 
  54      DF3EBD45 
  54      2C35378E 
  54      723E836E 
  55 0188 2A45BF61 		.ascii	"*E\277a\012I.\2467C;\234\302\303b\350\035\017\347L\231"
  55      0A492EA6 
  55      37433B9C 
  55      C2C362E8 
  55      1D0FE74C 
  56 019d 7DF2FB99 		.ascii	"}\362\373\231\360{J\363#A/\377\360\340\232\241\361C"
  56      F07B4AF3 
  56      23412FFF 
ARM GAS  /tmp/ccDW51PZ.s 			page 4


  56      F0E09AA1 
  56      F143
  57 01af 35DFF0B0 		.ascii	"5\337\360\2609\014\323\036\266\220\244\204\223&I$^$"
  57      390CD31E 
  57      B690A484 
  57      93264924 
  57      5E24
  58 01c1 9D11B68A 		.ascii	"\235\021\266\212\011\351\225P`O\372\237\356eQu\222\273"
  58      09E99550 
  58      604FFA9F 
  58      EE655175 
  58      92BB
  59 01d3 E0234FD6 		.ascii	"\340#O\326\210\012\323\032\243X\365(ur\215A\310B\013"
  59      880AD31A 
  59      A358F528 
  59      75728D41 
  59      C8420B
  60 01e6 5EBE3D72 		.ascii	"^\276=r\031\305\240(\375]\253\331j\363]\300\231\324"
  60      19C5A028 
  60      FD5DABD9 
  60      6AF35DC0 
  60      99D4
  61 01f8 8EAA563D 		.ascii	"\216\252V=\307\377\003\212\031pq\026PI\255\316\304\335"
  61      C7FF038A 
  61      19707116 
  61      5049ADCE 
  61      C4DD
  62 020a 9F0FFD68 		.ascii	"\237\017\375h7\226\355\263\333\313]<MEs\361\224*]T "
  62      3796EDB3 
  62      DBCB5D3C 
  62      4D4573F1 
  62      942A5D54 
  63 021f 05A3C5AB 		.ascii	"\005\243\305\253~_\371m\376\002\2653\225\226\315Z\005"
  63      7E5FF96D 
  63      FE02B533 
  63      9596CD5A 
  63      05
  64 0230 BD3D1BE5 		.ascii	"\275=\033\345LH\210s\262\351\306\2468\216X\214\017="
  64      4C488873 
  64      B2E9C6A6 
  64      388E588C 
  64      0F3D
  65 0242 DAB3C6C5 		.ascii	"\332\263\306\305\263JV[\011\0121Tk\250)[\246\241\254"
  65      B34A565B 
  65      090A3154 
  65      6BA8295B 
  65      A6A1AC
  66 0255 385DE58E 		.ascii	"8]\345\216]\263ufHc\345\377`d\3251\262\303]\363h\317"
  66      5DB37566 
  66      4863E5FF 
  66      6064D531 
  66      B2C35DF3 
  67 026b AA29B85B 		.ascii	"\252)\270['q\273\032p\355\331\254\224i\334\233\215\270"
  67      2771BB1A 
  67      70EDD9AC 
  67      9469DC9B 
  67      8DB8
ARM GAS  /tmp/ccDW51PZ.s 			page 5


  68 027d E9D9AD35 		.ascii	"\351\331\2555\002\030\377eb\357\374h\007\246\224T\366"
  68      0218FF65 
  68      62EFFC68 
  68      07A69454 
  68      F6
  69 028e F47B2F19 		.ascii	"\364{/\031\226z\024.\374^J\307)r\210\331Z\267\025\326"
  69      967A142E 
  69      FC5E4AC7 
  69      297288D9 
  69      5AB715D6 
  70 02a2 13F288CD 		.ascii	"\023\362\210\315\256\302@u\364hh=\000\261\275\264q-"
  70      AEC24075 
  70      F468683D 
  70      00B1BDB4 
  70      712D
  71 02b4 35E55A1E 		.ascii	"5\345Z\036\316\215rLeX2\351R\177\352\231\244\027\270"
  71      CE8D724C 
  71      655832E9 
  71      527FEA99 
  71      A417B8
  72 02c7 5C7B7844 		.ascii	"\\{xD\315\026\262\301y\232\375\343\207oEL\322\241\000"
  72      CD16B2C1 
  72      799AFDE3 
  72      876F454C 
  72      D2A100
  73 02da 6F4F1EC7 		.ascii	"oO\036\307\2253\036\3079\361i\352+[\032\211|\226\300"
  73      95331EC7 
  73      39F169EA 
  73      2B5B1A89 
  73      7C96C0
  74 02ed 1AEDEC8F 		.ascii	"\032\355\354\217J\243\235\271xLy\313\214~&\203\347\372"
  74      4AA39DB9 
  74      784C79CB 
  74      8C7E2683 
  74      E7FA
  75 02ff D99F87A5 		.ascii	"\331\237\207\245\237\3754\325\317\276L\267\307&?ilw"
  75      9FFD34D5 
  75      CFBE4CB7 
  75      C7263F69 
  75      6C77
  76 0311 EB8C4D39 		.ascii	"\353\214M93'\354g\275\315\305\223\024\3043G^\346\342"
  76      3327EC67 
  76      BDCDC593 
  76      14C43347 
  76      5EE6E2
  77 0324 B7D8AE59 		.ascii	"\267\330\256Y]\207R\265\302c\335t\347::\343T\0029\366"
  77      5D8752B5 
  77      C263DD74 
  77      E73A3AE3 
  77      540239F6 
  78 0338 E58E0E47 		.ascii	"\345\216\016G\377s\201S(:A\201;\274\327\017z:80^\314"
  78      FF738153 
  78      283A4181 
  78      3BBCD70F 
  78      7A3A3830 
  79 034e BF56FF9D 		.ascii	"\277V\377\235\347|?\267\305\311\347\012\305\300ywm\347"
  79      E77C3FB7 
ARM GAS  /tmp/ccDW51PZ.s 			page 6


  79      C5C9E70A 
  79      C5C07977 
  79      6DE7
  80 0360 EACE1D34 		.ascii	"\352\316\0354\230\347\012\331\215\333\337\364;z!\261"
  80      98E70AD9 
  80      8DDBDFF4 
  80      3B7A21B1 
  81 0370 DDDDBC2D 		.ascii	"\335\335\274-\273|\232\234\354\216\242\263\272\263\353"
  81      BB7C9A9C 
  81      EC8EA2B3 
  81      BAB3EB
  82 037f BD2EC7DB 		.ascii	"\275.\307\333\3027o\333\224u\270\037x\301\306\036\316"
  82      C2376FDB 
  82      9475B81F 
  82      78C1C61E 
  82      CE
  83 0390 296F6103 		.ascii	")oa\003\213xLo\2603\240\357m\235]k3\335n\220\315\027"
  83      8B784C6F 
  83      B033A0EF 
  83      6D9D5D6B 
  83      33DD6E90 
  84 03a6 BC6599C5 		.ascii	"\274e\231\305\257\203Q\000\313\317\372\271\302N0\212"
  84      AF835100 
  84      CBCFFAB9 
  84      C24E308A 
  85 03b6 7956DC9A 		.ascii	"yV\334\232\317<\037\202\367n\"\214\177\001\341\232\330"
  85      CF3C1F82 
  85      F76E228C 
  85      7F01E19A 
  85      D8
  86 03c7 03       		.ascii	"\003"
  87              		.text
  88              		.section	.gnu.lto_chMsgWait.4f9d1600967e0a7f,"",%progbits
  89 0000 789C9D55 		.ascii	"x\234\235Ukh\024W\024>\347\316\354N\222}T\354\237j5"
  89      6B681457 
  89      143EE7CE 
  89      EC4E927D 
  89      54EC9F6A 
  90 0015 2E82507C 		.ascii	".\202P|d,\376(\371\327\342/\301 \030E\375%\223q\331"
  90      642CFE28 
  90      F9D7E22F 
  90      C1201845 
  90      FD259371 
  91 002a 1D70DDB8 		.ascii	"\035p\335\270\263\212\232\037\336<\012Z\025S[\360\021"
  91      B38A9A1F 
  91      DE3C0A5A 
  91      15535BF0 
  91      11
  92 003b 82CF5654 		.ascii	"\202\317VT\324R[\010\024qK\203F\304\224\010\202\266"
  92      D4525B08 
  92      14714B83 
  92      46C49408 
  92      82B6
  93 004d 3F5C2D6D 		.ascii	"?\\-mU\024\224\"\006\211\331\236{\357\314\354\003\363"
  93      55149422 
  93      0689D99E 
  93      7BEFCCEC 
ARM GAS  /tmp/ccDW51PZ.s 			page 7


  93      03F3
  94 005f C0BB3B33 		.ascii	"\300\273;3g\356\343;\337\371\356\271g\0300\250m\313"
  94      67EEE33B 
  94      DFF9EEB9 
  94      671830A8 
  94      6DCB
  95 0071 E89A6F00 		.ascii	"\350\232o\000\030\010\200!@\326;\014\320Y\307\230\366"
  95      18088021 
  95      40D63B0C 
  95      D059C798 
  95      F6
  96 0082 CA00DEA0 		.ascii	"\312\000\336\240\367]\007\340Q\015u\325\257#\012\003"
  96      F75D07E0 
  96      510D75D5 
  96      AF230A03 
  97 0092 1076334D 		.ascii	"\020v3M\307\335\033P\200\340|8\311\371\241\342\227\343"
  97      C7DD1B50 
  97      80E07C38 
  97      C9F9A1E2 
  97      97E3
  98 00a4 8FF1282F 		.ascii	"\217\361(/\364\234\340c\245\022\242\203\344\260\021"
  98      F49CE063 
  98      A512A283 
  98      E4B011
  99 00b3 C146584F 		.ascii	"\301FXO/\230\220\017\246W3\270\314\012\305Ri\354\352"
  99      2F98900F 
  99      A65733B8 
  99      CC0AC552 
  99      69ECEA
 100 00c6 B387FB70 		.ascii	"\263\207\373p\346\207:\320\252\260\270\031t\323\"\302"
 100      E6873AD0 
 100      AAB0B819 
 100      74D322C2 
 101 00d6 8A0A2B06 		.ascii	"\212\012+\006\026\236$Gq\321C-\004=\234\367&T'\010\037"
 101      169E2447 
 101      71D1432D 
 101      043D9CF7 
 101      26542708 
 102 00eb D4D6D05D 		.ascii	"\324\326\320]\360[\213L<\265\233\320UG\361)v\337\234"
 102      F05B8B4C 
 102      3CB59BD0 
 102      5547F129 
 102      76DF9C
 103 00fe BBFD2B1E 		.ascii	"\273\375+\036\352\346C\274\247@\364\3469\2503X5\025"
 103      EAE643BC 
 103      A740F4E6 
 103      39A83358 
 103      3515
 104 0110 3DD1A727 		.ascii	"=\321\247'\310\030\206\256\227\027\273\277\237\3559"
 104      C81886AE 
 104      9717BBBF 
 104      9FED39
 105 011f F61914CE 		.ascii	"\366\031\024\316\336\351\323>\261\360\214\244\341\365"
 105      DEE9D33E 
 105      B1F08CA4 
 105      E1F5
 106 012d 5DFB7634 		.ascii	"]\373v42'x\333\373\226hYx\232\364\265Q\370ctiR8\372"
ARM GAS  /tmp/ccDW51PZ.s 			page 8


 106      322778DB 
 106      FB966859 
 106      789AF4B5 
 106      51F86374 
 107 0145 9D2593F6 		.ascii	"\235%\223\366ES\233\323\010\003\330\317\217|\356\320"
 107      45539BD3 
 107      0803D8CF 
 107      8F7CEED0 
 108 0155 E44AEFE5 		.ascii	"\344J\357\345\361_\274\361\260\342w\033\272\376\030"
 108      F15FBCF1 
 108      B0E2771B 
 108      BAFE18
 109 0164 1D1F650A 		.ascii	"\035\037e\012?\205\372\"XH\012-\202\363\234\332V\007"
 109      3F85FA22 
 109      58480A2D 
 109      82F39CDA 
 109      5607
 110 0176 8D3E38D6 		.ascii	"\215>8\326\311\371\014\007\353:\340\015\337#\254\372"
 110      C9F90C07 
 110      EB3AE00D 
 110      DF23ACFA 
 111 0186 0CFAE8F5 		.ascii	"\014\372\350\365\022\245\015\301{z\006\220t\005S\201"
 111      12A50DC1 
 111      7B7A0690 
 111      74055381 
 112 0196 2AFD0A0F 		.ascii	"*\375\012\017n\034\230\305Ot\365\362qR\217\\XxJF2\231"
 112      6E1C98C5 
 112      4F74F5F2 
 112      71528F5C 
 112      58784A46 
 113 01ac 7AC44751 		.ascii	"z\304GQ\034{t\377\330\256Z\351n\275}\031\262\360\212"
 113      1C7B74FF 
 113      D8AE5AE9 
 113      6EBD7D19 
 113      B2F08A
 114 01bf 54CED747 		.ascii	"T\316\327GW\313\"*\200\342\341\341\273#\250\225\003"
 114      57CB222A 
 114      80E2E1E1 
 114      BB23A895 
 114      03
 115 01d0 5AE76043 		.ascii	"Z\347`C\020P\204\340\205W\237;\0230?\013\345\332\204"
 115      105084E0 
 115      85579F3B 
 115      13303F0B 
 115      E5DA84
 116 01e3 BE9E2D09 		.ascii	"\276\236-\011\274\351>\257Y\370\223\224(\332\001\273"
 116      BCE93EAF 
 116      59F89394 
 116      28DA01BB 
 117 01f3 28A33CC4 		.ascii	"(\243<\304?qz\220\001\332\020\014\376\373\360\357\361"
 117      3F717A90 
 117      01DA100C 
 117      FEFBF0EF 
 117      F1
 118 0204 A5BEE2B4 		.ascii	"\245\276\342\264$Z\216x-y~eh\277COq\354\267\0065\007"
 118      245A8E78 
 118      2D797E65 
ARM GAS  /tmp/ccDW51PZ.s 			page 9


 118      68BF434F 
 118      71ECB706 
 119 021a 20503E6A 		.ascii	" P>j+\020\251VL$s\334_\247\313\224\025b\335+\335\323"
 119      2B10A956 
 119      4C2473DC 
 119      5FA7CB94 
 119      1562DD2B 
 120 0230 7CF4B0BF 		.ascii	"|\364\260\277\237\013\337{+e\370\377\240\217hT\205\377"
 120      9F0BDF7B 
 120      2B65F8FF 
 120      A08F6854 
 120      85FF
 121 0242 B5173ECA 		.ascii	"\265\027>\312\330\3035\261\373MdC\363d\331\2401\370"
 121      D8C335B1 
 121      FB4D6443 
 121      F364D9A0 
 121      31F8
 122 0254 0BA73A4B 		.ascii	"\013\247:K\344\333\313\206\377F\372O\033^:(@\376#\347"
 122      E4DBCB86 
 122      FF46FA4F 
 122      1B5E3A28 
 122      40FE23E7 
 123 0268 F5B27068 		.ascii	"\365\262ph\323\314\255 \215\366\225,\013\007\253\262"
 123      D3CCAD20 
 123      8DF6952C 
 123      0B07ABB2 
 124 0278 28ACDCC5 		.ascii	"(\254\334\305\274,:~\360\371\254%\004\033\350\327\340"
 124      BC2C3A7E 
 124      F0F9AC25 
 124      041BE8D7 
 124      E0
 125 0289 85AA2D56 		.ascii	"\205\252-V\241\312l\031R[#b\235k\341uz\263\360\006\301"
 125      A1CA6C19 
 125      525B2362 
 125      9D6BE175 
 125      7AB3F006 
 126 029e 128EA27D 		.ascii	"\022\216\242}\344\365\376\225j \205\361\252s\326Q\223"
 126      E4F5FE95 
 126      6A2085F1 
 126      AA73D651 
 126      93
 127 02af 43B14A1D 		.ascii	"C\261J\035\365\000\274\332\021A\336\374!\256\000=\234"
 127      F500BCDA 
 127      1141DEFC 
 127      21AE003D 
 127      9C
 128 02c0 D8F448A6 		.ascii	"\330\364H\246D\326\320\362[\003\257\3677W\001\254+s"
 128      44D6D0F2 
 128      5B03AFF7 
 128      375701AC 
 128      2B73
 129 02d2 6AAEE114 		.ascii	"j\256\341\024\237\210S\250\002\327\220\361\277xt\355"
 129      9F8853A8 
 129      02D790F1 
 129      BF7874ED 
 130 02e2 2325A55F 		.ascii	"#%\245__\245\273\201\321\322c/\215<\037\021\007?\010"
 130      5FA5BB81 
ARM GAS  /tmp/ccDW51PZ.s 			page 10


 130      D1D2632F 
 130      8D3C1F11 
 130      073F08
 131 02f5 92A72AE8 		.ascii	"\222\247*\350p9\313cJ\324\212J\374d\270\266\022[\370"
 131      7039CB63 
 131      4AD48A4A 
 131      FC64B8B6 
 131      125BF8
 132 0308 DD941B2E 		.ascii	"\335\224\033.\213\2410&,\305O\373E)\276[]\212\217\307"
 132      8BA13026 
 132      2CC54FFB 
 132      4529BE5B 
 132      5D8A8FC7 
 133 031c 1A83CF45 		.ascii	"\032\203\317E\271&\017\262r\266\030\002\324\306\272"
 133      B9260FB2 
 133      72B61802 
 133      D4C6BA
 134 032b 7794650B 		.ascii	"w\224e\013/\220\021x\366\313\260\205\227\260Q\261\032"
 134      2F901178 
 134      F6CBB085 
 134      97B051B1 
 134      1A
 135 033c 81CEE257 		.ascii	"\201\316\342WI\377p\305T\347\032:\013t\232\305\334\217"
 135      49FF70C5 
 135      54E71A3A 
 135      0B749AC5 
 135      DC8F
 136 034e 9B9A4CF5 		.ascii	"\233\232L\365\317\272f.o\2729\333\264\323\0317\325d"
 136      CFBA662E 
 136      6FBA39DB 
 136      B4D31937 
 136      D564
 137 0360 03CBB72F 		.ascii	"\003\313\267/\251\034\266\263\231Lv\213\331\236\315"
 137      A91CB6B3 
 137      994C768B 
 137      D99ECD
 138 036f E55DF38B 		.ascii	"\345]\363\213\325-\313[v\320\\;\233Kn\334\376Y\246)"
 138      D52DCB5B 
 138      76D05C3B 
 138      9B4B6EDC 
 138      FE59A629 
 139 0383 0DA1EDD6 		.ascii	"\015\241\355\326\346m\311O\337\261&\271#o.oi]\321j:"
 139      E66DC94F 
 139      DFB126B9 
 139      236F2E6F 
 139      695DD16A 
 140 0398 5BECCDDB 		.ascii	"[\354\315\3336%M;\343:\356\306\224m\323\272y5$\2029"
 140      36254D3B 
 140      E33AEEC6 
 140      946DD3BA 
 140      79352482 
 141 03ad 6977A74B 		.ascii	"iw\247K\3433ZZW'\332,7\331\236s\026'\026,\005\226\003"
 141      E3335A5A 
 141      5727DA2C 
 141      37D99E73 
 141      1627162C 
 142 03c4 2393CC64 		.ascii	"#\223\314ds;'Y+\202H\203\226\337\332\236\230\030\337"
ARM GAS  /tmp/ccDW51PZ.s 			page 11


 142      733B2759 
 142      2B824883 
 142      96DFDA9E 
 142      9818DF
 143 03d7 4E6FA249 		.ascii	"No\242I\377\003\231\311\373\333"
 143      FF0399C9 
 143      FBDB
 144              		.text
 145              		.section	.gnu.lto_chMsgRelease.4f9d1600967e0a7f,"",%progbits
 146 0000 789C8D52 		.ascii	"x\234\215RMh\023Q\020\236y\333m\242\"\366\352\017\351"
 146      4D681351 
 146      109E79DB 
 146      6DA222F6 
 146      EA0FE9
 147 0013 522878D0 		.ascii	"R(x\320\254\236\274*=\011\346\322T\320SY\237K\262\320"
 147      AC9EBC2A 
 147      3D09E6D2 
 147      54D05359 
 147      9F4BB2D0 
 148 0027 ED86DDB4 		.ascii	"\355\206\335\264\264x\350KZA{1\004\017\202\024\255\212"
 148      B478E84B 
 148      5A417B31 
 148      040F8214 
 148      AD8A
 149 0039 3FC5B650 		.ascii	"?\305\266P\025<\351\212\027K1RPO\036r\022\275\325[\261"
 149      153CE98A 
 149      174B3152 
 149      504F1E72 
 149      12BDD55B 
 150 004e 9675DE6E 		.ascii	"\226u\336n\262&\241Z\037\373~vf\336\367\315\314\367"
 150      B226A15A 
 150      1FFB7E76 
 150      66DEF7CD 
 150      CCF7
 151 0060 1830E81C 		.ascii	"\0300\350\034\007i*\012\300W\332Q\001d\225\032@)\311"
 151      07692A0A 
 151      C057DA51 
 151      0164951A 
 151      4029C9
 152 0073 10E50110 		.ascii	"\020\345\001\020\246\030N]\3040v\231\371\365 Xz5\273"
 152      A6184E5D 
 152      C4307699 
 152      F9F52058 
 152      7A35BB
 153 0086 F40517D8 		.ascii	"\364\005\027\330^\005m\204.Z\244W\205\031!*\232\215"
 153      5E056D84 
 153      2E5AA457 
 153      8519212A 
 153      9A8D
 154 0098 44C1C3F0 		.ascii	"D\301\303\360!Z%\306y2\321\256\254B9\011\320\007\363"
 154      215A25C6 
 154      7932D1AE 
 154      AC423909 
 154      D007F3
 155 00ab 4254EBDB 		.ascii	"BT\353\333\217\337\277\301\352\264x'f\374 \300^\013"
 155      8FDFBFC1 
 155      EAB47827 
ARM GAS  /tmp/ccDW51PZ.s 			page 12


 155      66FC20C0 
 155      5E0B
 156 00bd 29B77328 		.ascii	")\267s(\257^@\013Q\0137\326\325\236\254\264\201F\207"
 156      AF5E400B 
 156      510B37D6 
 156      D59EACB4 
 156      814687
 157 00d0 1A947F2C 		.ascii	"\032\224\177,L?<\324`m\322\373[\353\267\225\243\006"
 157      4C3F3CD4 
 157      606DD2FB 
 157      5BEBB795 
 157      A306
 158 00e2 DEC3BE38 		.ascii	"\336\303\2768%\377\331\315\315}G\342\277\325\217\224"
 158      25FFD9CD 
 158      CD7D47E2 
 158      BFD58F94 
 159 00f2 A081F3A8 		.ascii	"\240\201\363\250\022\227\344c4\025\010KEx@G\362+Q\243"
 159      1297E463 
 159      3415084B 
 159      45784047 
 159      F22B51A3 
 160 0106 52F002E7 		.ascii	"R\360\002\347\304\255\323V\024\020\263\377\361\277l"
 160      C4ADD356 
 160      1410B3FF 
 160      F1BF6C
 161 0115 F81B79B6 		.ascii	"\370\033y\266\226\350\277\236]CQ\025\245\215 8`\241"
 161      96E8BF9E 
 161      5D435115 
 161      A58D2038 
 161      60A1
 162 0127 CAC0C7DD 		.ascii	"\312\300\307\335\352\313I\242\026\220\212X\021b\317"
 162      EACB49A2 
 162      16908A58 
 162      1162CF
 163 0136 5DF12B08 		.ascii	"]\361+\010\024\013\273\031\274\375\017\0102|\200\253"
 163      140BBB19 
 163      BCFD0F08 
 163      327C80AB 
 164 0146 1B371E6D 		.ascii	"\0337\036mmbg\177\326>\225U\003\227\251=\006.\206Mj"
 164      6D62677F 
 164      D63E9555 
 164      0397A93D 
 164      062E864D 
 165 015b B6A20173 		.ascii	"\266\242\001s\005~\212k\242\307\302\004G\212\\!_\224"
 165      057E8A6B 
 165      A2C7C204 
 165      478A5C21 
 165      5F94
 166 016d 17E15A98 		.ascii	"\027\341Z\230l/\261\276\375\255\326\251\242\201\367"
 166      6C2FB1BE 
 166      FDADD6A9 
 166      A281F7
 167 017c C396EE2A 		.ascii	"\303\226\356*#\374K\306\357sR\306\347\3552\336\331\237"
 167      23FC4BC6 
 167      EF7352C6 
 167      E7ED32DE 
 167      D99F
ARM GAS  /tmp/ccDW51PZ.s 			page 13


 168 018e 8ADF596C 		.ascii	"\212\337Yl\276\376\271E\317n\011\3121\261\203\244\006"
 168      BEFEB945 
 168      CF6E09CA 
 168      31B183A4 
 168      06
 169 019f 3EA143CC 		.ascii	">\241C\314\334\224\320\300\247\230\212,\353P\252/\366"
 169      DC94D0C0 
 169      A7988A2C 
 169      EB50AA2F 
 169      F6
 170 01b0 4750CD31 		.ascii	"GP\3151D\375\246\267+C\017\247\323z\3649\236\356\026"
 170      44FDA6B7 
 170      2B430FA7 
 170      D37AF439 
 170      9EEE16
 171 01c3 75CFE53A 		.ascii	"u\317\345:\317\333^.\315\341x\253\217;\266\355\214\352"
 171      CFDB5E2E 
 171      CDE178AB 
 171      8F3BB6ED 
 171      8CEA
 172 01d5 05C72D7A 		.ascii	"\005\307-z\372\231\301\314@f\202\002\271\343\232\303"
 172      FA99C1CC 
 172      40668202 
 172      B9E39AC3 
 173 01e5 E3A7EC74 		.ascii	"\343\247\354t\036\324qcd\314<\271\303\035s\242\250\017"
 173      1ED47163 
 173      64CC3CB9 
 173      C31D73A2 
 173      A80F
 174 01f7 64B267B3 		.ascii	"d\262g\263\2725\312G\306.\233:\267=\313\033\316qN\367"
 174      BA35CA47 
 174      C62E9B3A 
 174      B73DCB1B 
 174      CE714EF7 
 175 020b 7A3B3288 		.ascii	"z;2\210c\362\336\244G\376\236LvP\273dxf\301\265\216"
 175      63F2DEA4 
 175      47FE9E4C 
 175      7650BB64 
 175      7866C1B5 
 176 0220 69FD2780 		.ascii	"i\375'\200\271\220\260M\333q'\201\025\013\012\345\372"
 176      B990B04D 
 176      DB712781 
 176      150B0AE5 
 176      FA
 177 0231 77085948 		.ascii	"w\010YH\036~\003\230\370\370\303"
 177      1E7E0398 
 177      F8F8C3
 178              		.text
 179              		.section	.gnu.lto_.symbol_nodes.4f9d1600967e0a7f,"",%progbits
 180 0000 789C45C8 		.ascii	"x\234E\310\273\015\2000\020\203a\373.\241d\005F=$\032"
 180      BB0D8030 
 180      108361FB 
 180      2EA16405 
 180      463D241A 
 181 0014 44C5046C 		.ascii	"D\305\004lA\307\263@\351\330\001\3212\003\"\022\210"
 181      41C7B340 
 181      E9D801D1 
ARM GAS  /tmp/ccDW51PZ.s 			page 14


 181      32032212 
 181      88
 182 0025 B8FA3F0B 		.ascii	"\270\372?\013\004\206o20v\273\003f]M?3\026d\2441\275"
 182      04866F32 
 182      3076BB03 
 182      665D4D3F 
 182      331664A4 
 183 003b 32D12491 		.ascii	"2\321$\221+M_\226%\271\320\\\322F\363\277\024\036g\010"
 183      2B4D5F96 
 183      25B9D05C 
 183      D246F3BF 
 183      141E6708 
 184 004f AA70A89A 		.ascii	"\252p\250\232\253Pq8\373\\5Cu\334\304\003p%%9"
 184      AB507138 
 184      FB5C3543 
 184      75DCC403 
 184      70252539 
 185              		.text
 186              		.section	.gnu.lto_.refs.4f9d1600967e0a7f,"",%progbits
 187 0000 789C6362 		.ascii	"x\234cb`b\340f\200\000F bb\002R\214\014\000\001s\000"
 187      6062E066 
 187      80004620 
 187      62620252 
 187      8C0C0001 
 188 0016 18       		.ascii	"\030"
 189              		.text
 190              		.section	.gnu.lto_.decls.4f9d1600967e0a7f,"",%progbits
 191 0000 789CAD5A 		.ascii	"x\234\255Z{p\024\307\231\237\236\221\264\273\222x\330"
 191      7B7014C7 
 191      999F9E91 
 191      B4BB9278 
 191      D8
 192 0011 495C50C9 		.ascii	"I\\P\311\235\345+'\225\270\312\010\362\260I\252.\266"
 192      9DE52B27 
 192      95B8CA08 
 192      F2B049AA 
 192      2EB6
 193 0023 C3F90C55 		.ascii	"\303\371\014U\307\025\205\316\345T%u\353a5H\033\366"
 193      C71585CE 
 193      E5542575 
 193      EB613548 
 193      1BF6
 194 0035 E5DD118F 		.ascii	"\345\335\021\217\277<\022\017\021b[\022o\2351\010\214"
 194      BF3C120F 
 194      11625B12 
 194      6F9D3108 
 194      8C
 195 0046 6D6288B1 		.ascii	"mb\210\261Eb#\236+\022\260\300\234@\030\220y\3131\340"
 195      4562239E 
 195      2B12B0C0 
 195      9C401890 
 195      79CB31E0 
 196 005a 0718A3F0 		.ascii	"\007\030\243\3600/\243\373\372\233\236\335\231\336\231"
 196      302FA3FB 
 196      FA9B9EDD 
 196      99DE99
 197 0069 DD19B829 		.ascii	"\335\031\270)u\253g\266\277_\177\337\327\337\367u\367"
ARM GAS  /tmp/ccDW51PZ.s 			page 15


 197      75AB67B6 
 197      BF5F7FDF 
 197      D7DFF775 
 197      F7
 198 007a 37230AA2 		.ascii	"7#\012\242\360\240(\010\003p\375\323hA\370\272X\020"
 198      F0A02808 
 198      0370FDD3 
 198      6841F8BA 
 198      5810
 199 008c 8A0441F8 		.ascii	"\212\004A\370%\024\302\012\275J\240\254\204\362\014"
 199      2514C20A 
 199      BD4AA0AC 
 199      84F20C
 200 009b 3CF80D94 		.ascii	"<\370\015\224\020\224\032(S\210\336'jtd\027\355\373"
 200      10941A28 
 200      5388DE27 
 200      6A746417 
 200      EDFB
 201 00ad 6D286BA1 		.ascii	"m(k\241\014\206R\016\245\203\365\255\203*\006e\023\224"
 201      0C86520E 
 201      A583F5AD 
 201      832A0665 
 201      1394
 202 00bf 1D70BF19 		.ascii	"\035p\277\031\376o\205\362*\264\007\301\377u\360\177"
 202      FE6F85F2 
 202      2AB407C1 
 202      FF75F07F 
 203 00cf 03949B50 		.ascii	"\003\224\233P\266\303}-\2244\224j(\245\360L\205\377"
 203      B6C37D2D 
 203      9434946A 
 203      28A5F04C 
 203      85FF
 204 00e1 1A947228 		.ascii	"\032\224r(\337\205\362\357P\332)>\305\202r\003\312\020"
 204      DF85F2EF 
 204      50DA293E 
 204      C5827203 
 204      CA10
 205 00f3 7816607C 		.ascii	"x\026`|tB{'\224.(=\214o\312\377Q('\210.\357\177\301"
 205      74427B27 
 205      942E283D 
 205      8C6FCAFF 
 205      51282788 
 206 010b FF8950FA 		.ascii	"\377\211P\372H\256,T\346\2416\262\230y7\313Dy\2472\244"
 206      48AE2C54 
 206      E6A136B2 
 206      987937CB 
 206      4479A732 
 207 0120 99BC946F 		.ascii	"\231\274\224o*\213\317\304;\345\231\362\333n\3429\300"
 207      2A8BCFC4 
 207      3BE599F2 
 207      DB6EE239 
 207      C0
 208 0131 C632F37B 		.ascii	"\3062\363{\226\361\372\225\211_;}\377\206\311\273\303"
 208      96F1FA95 
 208      895F3B7D 
 208      FF86C9BB 
 208      C3
ARM GAS  /tmp/ccDW51PZ.s 			page 16


 209 0142 C4A3C11B 		.ascii	"\304\243\301\033\345\233\352\366\012\264\177\313\350"
 209      E59BEAF6 
 209      0AB47FCB 
 209      E8
 210 014f FC8CC63C 		.ascii	"\374\214\306<\326U6\237\3068\022\364y\026\376\313\224"
 210      D655369F 
 210      C63812F4 
 210      7916FECB 
 210      94
 211 0160 7F6EBCFB 		.ascii	"\177n\274\373\205\345Z[_\337\231s\033\207km\015\351"
 211      85E55A5B 
 211      5FDF9973 
 211      1B876B6D 
 211      0DE9
 212 0172 8181C784 		.ascii	"\201\201\307\204\373\204E\032\\ms4\215\250\001a.\273"
 212      FB84451A 
 212      5C6D7334 
 212      8DA80161 
 212      2EBB
 213 0184 19DB05FC 		.ascii	"\031\333\005\374\374\232\310dp@\250\300Fy\000U\376}"
 213      FC9AC864 
 213      7040A8C0 
 213      46790055 
 213      FE7D
 214 0196 61B5A635 		.ascii	"a\265\2465\367}\263\372\205\177\3254\277L^%\0010FP\300"
 214      F77DB3FA 
 214      857FD534 
 214      BF4C5E25 
 214      01304650 
 215 01ab 43C21F81 		.ascii	"C\302\037\201\264Y\323VUr\243\342\345\036\272\365\375"
 215      B459D356 
 215      5572A3E2 
 215      E51EBAF5 
 215      FD
 216 01bc 7D3DA401 		.ascii	"}=\244\001\330\221\311\033\010\276\221\020\220\346u"
 216      D891C91B 
 216      08BE9110 
 216      90E675
 217 01cb F2108392 		.ascii	"\362\020\203\222II\300\014\215\367F\007\212\007\267"
 217      4949C00C 
 217      8DF74607 
 217      8A07B7
 218 01da 74AC6BD4 		.ascii	"t\254k\324=\310\363\354\011\275\361\011wLg\3070\205"
 218      3DC8F3EC 
 218      09BDF109 
 218      774C67C7 
 218      3085
 219 01ec 5845EEC3 		.ascii	"XE\356\303\226\004\214\302U&\314\323\264\006&\346\275"
 219      96048CC2 
 219      5526CCD3 
 219      B40626E6 
 219      BD
 220 01fd 420BC5AB 		.ascii	"B\013\305\2530\011\334Vd\000\374[V\342\226\356\355\277"
 220      3009DC56 
 220      6400FC5B 
 220      56E296EE 
 220      EDBF
ARM GAS  /tmp/ccDW51PZ.s 			page 17


 221 020f 4065AE23 		.ascii	"@e\256#\367\002\314\031N\336\2020\242p\001I\326\003"
 221      F702CC19 
 221      4EDE8230 
 221      A2700149 
 221      D603
 222 0221 B94E88C0 		.ascii	"\271N\210\300Z_\177\323\211\006R\217\252\244\277\011"
 222      5A5F7FD3 
 222      8906528F 
 222      AAA4BF09 
 223 0231 1658CBF5 		.ascii	"\026X\313\365\200\320\006\004\351\257\367,#Z\333\016"
 223      80D00604 
 223      E9AFF72C 
 223      235ADB0E 
 224 0241 6233E4E3 		.ascii	"b3\344\343\306\210~\023\343/\035l!\263\020\177\003\262"
 224      C6887E13 
 224      E32F1D6C 
 224      21B3107F 
 224      03B2
 225 0253 DE2ADAB2 		.ascii	"\336*\332\262\336\366\270\023\220(\374\021I\336\315"
 225      DEF6B813 
 225      9028FC11 
 225      49DECD
 226 0262 617DDF3E 		.ascii	"a}\337>\203\365w]\260\336\220\356\231\367\312p\312\272"
 226      83F5775D 
 226      B0DE90EE 
 226      99F7CA70 
 226      CABA
 227 0274 4CD69232 		.ascii	"L\326\2222\300\335\224\301\265\233:\326\324/\326\301"
 227      C0DD94C1 
 227      B59B3AD6 
 227      D42FD6C1 
 228 0284 8A77604F 		.ascii	"\212w`Oy\263l\200m\367\014Va\307\252awYie\262\221|\037"
 228      79B36C80 
 228      6DF70C56 
 228      61C7AA61 
 228      77596965 
 229 029c EA0EF200 		.ascii	"\352\016\362\000\324\233\241\316\\\242\3607\321\230"
 229      D49BA1CE 
 229      5CA2F037 
 229      D198
 230 02aa 553BD515 		.ascii	"U;\325\025\026\341\372\236e\250\022\364\275\006Wn\335"
 230      16E1FA9E 
 230      65A812F4 
 230      BD06576E 
 230      DD
 231 02bb C6DC7A3B 		.ascii	"\306\334z;z\336\036n:\335\003\2656\036\354gN\274\003"
 231      7ADE1E6E 
 231      3ADD03B5 
 231      361EEC67 
 231      4EBC03
 232 02ce A10E88BC 		.ascii	"\241\016\210\274\023\3738'\366Y\235\021\177f\015\352"
 232      13FB3827 
 232      F6599D11 
 232      7F660DEA 
 233 02de 834304AF 		.ascii	"\203C\004\257\335E\341\030\257@\273i\363;)\220\032\341"
 233      DD45E118 
 233      AF40BB69 
ARM GAS  /tmp/ccDW51PZ.s 			page 18


 233      F33B2990 
 233      1AE1
 234 02f0 C9F964C1 		.ascii	"\311\371d\301L\255k\244a\310%Nr\213B\037\016\366>o\310"
 234      4CAD6BA4 
 234      61C8254E 
 234      728B421F 
 234      0EF63E6F 
 235 0305 9B7BF71A 		.ascii	"\233{\367\032\206\374\276+C\376\313\236%8k\005C\211"
 235      86FCBE2B 
 235      43FECB9E 
 235      25386B05 
 235      4389
 236 0317 688CFF20 		.ascii	"h\214\377 \216\277D\242\343\357\345\307_r\354\370l6"
 236      8EBF44A2 
 236      E3EFE5C7 
 236      5F72ECF8 
 236      6C36
 237 0329 FE5E57E3 		.ascii	"\376^W\343w\364.\314\035_&\277\374N\276\371\336\334"
 237      77F42ECC 
 237      1D5F26BF 
 237      FC4EBEF9 
 237      DEDC
 238 033b 7BB69F8D 		.ascii	"{\266\237\215\262\037=\246G\342\347\373\2612\353\004"
 238      B21F3DA6 
 238      47E2E7FB 
 238      B132EB04 
 239 034b C2BDA983 		.ascii	"\302\275\251\203(\034\315\360\177G\016\013\202^XD\346"
 239      281CCDF0 
 239      7F470E0B 
 239      825E5844 
 239      E6
 240 035c D3C93278 		.ascii	"\323\3112x8\341\031\261\302\242\211-\275\030\002t\260"
 240      38E119B1 
 240      C2A2892D 
 240      BD180274 
 240      B0
 241 036d 3E37608E 		.ascii	">7`\216\266\324\220\336f\006\373\3043\230\225\263\375"
 241      B6D490DE 
 241      6606FBC4 
 241      339895B3 
 241      FD
 242 037e 66B0B36E 		.ascii	"f\260\263n\300\206:sv\300\014\366\271g0+g\007\315`\347"
 242      C0863A73 
 242      76C00CF6 
 242      B967302B 
 242      6707CD60 
 243 0393 DD800D73 		.ascii	"\335\200\015s\346\354\260\031\354\242g0+g\037\231\301"
 243      E6ECB019 
 243      ECA26730 
 243      2B671F99 
 243      C1
 244 03a4 2EBB01AB 		.ascii	".\273\001\253\260\341,s9m\010> \031;\027\205\257%#&"
 244      B0E12C73 
 244      396D083E 
 244      20193B17 
 244      85AF2523 
 245 03b9 78B46921 		.ascii	"x\264i!\213qC\362\032\304,rC\020;\265J\017b\306jv\333"
ARM GAS  /tmp/ccDW51PZ.s 			page 19


 245      8B7143F2 
 245      1AC42C72 
 245      43103BB5 
 245      4A0F62C6 
 246 03d0 0D621E83 		.ascii	"\015b\036\203i\376\300\2644\316*\362\012f\235\226\345"
 246      69FEC0B4 
 246      34CE2AF2 
 246      0A669D96 
 246      E5
 247 03e1 14CC126B 		.ascii	"\024\314\022k\330*\323\367Zz\330\322l\270\363\033Xt"
 247      D82AD3F7 
 247      5A7AD8D2 
 247      6CB8F31B 
 247      5874
 248 03f3 77A9C736 		.ascii	"w\251\3076\330l\212\231\316\332\260a\366}e\362%.\261"
 248      D86C8A99 
 248      CEDAB061 
 248      F67D65F2 
 248      252EB1
 249 0406 174820C3 		.ascii	"\027H \303\205\3366Z\003\204\352y^\221\335\276\025\001"
 249      85DE365A 
 249      0384EA79 
 249      5E91DDBE 
 249      1501
 250 0418 F2933A59 		.ascii	"\362\223:Y\3029\263%4\271QS\036W\330\357\244\246\364"
 250      C239B325 
 250      34B95153 
 250      1E57D8EF 
 250      A4A6F4
 251 042b 1C6D2EA9 		.ascii	"\034m.\251\177\347{y7j\233{/\254d\313\361%\\\216\027"
 251      7FE77B79 
 251      376A9B7B 
 251      2FAC64CB 
 251      F1255C8E 
 252 0440 16D9AEEC 		.ascii	"\026\331\256\354\256\300Z\033ou\222\231\010v\025\301"
 252      AEC05A1B 
 252      6F759299 
 252      087615C1 
 253 0450 5614F1B1 		.ascii	"V\024\361\261>\300\255\355\001\353b\035\010d\033\003"
 253      3EC0ADED 
 253      01EB621D 
 253      08641B03 
 254 0460 C665D5BE 		.ascii	"\306e\325\276k\032'\355\377\303\254\3755\236\265\317"
 254      6B1A27ED 
 254      FFC3ACFD 
 254      359EB5CF 
 255 0470 FBD0D5F9 		.ascii	"\373\320\325\371\344R\203\266t\244\311\336\362\032'"
 255      E45283B6 
 255      74A4C9DE 
 255      F21A27
 256 047f ECA52E9F 		.ascii	"\354\245.\237\223p/u\023\225\264\336^\343.\200Z\033"
 256      93702F75 
 256      1395B4DE 
 256      5EE32E80 
 256      5A1B
 257 0491 FF548940 		.ascii	"\377T\211@\267\365\343P\216\266\011\247mb\325\\\306"
 257      B7F5E350 
ARM GAS  /tmp/ccDW51PZ.s 			page 20


 257      8EB609A7 
 257      6D62D55C 
 257      C6
 258 04a2 6099BD7A 		.ascii	"`\231\275z\351+\012i^u\026\026\363D\312\214\352nyW\335"
 258      E92B0A69 
 258      5E751616 
 258      F344CA8C 
 258      EA6E7957 
 259 04b7 45A6BA99 		.ascii	"E\246\272\231\"\225xW\216\304\267=\212,\012\335\236"
 259      22957857 
 259      8EC4B73D 
 259      8A2C0ADD 
 259      9E
 260 04c8 C5F05BC5 		.ascii	"\305\360[\305h\032\360.\3065&\306\\\024\343\340\377"
 260      681AF02E 
 260      C63526C6 
 260      5C14E3E0 
 260      FF
 261 04d9 8318C73D 		.ascii	"\203\030\307=\2131\324$\006\036\253\026\352\213\301"
 261      8B31D424 
 261      061EAB16 
 261      EA8BC1
 262 04e8 B784F9F9 		.ascii	"\267\204\371\371w\264\224\237\027\305oYv\223\351C\335"
 262      77B4949F 
 262      17C56F59 
 262      7693E943 
 262      DD
 263 04f9 A4427F5C 		.ascii	"\244B\177\\\3700y\251{\031;\221\351I\202\217\221wJ{"
 263      F83079A9 
 263      7B193B91 
 263      E949828F 
 263      91774A7B 
 264 050d 271B3C2D 		.ascii	"'\033<-\335\274\017\227\035\035\354\263\273\002kH\257"
 264      DDBC0F97 
 264      1D1DECB3 
 264      BB026B48 
 264      AF
 265 051e 68328E8B 		.ascii	"h2\216\213\217\321U\254\377.\341\266\354\343\3033\267"
 265      8FD155AC 
 265      FF2EE1B6 
 265      ECE3C333 
 265      B7
 266 052f 7D5EE710 		.ascii	"}^\347\020{2'\351]\235,@/\021)C\327r\214e-\3416\320"
 266      7B3227E9 
 266      5D9D2C40 
 266      2F112943 
 266      D7728C65 
 267 0547 F481A98B 		.ascii	"\364\201\251\213\323\034.\026M\201\360\017\305w5\007"
 267      D31C2E16 
 267      4D81F00F 
 267      C5773507 
 268 0557 603F5716 		.ascii	"`?W\026\030\233\011}\"Z\356\012\021\016\251l\"\012\035"
 268      189B097D 
 268      225AEE0A 
 268      110EA96C 
 268      220A1D
 269 056a 779E35B0 		.ascii	"w\2365\260\312Q\220V\034v\205\310\235v^9\3277\207\351"
ARM GAS  /tmp/ccDW51PZ.s 			page 21


 269      CA519056 
 269      1C7685C8 
 269      9D765E39 
 269      D73787E9 
 270 057e 91FE56D8 		.ascii	"\221\376V\330H\217\235\011h\363\313\365\374\205L\266"
 270      488F9D09 
 270      68F3CBF5 
 270      FC854CB6 
 271 058e 1291A1DA 		.ascii	"\022\221\241\332\255\177\205M\364\244\3225\322C\022"
 271      AD7F854D 
 271      F4A4D235 
 271      D24312
 272 059d EDCFECB4 		.ascii	"\355\317\354\264\275Z\017s\305\374\224\277\301\307\007"
 272      BD5A0F73 
 272      C5FC94BF 
 272      C1C707
 273 05ac 0F092B51 		.ascii	"\017\011+Q\330\233Q\221\333\215#\1779\231\324r\263I"
 273      D89B5191 
 273      DB8D237F 
 273      3999D472 
 273      B349
 274 05be EDBF3B03 		.ascii	"\355\277;\003\000\223\332\265Z7\251B&\240\021\363~R"
 274      0093DAB5 
 274      5A37A942 
 274      26A011F3 
 274      7E52
 275 05d0 147A71E4 		.ascii	"\024zq\344\265\274\015\264|\325\325\310\316\242k]\331"
 275      B5BC0DB4 
 275      7CD5D5C8 
 275      CEA26B5D 
 275      D9
 276 05e1 C0151B1B 		.ascii	"\300\025\033\033X{\2076\000\006\375\371n\202p\372\376"
 276      587B8736 
 276      0006FDF9 
 276      6E8270FA 
 276      FE
 277 05f2 582B2156 		.ascii	"X+!V8\217\347\306[\212W\305\350\326\225>r\206\206\352"
 277      388FE7C6 
 277      5B8A57C5 
 277      E8D6953E 
 277      728686EA 
 278 0606 0D22CDCB 		.ascii	"\015\"\315\313\315)\311\211&\250\031\223ie\325(\223"
 278      CD29C989 
 278      26A81993 
 278      6965D528 
 278      93
 279 0617 3F8974C3 		.ascii	"?\211t\303\374\226HsR\353\261~G4e\246\234\314\242=k"
 279      FC964873 
 279      52EBB17E 
 279      473465A6 
 279      9CCCA23D 
 280 062c 1632D9C4 		.ascii	"\0262\331\304\253\321\355\261\245\3400o\232\255\357"
 280      ABD1EDB1 
 280      A5E0306F 
 280      9AADEF
 281 063b A592BBB3 		.ascii	"\245\222\273\263\276\213\373\272\213Z\265\364,\311C"
 281      BE8BFBBA 
ARM GAS  /tmp/ccDW51PZ.s 			page 22


 281      8B5AB5F4 
 281      2CC943
 282 064a 926C1D73 		.ascii	"\222l\035s\333\215\350\266\213rt\273\203w[7\271\252"
 282      DB8DE8B6 
 282      8B7274BB 
 282      83775B37 
 282      B9AA
 283 065c 95772A48 		.ascii	"\225w*H\346\202mn\211\213mn\205\215\316\215\350\336"
 283      E6826D6E 
 283      898B6D6E 
 283      858DCE8D 
 283      E8DE
 284 066e 7478A1CB 		.ascii	"tx\241\313|W&u\275\267\236e\200\267\241\245\275\311"
 284      7C572675 
 284      BDB79E65 
 284      80B7A1A5 
 284      BDC9
 285 0680 69C345E2 		.ascii	"i\303E\342\254\003I:y7\356o\312$\316:]\270qCz\203%\003"
 285      AC03493A 
 285      7937EE6F 
 285      CA24CE3A 
 285      5DB87143 
 286 0698 6C586067 		.ascii	"lX`g~\013\314\253Q\313$v\232\034\344\257\350 \1773;"
 286      7E0BCCAB 
 286      51CB2476 
 286      9A1CE4AF 
 286      E8207F33 
 287 06ad 8528EC76 		.ascii	"\205(\354v\243\375\037:\231\"\204\241\003z\362\335H"
 287      A3FD1F3A 
 287      992284A1 
 287      037AF2DD 
 287      48
 288 06be A6F7F078 		.ascii	"\246\367\360xv\201\310\202g\236M8\246\177\210\373%\335"
 288      7681C882 
 288      679E4D38 
 288      A67F88FB 
 288      25DD
 289 06d0 4A8FBA61 		.ascii	"J\217\272an\2443\330\212\005\206r\337\304\375\311'n"
 289      6EA433D8 
 289      8A058672 
 289      DFC4FDC9 
 289      276E
 290 06e2 F0463B09 		.ascii	"\360F;\011\333\220~\357Ccs\250\247\232\317y\306\263"
 290      DB907EEF 
 290      436373A8 
 290      A79ACF79 
 290      C6B3
 291 06f4 F2776881 		.ascii	"\362wh\201e?w\331\015\334\343\256\347>\373f\005B!f\023"
 291      653F77D9 
 291      0DDCE3AE 
 291      E73EFB66 
 291      05422166 
 292 0709 DA3161BF 		.ascii	"\3321a\277\015\353]X\237\305\3723\254\277\300\272\037"
 292      0DEB5D58 
 292      9FC5FA33 
 292      ACBFC0BA 
 292      1F
ARM GAS  /tmp/ccDW51PZ.s 			page 23


 293 071a EB1B5837 		.ascii	"\353\033X7`\030m\304\372\005\254\267b\275\013\353.\254"
 293      60186DC4 
 293      FA05ACB7 
 293      62BD0BEB 
 293      2EAC
 294 072c F760BD17 		.ascii	"\367`\275\027\353n7\001\227\333\001\262wP\372\316\014"
 294      EB6E3701 
 294      97DB01B2 
 294      7750FACE 
 294      0C
 295 073d 1B4F4B26 		.ascii	"\033OK&\373\274\301\271\346\203\302\253\2326\277\357"
 295      FBBCC1B9 
 295      E683C2AB 
 295      9A36BFEF 
 296 074d CCB98F24 		.ascii	"\314\271\217$\210\200E\231\204\216\217v[I\356\267\035"
 296      88804599 
 296      848E8F76 
 296      5B49EEB7 
 296      1D
 297 075e 96ED4391 		.ascii	"\226\355C\221\266Y{Y\031k\354\003\033\013\2201\236~"
 297      B6597B59 
 297      196BEC03 
 297      1B0B9031 
 297      9E7E
 298 0770 20BC46E3 		.ascii	" \274F\343\301\3729\263\207\026\031\017\235\311\230"
 298      C1FA39B3 
 298      8716190F 
 298      9DC998
 299 077f 9C3DA268 		.ascii	"\234=\242h\236\017\3755f\372\324\373/\332\277\306\324"
 299      9E0FFD35 
 299      66FAD4FB 
 299      2FDABFC6 
 299      D4
 300 0790 797452DA 		.ascii	"ytR\332G\342}\202U;\260-\366YU\303\370l\320\332\327"
 300      47E27D82 
 300      553BB02D 
 300      F65955C3 
 300      F86CD0DA 
 301 07a5 680163EB 		.ascii	"h\001c\353-\223^1/\233Gl\331\334>\357\003\330\017h\267"
 301      2D935E31 
 301      2F9B476C 
 301      D9DC3EEF 
 301      03D80F68 
 302 07ba 0606249E 		.ascii	"\006\006$\236M\207\234:\305:.Z\336+\352<\024\230\340"
 302      4D879C3A 
 302      C53A2E5A 
 302      DE2BEA3C 
 302      1498E0
 303 07cd 453EBB   		.ascii	"E>\273"
 304 07d0 09D66E56 		.ascii	"\011\326nV\2175L\345C\221\206\304c\016bX\347v\2051\267"
 304      8F354CE5 
 304      439186C4 
 304      630E6258 
 304      E7768531 
 305 07e5 32395480 		.ascii	"29T\200\314:\267/j\263\207\022\024N`T\026_:\225\253"
 305      CC3AB72F 
 305      6AB38712 
ARM GAS  /tmp/ccDW51PZ.s 			page 24


 305      144E6054 
 305      165F3A95 
 306 07fa A5BE6688 		.ascii	"\245\276f\210\366\247\032I\313\314\266.\355\"]\020\335"
 306      F6A71A49 
 306      CBCCB62E 
 306      ED225D10 
 306      DD
 307 080b 2BEA34AF 		.ascii	"+\3524\257\250\233\310\262E1\253r\246W\357z\326\216"
 307      A89BC8B2 
 307      4531AB72 
 307      A657EF7A 
 307      D68E
 308 081d 95F4F593 		.ascii	"\225\364\365\223/\015\327Vz\266\253\317\354f\214c\344"
 308      2F0DD756 
 308      7AB6ABCF 
 308      EC668C63 
 308      E4
 309 082e 6D0746BE 		.ascii	"m\007F\276\260e\244e\305\013\031Ft\213\020\205-\016"
 309      B065A465 
 309      C50B1946 
 309      748B1085 
 309      2D0E
 310 0840 08E7AD08 		.ascii	"\010\347\255\010\377\"\254\244\010\207\226/&\200\240"
 310      FF22ACA4 
 310      0887962F 
 310      2680A0
 311 084f 69B7E180 		.ascii	"i\267\341\200`\267q\364\031R$\004\323Y\364\362J\226"
 311      60B771F4 
 311      19522404 
 311      D359F4F2 
 311      4A96
 312 0861 DFBB806B 		.ascii	"\337\273\200k\372n\237\355\232\356\014$\012\207\220"
 312      FA6E9FED 
 312      9AEE0C24 
 312      0A8790
 313 0870 A43F774D 		.ascii	"\244?wM?9\207\255\351\375\256\266\346-\307\034_H\367"
 313      3F3987AD 
 313      E9FDAEB6 
 313      E62DC71C 
 313      5F48F7
 314 0883 6536BDDF 		.ascii	"e6\275\3373\361\336\335\3731\343\375\012\362~\2520\357"
 314      33F1DEDD 
 314      FB31E3FD 
 314      0AF27EAA 
 314      30EF
 315 0895 56205138 		.ascii	"V Q8\217$\327ry\377\322x\221v\315\025\357\357\365\232"
 315      8F24D772 
 315      79FFD278 
 315      9176CD15 
 315      EFEFF59A 
 316 08a9 D773E360 		.ascii	"\327s\343`q\355\216\017\026\033\365\027\030\333\321"
 316      71ED8E0F 
 316      161BF517 
 316      18DBD1
 317 08b8 BE77F260 		.ascii	"\276w\362`\236\216\025\232\361nK\177]y\3063X\205\205"
 317      9E8E159A 
 317      F16E4B7F 
ARM GAS  /tmp/ccDW51PZ.s 			page 25


 317      5D79C633 
 317      588585
 318 08cb B30F9758 		.ascii	"\263\017\227Xw^\237\272\301\313\363\202\201\275D\322"
 318      775E9FBA 
 318      C1CBF382 
 318      81BD44D2 
 319 08db C13EF70C 		.ascii	"\301>\367\014fe\356h\257\351m\305\215\314\334\346\001"
 319      6665EE68 
 319      AFE96DC5 
 319      8DCCDCE6 
 319      01
 320 08ec B34BC3DB 		.ascii	"\263K\303\333]f#\201u\036\367\2047q\365\276\205\365"
 320      5D662381 
 320      751EF784 
 320      3771F5BE 
 320      85F5
 321 08fe 3758DFC6 		.ascii	"7X\337\306z\000kM\262\354\030\033\374\206\227\330\232"
 321      7A006B4D 
 321      B2EC181B 
 321      FC8697D8 
 321      9A
 322 090f 622193D0 		.ascii	"b!\223\320\322\255\316\356a\311\227d<\373\323z2\033"
 322      D2ADCEEE 
 322      61C99764 
 322      3CFBD37A 
 322      321B
 323 0921 4D789644 		.ascii	"Mx\226D\275c\256\277\240wpy\227\345H\321(\345|\256q"
 323      BD63AEBF 
 323      A0777079 
 323      97E548D1 
 323      28E57CAE 
 324 0936 D8700EFA 		.ascii	"\330p\016\372[\341\315\372\211\305\356\322>m\031\215"
 324      5BE1CDFA 
 324      89C5EED2 
 324      3E6D198D 
 325 0946 7CDB2447 		.ascii	"|\333$G\367i\343\273\223\027P\216\277\024\226\303\012"
 325      F769E3BB 
 325      9317508E 
 325      BF1496C3 
 325      0A
 326 0957 240A3B91 		.ascii	"$\012;\221\244)W\220]\206 M\256\004ye\261a\373\177\220"
 326      A4295790 
 326      5D86204D 
 326      AE047965 
 326      B161FB7F 
 327 096c B2A70E4A 		.ascii	"\262\247\016J{G\007\322\364\362\303h\256:\330\026\317"
 327      7B4707D2 
 327      F4F2C368 
 327      AE3AD816 
 327      CF
 328 097d 6056DB7F 		.ascii	"`V\333\177\347\360\262aZ[\247\361\005\2106G\373\341"
 328      E7F0B261 
 328      5A5BA7F1 
 328      05883647 
 328      FBE1
 329 098f 9AAC4A86 		.ascii	"\232\254J\206\032\010\242Y\265\357>\204\207\333E\022"
 329      1A08A259 
ARM GAS  /tmp/ccDW51PZ.s 			page 26


 329      B5EF3E84 
 329      87DB4512 
 330 099f 7D7E9853 		.ascii	"}~\230S\254{\240\326\306\367F#\320R\004\352\343\200"
 330      AC7BA0D6 
 330      C6F74623 
 330      D05204EA 
 330      E380
 331 09b1 64227187 		.ascii	"d\"q\207d\311zH\226\002\331\006\335:y\353,\012\237g"
 331      64C97A48 
 331      9602D906 
 331      DD3A79EB 
 331      2C0A9F67 
 332 09c5 E6D78EC9 		.ascii	"\346\327\216\311B\001\222\246\245\366.\262IK\271\337"
 332      420192A6 
 332      A5F62EB2 
 332      494BB9DF 
 333 09d5 982C97B8 		.ascii	"\230,\227\270\375\300c\334v \337\261\372\245\223\365"
 333      FDC063DC 
 333      7620DFB1 
 333      FAA593F5 
 334 09e5 2C8DF98A 		.ascii	",\215\371\212D\343\326W\234\372\270\3542\035\313\211"
 334      44E3D657 
 334      9CFAB8EC 
 334      321DCB89 
 335 09f5 8F555299 		.ascii	"\217UR\231\203\021\347\374&\012\327x\255y[\011@k\377"
 335      8311E7FC 
 335      260AD778 
 335      AD795B09 
 335      406BFF
 336 0a08 FB9A911F 		.ascii	"\373\232\221\037\306\203\3307n\000\355\226\002\273\313"
 336      C683D837 
 336      6E00ED96 
 336      02BBCB
 337 0a17 ECAF3269 		.ascii	"\354\2572i\221h\300\235/\321\300\272\000\353\205X/\303"
 337      9168C09D 
 337      2FD1C0BA 
 337      00EB8558 
 337      2FC3
 338 0a29 7AB5E4E2 		.ascii	"z\265\344\342\000E\275,\203\255{n\343\035{\356\305\\"
 338      0045BD2C 
 338      83AD7B6E 
 338      E31D7BEE 
 338      C55C
 339 0a3b CFF50266 		.ascii	"\317\365\002fQd\372\012\363\\\335\021e\362\262\304\341"
 339      5164FA0A 
 339      F35CDD11 
 339      65F2B2C4 
 339      E1
 340 0a4c 7933E7F4 		.ascii	"y3\347\364\302%\345\373\2375\274\272>@<\202\015\315"
 340      C225E5FB 
 340      9F35BCBA 
 340      3E403C82 
 340      0DCD
 341 0a5e 37298DA6 		.ascii	"7)\215\246I\371=N\312<\234\202\327\261~\003\3535\326"
 341      49F93D4E 
 341      CA3C9C82 
 341      D7B17E03 
ARM GAS  /tmp/ccDW51PZ.s 			page 27


 341      EB35D6
 342 0a71 956F5E80 		.ascii	"\225o^\200[\371,\313\214\335:lV\217\226~\373\030\350"
 342      5BF92CCB 
 342      8CDD3A6C 
 342      568F967E 
 342      FB18E8
 343 0a84 DA7D92EA 		.ascii	"\332}\222\352K#I\265\016\227\213\226\200\347$U\033\222"
 343      4B2349B5 
 343      0E978B96 
 343      80E72455 
 343      1B92
 344 0a96 ACCF592E 		.ascii	"\254\317Y.\232n\033\313\305\372\302\313\305\254\231"
 344      9A6E1BCB 
 344      C5FAC2CB 
 344      C5AC99
 345 0aa5 E9D6FF79 		.ascii	"\351\326\377y=\273\356\315\3148\360y\010\321NFj\371"
 345      3DBBEECD 
 345      CC38F079 
 345      08D14E46 
 345      6AF9
 346 0ab7 8EE0ED0C 		.ascii	"\216\340\355\014\037\036\215\324~\352\326\233\246\356"
 346      1F1E8DD4 
 346      7EEAD69B 
 346      A6EE
 347 0ac5 1D9CBA76 		.ascii	"\035\234\272v\353Dm\342'\312cR\253\343\230\261\011\326"
 347      EB446DE2 
 347      27CA6352 
 347      ABE398B1 
 347      09D6
 348 0ad7 3F6EDDC6 		.ascii	"?n\335\306\343Y?e\265\003\254\310'@\277i\007v\011w`"
 348      E3593F65 
 348      B503ACC8 
 348      2740BF69 
 348      07760977 
 349 0aec 9771A735 		.ascii	"\227q\2475\023\255n-\326\357ZE\332\235\231}\333\303"
 349      13AD6E2D 
 349      D6EF5A45 
 349      DA9D997D 
 349      DBC3
 350 0afe 0B45DD28 		.ascii	"\013E\335(eNS\\\244\335\340\220R\242T\035\331h\302Q"
 350      654E535C 
 350      A4DDE090 
 350      52A2541D 
 350      D968C251 
 351 0b12 5D70D01F 		.ascii	"]p\320\037\206\235,\325=B3\332\341\343K\007\353\237"
 351      869D2CD5 
 351      3D4233DA 
 351      E1E34B07 
 351      EB9F
 352 0b24 97D8B927 		.ascii	"\227\330\271'\245\331,\335\203-\313\273&\354\3414\312"
 352      A5D92CDD 
 352      832DCBBB 
 352      26ECE134 
 352      CA
 353 0b35 1629FB09 		.ascii	"\026)\373\011Ky \333 \326\241+\270\221G\033\375|\014"
 353      4B7920DB 
 353      20D6A12B 
ARM GAS  /tmp/ccDW51PZ.s 			page 28


 353      B891471B 
 353      FD7C0C
 354 0b48 67ABE791 		.ascii	"g\253\347\221\2679\214\\b\257*z\214v\202\332\356\250"
 354      B7398C5C 
 354      62AF2A7A 
 354      8C7682DA 
 354      EEA8
 355 0b5a E0D379A8 		.ascii	"\340\323y\250\322Y*z\260N_\354\353x\253\377\277\327"
 355      D2592A7A 
 355      B04E5FEC 
 355      EB78ABFF 
 355      BFD7
 356 0b6c B56BDAEF 		.ascii	"\265k\332\357\341\\\374|\375,\342~Q\337!\345&\217\316"
 356      E15CFC7C 
 356      FD2CE27E 
 356      51DF21E5 
 356      268FCE
 357 0b7f 73D12493 		.ascii	"s\321$\223\010\321\326hR&\017\322)qy\220\277J9g~`m\361"
 357      08D1D668 
 357      52260FD2 
 357      29717990 
 357      BF4A3967 
 358 0b97 CB8786D3 		.ascii	"\313\207\206\323\367\021\332\300\300\363\017\350\343"
 358      F711DAC0 
 358      C0F30FE8 
 358      E3
 359 0ba4 89C25557 		.ascii	"\211\302UW#\354\344G\330e;BK{\377\330\353Y\341\037p"
 359      23ECE447 
 359      D8653B42 
 359      4B7BFFD8 
 359      EB59E11F 
 360 0bb9 2FFC6E7E 		.ascii	"/\374n~G\263#7\325\322^jf\025{\212B\272\224\231\031"
 360      47B32337 
 360      D5D25E6A 
 360      66157B8A 
 360      42BA9499 
 361 0bce CB48F5EC 		.ascii	"\313H\365\354*o&\306\227\301\335H\321%9%\227vX\222K"
 361      2A6F26C6 
 361      97C1DD48 
 361      D1253925 
 361      97765892 
 362 0be3 97EA270C 		.ascii	"\227\352'\014\313H\334\305K\374\201\255\304\375\373"
 362      CB48DCC5 
 362      4BFC81AD 
 362      C4FDFB
 363 0bf2 4E0FBFB3 		.ascii	"N\017\277\263\351>\300Kl\311\3021\177\3474p\260\324"
 363      E93EC04B 
 363      6CC9C231 
 363      7FE73470 
 363      B0D4
 364 0c04 3A594CE6 		.ascii	":YL\346\367\024.\013\327\343(q6\0137_k\321U\325\201"
 364      F7142E0B 
 364      D7E32871 
 364      360B375F 
 364      6BD155D5 
 365 0c19 BBC08F11 		.ascii	"\273\300\217\021\332\231\2201\304TuD3\251\252\207W\325"
 365      DA999031 
ARM GAS  /tmp/ccDW51PZ.s 			page 29


 365      C4547544 
 365      33A9AA87 
 365      57D5
 366 0c2b 215B556D 		.ascii	"![Um|\253\2476\307\374\316\224\2721\277\243\374\010"
 366      7CABA736 
 366      C7FCCE94 
 366      BA31BFA3 
 366      FC08
 367 0c3d C71C0CFC 		.ascii	"\307\034\014\374\313\\\003\357w5\302\011~\204\223RN"
 367      CB5C03EF 
 367      7735C209 
 367      7E849352 
 367      4E
 368 0c4e D26BFFFE 		.ascii	"\322k\377\376\276\235\027\226\222\271}Z3&\275\314q\315"
 368      BE9D1796 
 368      92B97D5A 
 368      3326BDCC 
 368      71CD
 369 0c60 B4C84E30 		.ascii	"\264\310N0\024W\212\224\016\321\217\353%\223\277{\216"
 369      14578A94 
 369      0ED18FEB 
 369      2593BF7B 
 369      8E
 370 0c71 7E9F3844 		.ascii	"~\2378D?\363\272\234\355E7\314\245\\\036\235cB\024\346"
 370      3FF3BA9C 
 370      ED4537CC 
 370      A55C1E9D 
 370      634214E6 
 371 0c85 94114646 		.ascii	"\224\021FF\335\212\251\365\310\246\353f\033\177\302"
 371      DD8AA9F5 
 371      C8A6EB66 
 371      1B7FC2
 372 0c94 62E37EA1 		.ascii	"b\343~\241\021?Y\232\255\325\223\3472\353\252\303\027"
 372      113F599A 
 372      ADD593E7 
 372      32EBAAC3 
 372      17
 373 0ca5 95108225 		.ascii	"\225\020\202%?\014\363\3472\307\357!i\007C(\275m\264"
 373      3F0CF3E7 
 373      32C7EF21 
 373      69074328 
 373      BD6DB4
 374 0cb8 F27C90F7 		.ascii	"\362|\220\367\251\235/q\276\263\251\314\326w\266\362"
 374      A99D2F71 
 374      BEB3A9CC 
 374      D677B6F2 
 375 0cc8 BE7336BF 		.ascii	"\276s6\277\357d\322\367G\216S\027\320Y\264PYdg\014\236"
 375      EF64D2F7 
 375      478E5317 
 375      D059B450 
 375      5964670C 
 376 0cdd 77081EE7 		.ascii	"w\010\036\347\207w8\007\217|\031\341\213\274\304\035"
 376      87773807 
 376      8F7C19E1 
 376      8BBCC41D 
 377 0ced 528EC47B 		.ascii	"R\216\304{\354%\276N%\326\273\177\204;\377\257\\9}\203"
 377      EC25BE4E 
ARM GAS  /tmp/ccDW51PZ.s 			page 30


 377      25D6BB7F 
 377      843BFFAF 
 377      5C397D83 
 378 0d01 76E9F484 		.ascii	"v\351\364\204\261\331\027\026NT\214\301\177X%\346\326"
 378      B1D91716 
 378      4E548CC1 
 378      7F5825E6 
 378      D6
 379 0d12 D4E379D6 		.ascii	"\324\343y\326\324+9k\352\221M\273\377\331\034d\215\204"
 379      D42B396B 
 379      EA914DBB 
 379      FFD91C64 
 379      8D84
 380 0d24 F5717B01 		.ascii	"\365q{\001;\370)\275\352\"\0346k'\370\227\022\316d\326"
 380      3BF829BD 
 380      EA221C36 
 380      6B27F897 
 380      12CE64D6 
 381 0d38 97129660 		.ascii	"\227\022\226`x\225\017$_\333\007\2227[\013\006\222Z"
 381      78950F24 
 381      5FDB0792 
 381      375B0B06 
 381      925A
 382 0d4a 63D04148 		.ascii	"c\320AH\351\020H\270^2\371\306s \271\355\020H\312-\202"
 382      E91048B8 
 382      5E32F9C6 
 382      7320B9ED 
 382      1048CA2D 
 383 0d5f 18BDA079 		.ascii	"\030\275\240yZ\342^\332pL\210\302\027\226@\"|w\304\210"
 383      5AE25EDA 
 383      704C88C2 
 383      17964022 
 383      7C77C488 
 384 0d73 4AFD2F9E 		.ascii	"J\375/\236\252L\252\225\251d\2502T\033M\325\214\010"
 384      AA4CAA95 
 384      A964A832 
 384      541B4DD5 
 384      8C08
 385 0d85 09A3CDBF 		.ascii	"\011\243\315\277\205\342\321h<V\231\210'\325T\345\023"
 385      85E2D168 
 385      3C569988 
 385      27D554E5 
 385      13
 386 0d96 13C78F19 		.ascii	"\023\307\217\031?\235>K\204#J2U\371\324\2301@\246\316"
 386      3F9D3E4B 
 386      84234A32 
 386      55F9D498 
 386      3140A6CE 
 387 0daa 4828A911 		.ascii	"H(\251\021\265B1\320\007\325\222\247\376\363\351\212"
 387      B54231D0 
 387      07D592A7 
 387      FEF3E98A 
 388 0dba 31425565 		.ascii	"1BUem<\252T\376\256.\022\226c\225\343\237|\352\211\312"
 388      6D3CAA54 
 388      FEAE2E12 
 388      966395E3 
 388      9F7CEA89 
ARM GAS  /tmp/ccDW51PZ.s 			page 31


 389 0dcf 94125552 		.ascii	"\224\022URjR\011\206\247W>\031\235\244L\012W\303\010"
 389      6A520986 
 389      A7573E19 
 389      9DA44C0A 
 389      57C308
 390 0de2 7232FAF0 		.ascii	"r2\372\360\217G\216\372\311\210Q\243\260\035\213\307"
 390      8F478EFA 
 390      C98851A3 
 390      B01D8BC7 
 391 0df2 94871579 		.ascii	"\224\207\025yR\2702\034\013E\352\252\225\312\224Z\035"
 391      52B8321C 
 391      0B45EAAA 
 391      95CA945A 
 391      1D
 392 0e03 8EA93080 		.ascii	"\216\2510\200\017\376\375\344\307A\365A\216{\243c\250"
 392      0FFEFDE4 
 392      C741F541 
 392      8E7BA363 
 392      A8
 393 0e14 36352365 		.ascii	"65#ep\343Wk\223\212\\\035T\003\241\332\240\336\256p"
 393      70E3576B 
 393      938A5C1D 
 393      5403A1DA 
 393      A0DEAE70 
 394 0e28 A60BD556 		.ascii	"\246\013\325V\003\315\020\275_*\370\\\235R\247\004\325"
 394      03CD10BD 
 394      5F2AF85C 
 394      9D52A704 
 394      D5
 395 0e39 A11952F6 		.ascii	"\241\031R\366\250(\246LW\213\022Iej1\336\373\324D2\034"
 395      A828A64C 
 395      578B1249 
 395      656A31DE 
 395      FBD44432 
 396 0e4e 0FAAFE3A 		.ascii	"\017\252\376:\306Z\021\275/\247\352\012\206\3421\025"
 396      C65A11BD 
 396      2FA7EA0A 
 396      86E23115 
 397 0e5e 7AFFA8A0 		.ascii	"z\377\250\240:kC\361\244\002\243\227!\031\000\205\324"
 397      3A6B43F1 
 397      A402A397 
 397      21190085 
 397      D4
 398 0e6f E90FBBA3 		.ascii	"\351\017\273\243\012N}4JeM*5\240\273\240*&\177*&\177"
 398      0A4E7D34 
 398      4A654D2A 
 398      35A0BBA0 
 398      2A267F2A 
 399 0e85 26261F11 		.ascii	"&&\037\021\223\217\212\311\321b\362\347Rr\324H(\243"
 399      938F8AC9 
 399      D162F2E7 
 399      5272D448 
 399      28A3
 400 0e97 C448524C 		.ascii	"\304HRL%$\200.\216)\323\224dq<R\255$\213B\265r\262("
 400      2524802E 
 400      8E29D394 
 400      64713C52 
ARM GAS  /tmp/ccDW51PZ.s 			page 32


 400      AD248B42 
 401 0eaf 264795D2 		.ascii	"&G\225\322\224:E\216\204kbL\230G~\012S9M\236$\247\024"
 401      943A458E 
 401      846B624C 
 401      98477E0A 
 401      53394D9E 
 402 0ec6 BF9A5265 		.ascii	"\277\232Re\025\324\341\243?\214\016\252\305x\357S\243"
 402      15D4E1A3 
 402      3F8C0EAA 
 402      C578EF53 
 402      A3
 403 0ed7 F16A785A 		.ascii	"\361jxZ<9\"\327\244|0\261\223S\240\000\372\257$Y=\003"
 403      3C3922D7 
 403      A47C30B1 
 403      9353A000 
 403      FAAF2459 
 404 0eed 8CC1AF4C 		.ascii	"\214\301\257L\017\253!\350T2M\215O\372]\342^6%\320E"
 404      0FAB21E8 
 404      54324D8D 
 404      4FFA5DE2 
 404      5E3625D0 
 405 0f02 492AB110 		.ascii	"I*\261\020%\236\246\252\311\204/\245\304T (\007}\203"
 405      259EA6AA 
 405      C9842FA5 
 405      C4542028 
 405      077D83
 406 0f15 95C8895A 		.ascii	"\225\310\211Z\220\355~\347\331R\250\320\305\241\230"
 406      90ED7EE7 
 406      D952A8D0 
 406      C5A198
 407 0f24 1A5425A8 		.ascii	"\032T%\250\001\036\036%\374@\035\255\003\235;SF\325"
 407      011E1E25 
 407      FC401DAD 
 407      039D3B53 
 407      46D5
 408 0f36 E994323E 		.ascii	"\351\2242>-\246$}\330\227J\251\302\343D\2312\2252!\247"
 408      2DA6247D 
 408      D8974AA9 
 408      C2E34499 
 408      32953221 
 409 0f4b A6C02365 		.ascii	"\246\300#e\032m\220\272\301\306\354G\302)\030l\210\311"
 409      1A6D90BA 
 409      C1C6EC47 
 409      C229186C 
 409      88C9
 410 0f5d 1EE813DF 		.ascii	"\036\350\023\33749\254\206c5~\340\035\355\301\257$\224"
 410      3439AC86 
 410      63357EE0 
 410      1DEDC1AF 
 410      2494
 411 0f6f 18586B8D 		.ascii	"\030Xk\215\017 i\017\230\0319Bm\2428\232\210\307#`\213"
 411      0F20690F 
 411      98193942 
 411      6DA2389A 
 411      88C72360 
 412 0f84 E3533555 		.ascii	"\343S5U\320GT\023\022P\351\017\236\001\230rlMT\"\012"
 412      D0475413 
ARM GAS  /tmp/ccDW51PZ.s 			page 33


 412      1250E90F 
 412      9E019872 
 412      6C4D5422 
 413 0f99 A87C50A8 		.ascii	"\250|P\250\266*T"
 413      B62A54
 414 0fa0 FB54BC2A 		.ascii	"\373T\274*\242(\211\2522\274\233\010\303\316\030W\216"
 414      A22889AA 
 414      32BC9B08 
 414      C3CE1857 
 414      8E
 415 0fb1 ED67E429 		.ascii	"\355g\344)J\035\376\020\244&\257Du3\327\333\345\224"
 415      4A1DFE10 
 415      A426AF44 
 415      7533D7DB 
 415      E594
 416 0fc3 C1198C65 		.ascii	"\301\031\214e@\012f\357}\241\272$h^-N\322\273\357L\015"
 416      400A66EF 
 416      7DA1BA24 
 416      685E2D4E 
 416      D2BBEF4C 
 417 0fd8 27D53A39 		.ascii	"'\325:9\022T\303QpgFq\037P\330\3740\304\362L\367\015"
 417      1254C351 
 417      70674671 
 417      1F50D8FC 
 417      30C4F24C 
 418 0fee CBA3001D 		.ascii	"\313\243\000\035\035\032\314\200F=\002\263[\255DT\331"
 418      1D1ACC80 
 418      463D02B3 
 418      5BAD4454 
 418      D9
 419 0fff 3F       		.ascii	"?"
 420 1000 559D5C17 		.ascii	"U\235\\\027\013\201m\320\177RBN\372#rJ\245}K\246\252"
 420      0B816DD0 
 420      7F52424E 
 420      FA23724A 
 420      A57D4BA6 
 421 1015 147B3013 		.ascii	"\024{0\023\242Z\231TW\243\253\331\374$\220\220c\341"
 421      A25A9954 
 421      57A3ABD9 
 421      FC249090 
 421      63E1
 422 1027 5010D425 		.ascii	"P\020\324%UO\252)\215\312\000\217\263 \206j\363X\311"
 422      554FAA29 
 422      8DCA008F 
 422      B320866A 
 422      F358C9
 423 103a 0C1A0640 		.ascii	"\014\032\006@-U3R\377\021\017M\011\240{E\2405\312\306"
 423      2D553352 
 423      FF110F4D 
 423      09A07B45 
 423      A035CAC6 
 424 104e B9C0532B 		.ascii	"\271\300S+\307\214\257\032W\225E\210\246\302\251`M("
 424      C78CAF1A 
 424      57954588 
 424      A6C2A960 
 424      4D28
 425 1060 04288382 		.ascii	"\004(\203\202`\227j\360WOT=9a\342\270Ard\232<#\005\256"
ARM GAS  /tmp/ccDW51PZ.s 			page 34


 425      60976AF0 
 425      574F543D 
 425      3961E2B8 
 425      4172649A 
 426 1078 1A09C794 		.ascii	"\032\011\307\224\342\251r\244N)\327CF8\226R\222\252"
 426      E2A972A4 
 426      4E29D743 
 426      46389652 
 426      92AA
 427 108a A43E9728 		.ascii	"\244>\227(\303\201\237\216\321\001u\317\256\303\266"
 427      C3819F8E 
 427      D10175CF 
 427      AEC3B6
 428 1099 3F18446D 		.ascii	"?\030Dm\004\007\031\215\021?\373\371\310\321yl\026\242"
 428      0407198D 
 428      113FFBF9 
 428      C8D1796C 
 428      16A2
 429 10ab 32D86CF0 		.ascii	"2\330l\360W`?C\320H\306\245&\350V6\356\036}\324\311"
 429      57603F43 
 429      D048C6A5 
 429      26E85636 
 429      EE1E7DD4 
 430 10c0 E1C97198 		.ascii	"\341\311q\230\345h|*\265\234\254\031U\231\307\030\365"
 430      E5687C2A 
 430      B59CAC19 
 430      5599C718 
 430      F5
 431 10d1 E8FF0105 		.ascii	"\350\377\001\005\326\2464"
 431      D6A634
 432              		.text
 433              		.section	.gnu.lto_.symtab.4f9d1600967e0a7f,"",%progbits
 434 0000 63684D73 		.ascii	"chMsgSend\000\000\000\000\000\000\000\000\000\000\000"
 434      6753656E 
 434      64000000 
 434      00000000 
 434      00000000 
 435 0014 00A10000 		.ascii	"\000\241\000\000\000chMsgWait\000\000\000\000\000\000"
 435      0063684D 
 435      73675761 
 435      69740000 
 435      00000000 
 436 0028 00000000 		.ascii	"\000\000\000\000\000\000W\001\000\000chMsgRelease\000"
 436      00005701 
 436      00006368 
 436      4D736752 
 436      656C6561 
 437 003f 00000000 		.ascii	"\000\000\000\000\000\000\000\000\000\000\000[\001\000"
 437      00000000 
 437      0000005B 
 437      0100
 438 004d 00636800 		.ascii	"\000ch\000\000\002\000\000\000\000\000\000\000\000\000"
 438      00020000 
 438      00000000 
 438      000000
 439 005c 6D010000 		.ascii	"m\001\000\000chSchGoSleepS\000\000\002\000\000\000\000"
 439      63685363 
ARM GAS  /tmp/ccDW51PZ.s 			page 35


 439      68476F53 
 439      6C656570 
 439      53000002 
 440 0074 00000000 		.ascii	"\000\000\000\000\000c\001\000\000chSchReadyI\000\000"
 440      00630100 
 440      00636853 
 440      63685265 
 440      61647949 
 441 008a 02000000 		.ascii	"\002\000\000\000\000\000\000\000\000\000g\001\000\000"
 441      00000000 
 441      00006701 
 441      0000
 442 0098 63685363 		.ascii	"chSchWakeupS\000\000\002\000\000\000\000\000\000\000"
 442      6857616B 
 442      65757053 
 442      00000200 
 442      00000000 
 443 00ae 00006B01 		.ascii	"\000\000k\001\000\000"
 443      0000
 444              		.text
 445              		.section	.gnu.lto_.opts,"",%progbits
 446 0000 272D6D63 		.ascii	"'-mcpu=cortex-m3' '-mno-thumb-interwork' '-mthumb' "
 446      70753D63 
 446      6F727465 
 446      782D6D33 
 446      2720272D 
 447 0033 272D6767 		.ascii	"'-ggdb' '-O2' '-fomit-frame-pointer' '-falign-funct"
 447      64622720 
 447      272D4F32 
 447      2720272D 
 447      666F6D69 
 448 0066 696F6E73 		.ascii	"ions=16' '-ffunction-sections' '-fdata-sections' '-"
 448      3D313627 
 448      20272D66 
 448      66756E63 
 448      74696F6E 
 449 0099 666E6F2D 		.ascii	"fno-common' '-flto'\000"
 449      636F6D6D 
 449      6F6E2720 
 449      272D666C 
 449      746F2700 
 450              		.text
 451              		.cfi_sections	.debug_frame
 452              		.section	.text.chMsgSend,"ax",%progbits
 453              		.align	2
 454              		.p2align 4,,15
 455              		.global	chMsgSend
 456              		.thumb
 457              		.thumb_func
 458              		.type	chMsgSend, %function
 459              	chMsgSend:
 460              	.LFB188:
 461              		.file 1 "../../../os/rt/src/chmsg.c"
 462              		.loc 1 87 0
 463              		.cfi_startproc
 464              		@ args = 0, pretend = 0, frame = 0
 465              		@ frame_needed = 0, uses_anonymous_args = 0
ARM GAS  /tmp/ccDW51PZ.s 			page 36


 466              	.LVL0:
 467              		.loc 1 88 0
 468 0000 40F20003 		movw	r3, #:lower16:ch
 469 0004 C0F20003 		movt	r3, #:upper16:ch
 470              		.loc 1 87 0
 471 0008 10B5     		push	{r4, lr}
 472              		.cfi_def_cfa_offset 8
 473              		.cfi_offset 4, -8
 474              		.cfi_offset 14, -4
 475              		.loc 1 88 0
 476 000a 9C69     		ldr	r4, [r3, #24]
 477              	.LVL1:
 478              	.LBB52:
 479              	.LBB53:
 480              	.LBB54:
 481              	.LBB55:
 482              		.file 2 "../../../os/common/ext/CMSIS/include/cmsis_gcc.h"
 483              		.loc 2 264 0
 484 000c 2023     		movs	r3, #32
 485              	@ 264 "../../../os/common/ext/CMSIS/include/cmsis_gcc.h" 1
 486 000e 83F31188 		MSR basepri, r3
 487              	@ 0 "" 2
 488              		.thumb
 489              	.LBE55:
 490              	.LBE54:
 491              	.LBE53:
 492              	.LBE52:
 493              		.loc 1 93 0
 494 0012 6162     		str	r1, [r4, #36]
 495              	.LVL2:
 496              		.loc 1 95 0
 497 0014 90F82020 		ldrb	r2, [r0, #32]	@ zero_extendqisi2
 498              	.LBB56:
 499              	.LBB57:
 500              		.file 3 "../../../os/rt/include/chschd.h"
 501              		.loc 3 612 0
 502 0018 036B     		ldr	r3, [r0, #48]
 503              	.LBE57:
 504              	.LBE56:
 505              		.loc 1 94 0
 506 001a 00F12C01 		add	r1, r0, #44
 507              	.LVL3:
 508              		.loc 1 95 0
 509 001e 0E2A     		cmp	r2, #14
 510              	.LBB59:
 511              	.LBB58:
 512              		.loc 3 612 0
 513 0020 84E80A00 		stmia	r4, {r1, r3}
 514              		.loc 3 613 0
 515 0024 1C60     		str	r4, [r3]
 516              		.loc 3 614 0
 517 0026 0463     		str	r4, [r0, #48]
 518              	.LVL4:
 519              	.LBE58:
 520              	.LBE59:
 521              		.loc 1 95 0
 522 0028 07D0     		beq	.L4
ARM GAS  /tmp/ccDW51PZ.s 			page 37


 523              	.LVL5:
 524              	.L2:
 525              		.loc 1 98 0
 526 002a 0C20     		movs	r0, #12
 527 002c FFF7FEFF 		bl	chSchGoSleepS
 528              	.LVL6:
 529              		.loc 1 99 0
 530 0030 606A     		ldr	r0, [r4, #36]
 531              	.LVL7:
 532              	.LBB60:
 533              	.LBB61:
 534              	.LBB62:
 535              	.LBB63:
 536              	.LBB64:
 537              		.loc 2 264 0
 538 0032 0023     		movs	r3, #0
 539              	@ 264 "../../../os/common/ext/CMSIS/include/cmsis_gcc.h" 1
 540 0034 83F31188 		MSR basepri, r3
 541              	@ 0 "" 2
 542              		.thumb
 543              	.LBE64:
 544              	.LBE63:
 545              	.LBE62:
 546              	.LBE61:
 547              	.LBE60:
 548              		.loc 1 103 0
 549 0038 10BD     		pop	{r4, pc}
 550              	.LVL8:
 551              	.L4:
 552              		.loc 1 96 0
 553 003a FFF7FEFF 		bl	chSchReadyI
 554              	.LVL9:
 555 003e F4E7     		b	.L2
 556              		.cfi_endproc
 557              	.LFE188:
 558              		.size	chMsgSend, .-chMsgSend
 559              		.section	.text.chMsgWait,"ax",%progbits
 560              		.align	2
 561              		.p2align 4,,15
 562              		.global	chMsgWait
 563              		.thumb
 564              		.thumb_func
 565              		.type	chMsgWait, %function
 566              	chMsgWait:
 567              	.LFB189:
 568              		.loc 1 119 0
 569              		.cfi_startproc
 570              		@ args = 0, pretend = 0, frame = 0
 571              		@ frame_needed = 0, uses_anonymous_args = 0
 572              	.LVL10:
 573 0000 10B5     		push	{r4, lr}
 574              		.cfi_def_cfa_offset 8
 575              		.cfi_offset 4, -8
 576              		.cfi_offset 14, -4
 577              	.LBB65:
 578              	.LBB66:
 579              	.LBB67:
ARM GAS  /tmp/ccDW51PZ.s 			page 38


 580              	.LBB68:
 581              		.loc 2 264 0
 582 0002 2023     		movs	r3, #32
 583              	@ 264 "../../../os/common/ext/CMSIS/include/cmsis_gcc.h" 1
 584 0004 83F31188 		MSR basepri, r3
 585              	@ 0 "" 2
 586              		.thumb
 587              	.LBE68:
 588              	.LBE67:
 589              	.LBE66:
 590              	.LBE65:
 591              		.loc 1 123 0
 592 0008 40F20004 		movw	r4, #:lower16:ch
 593 000c C0F20004 		movt	r4, #:upper16:ch
 594 0010 A269     		ldr	r2, [r4, #24]
 595              	.LVL11:
 596              	.LBB69:
 597              	.LBB70:
 598              		.file 4 "../../../os/rt/include/chmsg.h"
 599              		.loc 4 83 0
 600 0012 1346     		mov	r3, r2
 601 0014 53F82C0F 		ldr	r0, [r3, #44]!
 602              	.LBE70:
 603              	.LBE69:
 604              		.loc 1 123 0
 605 0018 9842     		cmp	r0, r3
 606 001a 09D0     		beq	.L7
 607              	.LVL12:
 608              	.L6:
 609              	.LBB71:
 610              	.LBB72:
 611              		.loc 3 620 0
 612 001c 0168     		ldr	r1, [r0]
 613              	.LBE72:
 614              	.LBE71:
 615              		.loc 1 127 0
 616 001e 0D24     		movs	r4, #13
 617              	.LBB74:
 618              	.LBB73:
 619              		.loc 3 620 0
 620 0020 D162     		str	r1, [r2, #44]
 621              		.loc 3 621 0
 622 0022 4B60     		str	r3, [r1, #4]
 623              	.LBE73:
 624              	.LBE74:
 625              	.LBB75:
 626              	.LBB76:
 627              	.LBB77:
 628              	.LBB78:
 629              	.LBB79:
 630              		.loc 2 264 0
 631 0024 0022     		movs	r2, #0
 632              	.LBE79:
 633              	.LBE78:
 634              	.LBE77:
 635              	.LBE76:
 636              	.LBE75:
ARM GAS  /tmp/ccDW51PZ.s 			page 39


 637              		.loc 1 127 0
 638 0026 80F82040 		strb	r4, [r0, #32]
 639              	.LVL13:
 640              	.LBB84:
 641              	.LBB83:
 642              	.LBB82:
 643              	.LBB81:
 644              	.LBB80:
 645              		.loc 2 264 0
 646              	@ 264 "../../../os/common/ext/CMSIS/include/cmsis_gcc.h" 1
 647 002a 82F31188 		MSR basepri, r2
 648              	@ 0 "" 2
 649              		.thumb
 650              	.LBE80:
 651              	.LBE81:
 652              	.LBE82:
 653              	.LBE83:
 654              	.LBE84:
 655              		.loc 1 131 0
 656 002e 10BD     		pop	{r4, pc}
 657              	.LVL14:
 658              	.L7:
 659              		.loc 1 124 0
 660 0030 0E20     		movs	r0, #14
 661 0032 FFF7FEFF 		bl	chSchGoSleepS
 662              	.LVL15:
 663 0036 A269     		ldr	r2, [r4, #24]
 664 0038 D06A     		ldr	r0, [r2, #44]
 665 003a 02F12C03 		add	r3, r2, #44
 666 003e EDE7     		b	.L6
 667              		.cfi_endproc
 668              	.LFE189:
 669              		.size	chMsgWait, .-chMsgWait
 670              		.section	.text.chMsgRelease,"ax",%progbits
 671              		.align	2
 672              		.p2align 4,,15
 673              		.global	chMsgRelease
 674              		.thumb
 675              		.thumb_func
 676              		.type	chMsgRelease, %function
 677              	chMsgRelease:
 678              	.LFB190:
 679              		.loc 1 143 0
 680              		.cfi_startproc
 681              		@ args = 0, pretend = 0, frame = 0
 682              		@ frame_needed = 0, uses_anonymous_args = 0
 683              	.LVL16:
 684 0000 08B5     		push	{r3, lr}
 685              		.cfi_def_cfa_offset 8
 686              		.cfi_offset 3, -8
 687              		.cfi_offset 14, -4
 688              	.LBB85:
 689              	.LBB86:
 690              	.LBB87:
 691              	.LBB88:
 692              		.loc 2 264 0
 693 0002 2023     		movs	r3, #32
ARM GAS  /tmp/ccDW51PZ.s 			page 40


 694              	@ 264 "../../../os/common/ext/CMSIS/include/cmsis_gcc.h" 1
 695 0004 83F31188 		MSR basepri, r3
 696              	@ 0 "" 2
 697              	.LVL17:
 698              		.thumb
 699              	.LBE88:
 700              	.LBE87:
 701              	.LBE86:
 702              	.LBE85:
 703              	.LBB89:
 704              	.LBB90:
 705              		.loc 4 117 0
 706 0008 FFF7FEFF 		bl	chSchWakeupS
 707              	.LVL18:
 708              	.LBE90:
 709              	.LBE89:
 710              	.LBB91:
 711              	.LBB92:
 712              	.LBB93:
 713              	.LBB94:
 714              	.LBB95:
 715              		.loc 2 264 0
 716 000c 0023     		movs	r3, #0
 717              	@ 264 "../../../os/common/ext/CMSIS/include/cmsis_gcc.h" 1
 718 000e 83F31188 		MSR basepri, r3
 719              	@ 0 "" 2
 720              		.thumb
 721 0012 08BD     		pop	{r3, pc}
 722              	.LBE95:
 723              	.LBE94:
 724              	.LBE93:
 725              	.LBE92:
 726              	.LBE91:
 727              		.cfi_endproc
 728              	.LFE190:
 729              		.size	chMsgRelease, .-chMsgRelease
 730 0014 AFF30080 		.text
 730      AFF30080 
 730      AFF30080 
 731              	.Letext0:
 732              		.file 5 "/home/julian/MEGA/semestre_ix/Embebidos/arm-2013.11/arm-none-eabi/include/stdint.h"
 733              		.file 6 "../../../os/common/ports/ARMCMx/compilers/GCC/chtypes.h"
 734              		.file 7 "../../../os/rt/include/chsystypes.h"
 735              		.file 8 "../../../os/common/ports/ARMCMx/chcore.h"
 736              		.file 9 "../../../os/common/ports/ARMCMx/chcore_v7m.h"
 737              		.file 10 "../../../os/rt/include/chsem.h"
 738              		.file 11 "../../../os/rt/include/chmtx.h"
 739              		.file 12 "../../../os/rt/include/chsys.h"
 740              		.file 13 "../../../os/common/ext/CMSIS/include/core_cm3.h"