ARM GAS  /tmp/ccw82XVy.s 			page 1


   1              		.syntax unified
   2              		.cpu cortex-m3
   3              		.fpu softvfp
   4              		.eabi_attribute 20, 1
   5              		.eabi_attribute 21, 1
   6              		.eabi_attribute 23, 3
   7              		.eabi_attribute 24, 1
   8              		.eabi_attribute 25, 1
   9              		.eabi_attribute 26, 1
  10              		.eabi_attribute 30, 2
  11              		.eabi_attribute 34, 1
  12              		.eabi_attribute 18, 4
  13              		.thumb
  14              		.file	"chregistry.c"
  15              		.text
  16              	.Ltext0:
  17              		.section	.gnu.lto_.jmpfuncs.500ef0b162f0a536,"",%progbits
  18 0000 789C6362 		.ascii	"x\234cb`b\300\006\224\2404+\003\003\023##\003\0033\210"
  18      6062C006 
  18      94A0342B 
  18      03031323 
  18      23030333 
  19 0015 002A6506 		.ascii	"\000*e\006\212\22510\260\200\270\254 \202\001\000\017"
  19      8A953130 
  19      B080B8AC 
  19      20820100 
  19      0F
  20 0026 B600BD   		.ascii	"\266\000\275"
  21              		.text
  22              		.section	.gnu.lto_.inline.500ef0b162f0a536,"",%progbits
  23 0000 789C6362 		.ascii	"x\234cb`b\300\006z\2404+\003\003'\007#\003\023\317\203"
  23      6062C006 
  23      7AA0342B 
  23      03032707 
  23      230313CF 
  24 0015 5806B605 		.ascii	"X\006\266\005\362`\305L\014\274\242@!\376\005%\014\354"
  24      F260C54C 
  24      0CBCA240 
  24      21FE0525 
  24      0CEC
  25 0027 1DEA1021 		.ascii	"\035\352\020!n\006\006\306\011~\314\014\242\327\230"
  25      6E0606C6 
  25      097ECC0C 
  25      A2D798
  26 0036 80526287 		.ascii	"\200Rb\207\216\262\303\2253\3630\202\344Xx\201\022\023"
  26      8EB2C395 
  26      33F33082 
  26      E4587881 
  26      1213
  27 0048 FC3EB0B1 		.ascii	"\374>\260\2610\010lg\004\262E\376LfCW\304\312 x\210"
  27      30086C67 
  27      04B245FE 
  27      4C664357 
  27      C4CA2078 
  28 005d 1187010C 		.ascii	"\021\207\001\014\000r-\024A"
  28      00722D14 
  28      41
ARM GAS  /tmp/ccw82XVy.s 			page 2


  29              		.text
  30              		.section	.gnu.lto_.pureconst.500ef0b162f0a536,"",%progbits
  31 0000 789C6362 		.ascii	"x\234cb`b\340f\200\000V\006+&+f+\026+V+\000\007]\001"
  31      6062E066 
  31      80005606 
  31      2B262B66 
  31      2B162B56 
  32 0019 45       		.ascii	"E"
  33              		.text
  34              		.section	.gnu.lto_chRegFirstThread.500ef0b162f0a536,"",%progbits
  35 0000 789C8552 		.ascii	"x\234\205RMh\023Q\020\236y\233\264i\202P\274)\222.\212"
  35      4D681351 
  35      109E799B 
  35      B4698250 
  35      BC29922E 
  36 0015 A056B3F6 		.ascii	"\240V\263\366 ^\225\236z\310\301\246\202^,\333uI\026"
  36      205E959E 
  36      7AC8C1A6 
  36      825E2CDB 
  36      754916
  37 0028 BA49D94D 		.ascii	"\272I\331MK\203\207\276\374\034\352\255\024\017\325"
  37      4B8387BE 
  37      FC1CEAAD 
  37      140FD5
  38 0037 12B4546B 		.ascii	"\022\264Tk\253\242GA\021\326\223\026L\244\236\304S\020"
  38      ABA24741 
  38      11D69316 
  38      4CA49EC4 
  38      5310
  39 0049 3C54BC88 		.ascii	"<T\274\210\027)B\234\267\177&A\332Mv\337\354\233\231"
  39      1729429C 
  39      B77F2641 
  39      DA4D76DF 
  39      EC9B99
  40 005c EFFB76BE 		.ascii	"\357\373v\276\307\200A\357u\204\356\033\022\300;ZQ\002"
  40      C78041EF 
  40      7584EE1B 
  40      12C03B5A 
  40      5102
  41 006e 644B4D80 		.ascii	"dKM\200r\214!\212\000\020\026\030.\\GQ\212\307a\215"
  41      728C218A 
  41      00101618 
  41      2E5C4751 
  41      8AC7618D 
  42 0082 F3E5D6B7 		.ascii	"\363\345\326\267\365]\274\313\235\332\003\376\247\335"
  42      F55DBCCB 
  42      9DDA03FE 
  42      A7DD
  43 0090 46349060 		.ascii	"F4\220`O h\010\327\350\005ewa\221n\236\027\314i\265"
  43      4F206808 
  43      D7E80565 
  43      7761916E 
  43      9E17CC69 
  44 00a5 DB3F7636 		.ascii	"\333?v6\277n\341\341\270\004*\256\021^\004\014\224\242"
  44      BF6EE1E1 
  44      B8042AAE 
  44      115E040C 
ARM GAS  /tmp/ccw82XVy.s 			page 3


  44      94A2
  45 00b7 E2412551 		.ascii	"\342A%Q\250q\276${\031\020xtM\320S(\271\212L\254\322"
  45      A871BE24 
  45      7B191078 
  45      744DD053 
  45      28B98A4C 
  46 00cd 36546200 		.ascii	"6Tb\000\276\222\372V\343-.W\371{^sH\312\220\201\021"
  46      BE92FA56 
  46      E32D2E57 
  46      F97B5E73 
  46      48CA9081 
  47 00e2 263AF697 		.ascii	"&:\366\227\"\366\"2\005M\250\374|U\3358\352\023\007"
  47      22F62232 
  47      054DA8FC 
  47      7C55DD38 
  47      EA1307
  48 00f5 0A9CD79F 		.ascii	"\012\234\327\237V\245S*>te\370{\277\356\374N\034\013"
  48      56A5532A 
  48      3E7465F8 
  48      7BBFEEFC 
  48      4E1C0B
  49 0108 DFB63FD0 		.ascii	"\337\266?\320$U\\\307(q\011>F\267\344\016\211~\317("
  49      24555CC7 
  49      2871093E 
  49      46B7E40E 
  49      897ECF28 
  50 011c A4BCE48D 		.ascii	"\244\274\344\215;\011o\260\316W.\031T\334\311\376/\357"
  50      3B096FB0 
  50      CE572E19 
  50      54DCC9FE 
  50      2FEF
  51 012e F8F93E4F 		.ascii	"\370\371>O_\003*_>o\214x\360Y\224\206\341\011\247\353"
  51      5F032A5F 
  51      3E6F8C78 
  51      F0599486 
  51      E109A7EB 
  52 0142 0A0DDA0F 		.ascii	"\012\015\332\017/\030\330\277\012\367\312\234\017\032"
  52      2F18D8BF 
  52      0AF7CA9C 
  52      0F1A
  53 0150 18BB057B 		.ascii	"\030\273\005{|QD\003&\006\014\003.\322\024\202\277\372"
  53      7C514403 
  53      26060C03 
  53      2ED21482 
  53      BFFA
  54 0162 01D0F89C 		.ascii	"\001\320\370\234>\017\331\233sV\310\026\214+\217O\007"
  54      3E0FD99B 
  54      7356C816 
  54      8C2B8F4F 
  54      07
  55 0173 8C916138 		.ascii	"\214\221a8c`\234\030\010)A\025\0021@\012\216P\003\252"
  55      63609C18 
  55      08294115 
  55      0231400A 
  55      8E5003AA 
  56 0187 8BD57CD0 		.ascii	"\213\325|\320\022\245.Q\025G\357\003\306\274\204\257"
  56      12A52E51 
ARM GAS  /tmp/ccw82XVy.s 			page 4


  56      1547EF03 
  56      C6BC84AF 
  57 0197 3771005A 		.ascii	"7q\000ZV\214\246\333\331\335f\257\263*>r\307|\240\265"
  57      568CA6DB 
  57      D9DD66AF 
  57      B32A3E72 
  57      C77CA0B5 
  58 01ab B09FB5DF 		.ascii	"\260\237\265\337\353\302\332\227\335\326\336?\224\014"
  58      EBC2DA97 
  58      DDD6DE3F 
  58      940C
  59 01b9 8F5FB87D 		.ascii	"\217_\270}\373c\207\307.\250\346\206\2756\253\370\224"
  59      FB6387C7 
  59      2EA8E686 
  59      BD36ABF8 
  59      94
  60 01ca 829039B0 		.ascii	"\202\2209\260U\305\347\230\364T\355@\271\265\251\207"
  60      55C5E798 
  60      F454ED40 
  60      B9B5A987 
  61 01da 7E7A9B13 		.ascii	"~z\233\023\344\011\035hQ+\247R\212\367/\330\212UTlK"
  61      E4091D68 
  61      512BA752 
  61      8AF72FD8 
  61      8A55546C 
  62 01ef 53B49CA5 		.ascii	"S\264\234\245g\015\273h\225R\032\260\342\314\271\316"
  62      670DBB68 
  62      95521AB0 
  62      E2CCB9CE 
  63 01ff 1AAD609A 		.ascii	"\032\255`\232\205\2742S\260\212\266ry<=\232\236\247"
  63      85BC3253 
  63      B08AB672 
  63      793C3D9A 
  63      9EA7
  64 0211 06AD60E9 		.ascii	"\006\255`\351\223s\027\315T\016\242s\352\364\254>\362"
  64      937317CD 
  64      540EA273 
  64      EAF4AC3E 
  64      F2
  65 0222 9F1E7DBE 		.ascii	"\237\036}\276\250\214\2463c\031\305\310k\323\2637uE"
  65      A88CA633 
  65      6319C5C8 
  65      6BD3B337 
  65      7545
  66 0234 336DC39E 		.ascii	"3m\303\236\314j\032\365\015\365(\011krv\311\246\374"
  66      CC6A1AF5 
  66      0DF52809 
  66      6B7276C9 
  66      A6FC
  67 0246 603A332E 		.ascii	"`:3.O\251\266>c\031g\345\223\347\201Y\320o\352f\301"
  67      4FA9B63E 
  67      631967E5 
  67      93E78159 
  67      D06FEA66 
  68 025b 2AC15F2F 		.ascii	"*\301_/\216\377@"
  68      8EFF40
  69              		.text
ARM GAS  /tmp/ccw82XVy.s 			page 5


  70              		.section	.gnu.lto_chRegNextThread.500ef0b162f0a536,"",%progbits
  71 0000 789C8553 		.ascii	"x\234\205SKHTQ\030\376\377s\357<R\013i\031\242C\021"
  71      4B485451 
  71      18FEFF73 
  71      EF3C520B 
  71      6919A243 
  72 0015 44963769 		.ascii	"D\2267i!\355\012W.f\243\011\265\222\353\3612^\360:r"
  72      21ED0A57 
  72      2E66A309 
  72      B592EBF1 
  72      325EF03A 
  73 002a EF289A0B 		.ascii	"\357(\232\013\217\316,\2146\"-2\021\223\036\320ShQ\213"
  73      8FCE2C8C 
  73      36222D32 
  73      11931ED0 
  73      5368518B 
  74 003e A066A085 		.ascii	"\240f\240\205B\332cS\266\032B)K\212VI\004\323\177\356"
  74      42DA6353 
  74      B61A4229 
  74      4B8A5649 
  74      04D37FEE 
  75 0052 CB71883C 		.ascii	"\313q\210<3\367\236\307\377\372\376\357|\227\001\203"
  75      33F79EC7 
  75      FFFAFEEF 
  75      7C970183 
  76 0062 CA719A9E 		.ascii	"\312q\232\236\357\012\300\022\315\030\001dS\253\000"
  76      EF0AC012 
  76      CD180164 
  76      53AB00
  77 0071 E371C6D4 		.ascii	"\343q\306\324<\202\250R\336\274\002\0205\012\252\336"
  77      3C82A852 
  77      DEBC0210 
  77      350AAADE 
  78 0081 B98A2817 		.ascii	"\271\212(\027\2000\306\024\025\307.\242L\202\207aA\210"
  78      8030C614 
  78      15C72EA2 
  78      4C828761 
  78      4188
  79 0093 E9E2C6E2 		.ascii	"\351\342\306\342&\316\210|\356\206\370S*!\232H\005\217"
  79      26CE887C 
  79      EE86F853 
  79      2A219A48 
  79      058F
  80 00a5 2070840B 		.ascii	" p\204\013\264\301\204;1u7\202E\226/\226J[\357\327?"
  80      B4C1843B 
  80      31753782 
  80      45962F96 
  80      4A5BEFD7 
  81 00ba 6DE1C103 		.ascii	"m\341\301\003\010:.P\276\010Z\010Q\177\023\003\023\225"
  81      083A2E50 
  81      BE085A08 
  81      517F1303 
  81      1395
  82 00cc B87C917F 		.ascii	"\270|\221\177\004rBL%<\213\205\004\200\273 \316\323"
  82      0472424C 
  82      253C8B85 
  82      0480BB20 
ARM GAS  /tmp/ccw82XVy.s 			page 6


  82      CED3
  83 00de 5B62EB44 		.ascii	"[b\353D&ge\031&\342\000>\262\371\273+\005\234\316\212"
  83      26676519 
  83      26E2003E 
  83      B2F9BB2B 
  83      059CCE8A 
  84 00f2 2591CB13 		.ascii	"%\221\313\023\264\006\023UF\236{@\223gj\202\026\253"
  84      B4061355 
  84      469E7B40 
  84      93676A82 
  84      16AB
  85 0104 30F1F359 		.ascii	"0\361\363Y\366\316!\277v\000\"\377\342\335\254rL\307"
  85      F6CE21BF 
  85      760022FF 
  85      E2DDAC72 
  85      4CC7
  86 0116 5B84243C 		.ascii	"[\204$<\373uu\273\272.\334-\257\023\347:\336$n9\312"
  86      FB7575BB 
  86      BA2EDC2D 
  86      AF13E73A 
  86      DE246E39 
  87 012b 7A8C1EC5 		.ascii	"z\214\036\305%\215~\017iIv\305\273\230zx\216s\342\332"
  87      258D7E0F 
  87      694976C5 
  87      BB987A78 
  87      8E73E2DA 
  88 013f 59939CCB 		.ascii	"Y\223\234\313\253\357\330\013\276=\352\341[\201\211"
  88      ABEFD80B 
  88      BE3DEAE1 
  88      5B8189
  89 014e 8F1F1E9F 		.ascii	"\217\037\036\237\361\322\2470\332\010\367\004\215\026"
  89      F1D2A730 
  89      DA08F704 
  89      8D16
  90 015c 227E16AE 		.ascii	"\"~\026\256Sx,\205\021\231\306s\357\306\2401\342&\037"
  90      53782C85 
  90      1199C673 
  90      EFC6A031 
  90      E2261F
  91 016f F3C23C1E 		.ascii	"\363\302<\036S2\345\022\274\374\\\230\271\242\204\371"
  91      5332E512 
  91      BCFC5C98 
  91      B9A284F9 
  92 017f 46E1B798 		.ascii	"F\341\267\230\024b\320\304\270\237z\324\304}\026\262"
  92      1462D0C4 
  92      B89F7AD4 
  92      C47D16B2 
  93 018f 6E0C53ED 		.ascii	"n\014S\355\214Nj\206\344\242HT\333O\012\030\244\211"
  93      8C4E6A86 
  93      E4A24854 
  93      DB4F0A18 
  93      A489
  94 01a1 35C27113 		.ascii	"5\302q\023\253BD\321rD\201\"W ;\231\275\024\204\304"
  94      AB4244D1 
  94      72448122 
  94      57203B99 
  94      BD1484C4 
ARM GAS  /tmp/ccw82XVy.s 			page 7


  95 01b5 294A7A55 		.ascii	")JzU\241\327e\233g\360A4\357\221\215\342\003Dj\231\024"
  95      A1D7659B 
  95      67F04134 
  95      EF918DE2 
  95      03446A99 
  96 01ca 824ED1ED 		.ascii	"\202N\321\355\277L\033\233\253\225\332\320\361\266{"
  96      BF4C1B9B 
  96      AB95DAD0 
  96      F1B67B
  97 01d9 517B8A03 		.ascii	"Q{\212\003\376'\216\257sR\034Ow\213c~\177}\250\341\360"
  97      FE278EAF 
  97      73521C4F 
  97      778B637E 
  97      7F7DA8E1 
  98 01ee F8F28F32 		.ascii	"\370\362\2172\225\270I\271\273\254\024\212\216\367i"
  98      95B849B9 
  98      BBAC148A 
  98      8EF769
  99 01fd 11560E84 		.ascii	"\021V\016\204\241\343#\254\367P\275\206\\\361\313\206"
  99      A1E323AC 
  99      F750BD86 
  99      5CF1CB86 
 100 020d 7FB700DE 		.ascii	"\177\267\000\336\015\326\232X\315}\321\220\"L\254\001"
 100      0DD69A58 
 100      CD7DD190 
 100      224CAC01 
 101 021d 780BE3C5 		.ascii	"x\013\343\305oF@\270\313\340\032\240O&\333Z\353!j\225"
 101      6F4640B8 
 101      CBE01AA0 
 101      4F26DB5A 
 101      EB216A95 
 102 0231 076B75F2 		.ascii	"\007ku\362\303B\311\242\254\224hj\322\274\177\332\321"
 102      C342C9A2 
 102      AC94686A 
 102      D2BC7FDA 
 102      D1
 103 0242 EC8CE6D8 		.ascii	"\354\214\346\330\\\343\275\266\2212\235\214=\322\304"
 103      5CE3BDB6 
 103      91329D8C 
 103      3DD2C4
 104 0251 41E9CF0C 		.ascii	"A\351\317\014\234,w\342i\313J\367k\003i;\343h\347\332"
 104      9C2C77E2 
 104      69CB4AF7 
 104      6B03693B 
 104      E368E7DA 
 105 0265 93ADC961 		.ascii	"\223\255\311a\212\340i\333\350\032j\261\232z!2\244\367"
 105      8AE069DB 
 105      E81A6AB1 
 105      9A7A2132 
 105      A4F7
 106 0277 0D1ACDFF 		.ascii	"\015\032\315\377\2101\2063Zk\262\243\255C3\373y\337"
 106      88318633 
 106      5A6BB2A3 
 106      AD4333FB 
 106      79DF
 107 0289 608FA171 		.ascii	"`\217\241q\3131\235\256\024\347\024\327P\001%\364\351"
 107      CB319DAE 
ARM GAS  /tmp/ccw82XVy.s 			page 8


 107      14E714D7 
 107      500125F4 
 107      E9
 108 029a 75461CB2 		.ascii	"uF\034\262\327&;\332\023\335\272c\014\330\346\211\304"
 108      D7263BDA 
 108      13DDBA63 
 108      0CD8E689 
 108      C4
 109 02ab D153C06C 		.ascii	"\321S\300l\210Y\206\225\266G\340/7\261&\207"
 109      88598695 
 109      B647E02F 
 109      37B12687 
 110              		.text
 111              		.section	.gnu.lto_chRegFindThreadByName.500ef0b162f0a536,"",%progbits
 112 0000 789C8D54 		.ascii	"x\234\215T]H\024Q\024>\347\316\356\354\352\256f\365"
 112      5D481451 
 112      143EE7CE 
 112      EEECEAAE 
 112      66F5
 113 0012 5261B6F4 		.ascii	"Ra\266\364\003\375:\371\020\275\026=\005\371P&\324S"
 113      03FD3AF9 
 113      10BD163D 
 113      05F95026 
 113      D453
 114 0024 8CD3320E 		.ascii	"\214\3232\0168\256\314l\242\024t]\015\352%\244z\260"
 114      38AECC6C 
 114      A214745D 
 114      0DEA25A4 
 114      7AB0
 115 0036 3234FA23 		.ascii	"24\372#3\214\336\312\2405\202Tr\245\236*z\220\"\304"
 115      338CDECA 
 115      A0358254 
 115      72A59E2A 
 115      7A9022C4 
 116 004a F041F1A1 		.ascii	"\360A\361\241\210\310\316\235;;\256R\331\335\235\271"
 116      88C8CE9D 
 116      3B3BAE52 
 116      D9DD9DB9 
 117 005a 3FE79CEF 		.ascii	"?\347\234\357|\347g.\003\006K\307!z\332\302\00034c\004"
 117      7CE7672E 
 117      03064BC7 
 117      217ADAC2 
 117      00333463 
 118 006f 9075E6E8 		.ascii	"\220u\346\350 \312P\221\013\205\205_(\300\213C\271Q"
 118      20CA5091 
 118      0B85855F 
 118      28C08B43 
 118      B951
 119 0081 001E0F31 		.ascii	"\000\036\0171\325[\024{\247qU\252a\030Q\314\200p\226"
 119      D55B147B 
 119      A77155AA 
 119      611851CC 
 119      807096
 120 0094 2921358C 		.ascii	")!5\214g\217\243@\307\215p\223\363K\023_>M\341U\236"
 120      678FA340 
 120      C78D7093 
 120      F34B135F 
ARM GAS  /tmp/ccw82XVy.s 			page 9


 120      3E4DE155 
 121 00a9 EDE8E53F 		.ascii	"\355\350\345?\347\347\021-$&\233\020\014\204c\264\301"
 121      E7E7112D 
 121      24269B10 
 121      0C8463B4 
 121      C1
 122 00ba 8437B1D0 		.ascii	"\2047\261\320bj\003,;1?\337?\333\377\271\007W\257B\320"
 122      626A032C 
 122      3B313FDF 
 122      3FDBFFB9 
 122      0757AF42 
 123 00cf F126E131 		.ascii	"\361&\3411 \353\010\275\224(\332\010E\264\012\305|Y"
 123      20EB08BD 
 123      9428DA08 
 123      45B40AC5 
 123      7C59
 124 00e1 DC9F4BE8 		.ascii	"\334\237K\3500\\*^\004\023\206\016\316;\023R\002\302"
 124      305C2A5E 
 124      0413860E 
 124      CE3B1352 
 124      02C2
 125 00f3 278DA3F4 		.ascii	"'\215\243\364\236Q\241\026\031M\312\010d\242\000>\327"
 125      9E51A116 
 125      194DCA08 
 125      64A2003E 
 125      D7
 126 0104 9EFB6343 		.ascii	"\236\373cCx\251\235\017\363\216,\221\335`\241\312Hq"
 126      78A99D0F 
 126      F38E2C91 
 126      DD60A1CA 
 126      4871
 127 0116 19B2E24C 		.ascii	"\031\262\342LM\320\"\007\231\331\301\366\273\353|\267"
 127      4DD02207 
 127      99D9C1F6 
 127      BBEB7CB7 
 128 0126 79FFD9E7 		.ascii	"y\377\331\347o\257+[u\274\355\221\360\317\276]\371\036"
 128      6FAF2B5B 
 128      75BCED91 
 128      F0CFBE5D 
 128      F91E
 129 0138 2B0F7623 		.ascii	"+\017v#\257Y\300Vr\311\366\214^\\\313{3\235\374\027"
 129      AF59C056 
 129      72C9F68C 
 129      5E5CCB7B 
 129      339DFC17 
 130 014c 31F1B2F6 		.ascii	"1\361\262\366\020\227c\222\307\340\203\335\021\240\204"
 130      10976392 
 130      C7E083DD 
 130      11A084
 131 015b DCA22C18 		.ascii	"\334\242,\030\350EmP\270\006*\364x6H\277G\264%\267\212"
 131      E8456D50 
 131      B8062AF4 
 131      783648BF 
 131      47B425B7 
 132 0170 6C8D0A18 		.ascii	"l\215\012\030\302\033\274k\237E\255P\030\324\202\374"
 132      C21BBC6B 
 132      9F45AD50 
ARM GAS  /tmp/ccw82XVy.s 			page 10


 132      18D482FC 
 133 0180 A52F8F4A 		.ascii	"\245/\217JWc\220\371\360\356n\225\216}\344\305\304\370"
 133      576390F9 
 133      F0EE6E95 
 133      8E7DE4C5 
 133      C4F8
 134 0192 0EE8E334 		.ascii	"\016\350\3434\016\023W\177\271\307\302\242\353p\255"
 134      0E13577F 
 134      B9C7C2A2 
 134      EB70AD
 135 01a1 8DF3320B 		.ascii	"\215\3632\013\213O\303\017~^\254b\266GIx\210yHub\253"
 135      8B4FC30F 
 135      7E5EAC62 
 135      B6474978 
 135      88794875 
 136 01b7 E34351B3 		.ascii	"\343CQ\263:!\363\327\000T\235\254*=\350\370\200\362"
 136      3A21F3D7 
 136      00549DAC 
 136      2A3DE8F8 
 136      80F2
 137 01c9 477EA4E7 		.ascii	"G~\244\347\256{\333\362\236Kv\300v\013\343\201\247\022"
 137      AE7BDBF2 
 137      9E4B76C0 
 137      760BE381 
 137      A712
 138 01db 5212E0E0 		.ascii	"R\022\340\340\203\263\002\3001h?\337\336\230\267,%c"
 138      83B302C0 
 138      31683FDF 
 138      DE98B72C 
 138      2563
 139 01ed A1194719 		.ascii	"\241\031G\031\317A)\360\351\307\376\017\224`<\242\005"
 139      CF4129F0 
 139      E9C7FE0F 
 139      94603CA2 
 139      05
 140 01fe 6D34955B 		.ascii	"m4\225[\332F:\336\361\012\260l\037\301\277\372\350\353"
 140      DA463ADE 
 140      F10AB06C 
 140      1FC1BFFA 
 140      E8EB
 141 0210 0DD14783 		.ascii	"\015\321G\203\213\373\250\247\244\"\350\235\340\370"
 141      8BFBA8A7 
 141      A422E89D 
 141      E0F8
 142 021e C2B847B0 		.ascii	"\302\270G\260\317k\200\260l\000\365\017\305\327q\200"
 142      CF6B80B0 
 142      6C00F50F 
 142      C5D77180 
 143 022e 1681E77C 		.ascii	"\026\201\347|\261u|\214\025\222\025E6qq\022e3\345\277"
 143      B1757C8C 
 143      15921545 
 143      36717112 
 143      6533E5BF 
 144 0242 24396AC9 		.ascii	"$9j\311\224\276}\377\033\2222S\324\217R\371\364\334"
 144      94BE7DFF 
 144      1B923253 
 144      D48F52F9 
ARM GAS  /tmp/ccw82XVy.s 			page 11


 144      F4DC
 145 0254 40F77A91 		.ascii	"@\367z\221\234\010\245\220\340\025\022x\371[\263\000"
 145      9C08A590 
 145      E0151278 
 145      F95BB300 
 146 0264 DB351991 		.ascii	"\3335\031\221\26062\317nQ\026\237\344>>\306\313\205"
 146      B03632CF 
 146      6E51169F 
 146      E43E3EC6 
 146      CB85
 147 0276 592417FD 		.ascii	"Y$\027\375\313f\321\026\245\031\207s3\231\2713\022\335"
 147      CB66D116 
 147      A5198773 
 147      3399B933 
 147      12DD
 148 0288 C4A2A0F7 		.ascii	"\304\242\240\367J\015\331\336\202\230\211Q\013W\000"
 148      4A0DD9DE 
 148      82988951 
 148      0B5700
 149 0297 0CC3CBC9 		.ascii	"\014\303\313\311\266\252@W\200\026`\276\007\244\322"
 149      B6AA4057 
 149      801660BE 
 149      07A4D2
 150 02a6 B3E9D972 		.ascii	"\263\351\331r\023c\352\263\271\223\"\356\020\320U\250"
 150      1363EAB3 
 150      B99322EE 
 150      10D055A8 
 151 02b6 8C43286F 		.ascii	"\214C(o\025\013<\224\031\376\007b\212\313n\245\010\212"
 151      150B3C94 
 151      19FE0762 
 151      8ACB6EA5 
 151      088A
 152 02c8 1526CF14 		.ascii	"\025&\317\024M?\014\035\323COr\030\230/\264\226?\216"
 152      4D3F0C1D 
 152      D3434F72 
 152      18982FB4 
 152      963F8E
 153 02db 52417A5F 		.ascii	"RAz_\001\326\222\234\256\2517t\037\013H&)\211t)\335"
 153      01D6929C 
 153      AEA93774 
 153      1F0B4826 
 153      29897429 
 154 02f0 73E5BE59 		.ascii	"s\345\276Yhz..L\220T\205F\242\262R\223\377\224\2539"
 154      687A2E2E 
 154      4C905485 
 154      46A2B252 
 154      93FF94AB 
 155 0305 69CD750C 		.ascii	"i\315u\014\315\250w\222\246\345\246\235\326J\003\024"
 155      CDA87792 
 155      A6E5A69D 
 155      D64A0314 
 156 0315 23DDB4AB 		.ascii	"#\335\264\253P\311H\331v\252QkJ9iW\333\177\244\372@"
 156      50C948D9 
 156      76AA516B 
 156      4A396957 
 156      DB7FA4FA 
 157 032a 750B5918 		.ascii	"u\013Y\030)'y\242y\257]Y\017\341f\275\341T\262\352\017"
ARM GAS  /tmp/ccw82XVy.s 			page 12


 157      292779A2 
 157      79AF5D59 
 157      0FE166BD 
 157      E154B2EA 
 158 033f 36C996B4 		.ascii	"6\311\226\264v\240\272\346`\215f5\032\015\247N&5\303"
 158      76A0BAE6 
 158      608D6635 
 158      1A0DA74E 
 158      2635C3
 159 0352 762DF784 		.ascii	"v-\367\204i\030d\267a\011\225@\247\336muI\316\322Me"
 159      691864B7 
 159      61099540 
 159      A7DE6D75 
 159      49CED24D 
 160 0367 D5354712 		.ascii	"\3255G\022u\272\233lr\254\235\211-\273\2019\020\261"
 160      75BA9B6C 
 160      72AC9D89 
 160      2DBB8139 
 160      10B1
 161 0379 9376CA69 		.ascii	"\223v\312i\205\315\1775\017\242\251\207\337\202r\217"
 161      85CD7F35 
 161      0FA2A987 
 161      DF82728F 
 162 0389 EE       		.ascii	"\356"
 163              		.text
 164              		.section	.gnu.lto_chRegFindThreadByPointer.500ef0b162f0a536,"",%progbits
 165 0000 789C8D54 		.ascii	"x\234\215TMHTQ\024>\347\2767o\234\037AhU\210\015EPY"
 165      4D485451 
 165      143EE7BE 
 165      376F9C1F 
 165      41685588 
 166 0018 BE5C44DB 		.ascii	"\276\\D\333\244\225\220\213R\241V\361|\015\317\007\216"
 166      A495908B 
 166      52A156F1 
 166      7C0DCF07 
 166      8E
 167 0029 23EF4DA2 		.ascii	"#\357M\242\264\360:3\213\332\224H\220\375\330\030\375"
 167      B4F03A33 
 167      8BDA9448 
 167      90FDD818 
 167      FD
 168 003a 1B61B46D 		.ascii	"\033a\264m\321\030EZ\376P\253\222\026B\0131\204jeVd"
 168      D118455A 
 168      FE50AB92 
 168      16420B31 
 168      846A6556 
 169 004f E7BEFBE6 		.ascii	"\347\276\373\3469\211dw~\356\271\367\234\357\234\357"
 169      39896477 
 169      7EEEB9F7 
 169      9CEF9CEF 
 170 005f DEFBDDCB 		.ascii	"\336\373\335\313\200\301\372v\224~\257T\2007\324c\030"
 170      80C1FA76 
 170      947EAF54 
 170      8037D463 
 170      18
 171 0070 900DCC00 		.ascii	"\220\015\314\000\364W0T\244\241\260\320s\005xT\235y"
 171      F4573054 
ARM GAS  /tmp/ccw82XVy.s 			page 13


 171      A4A1B0D0 
 171      73057854 
 171      9D79
 172 0082 0DC0E32A 		.ascii	"\015\300\343*\323<#\352\315\3065\031\326\020B\024= "
 172      D33C23EA 
 172      CDC63519 
 172      D6104214 
 172      3D20
 173 0094 F43145D5 		.ascii	"\3641E\325B\330w\022Ev\334\00179\037\234\177\371e\021"
 173      42D87712 
 173      4576DC01 
 173      37391F9C 
 173      7FF96511 
 174 00a8 AFF0627E 		.ascii	"\257\360b~\204\377Z]E\264\221\230\354D0\021N\320\000"
 174      84FF5A5D 
 174      45B49198 
 174      EC443011 
 174      4ED000
 175 00bb 135EC7D4 		.ascii	"\023^\307\324\277\251\215\261\342\374\352\352\307\345"
 175      BFA98DB1 
 175      E2FCEAEA 
 175      C7E5
 176 00c9 FB9FE670 		.ascii	"\373\237\346pK\025\202\2017)\037\003B\2071\205\020\361"
 176      4B158281 
 176      37291F03 
 176      42873185 
 176      10F1
 177 00db 67A27E1F 		.ascii	"g\242~\037#\217\022\027\177\004\016A\236\363\201\204"
 177      238F1217 
 177      7F040E41 
 177      9EF38184 
 178 00eb F480A844 		.ascii	"\364\200\250D\255\205\376\277j\320\212\214:e\022\262"
 178      AD85FEBF 
 178      6AD08A8C 
 178      3A6512B2 
 179 00fb 15003EC3 		.ascii	"\025\000>\303\302\203\351q\034\314\361\011\236/\022"
 179      C283E971 
 179      1CCCF109 
 179      9E2F12
 180 010a C5ED36AA 		.ascii	"\305\3556\252\214\0027\241(\346\324\004\0313\220\375"
 180      8C0237A1 
 180      28E6D404 
 180      193390FD 
 181 011a F6347777 		.ascii	"\3664ww\233_\266T\277\370\354\3355e\267\201\267=\022"
 181      9B5FB654 
 181      BFF8ECDD 
 181      3565B781 
 181      B73D12
 182 012d FEDCF2A5 		.ascii	"\376\334\362\245\357\261\352`49\305\002\266\222K\261"
 182      EFB1EA60 
 182      3439C502 
 182      B6924BB1 
 183 013d F0FAC256 		.ascii	"\360\372\302V>\222\035\340\277\211\211\267W\217p3&\245"
 183      3E921DE0 
 183      BF8989B7 
 183      578F7033 
 183      26A5
ARM GAS  /tmp/ccw82XVy.s 			page 14


 184 014f 1CFCDE8D 		.ascii	"\034\374\336\2150\320\206\334\302\020!\274U\233\264"
 184      30D086DC 
 184      C21021BC 
 184      559BB4
 185 015e 5C9336C5 		.ascii	"\\\2236\305D\017\203\364yLC*\253HA\324\3008\016\363"
 185      440F83F4 
 185      794C432A 
 185      AB4841D4 
 185      C0380EF3 
 186 0172 A1C33661 		.ascii	"\241\3036a\312\027\265\346\177\341\3735Yj\032\262s\357"
 186      CA17B5E6 
 186      7FE1FB35 
 186      596A1AB2 
 186      73EF
 187 0184 EFD61B38 		.ascii	"\357\326\0338J\010\013\243\2650\312\251\035#\256\276"
 187      4A080BA3 
 187      B530CAA9 
 187      1D23AEBE 
 188 0194 79D0C6F0 		.ascii	"y\320\306\3605\270\332\317y\225\215\025g\341\007?'\254"
 188      35B8DACF 
 188      79958D15 
 188      67E1073F 
 188      27AC
 189 01a6 48CAA324 		.ascii	"H\312\243$*D\274Lmbh\340#Q\271M\370|\033\200N\247\250"
 189      2A44BC4C 
 189      6D6268E0 
 189      2351B94D 
 189      F87C1B80 
 190 01bd C90A063E 		.ascii	"\311\012\006>\244\375\243:\262\362\320\275=\245\312"
 190      A4FDA33A 
 190      B2F2D0BD 
 190      3DA5CA
 191 01cc B15AD86B 		.ascii	"\261Z\330kc4\250\024\243 \221\034\374\344\254,\3414"
 191      6334A814 
 191      A320911C 
 191      FCE4AC2C 
 191      E134
 192 01de E4CEE53A 		.ascii	"\344\316\345:K\3108\201Ed\024\345z\032\245\303\247\037"
 192      4BC83881 
 192      456414E5 
 192      7A1AA5C3 
 192      A71F
 193 01f0 FBBFA494 		.ascii	"\373\277\244\224\306#Z&\243\305\231\36522\360\216w\000"
 193      C6235A26 
 193      A3C599F5 
 193      3232F08E 
 193      7700
 194 0202 9BEA08FE 		.ascii	"\233\352\010\376\245\243\317\303BGO\377\326Q\241\262"
 194      A5A3CFC3 
 194      42474FFF 
 194      D651A1B2 
 195 0212 26D04E30 		.ascii	"&\320N0}~\326#8\352\011 $\005\240mp\370\006\216\221"
 195      7D7ED623 
 195      38EA0920 
 195      2405A06D 
 195      70F8068E 
 196 0227 11542E1D 		.ascii	"\021T.\035\266\201O\260F\262\242\225\315O.\240\024S"
ARM GAS  /tmp/ccw82XVy.s 			page 15


 196      B6814FB0 
 196      46B2A295 
 196      CD4F2EA0 
 196      1453
 197 0239 E926C9D6 		.ascii	"\351&\311\326JP\272\361\376\035\222>K\234\337\004\274"
 197      4A50BAF1 
 197      FE1D923E 
 197      4B9CDF04 
 197      BC
 198 024a 5818BF7C 		.ascii	"X\030\277|1.A4e\321\253\342\267\017@\243(\273\276Rm"
 198      312E4134 
 198      65D1ABE2 
 198      B70F40A3 
 198      28BBBE52 
 199 025f 61445B5A 		.ascii	"aD[Z9-\362\250@\017\2122\013j\011\021\011\324\0227}"
 199      392DF2A8 
 199      400F8A32 
 199      0B6A0911 
 199      09D41237 
 200 0274 AC259E8C 		.ascii	"\254%\236\214JA\210\225\223\261\204\210& \2774^\230"
 200      4A418895 
 200      93B18488 
 200      2620BF34 
 200      5E98
 201 0286 C500BE76 		.ascii	"\305\000\276vT~k\241\345\217\274\002l%?]\373\267\364"
 201      547E6BA1 
 201      E58FBC02 
 201      6C253F5D 
 201      FBB7F4
 202 0299 AA89944C 		.ascii	"\252\211\224LRb\224\\\231Z\251\366a\352\365\237q\001"
 202      5262945C 
 202      995AA9F6 
 202      61EAF59F 
 202      7101
 203 02ab 410A1511 		.ascii	"A\012\025\021\211\272:]~\323\256\356dt\3271u\263\335"
 203      89BA3A5D 
 203      7ED3AEEE 
 203      6474D731 
 203      75B3DD
 204 02be 495AB69B 		.ascii	"IZ\266\233qz\353LP\314L\327\376\362 3\235J\245;\365"
 204      717AEB4C 
 204      50CC4CD7 
 204      FEF22033 
 204      9D4AA53B 
 205 02d3 AEB49371 		.ascii	"\256\264\223q\365\206\343MG\232z\010a\246\235\344\251"
 205      F586E34D 
 205      479A7A08 
 205      61A69DE4 
 205      A9
 206 02e4 EE43A9BA 		.ascii	"\356C\251\272v\010u\033\035g\222\365\033`\222=\031\375"
 206      7608751B 
 206      1D6792F5 
 206      1B60923D 
 206      19FD
 207 02f6 48537363 		.ascii	"HSsc\263nw\232\035gN'u3\345\332\356)\3134\011\267}\035"
 207      B36E779A 
 207      1D674E27 
ARM GAS  /tmp/ccw82XVy.s 			page 16


 207      7533E5DA 
 207      EE29CB34 
 208 030e 9520A6DD 		.ascii	"\225 \246\335\355u\311\3172]UM\315\307\023m\206\233"
 208      ED75C9CF 
 208      325D554D 
 208      CDC7136D 
 208      869B
 209 0320 EC72EC7D 		.ascii	"\354r\354}\211]\007\2009\020N%Si\247\027\376\000\256"
 209      895D0780 
 209      39104E25 
 209      5369A717 
 209      FE00AE
 210 0333 5F5AAA   		.ascii	"_Z\252"
 211              		.text
 212              		.section	.gnu.lto_chRegFindThreadByWorkingArea.500ef0b162f0a536,"",%progbits
 213 0000 789C8D54 		.ascii	"x\234\215TKh\024A\020\255\352\331\331]\367\343\007\274"
 213      4B681441 
 213      10ADEAD9 
 213      D95DF7E3 
 213      07BC
 214 0012 28495C14 		.ascii	"(I\\\024\301o\306\034\304\253!\247\200\0214\006\364"
 214      C16FC61C 
 214      C4AB21A7 
 214      80113406 
 214      F4
 215 0023 24E364D9 		.ascii	"$\343d\331\0148\3310\263\206\004\017\351\374 ^4\211"
 215      0C38D930 
 215      B386040F 
 215      E9FC205E 
 215      3489
 216 0035 1EFCB2F1 		.ascii	"\036\374\262\361\217QQ\004\017~\300\215\010&!Y\321\223"
 216      8F515104 
 216      0F7EC08D 
 216      08262159 
 216      D193
 217 0047 7A8A8888 		.ascii	"z\212\210\210\022\210\236\024\225\254\325\323\263\223"
 217      12889E14 
 217      95ACD5D3 
 217      B393
 218 0055 4D5063EF 		.ascii	"MPc\357\316tuW\325\253\327U5\315\200\301\302\261\213"
 218      CE747557 
 218      D5ABD755 
 218      35CD80C1 
 218      C2B18B
 219 0068 9EDD2AC0 		.ascii	"\236\335*\300\014\315\030\002d\375y\200\3160CE\012\012"
 219      0CCD1802 
 219      64FD7980 
 219      CE304345 
 219      0A0A
 220 007a 539F2AC0 		.ascii	"S\237*\300#\201\3748\000\217\005X\320\025\"\356n,(\315"
 220      2381FC38 
 220      008F0558 
 220      D01522EE 
 220      6E2C28CD 
 221 008e AA554431 		.ascii	"\252UD1\003B\007S\002A\025;\016\240@\307\265p\221\363"
 221      03420753 
 221      0241153B 
ARM GAS  /tmp/ccw82XVy.s 			page 17


 221      0EA040C7 
 221      B57091F3 
 222 00a2 C1A90FB3 		.ascii	"\301\251\017\263\237\360\014\317\365\014\361_\205\002"
 222      9FF00CCF 
 222      F50CF15F 
 222      8502
 223 00b0 A289C464 		.ascii	"\242\211\304d\035\202\201\260\237\026\230p'\026\230"
 223      1D8281B0 
 223      9F169870 
 223      271698
 224 00bf 4FED0ECB 		.ascii	"O\355\016\313M\025\012\267\012S\357O\340\312\025\010"
 224      4D150AB7 
 224      0A53EF4F 
 224      E0CA1508 
 225 00cf 3A5E243C 		.ascii	":^$<\006\344\035\242\227\022F\013!\342mG\2759F\232@"
 225      06E41DA2 
 225      9712460B 
 225      21E26D47 
 225      BD39469A 
 226 00e4 5CBC0841 		.ascii	"\\\274\010A\205\036\316\373\023R\003\"\034\215}\364"
 226      851ECEFB 
 226      13520322 
 226      1C8D7DF4 
 227 00f4 FE128406 		.ascii	"\376\022\204\006d4)c\320\025\006\360hfoL\216\340`7\037"
 227      64342963 
 227      D01506F0 
 227      68666F4C 
 227      8EE06037 
 228 0109 E53D39E2 		.ascii	"\345=9\342\271\306D\225\221\341\"<\305\236\232 !\017"
 228      B9C64495 
 228      91E1223C 
 228      C59E9A20 
 228      210F
 229 011b 5D5F1F75 		.ascii	"]_\037u_[\355\205-\306\317=yuN\331\240\343\025\227\204"
 229      5F5BED85 
 229      2DC6CF3D 
 229      79754ED9 
 229      A0E31597 
 230 0130 B7F7EDD4 		.ascii	"\267\367\355\324\367h\231\277\032\233`>[\311%\227\035"
 230      F76899BF 
 230      1A9B603E 
 230      5BC92597 
 230      1D
 231 0141 3FBE8A0F 		.ascii	"?\276\212\017u\365\363Yb\342&\3546.\306\244\210\301"
 231      75F5F359 
 231      62E226EC 
 231      362EC6A4 
 231      88C1
 232 0153 7F664340 		.ascii	"\177fC@\011\271\214*y\270\2476\350\270\006*\364\270"
 232      09B98C2A 
 232      79B8A736 
 232      E8B8062A 
 232      F4B8
 233 0165 3E48BFBB 		.ascii	">H\277\273\264\244\260\212\354\212\012\030\301\013\374"
 233      B4A4B08A 
 233      EC8A0A18 
 233      C10BFC
ARM GAS  /tmp/ccw82XVy.s 			page 18


 234 0174 F44E1383 		.ascii	"\364N\023\203\363\0165\247\177\346\351C2\324$t\275}"
 234      F30E35A7 
 234      7FE6E943 
 234      32D42474 
 234      BD7D
 235 0186 7DAD4AC7 		.ascii	"}\255J\307a\212\222\302\350f\030\3464\366\020WO\334"
 235      618A92C2 
 235      E86618E6 
 235      34F61057 
 235      4FDC
 236 0198 6E62F81C 		.ascii	"nb\370\034\234\355\344|\271\211K\216\302\017\336'\244"
 236      9CEDE47C 
 236      B9894B8E 
 236      C20FDE27 
 236      A4
 237 01a9 88E55212 		.ascii	"\210\345R\022\021\".\322!\261\324\3616\341\220\214\276"
 237      11222ED2 
 237      21B1D4F1 
 237      36E1908C 
 237      BE
 238 01ba 0C40D5C9 		.ascii	"\014@\325\311\005e\004\035oR\376(\216\214|\372\372\306"
 238      0565041D 
 238      6F52FE28 
 238      8E8C7CFA 
 238      FAC6
 239 01cc 62E4D866 		.ascii	"b\344\330f\330db\324\217\024##\001\016\0368+\001\234"
 239      D86462D4 
 239      8F142323 
 239      010E1E38 
 239      2B019C
 240 01df 84EEBEEE 		.ascii	"\204\356\276\356\346\242g\234\234\205e\024\345yj\245"
 240      E6A2679C 
 240      9C856514 
 240      E5796AA5 
 241 01ef C2A31FFD 		.ascii	"\302\243\037\375?P\202q\211\226\264\321\247\374\302"
 241      3F508271 
 241      8996B4D1 
 241      A7FCC2
 242 01fe 36D2F1AA 		.ascii	"6\322\361\252[\200E\373\010\376\325G\237/\210>z4\277"
 242      5B8045FB 
 242      08FED547 
 242      9F2F883E 
 242      7A34BF
 243 0211 8FB2F10A 		.ascii	"\217\262\361\012\277w\374\355c/\\\202\303n\003\250\262"
 243      BF77FCED 
 243      632F5C82 
 243      C36E03A8 
 243      B2
 244 0222 01827F28 		.ascii	"\001\202\177(\276\216wH\360#\027\213\255\343=\254\220"
 244      BE8E7748 
 244      F023178B 
 244      ADE33DAC 
 244      90
 245 0233 ACE86453 		.ascii	"\254\350dS\263\037Q6S\361K\222\243\201\\\351\263\367"
 245      B31F5136 
 245      53F14B92 
 245      A3815CE9 
ARM GAS  /tmp/ccw82XVy.s 			page 19


 245      B3F7
 246 0245 BE21A94B 		.ascii	"\276!\251K\211\372Q*\037\366\316d\313ErB\224B\202WH"
 246      89FA512A 
 246      1FF6CE64 
 246      CB457242 
 246      94428257 
 247 025a E1E6AF6C 		.ascii	"\341\346\257l\016\266\357\3062\011k!s\375\346e\361A"
 247      0EB6EFC6 
 247      32096B21 
 247      73FDE665 
 247      F141
 248 026c 7EE23E9E 		.ascii	"~\342>\236,\315\"\205\270\265h\026-Q\232Qx\366\361]"
 248      2CCD2285 
 248      B8B56816 
 248      2D519A51 
 248      78F6F15D 
 249 0280 EFA5A71E 		.ascii	"\357\245\247\036mb\221\302p\321\342\015 \025\223M\027"
 249      6D6291C2 
 249      70D1E20D 
 249      2015934D 
 249      17
 250 0291 CA521809 		.ascii	"\312R\030\011>\036H\212\223\004\200\3565\345\005\004"
 250      3E1E488A 
 250      930480EE 
 250      35E50504 
 251 02a1 8A1E11BF 		.ascii	"\212\036\021\277_\343\206\327\362)qs-\0254Yi:R\242\215"
 251      5FE386D7 
 251      F2297173 
 251      2D153459 
 251      693A52A2 
 252 02b6 47A1677A 		.ascii	"G\241gz\344\314+?`d\256Y\274\261\217\0120\364\034\260"
 252      E4CC2B3F 
 252      6064AE59 
 252      BCB18F0A 
 252      30F41CB0 
 253 02ca 81F474F1 		.ascii	"\201\364t\361\274\244\313U@2II$@9?P\356\271\005\246"
 253      BCA4CB55 
 253      40324949 
 253      2440393F 
 253      50EEB905 
 254 02df 07E2C205 		.ascii	"\007\342\302\005\311TX$*+5\371O;\232\235\321\034\333"
 254      C9545824 
 254      2A2B35F9 
 254      4F3B9A9D 
 254      D11CDB
 255 02f2 D08C263B 		.ascii	"\320\214&;\2312\235\214\335^i\200bdZ\266\226\032\031"
 255      99329D8C 
 255      DD5E6980 
 255      62645AB6 
 255      961A19
 256 0305 69CB4A37 		.ascii	"i\313J7k-i;\343h\325{\353j\352\332\310\303H\333\311"
 256      6B2D693B 
 256      E368D57B 
 256      EB6AEADA 
 256      C8C348DB 
 257 031a 83AD3BAC 		.ascii	"\203\255;\254\312&P[\365\303G\222U\177\360I\266e\264"
 257      CA26505B 
ARM GAS  /tmp/ccw82XVy.s 			page 20


 257      F5C34792 
 257      557FF049 
 257      B665B4
 258 032d 9ABAFADA 		.ascii	"\232\272\372\332z\315l6\016\037iLj\206\345\230\316\301"
 258      7ACD6C36 
 258      0E1F694C 
 258      6A86E598 
 258      CEC1
 259 033f 946190DF 		.ascii	"\224a\220\337\232\005T|\233&\247\335!=\313\264,\257"
 259      9A05547C 
 259      9B26A7DD 
 259      213DCBB4 
 259      2CAF
 260 0351 ABDF9B38 		.ascii	"\253\337\2338\244;\311\026\333\334\222X\277\015\230"
 260      A43BC916 
 260      DBDC9258 
 260      BF0D98
 261 0360 0D212B69 		.ascii	"\015!+i\245\355vX\367W\367\014\235Go\024\020\277\001"
 261      A5ED7658 
 261      F757F70C 
 261      9D476F14 
 261      10BF01
 262 0373 4F708554 		.ascii	"Op\205T"
 263              		.text
 264              		.section	.gnu.lto_.symbol_nodes.500ef0b162f0a536,"",%progbits
 265 0000 789C4D8C 		.ascii	"x\234M\214=\016Aa\024Dg\346\276\213]X\352\274(\020\225"
 265      3D0E4161 
 265      144467E6 
 265      BE8B5D58 
 265      EABC2810 
 266 0015 15686CC3 		.ascii	"\025hl\303?\241\323k\011\211\304\"\274\027\3027\325"
 266      3FA1D36B 
 266      0989C422 
 266      BC17C237 
 266      D5
 267 0026 39A71841 		.ascii	"9\247\030A\230\343;-i`z\006\354\331\230\271cC\320\212"
 267      98E33B2D 
 267      69607A06 
 267      ECD998B9 
 267      6343D08A 
 268 003a E6BF6A4D 		.ascii	"\346\277jM\253\320\015\035\205n\351\252\270X\220i\360"
 268      ABD00D1D 
 268      856EE9AA 
 268      B8589069 
 268      F0
 269 004b 40E7A7D6 		.ascii	"@\347\247\3265y\244;?\013uq\033\276\372\021=\354O\367"
 269      3579A43B 
 269      3F0B7571 
 269      1BBEFA11 
 269      3DEC4FF7 
 270 005f 67460883 		.ascii	"gF\010\203\311\343\222Q50j!\205k\013x\003\320Y27"
 270      C9E39251 
 270      35306A21 
 270      856B0B78 
 270      03D05932 
 271              		.text
 272              		.section	.gnu.lto_.refs.500ef0b162f0a536,"",%progbits
ARM GAS  /tmp/ccw82XVy.s 			page 21


 273 0000 789C6362 		.ascii	"x\234cb`b\020e\200\000F bdbbdd\006\322,@\314\012\024"
 273      60621065 
 273      80004620 
 273      62646262 
 273      646406D2 
 274 0019 0200040B 		.ascii	"\002\000\004\013\0004"
 274      0034
 275              		.text
 276              		.section	.gnu.lto_.decls.500ef0b162f0a536,"",%progbits
 277 0000 789CC55B 		.ascii	"x\234\305[kt\024U\236\277U\325Iw\223&d\360q2\273\354"
 277      6B741455 
 277      9EBF55D5 
 277      49779326 
 277      64F07132 
 278 0016 12679D5D 		.ascii	"\022g\235]\326\263\022p\\\206\335sFq\030W<g\365(\214"
 278      D6B31270 
 278      5C86DD73 
 278      46711857 
 278      3C67F528 
 279 002b 67E7C3EE 		.ascii	"g\347\303\356\264E\247HZ\373\265\325\025B\334\017S\011"
 279      B445A748 
 279      5AFBB5D5 
 279      1542DC0F 
 279      5309
 280 003d 18505E31 		.ascii	"\030P^1\204\247\010A\300\021f\224\227\014\260 \3668"
 280      84A70841 
 280      C0116694 
 280      970CB020 
 280      F638
 281 004f 03045020 		.ascii	"\003\004P \274\"F\240G\201\231\001AX@D\220\354\275\377"
 281      BC2246A0 
 281      47819901 
 281      41584044 
 281      90ECBDFF 
 282 0063 BA555DB7 		.ascii	"\272U]\267\272\252\273*x\316\324\241n\356\275}\357\357"
 282      BAAABB2A 
 282      78CED4A1 
 282      6EEEBD7D 
 282      EFEF
 283 0075 FFBECF82 		.ascii	"\377\276\317\202G<\012\011\010\365\342g\345\217\020"
 283      473C0A09 
 283      08F5E267 
 283      E58F10
 284 0084 1AE547A8 		.ascii	"\032\345G\250\024!\364\020\312=\270\012-\303\357\323"
 284      1421F410 
 284      CA3DB80A 
 284      2DC3EFD3 
 285 0094 1C423FC3 		.ascii	"\034B?\303\357\317\361;\036\277Q\374\306\361\313\343"
 285      EFCFF13B 
 285      1EBF51FC 
 285      C6F1CBE3 
 286 00a4 DF5EC07F 		.ascii	"\337^\300\177wr\210yH\237\020~\227\343\267\234\346I"
 286      77728879 
 286      489F107E 
 286      97E3B79C 
 286      E649
 287 00b6 93ADF8BD 		.ascii	"\223\255\370\275\2063\327\361\333\214\337\377\301\357"
ARM GAS  /tmp/ccw82XVy.s 			page 22


 287      8633D7F1 
 287      DB8CDFFF 
 287      C1EF
 288 00c4 0DFC72F8 		.ascii	"\015\374r\370]\201\177\303\354\240&\234\237\316i\035"
 288      5D817FC3 
 288      ECA0269C 
 288      9FCE691D 
 289 00d4 4A29D64D 		.ascii	"J)\326MR\306\304\004\374\206\360;\200\327\360^\260\320"
 289      52C6C404 
 289      FC86F03B 
 289      80D7F05E 
 289      B0D0
 290 00e6 257CF62F 		.ascii	"%|\366/B\227\320\031\310k\364\011\335;p\3769N\243}\222"
 290      4297D019 
 290      C86BF409 
 290      DD3B70FE 
 290      394EA37D 
 291 00fb D2279DFC 		.ascii	"\322'\235\374\024\317\216v\224\266\177\006\377\275\223"
 291      14CF8E76 
 291      94B67F06 
 291      FFBD93
 292 010a CFE783E8 		.ascii	"\317\347\203\350j\240\205\217S\370\365\271\324\303_"
 292      6AA0858F 
 292      53F8F5B9 
 292      D4C35F
 293 0119 61CC04CE 		.ascii	"a\314\004\316\3775\376;\226\313\327K\220\322p\322\015"
 293      FF35FE3B 
 293      96CBD74B 
 293      90D270D2 
 293      0D
 294 012a B1CDD3B4 		.ascii	"\261\315\323\264\337\177r\032\177\203x\226Gb\313\362"
 294      DF7F721A 
 294      7F837896 
 294      4762CBF2 
 295 013a 3ED8C889 		.ascii	">\330\310\211\247\000\305t\342\351i\352/\317r\371\372"
 295      A700C574 
 295      E2E969EA 
 295      2FCF72F9 
 295      FA
 296 014b 223E35C0 		.ascii	"\">5\300\302\313\271o\201\237\361E\370!}&P~\376\306"
 296      C2CBB96F 
 296      819FF145 
 296      F8217D26 
 296      507EFEC6 
 297 015f A29FC168 		.ascii	"\242\237\301h\211\232\275\230\335\261\374\030\267P\315"
 297      899ABD98 
 297      DDB1FC18 
 297      B750CD
 298 016e 4C517B7B 		.ascii	"LQ{{\177\301\335\215\346\252\370\351hQUN)C/\253j3)\214"
 298      7FC1DD8D 
 298      E6AAF8E9 
 298      6851554E 
 298      29432FAB 
 299 0186 E92C1F88 		.ascii	"\351,\037\210^!\277Tu\226\023\313\210\\y\020u\370 \027"
 299      5E21BF54 
 299      759613CB 
 299      885C7910 
ARM GAS  /tmp/ccw82XVy.s 			page 23


 299      75F82017 
 300 019a 0AA29F60 		.ascii	"\012\242\237`\270\357\243\025\252\332\232\235\377\315"
 300      B8EFA315 
 300      AADA9A9D 
 300      FFCD
 301 01a8 21415503 		.ascii	"!AU\003\"\267\202\033\2109\032\303\241\373\320*\334"
 301      22B7821B 
 301      88391AC3 
 301      A1FBD02A 
 301      DC
 302 01b9 B155555F 		.ascii	"\261UU_\277\317\242\025x\212\002\363\304\023D\356M\214"
 302      BFCFA215 
 302      788A02F3 
 302      C41344EE 
 302      4D8C
 303 01cb 2772BFE4 		.ascii	"'r\277\344\356\323(\251\331\271S\2177sM\230Q\3557D\177"
 303      EED328A9 
 303      D9B9538F 
 303      37734D98 
 303      51ED3744 
 304 01e0 B579EE41 		.ascii	"\265y\356A\035\270C\346\332\236\305\234\332\361>gCq"
 304      1DB843E6 
 304      DA9EC59C 
 304      DAF13E67 
 304      4371
 305 01f2 944E3060 		.ascii	"\224N0`\222d\331\314\307A\222_\203$\2239\216\241@Q:"
 305      9264D9CC 
 305      C741925F 
 305      83249339 
 305      8EA14051 
 306 0207 4639C1F0 		.ascii	"F9\301\360h\016tY\223\307\370\256\375:\343k\\0\336\234"
 306      680E7459 
 306      93C7F8AE 
 306      FD3AE36B 
 306      5C30DE9C 
 307 021b E97AF9B5 		.ascii	"\351z\371\265\357\022\306En9W\206qW\030\270\224n\225"
 307      EF12C645 
 307      6E395786 
 307      715718B8 
 307      946E95
 308 022e 4E97C41F 		.ascii	"N\227\304\037\315j\017m\300\342\035\334\023j\025u\260"
 308      CD6A0F6D 
 308      C0E21DDC 
 308      136A1575 
 308      B0
 309 023f 559EC1AA 		.ascii	"U\236\301\252\354X\325\036\263\264\"\267\216\373>N\327"
 309      EC58D51E 
 309      B3B422B7 
 309      8EFB3E4E 
 309      D7
 310 0250 73F7E0F4 		.ascii	"s\367\340\364\035\234\032\017\217\336\346t\233\332\251"
 310      1D9C1A0F 
 310      8FDEE674 
 310      9BDAA9
 311 025f AEB808D7 		.ascii	"\256\270\010\327\367,\006\225\004\321\264\234\217\""
 311      F72C0695 
 311      04D1B49C 
ARM GAS  /tmp/ccw82XVy.s 			page 24


 311      8F22
 312 026d 5B11A839 		.ascii	"[\021\2509\217M\377}\0277\031\264\276\031w\343\321y"
 312      8F4DFF7D 
 312      173719B4 
 312      BE1977E3 
 312      D179
 313 027f 8B41DD43 		.ascii	"\213A\335C\365\314>|\211k\006\250\255\000\265\233g\241"
 313      F5CC3E7C 
 313      896B06A8 
 313      AD00B59B 
 313      67A1
 314 0291 44CE1F44 		.ascii	"D\316\037D\246\007\312z\003\202\347\017\3462d~\032\200"
 314      A607CA7A 
 314      0382E70F 
 314      E632647E 
 314      1A80
 315 02a3 BC36E7D1 		.ascii	"\2746\347\321A\336\242B;\303\005\234TH\334\360D\033"
 315      41DEA242 
 315      3BC3059C 
 315      5448DCF0 
 315      441B
 316 02b5 3767B2DA 		.ascii	"7g\262\3329Lw\345R'\271y\324\015\3042VW^\330\375\201"
 316      394C77E5 
 316      5227B979 
 316      D40DC432 
 316      56575ED8 
 317 02cb EECA1957 		.ascii	"\356\312\031W\256\274q\317|\260[\321\261\205\327\351"
 317      AEBC71CF 
 317      7CB05BD1 
 317      B185D7E9 
 318 02db DF0BF467 		.ascii	"\337\013\364g\011\204\376\016+\375\253\037\177\362\""
 318      0984FE0E 
 318      2BFDAB1F 
 318      7FF222
 319 02ea A5BFC315 		.ascii	"\245\277\303\025\375-\335\355\371\364E\356\241\273\012"
 319      FD2DDDED 
 319      F9F445EE 
 319      A1BB0A
 320 02f9 D97B61F7 		.ascii	"\331{a\367\231K\224\312n\210\231N\301j\357\207\313X"
 320      994B94CA 
 320      6E88994E 
 320      C16AEF87 
 320      CB58
 321 030b 03E2B2A9 		.ascii	"\003\342\262\251\001\217\272\014\376\373\024\262X\320"
 321      018FBA0C 
 321      FEFB14B2 
 321      58D0
 322 0319 0B73B936 		.ascii	"\013s\2716b,\235\207\303\236\021\253\030Ml\353\206A"
 322      622C9D87 
 322      C39E11AB 
 322      184D6CEB 
 322      8641
 323 032b 4003EB76 		.ascii	"@\003\353v\003\346\350K\315\231\355f\260\217=\203\261"
 323      03E6E84B 
 323      CD99ED66 
 323      B08F3D83 
 323      B1
ARM GAS  /tmp/ccw82XVy.s 			page 25


 324 033c 9C1D3083 		.ascii	"\234\0350\203\035w\003V\341\314\331A3X\3263\030\313"
 324      1D770356 
 324      E1CCD941 
 324      3358D633 
 324      18CB
 325 034e D96133D8 		.ascii	"\331a3\330gn\300*\2359;j\006\373\243g0\226\263\217\314"
 325      676EC02A 
 325      9D393B6A 
 325      06FBA367 
 325      3096B38F 
 326 0363 60E7DC80 		.ascii	"`\347\334\200U\331pf<v\375\210[\377\2363\374\234G\027"
 326      55D97066 
 326      3C76FD88 
 326      5BFF9E33 
 326      FC9C4717 
 327 0377 047D4CF0 		.ascii	"\004}L\360\350\323(\207qI\360:\2101r\343A\354\344\353"
 327      E8D32887 
 327      7149F03A 
 327      883172E3 
 327      41ECE4EB 
 328 038b DA20A6CF 		.ascii	"\332 \246\317gW\335 \026p\230\326\275\246\311\361\206"
 328      6757DD20 
 328      167098D6 
 328      BDA6C9F1 
 328      86
 329 039c 6730D62C 		.ascii	"g0\326,K\010\0303\326\320Y&\2732S\271 7\334\005t,\262"
 329      4B081833 
 329      D6D05926 
 329      BB3253B9 
 329      2037DC05 
 330 03b3 42D2C636 		.ascii	"B\322\3066\274`\342\215\306je\245}[\221;\003\223\354"
 330      BC60E28D 
 330      C66A65A5 
 330      7D5B913B 
 330      0393EC
 331 03c6 1FB9A0C1 		.ascii	"\037\271\240\301\205\226\327s\275\260,m\362\331\255"
 331      8596D773 
 331      BDB02C6D 
 331      F2D9AD
 332 03d5 BD00A070 		.ascii	"\275\000\240pW'O8e\366\204\026\237\0135\025\010\205"
 332      57274F38 
 332      65F68416 
 332      9F0B3515 
 332      0885
 333 03e7 034E6ACA 		.ascii	"\003Nj\312\264\250\323\270\246u\203\012.\324\026v_X"
 333      B4A8D3B8 
 333      A675830A 
 333      2ED41676 
 333      5F58
 334 03f9 46A7E3CF 		.ascii	"F\247\343\317a:\236\356\263\235\331]\201\365\314\276"
 334      613A9EEE 
 334      B39DD95D 
 334      81F5CCBE 
 335 0409 F95BBA4C 		.ascii	"\371[\272L\370\002\300\346\371\254c}\3202\267\007\331"
 335      F802C0E6 
 335      F9AC637D 
 335      D032B707 
ARM GAS  /tmp/ccw82XVy.s 			page 26


 335      D9
 336 041a C93A18CC 		.ascii	"\311:\030\314ez\365\207\325\276\353>N\332?g\326\376"
 336      657AF587 
 336      D5BEEB3E 
 336      4EDA3F67 
 336      D6FE
 337 042c 52CFDAB7 		.ascii	"R\317\332\267\306\320\227m\334\345fu\3010\223\277\025"
 337      C6D0976D 
 337      DCE56675 
 337      C13093BF 
 337      15
 338 043d 744EBC9A 		.ascii	"tN\274\232\332\273\375G\2608\276\002Jz\303^\343.\200"
 338      DABBFD47 
 338      B038BE02 
 338      4A7AC35E 
 338      E32E80
 339 0450 7A66BF55 		.ascii	"zf\277U\015@\327\000hM\236\2669\213\2669Vs\206\303R"
 339      0D40D700 
 339      684D9EB6 
 339      398BB639 
 339      567386C3 
 340 0465 7FF5D296 		.ascii	"\177\365\322\226G\233\254\252cX,0R\032\252\273\351]"
 340      479BACAA 
 340      63582C30 
 340      521AAABB 
 340      E95D
 341 0477 75D3A9EA 		.ascii	"u\323\251\352n\202\304\357\346I|\315\243\310<\332\341"
 341      6E82C4EF 
 341      E6497CCD 
 341      A3C83CDA 
 341      E1
 342 0488 598C002B 		.ascii	"Y\214\000+\306\324\336>\210\361\236&F\023O\304\330\373"
 342      C6D4DE3E 
 342      88F19E26 
 342      46134FC4 
 342      D8FB
 343 049a 2D8871C8 		.ascii	"-\210q\310\263\030\025&1`c\325\256M\006w\240\266\302"
 343      B3181526 
 343      316063D5 
 343      AE4D0677 
 343      A0B6C2
 344 04ad 2B5AC24F 		.ascii	"+Z\302O\013\177\007\263\232\314\034\331\307Ui\325\305"
 344      0B7F07B3 
 344      9ACC1CD9 
 344      C75569D5 
 344      C5
 345 04be 379397F7 		.ascii	"7\223\227\367\2316 \252\253\015\310^c\003\362\022\250"
 345      993620AA 
 345      AB0DC85E 
 345      6303F212 
 345      A8
 346 04cf EC23BBA0 		.ascii	"\354#\273\240q\005\325\263\177\177\027\035\361f\000"
 346      7105D5B3 
 346      7F7F171D 
 346      F16600
 347 04de D4893CED 		.ascii	"\324\211<\355\227Z\224_\312*\037\027\011\255\257`\234"
 347      975A945F 
ARM GAS  /tmp/ccw82XVy.s 			page 27


 347      CA2A1F17 
 347      09ADAF60 
 347      9C
 348 04ef F905AD21 		.ascii	"\371\005\255!\005?\352s?\036\235\0016\210\002\373\262"
 348      053FEA73 
 348      3F1E9D01 
 348      368802FB 
 348      B2
 349 0500 CA255BFA 		.ascii	"\312%[\372Ss\364\331\\\323\321\371\333Bl\316,\235\255"
 349      5373F4D9 
 349      5CD3D1F9 
 349      DB426CCE 
 349      2C9DAD
 350 0513 6F9D1F26 		.ascii	"o\235\037&\363\371\227\267\011\267m\277u\242\262l$V"
 350      F3F997B7 
 350      09B76DBF 
 350      75A2B26C 
 350      2456
 351 0525 388CC2FA 		.ascii	"8\214\302\372\231\302\272\031\377\004A3\217'\354|\223"
 351      99C2BA19 
 351      FF044133 
 351      8F27EC7C 
 351      93
 352 0536 67B6E59C 		.ascii	"g\266\345\234e#A*LM\234|y.o\232\020ZKn\323\014\273\256"
 352      6523412A 
 352      4C4D9C7C 
 352      792E6F9A 
 352      105A4B6E 
 353 054e 5ACC30EF 		.ascii	"Z\3140\357\266\020\361v\235\232\241\330\266\357Y\035"
 353      B610F176 
 353      9D9AA1D8 
 353      B6EF591D 
 354 055e 2B04822C 		.ascii	"+\004\202,\001\262Kx\313\256o\323\271l\013u\177\362"
 354      01B24B78 
 354      CBAE6FD3 
 354      B96C0B75 
 354      7FF2
 355 0570 5BF160ED 		.ascii	"[\361`\3559\035T\333B\332I\216\310\375\206\343)\252"
 355      391D54DB 
 355      42DA498E 
 355      C8FD86E3 
 355      29AA
 356 0582 DD3AA0A8 		.ascii	"\335:\240\250z2'\244\316a^\302~\247\036\366\313\265"
 356      7A3227A4 
 356      CE615EC2 
 356      7EA71EF6 
 356      CBB5
 357 0594 91B2C46A 		.ascii	"\221\262\304jt\022\303\214\321=\005]\227\241$\267Kh"
 357      7412C38C 
 357      D13D055D 
 357      97A124B7 
 357      4B68
 358 05a6 EBE3E454 		.ascii	"\353\343\344T\257\231\235\352\310\355\271\000v\252\235"
 358      AF999DEA 
 358      C8EDB900 
 358      76AA9D
 359 05b5 2B34A72A 		.ascii	"+4\247*\346\004*g^Y\363\350\023\240\274\332\352\005"
ARM GAS  /tmp/ccw82XVy.s 			page 28


 359      E6042A67 
 359      5E59F3E8 
 359      13A0BCDA 
 359      EA05
 360 05c7 AF7ED139 		.ascii	"\257~\3219\225\356\312W\273\362\202\2536^\260\272\217"
 360      95EECA57 
 360      BBF282AB 
 360      365EB0BA 
 360      8F
 361 05d8 5E805DFA 		.ascii	"^\200]\372\317\2739\200\323v\012/\226r,\234\307\035"
 361      CFBB3980 
 361      D3760A2F 
 361      96722C9C 
 361      C71D
 362 05ea F44DC9AB 		.ascii	"\364M\311\253b4\377\312\034;M&\255\365<9\243\234^ju"
 362      6234FFCA 
 362      1C3B4D26 
 362      ADF53C39 
 362      A39C5E6A 
 363 05ff 2D4D3326 		.ascii	"-M3&\327\312\251\021+\202'[\207\267xr>\3676\244ky\323"
 363      D7CAA911 
 363      2B82275B 
 363      87B77872 
 363      3EF736A4 
 364 0616 299D935B 		.ascii	")\235\223[\254\313\271\205\310m\260\252\321\355\006"
 364      ACCBB985 
 364      C86DB0AA 
 364      D1ED06
 365 0625 AE289955 		.ascii	"\256(\231Uf\357\233Sz{\336\327\276k\237\217\234r\013"
 365      66EF9B53 
 365      7A7BDED7 
 365      BE6B9F8F 
 365      9C720B
 366 0638 1E0E0CF7 		.ascii	"\036\016\014\367\356\320\003w\023\004\356\242<\355n"
 366      EED00377 
 366      1304EEA2 
 366      3CED6E
 367 0647 B52E71DC 		.ascii	"\265.q\334\234\333\275\321WQ\214\207Go\225\272X\362"
 367      9CDBBDD1 
 367      57518C87 
 367      476F95BA 
 367      58F2
 368 0659 57D968DD 		.ascii	"W\331h\335\230h\217\266\273<\373\323g\256\3233\306\300"
 368      98688FB6 
 368      BB3CFBD3 
 368      67AED333 
 368      C6C0
 369 066b CCF52E78 		.ascii	"\314\365.x\332\032\213.\\\034!n\207.\031k\030\317\235"
 369      DA1A8B2E 
 369      5C1C216E 
 369      872E196B 
 369      18CF9D
 370 067e 9A3B4274 		.ascii	"\232;Bt\021\306\315\231\015\314i\270\356\201\231\302"
 370      11C6CD99 
 370      0DCC69B8 
 370      EE8199C2 
 371 068e 1E58509F 		.ascii	"\036XP\237\214\0113\246\000y\037\002\344w\346\240\340"
ARM GAS  /tmp/ccw82XVy.s 			page 29


 371      8C0933A6 
 371      00791F02 
 371      E477E6A0 
 371      E0
 372 069f D13E37BA 		.ascii	"\321>7\272\037\342\344\212x\030:\250]C\350\027\013G"
 372      1FE2E48A 
 372      78183AA8 
 372      5D43E817 
 372      0B47
 373 06b1 AD787603 		.ascii	"\255xv\003\021\203g\266es\246\365\020\034Xh>z\322\015"
 373      118367B6 
 373      6573A6F5 
 373      101C5868 
 373      3E7AD20D 
 374 06c5 73C39CC1 		.ascii	"s\303\234\301\226\316\321\225\273\012V(\177r\2037\322"
 374      96CED195 
 374      BB0A5628 
 374      7F728337 
 374      D2
 375 06d6 49D8E6CC 		.ascii	"I\330\346\314\246C\213)\236v\350~\3213\036\313\337\221"
 375      A6438B29 
 375      9E76E87E 
 375      D1331ECB 
 375      DF91
 376 06e8 39CC7AEE 		.ascii	"9\314z\356\272\033\270Q\256m\237\273c\302C\032\234\253"
 376      BA1BB851 
 376      AE6D9FBB 
 376      63C2431A 
 376      9CAB
 377 06fa FC0A2E2F 		.ascii	"\374\012./6A\372\036\244'!\375\003\244\237Az\026\322"
 377      3641FA1E 
 377      A42721FD 
 377      03A49F41 
 377      7A16D2
 378 070d CB90DE80 		.ascii	"\313\220\336\200T\205\301\364EH\267A\272\003\322]\220"
 378      5485C1F4 
 378      4548B741 
 378      BA03D25D 
 378      90
 379 071e EE86742F 		.ascii	"\356\206t/\244\037\272\031p]\256\001_\347\356\246\271"
 379      A41FBA19 
 379      705DAE01 
 379      5FE7EEA6 
 379      B9
 380 072f 6704DD59 		.ascii	"g\004\335Y{-q\212\320\337\243\225d@\204k\277\366\214"
 380      7B2D718A 
 380      D0DFA395 
 380      6440846B 
 380      BFF68C
 381 0742 4F5F728A 		.ascii	"O_r\212\3342n\260\0034\374\274\237g\356\017\265\333"
 381      DC326EB0 
 381      0334FCBC 
 381      9F67EE0F 
 381      B5DB
 382 0754 C3CCCD3D 		.ascii	"\303\314\315=\241\326\246lo\357`\346\346P\003u\342\363"
 382      A1D6A66C 
 382      6FEF60E6 
ARM GAS  /tmp/ccw82XVy.s 			page 30


 382      E6500375 
 382      E2F3
 383 0766 20AFF129 		.ascii	" \257\361)\300u\251!\237\3164\360\335\352g\371\276\027"
 383      C075A921 
 383      9FCE34F0 
 383      DDEA67F9 
 383      BE17
 384 0778 2D57D536 		.ascii	"-W\3256\365Ui\214>\341v@\213.\336\236ic%\255\211\253"
 384      F555698C 
 384      3EE17640 
 384      8B2EDE9E 
 384      696325AD 
 385 078e 6E3AF5D4 		.ascii	"n:\365\324\230\234\250N\275(\203\207\363E\355\310f\332"
 385      989CA84E 
 385      BD288387 
 385      F345EDC8 
 385      66DA
 386 07a0 F77917F5 		.ascii	"\367y\027\365\230U\324S\371\242.\267\027u+\021Uk\376"
 386      9855D453 
 386      F9A22EB7 
 386      17752B11 
 386      556BFE
 387 07b3 6718E13E 		.ascii	"g\030\341>r\024\365T\001Q\235zQ\006{lE\375Z\027U3\026"
 387      7214F554 
 387      01519D7A 
 387      51067B6C 
 387      45FD5A17 
 388 07ca 8FB6D8F3 		.ascii	"\217\266\330\363\370\256"
 388      F8AE
 389 07d0 6E0E913B 		.ascii	"n\016\221;\312\023\036O\364\311\034N\275(\217'my\274"
 389      CA131E4F 
 389      F4C91C4E 
 389      BD288F27 
 389      6D79BC
 390 07e3 B2DFBB39 		.ascii	"\262\337\2739>\263\232\343\\\2769\016\332\213z\214\210"
 390      3EB39AE3 
 390      5CBE390E 
 390      DA8B7A8C 
 390      88
 391 07f4 7A0E3CEF 		.ascii	"z\016<\357\013h\361\251\243\250\347\012\210\352\324"
 391      0B68F1A9 
 391      A3A8E70A 
 391      88EAD4
 392 0803 8B3278DA 		.ascii	"\2132x\332&\310Z\263Gz3\017/X\257NyI\275e\275\243w\274"
 392      26C85AB3 
 392      477A330F 
 392      2F58AF4E 
 392      7949BD65 
 393 081b BA226867 		.ascii	"\272\"hg]\004\332\274\200u\200\320\232~n\303\311\332"
 393      5D04DABC 
 393      807580D0 
 393      9A7E6EC3 
 393      C9DA
 394 082d ECFCE57F 		.ascii	"\354\374\345\177\210,T\337'\037\013\364V\252\007\326"
 394      882C54DF 
 394      271F0BF4 
 394      56AA07D6 
ARM GAS  /tmp/ccw82XVy.s 			page 31


 395 083d 5A99F105 		.ascii	"Z\231\361\005m\230\001\362<\272\026\340r\360\027\354"
 395      6D9801F2 
 395      3CBA16E0 
 395      72F017EC 
 396 084d 02832920 		.ascii	"\002\203) de\265\227a\225\242\266\004\271\\aV\220\222"
 396      6465B597 
 396      6195A2B6 
 396      04B95C61 
 396      569092
 397 0860 A0E53941 		.ascii	"\240\3459A\203\244\335\363=\264\214\250w\356\324#\273"
 397      83A4DDF3 
 397      3DB48CA8 
 397      77EED423 
 397      BB
 398 0871 B836B5A3 		.ascii	"\2706\265\243\023O\316x\2035\330n\345\355\327\305I!"
 398      134FCE78 
 398      8335D86E 
 398      E5EDD7C5 
 398      4921
 399 0883 D30702B3 		.ascii	"\323\007\002\263\377\025\226D7`I\264 h\273$r\206\341"
 399      FF159644 
 399      376049B4 
 399      2068BB24 
 399      7286E1
 400 0896 D10AE872 		.ascii	"\321\012\350r+\177It\242\205.\211n\271\332\331\274\322"
 400      2B7F4974 
 400      A2852E89 
 400      6EB9DAD9 
 400      BCD2
 401 08a8 E3F86543 		.ascii	"\343\370eC\326\3303\0142q\376\356\314\207\200\363f\201"
 401      D6D8330C 
 401      3271FEEE 
 401      CC8780F3 
 401      6681
 402 08ba 70FE7671 		.ascii	"p\376vq\316Y\030\036m\205./\012y\234\237\327\357c\311"
 402      CE59181E 
 402      6D852E2F 
 402      0A799C9F 
 402      D7EF63C9 
 403 08ce 6FC539DF 		.ascii	"o\3059\337\324m^\014\351\2732\322\267o\273\262\315\332"
 403      D46D5E0C 
 403      E9BB32D2 
 403      B76FBBB2 
 403      CDDA
 404 08e0 3DD86638 		.ascii	"=\330f8k\334n\005\363\264'S\365+R\355\326\373\204g\260"
 404      6BDC6E05 
 404      F3B42753 
 404      F52B52ED 
 404      D6FB8467 
 405 08f5 2A86B343 		.ascii	"*\206\263C\363\331ek\326\015^\201{*z\027\251\201}\352"
 405      F3D9656B 
 405      D60D5E81 
 405      7B2A7A17 
 405      A9817DEA 
 406 0909 198C65EE 		.ascii	"\031\214e\356\343n\323\245\327n\303\266\005\300\354"
 406      E36ED3A5 
 406      D76EC3B6 
ARM GAS  /tmp/ccw82XVy.s 			page 32


 406      05C0EC
 407 0918 6E73EC1E 		.ascii	"ns\354\036\263\223\210\334T\201,\252\246\011d\351\363"
 407      B39388DC 
 407      54812CAA 
 407      A60964E9 
 407      F3
 408 0929 12A42F43 		.ascii	"\022\244/C:\035\322\031\220\316\024\230\345v\227\021"
 408      3A1DD219 
 408      90CE1498 
 408      E5769711 
 409 0939 23B6AE58 		.ascii	"#\266\256X\314%\324\314B\347\340`\216\233\364\330\330"
 409      CC25D4CC 
 409      42E7E060 
 409      8E9BF4D8 
 409      D8
 410 094a 32EB6710 		.ascii	"2\353g\020\033\257@lt\027\217\015\313\241\325y\350\321"
 410      1BAF406C 
 410      74178F0D 
 410      CBA1D579 
 410      E8D1
 411 095c 9E171ABB 		.ascii	"\236\027\032\273\216\352\241\321\356\"4\2323\307\347"
 411      8EEAA1D1 
 411      EE22349A 
 411      33C7E7
 412 096b B93B33EB 		.ascii	"\271;3\3530\364q\247I\212\225\263\264\217\227\026\202"
 412      30F471A7 
 412      498A95B3 
 412      B48F9716 
 412      82
 413 097c 1453FA15 		.ascii	"\024S\372\025\225\202\205\341Q;tY\234/\306N]\214\305"
 413      958285E1 
 413      513B7459 
 413      9C2FC64E 
 413      5D8CC5
 414 098f AEC4786D 		.ascii	"\256\304xm\236\356\367\013\204\334vmqa\357r4gsf\311"
 414      9EEEF70B 
 414      84DC766D 
 414      7161EF72 
 414      34677366 
 415 09a4 5170550D 		.ascii	"QpU\015l\243g0\326\357\327\035]\\\251v\374V\377\214"
 415      6CA36730 
 415      D6EFD71D 
 415      5D5CA976 
 415      FC56FF8C 
 416 09b8 486D5187 		.ascii	"HmQ\207\274\231SI\205\216\300\233\024\273\361\020\017"
 416      BC995349 
 416      858EC09B 
 416      14BBF110 
 416      0F
 417 09c9 8A7D5D20 		.ascii	"\212}] \365+-\212u\017\3243{\323H\000Z\011@k,@\"'X\316"
 417      F52B2D8A 
 417      750FD433 
 417      7BD34800 
 417      5A09406B 
 418 09e3 1604F66C 		.ascii	"\026\004\366lA\010\3462\275\275\002\362\326\230G\233"
 418      4108E632 
 418      BDBD02F2 
ARM GAS  /tmp/ccw82XVy.s 			page 33


 418      D698479B 
 419 09f3 0DFBDA31 		.ascii	"\015\373\3321Ylp$\347y\037\314\2659\317s\277:\371\225"
 419      596C7024 
 419      E7791FCC 
 419      B539CF73 
 419      BF3AF995 
 420 0a07 6059023C 		.ascii	"`Y\002<lY\234\330u\324\255pi\346\020P\336j\201\214X"
 420      6C599CD8 
 420      75D4AD70 
 420      69E61050 
 420      DE6A818C 
 421 0a1c DB2DCAB3 		.ascii	"\333-\312\263\034\312\023JN\\\254\021\312\034\\8\357"
 421      1CCA134A 
 421      4E5CAC11 
 421      CA1C5C38 
 421      EF
 422 0a2d 371EEDB2 		.ascii	"7\036\355\262\352\314\333\034\200u\366\341J\375`\035"
 422      EACCDB1C 
 422      8075F6E1 
 422      4AFD601D 
 423 0a3d F6AF1FB8 		.ascii	"\366\257\037\270\001\264\233\004\354\036s\264\212\334"
 423      01B49B04 
 423      EC1E73B4 
 423      8ADC
 424 0a4b 12186A97 		.ascii	"\022\030j\227\302\220\332\001\3512HWA\272\316<\310:"
 424      C290DA01 
 424      E9324857 
 424      41BACE3C 
 424      C83A
 425 0a5d E986C498 		.ascii	"\351\206\304\230\201\255\305m{\237\343\366b~\334z\001"
 425      81ADC56D 
 425      7B9FE3F6 
 425      627EDC7A 
 425      01
 426 0a6e 631499B9 		.ascii	"c\024\231\271J\343V\013C\274q\027,x\336\2349\323>?t"
 426      4AE3560B 
 426      43BC7117 
 426      2C78DE9C 
 426      39D33E3F 
 427 0a83 E0593DA6 		.ascii	"\340Y=\246\017\364\343<\202U\0242J\273\311(\363\300"
 427      0FF4E33C 
 427      82551432 
 427      4ABBC928 
 427      F3C0
 428 0a95 28F3C104 		.ascii	"(\363\301\004\033 }\007\322\215\354\234w\254\237e\316"
 428      1B207D07 
 428      D28DEC9C 
 428      77AC9F65 
 428      CE
 429 0aa6 63A618BB 		.ascii	"c\246\030\273\031\330\254\0365\263\266\007\353\332\365"
 429      19D8AC1E 
 429      35B3B607 
 429      EBDAF5
 430 0ab5 C9DEF959 		.ascii	"\311\336\371Y\332\311\336\026\230*\262\366SE\241\223"
 430      DAC9DE16 
 430      982AB2F6 
 430      5345A193 
ARM GAS  /tmp/ccw82XVy.s 			page 34


 431 0ac5 BD2FA0CB 		.ascii	"\275/\240\313\266\374\305\340-}\252\330V|\252\23029"
 431      B6FCC5E0 
 431      2D7DAAD8 
 431      567CAA98 
 431      3239
 432 0ad7 B370D11B 		.ascii	"\263p\321\033\271\031o\262\021\276\2479\273]\205\246"
 432      B9196FB2 
 432      11BEA739 
 432      BB5D85A6 
 433 0ae7 5CE63394 		.ascii	"\\\3463\224^\203\017\217.jo\270m&\303m\007\303\275\307"
 433      5E830F8F 
 433      2E6A6FB8 
 433      6D26C36D 
 433      07C3BDC7 
 434 0afb 9AE9A532 		.ascii	"\232\351\2452\213\231<\236\004n\351\321\027\277\332"
 434      8B993C9E 
 434      046EE9D1 
 434      17BFDA
 435 0b0a C7D233AD 		.ascii	"\307\3223\255x\035\314\207\320v\200U\205\004\270e:\312"
 435      781DCC87 
 435      D0768055 
 435      8504B865 
 435      3ACA
 436 0b1c 54418026 		.ascii	"TA\200&\360\266VH7C\372;V\244\005e\272\365m\267,\004"
 436      F0B65648 
 436      3743FA3B 
 436      56A40565 
 436      BAF56DB7 
 437 0b32 758760EC 		.ascii	"u\207`\354\014\311\006jm&{\372l\226o\"\237\220\2537"
 437      0CC9066A 
 437      6D267BFA 
 437      6C966F22 
 437      9F90AB37 
 438 0b46 F1FE495F 		.ascii	"\361\376I_ha\0219\323\034\270\326X_\220a\237\372\336"
 438      68611139 
 438      D31CB8D6 
 438      585F9061 
 438      9FFADE
 439 0b59 B5FFBD5E 		.ascii	"\265\377\275^I\216\330\365\365\210c{\221\353\304\002"
 439      498ED8F5 
 439      F588637B 
 439      91EBC402 
 440 0b69 146D461A 		.ascii	"\024mF\032\356\261\370a\346\230T\245\325\272\270(\274"
 440      EEB1F861 
 440      E69854A5 
 440      D5BAB828 
 440      BC
 441 0b7a 1A505B42 		.ascii	"\032P[B\337A\255 \300\250J\355;('\347\373P\370\016\344"
 441      DF41AD20 
 441      C0A84AED 
 441      3B2827E7 
 441      FB50F80E 
 442 0b8f 98CB4068 		.ascii	"\230\313@h\341\324c\237\220\373\326*\024\314e\364I\217"
 442      E1D4639F 
 442      90FBD62A 
 442      14CC65F4 
 442      498F
ARM GAS  /tmp/ccw82XVy.s 			page 35


 443 0ba1 471930C0 		.ascii	"G\0310\300\236>\017\263\237\374\327\202a\372\3074{\255"
 443      9E3E0FB3 
 443      9FFCD782 
 443      61FAC734 
 443      7BAD
 444 0bb3 5876DF53 		.ascii	"Xv\337S0XU\014\326\011\023\326\001\317XC\030\254\213"
 444      3058550C 
 444      D60913D6 
 444      01CF5843 
 444      18AC8B
 445 0bc6 E29BC3F4 		.ascii	"\342\233\303\364\265\316\021+\226\335\000\313`\015c"
 445      B5CE112B 
 445      96DD00CB 
 445      600D63
 446 0bd5 B0FECFC4 		.ascii	"\260\376\317\304\327q7|\025\030\371\257\230\260N{\306"
 446      D771377C 
 446      1518F9AF 
 446      98B04E7B 
 446      C6
 447 0be6 623EA3C9 		.ascii	"b>\243\311|i\302\272\340\031\253\202\301\372\312\204"
 447      7C69C2BA 
 447      E019AB82 
 447      C1FACA84 
 448 0bf6 75DD3356 		.ascii	"u\3353V%\203\365\265\011\2539\344\025\213\365\211\233"
 448      2583F5B5 
 448      09AB39E4 
 448      158BF589 
 448      9B
 449 0c07 26AC973D 		.ascii	"&\254\227=c\261>q\313\204\325\356\031\213\365\211\326"
 449      63B13E71 
 449      CB84D5EE 
 449      198BF589 
 449      D6
 450 0c18 9D656B9F 		.ascii	"\235ek\237\325\301\226x\006\033\311\200\265\231\301"
 450      D5C19678 
 450      061BC980 
 450      B599C1
 451 0c27 7EE906AC 		.ascii	"~\351\006\254\300F\275\335\014\366\216g0\326\305\346"
 451      C046BDDD 
 451      0CF68E67 
 451      30D6C5E6 
 452 0c37 99C1B67B 		.ascii	"\231\301\266{\006c}l\201\031\254\3233\030\353d\213\314"
 452      06637D6C 
 452      8119ACD3 
 452      3318EB64 
 452      8BCC
 453 0c49 605D9EC1 		.ascii	"`]\236\301X/[l\006;\356\031l\010b\037}\022\334\013\223"
 453      582F5B6C 
 453      063BEE19 
 453      6C08621F 
 453      7D12DC0B 
 454 0c5e E00730F1 		.ascii	"\340\0070\361\035\200\364 \244\207!=\012\351G\220~\014"
 454      1D80F420 
 454      A487213D 
 454      0AE94790 
 454      7E0C
 455 0c70 E927909E 		.ascii	"\351'\220\236\2004\013\351\247\220\236\202\364\014\244"
ARM GAS  /tmp/ccw82XVy.s 			page 36


 455      80340BE9 
 455      A7909E82 
 455      F40CA4
 456 0c7f 7F82F42C 		.ascii	"\177\202\364,\244\237Cz\001\322\213\354\304z&d\335\337"
 456      A49F437A 
 456      01D28BEC 
 456      C47A2664 
 456      DDDF
 457 0c91 69339289 		.ascii	"i3\222\211\307\334\304\205\376R\\^4\270t\234^/\343\351"
 457      C7DCC485 
 457      FE525C5E 
 457      34B8749C 
 457      5E2FE3E9 
 458 0ca5 FF6FD1F5 		.ascii	"\377o\321\365\320k\252\346\231\017\242\015\352\264L"
 458      D06BAAE6 
 458      990FA20D 
 458      EAB44C
 459 0cb4 4789C8ED 		.ascii	"G\211\310\355\002\376\011\337Z\335(m\2064\202\202d\310"
 459      02FE09DF 
 459      5ADD286D 
 459      86348282 
 459      64C8
 460 0cc6 741AD7AB 		.ascii	"t\032\327\2538\243J\324\253x\243*\252W\011FU\002Q\215"
 460      38A34AD4 
 460      AB78A32A 
 460      AA570946 
 460      5502518D 
 461 0cda 900AB87A 		.ascii	"\220\012\270z\327TC\213wS\035\221\"\236g\232GQm\321"
 461      D754438B 
 461      77531D91 
 461      229E679A 
 461      47516DD1 
 462 0cee 9F7D546D 		.ascii	"\237}Tm\264\310S\375\321\342O\250\"i1@5J\213!\252ZZ"
 462      B4C853FD 
 462      D1E24FA8 
 462      22693140 
 462      354A8B21 
 463 0d05 ACA03AA6 		.ascii	"\254\240:\246\305;\251\262i\261\222j\235\026\007Q\365"
 463      C53BA9B2 
 463      69B1926A 
 463      9D160751 
 463      F5
 464 0d16 D36215B5 		.ascii	"\323b\025\265\003-\352\006\241\305\357Q\313\230$\274"
 464      032DEA06 
 464      A1C5EF51 
 464      CB9824BC 
 465 0d26 682E2264 		.ascii	"h.\"d,N\026\2243\253\023f\016\205\357/=\257N\276rX\235"
 465      2C4E1694 
 465      33AB1366 
 465      0E85EF2F 
 465      3DAF4EBE 
 466 0d3d E887E894 		.ascii	"\350\207\350\224t\225\205\362H\275\235\237\342\\\367"
 466      749585F2 
 466      48BD9D9F 
 466      E25CF7
 467 0d4c 4CF96B07 		.ascii	"L\371k\007\312\245\224\262eC\177\303a\311M\240n\344"
 467      CAA594B2 
ARM GAS  /tmp/ccw82XVy.s 			page 37


 467      65437FC3 
 467      61C94DA0 
 467      6EE4
 468 0d5e 36ADE4D2 		.ascii	"6\255\344\322\"s1\273\361\354\245\237\377z\275\252\302"
 468      227331BB 
 468      F1ECA59F 
 468      FF7ABDAA 
 468      C2
 469 0d6f F549D314 		.ascii	"\365I\323\024\017\027(\337\010\3717\252\253\373\333"
 469      0F1728DF 
 469      08F937AA 
 469      ABFBDB
 470 0d7e DEA8E2E7 		.ascii	"\336\250\342\347MU\0004\322\376\2460\230\015\356[B\336"
 470      4D550034 
 470      D2FEA630 
 470      980DEE5B 
 470      42DE
 471 0d90 7D0A66ED 		.ascii	"}\012f\355\312\242#\337\325\377\363\345=\032=<G\270"
 471      CAA223DF 
 471      D5FFF3E5 
 471      3D1A3D3C 
 471      47B8
 472 0da2 A2A0FA2C 		.ascii	"\242\240\372,\024\232|v\024\2769wi\314\365\234\360\367"
 472      149A7C76 
 472      14BE3977 
 472      69CCF59C 
 472      F0F7
 473 0db4 B8177E8A 		.ascii	"\270\027~\212\317r>\263\025\016\325\231+\231\213\014"
 473      CF723EB3 
 473      150ED599 
 473      2B998B0C 
 474 0dc4 ABF4D6E5 		.ascii	"\253\364\326\345V\177\3520\364\352\254kg\250\225\323"
 474      567FEA30 
 474      F4EAAC6B 
 474      67A895D3 
 475 0dd4 FFABDC8C 		.ascii	"\377\253\334\214r\322c\262\317\351\362\214~RC%\276\334"
 475      72D263B2 
 475      CFE9F28C 
 475      7E524325 
 475      BEDC
 476 0de6 F454A521 		.ascii	"\364T\245!\361d\253\304-\266\022o<\333Ug6\267\256\326"
 476      F164ABC4 
 476      2DB6126F 
 476      3CDB5567 
 476      36B7AED6 
 477 0dfa B672376A 		.ascii	"\266r7j\235a%2\323\226\310\225E\347\363\015\267\304"
 477      9D612532 
 477      D396C895 
 477      45E7F30D 
 477      B7C4
 478 0e0c 1585D956 		.ascii	"\025\205\331V\012\255,\005\213\2577;l\005H\3176_\231"
 478      0AAD2C05 
 478      8BAF373B 
 478      6C0548CF 
 478      365F99
 479 0e1f 432F72F5 		.ascii	"C/r\365\347\324kN\256\027\331\300\0358\220\335\361\233"
 479      E7D46B4E 
ARM GAS  /tmp/ccw82XVy.s 			page 38


 479      AE17D9C0 
 479      1D3890DD 
 479      F19B
 480 0e31 55DCB4AC 		.ascii	"U\334\264\254\332\2125\326\313\231\243\334\264\365f"
 480      DA8A35D6 
 480      CB99A3DC 
 480      B4F566
 481 0e40 3F3E731C 		.ascii	"?>s\034\014\254\315Dn\236\317\353h0\337g?\032\230\377"
 481      0CACCD44 
 481      6E9ECFEB 
 481      6830DF67 
 481      3F1A98FF 
 482 0e54 9764AE15 		.ascii	"\227d\256\025\211\311r\313\267\000V.x\264\241\234\243"
 482      89C972CB 
 482      B700562E 
 482      78B4A19C 
 482      A3
 483 0e65 FDFA7179 		.ascii	"\375\372qy\332\272P@[\213\034u|\260@\257Ws\275\376\001"
 483      DABA5040 
 483      5B8B1C75 
 483      7CB040AF 
 483      5773BDFE 
 484 0e7a BD41B696 		.ascii	"\275A\266\226K\017v6\221/\365,_\370\352\277\253\353"
 484      4B0F7636 
 484      912FF52C 
 484      5FF8EABF 
 484      ABEB
 485 0e8c 3B2A6C7E 		.ascii	";*l~DUC\207Vk\377\222\351jY\251N\313\221\352H\235,\325"
 485      44554387 
 485      566BFF92 
 485      E96A59A9 
 485      4ECB91EA 
 486 0ea4 46D38ADC 		.ascii	"F\323\212\33484\202\356\2654\210&\"\261\372\032\011"
 486      383482EE 
 486      B5348826 
 486      22B1FA1A 
 486      09
 487 0eb5 374A37A6 		.ascii	"7J7\246\225\306\224\224\036Z\207\002\012\356\"\326\204"
 487      95C69494 
 487      1E5A8702 
 487      0AEE22D6 
 487      84
 488 0ec6 95D2C79E 		.ascii	"\225\322\307\236|\246j4\012F\352\302Z\225\025\337\324"
 488      7CA66A34 
 488      0A46EAC2 
 488      5A9515DF 
 488      D4
 489 0ed7 3D525783 		.ascii	"=RW\203\273\016\320\332\245\303\377]/\325Ka\245\302"
 489      BB0ED0DA 
 489      A5C3FF5D 
 489      2FD54B61 
 489      A5C2
 490 0ee9 E84AAB7C 		.ascii	"\350J\253|\011i\222\342K\311\322\304\022(\2174#F\222"
 490      096992E2 
 490      4BC9D2C4 
 490      12288F34 
 490      234692
ARM GAS  /tmp/ccw82XVy.s 			page 39


 491 0efc F1783251 		.ascii	"\361x2Q\235J\312J\272\372\221\261O\214~b\022\251KEc"
 491      9D4ACA4A 
 491      BAFA91B1 
 491      4F8C7E62 
 491      12A94B45 
 492 0f11 929CAE7E 		.ascii	"\222\234\256~l\364hLHg\322\257\244\344h2\254\214\253"
 492      6CF4684C 
 492      4867D2AF 
 492      A4E46832 
 492      AC8CAB
 493 0f24 AE4BC6A5 		.ascii	"\256K\306\245\352\347\352cQ1Q\375\304\243\217=R\235"
 493      EAE7EA63 
 493      513151FD 
 493      C4A38F3D 
 493      529D
 494 0f36 96E21296 		.ascii	"\226\342\022\226W\012G'U?\032\037/\215\217\326`pQ\216"
 494      570A4727 
 494      553F1A1F 
 494      2F8D8FD6 
 494      6070518E 
 495 0f4a DFFFC0B0 		.ascii	"\337\377\300\260\341?\030:|8\344\023\311\204t\277$\216"
 495      E13F183A 
 495      7C38E413 
 495      C98474BF 
 495      248E
 496 0f5c 8F1A52A4 		.ascii	"\217\032R\244\225\232hB!\012\250\307\177\177\360@\230"
 496      959A6842 
 496      210AA8C7 
 496      7F7FF040 
 496      98
 497 0f6d 301A4D86 		.ascii	"0\032M\206\010?\341H2\241`\326\377\261(\277u\221\244"
 497      083FE148 
 497      32A160D6 
 497      FFB128BF 
 497      7591A4
 498 0f80 2C619032 		.ascii	",a\2202\350\206\201\"\312\244\373\335\365\012O\374a"
 498      E8868122 
 498      CAA4FBDD 
 498      F50A4FFC 
 498      61
 499 0f91 9C90C706 		.ascii	"\234\220\307\006\303\034\206\025^~\220\227\377\231\227"
 499      C31C8615 
 499      5E7E9097 
 499      FF9997
 500 0fa0 47F0F20F 		.ascii	"G\360\362\017yy$/\377\213 \017\037\206\337\341|L\346"
 500      7979242F 
 500      FF8B200F 
 500      1F86DFE1 
 500      7C4CE6
 501 0fb3 D3290143 		.ascii	"\323)\001C\227$\244\006I.I\306j$\331\027\251\023e_B"
 501      9724A406 
 501      492E49C6 
 501      6A24D917 
 501      A913655F 
 502 0fc8 8C4BFDD2 		.ascii	"\214K\375\322\312\363b,Z\233\010+ \314\210\007\2615"
 502      CAF3622C 
 502      5A9B082B 
ARM GAS  /tmp/ccw82XVy.s 			page 40


 502      20CC8807 
 502      B135
 503 0fda 1BC4F162 		.ascii	"\033\304\361bZ\012(iET\260m\374\344\207\221a\245\004"
 503      5A0A2869 
 503      4554B06D 
 503      FCE48791 
 503      61A504
 504 0fed CA7E259E 		.ascii	"\312~%\236\254\301\265%\023bbm\332\217\3257!\215\025"
 504      ACC1B525 
 504      1362626D 
 504      DA8FD537 
 504      218D15
 505 1000 40FE94C4 		.ascii	"@\376\224\304\323\265\2709\325I\251\\\323\210+\002\322"
 505      D3B5B839 
 505      D549A95C 
 505      D3882B02 
 505      D2
 506 1011 A4A812C1 		.ascii	"\244\250\022\301]J\033\224\344\370\347R\003\251\323"
 506      5D4A1B94 
 506      E4F8E752 
 506      03A9D3
 507 1020 E00E922C 		.ascii	"\340\016\222,%\"\004\252AQ\344\224?-%\024\334!\204]"
 507      252204AA 
 507      4151E494 
 507      3F2D2514 
 507      DC21845D 
 508 1034 015B464C 		.ascii	"\001[FL\325aI\007;;\222DTP\022I(aE\300)\206\307U\251"
 508      D5614907 
 508      3B3B9244 
 508      54501249 
 508      286145C0 
 509 104d 00EE1DAF 		.ascii	"\000\356\035\257\307\026p\356\031W&\221\236\311\206"
 509      C71670EE 
 509      19572691 
 509      9EC986
 510 105c 8424FBA1 		.ascii	"\204$\373\241-\221Y\301\325\2512i\"aBL?\217\253\244"
 510      2D9159C1 
 510      D5A93269 
 510      2261424C 
 510      3F8FABA4 
 511 1070 0692E1EA 		.ascii	"\006\222\341\352\313u\307\214\341\350\010+\003L\256"
 511      CB75C78C 
 511      E1E8082B 
 511      034CAE
 512 107f 4A6AFC0D 		.ascii	"Jj\374\015bT\211&j\003\230wp\325\200\224\222\022\330"
 512      62548926 
 512      6A039877 
 512      70D58094 
 512      9212D8
 513 1092 436AFD18 		.ascii	"Cj\375\030\222\264\300v\022c\304CJ\342\251d2\206}}\254"
 513      92B4C076 
 513      1263C443 
 513      4AE2A964 
 513      32867D7D 
 514 10a7 54FB6F51 		.ascii	"T\373oQ9\255\374\024p\006@\305\223\330k\2642\257\244"
 514      39ADFC14 
 514      700640C5 
ARM GAS  /tmp/ccw82XVy.s 			page 41


 514      93D86BB4 
 514      32AFA4
 515 10ba EEA26D12 		.ascii	"\356\242m\0225Z\325\217\033\237\304\326\252\314\253"
 515      355AD58F 
 515      1B9FC4D6 
 515      AACCAB
 516 10c9 7D2A89B5 		.ascii	"}*\211\265-\311\203\362~\370\217\244\374<f\341\021\\"
 516      2DC983F2 
 516      7EF88FA4 
 516      FC3C66E1 
 516      115C
 517 10db E21BC4BF 		.ascii	"\342\033\304\277sT\006\225\004+\004\353\375\247u5c\245"
 517      73540695 
 517      042B04EB 
 517      FDA77535 
 517      63A5
 518 10ed 98848DFF 		.ascii	"\230\204\215\377\255F\213\214\031!\221\210\177K\324"
 518      AD468B8C 
 518      19219188 
 518      7F4BD4
 519 10fc C762A5B8 		.ascii	"\307b\245\270&\022O\341\"&\236l\360a\202\023|\251zY"
 519      26124FE1 
 519      22269E6C 
 519      F0618213 
 519      7CA97A59 
 520 1110 2A2396C7 		.ascii	"*#\226\307\303\213\204]:h\344C\204\301F\252\374\376"
 520      C38B845D 
 520      3A68E443 
 520      84C146AA 
 520      FCFE
 521 1122 B83A57F6 		.ascii	"\270:W\366G\352e\354CJ\211LJwM\214\312J\275\030\013"
 521      47EA65EC 
 521      434A894C 
 521      4A774D8C 
 521      CA4ABD18 
 522 1137 2BD1381E 		.ascii	"+\3218\036\007h\217\273q\017\233\037\0060u\332\000\304"
 522      07688FBB 
 522      710F9B1F 
 522      063075DA 
 522      00C4
 523 1149 54050975 		.ascii	"T\005\011u\234\241\2011|\004\366\323\032)\246\210\201"
 523      9CA18131 
 523      7C04F6D3 
 523      1A29A688 
 523      81
 524 115a 89CA84FA 		.ascii	"\211\312\204\372D\004\373<\371#\244D9\020\023\323\012"
 524      4404FB3C 
 524      F923A444 
 524      391013D3 
 524      0A
 525 116b 695B3A51 		.ascii	"i[:Q!\330\345T\210\032i|}\255\3460\346\232`JLD#a\354"
 525      21D8E554 
 525      881A697C 
 525      7DADE630 
 525      E69A604A 
 526 1184 2E42CDF8 		.ascii	".B\315\370\332~q\021\303kv\217\3249\217\273\306\340"
 526      DA7E7111 
ARM GAS  /tmp/ccw82XVy.s 			page 42


 526      C36B768F 
 526      D4398FBB 
 526      C6E0
 527 1196 5C87FA45 		.ascii	"\\\207\372Ek\260\320\321\011Q\034\311/Hr\322\227\216"
 527      6BB0D0D1 
 527      09511CC9 
 527      2F4872D2 
 527      978E
 528 11a8 BE20F927 		.ascii	"\276 \371'b\321\242\311\204?\245\310\244\034 \014\221"
 528      62D1A2C9 
 528      843FA5C8 
 528      A41C200C 
 528      91
 529 11b9 4C3F6A62 		.ascii	"L?jbR\227\2340!L\034\321O2xP\010\222\27700@\016\006"
 529      52979C30 
 529      214C1CD1 
 529      4F327850 
 529      0892BF30 
 530 11d1 076844C6 		.ascii	"\007hD\306\206\020\311\340\361!\026\215G\225\240V\300"
 530      8610C9E0 
 530      F121168D 
 530      4795A056 
 530      C0
 531 11e2 0300E420 		.ascii	"\003\000\344 \370\241%\011\3742\015W\302\361\247@%\241"
 531      F8A12509 
 531      FC320D57 
 531      C2F1A740 
 531      25A1
 532 11f4 8D2D4815 		.ascii	"\215-H\025@b\022\262\025C\345d\215\250\210C\365\212"
 532      406212B2 
 532      1543E564 
 532      8DA88843 
 532      F58A
 533 1206 02E1DD48 		.ascii	"\002\341\335H|\022c\214kL\377{2\362|\020F\311\030\316"
 533      7C12638C 
 533      6B4CFF7B 
 533      32F27C10 
 533      46C918CE 
 534 121a 0DB71923 		.ascii	"\015\267\031#q\350T\217~b\334\343\343r\010\361t4\035"
 534      71E8548F 
 534      7E62DCE3 
 534      E37208F1 
 534      74341D
 535 122d AE8D4430 		.ascii	"\256\215D0J\3770\036P\224\360\217\037\031\367\350Sc"
 535      4AFF301E 
 535      5094F08F 
 535      1F19F7E8 
 535      5363
 536 123f 1FEF2FC6 		.ascii	"\037\357/\306\032\304\3064\036qc\321\204T2Q\214\325"
 536      1AC4C634 
 536      1E7163D1 
 536      84543251 
 536      8CD5
 537 1251 13CFC374 		.ascii	"\023\317\303t\236I\020|m<\256\207| \034\006[\207\373"
 537      9E49107C 
 537      6D3CAE87 
 537      7C201C06 
ARM GAS  /tmp/ccw82XVy.s 			page 43


 537      5B87FB
 538 1264 EB99A123 		.ascii	"\353\231\241#\036\030\361\340\377\003\310\342\343\012"
 538      1E18F1E0 
 538      FF03C8E2 
 538      E30A
 539              		.text
 540              		.section	.gnu.lto_.symtab.500ef0b162f0a536,"",%progbits
 541 0000 63685265 		.ascii	"chRegFirstThread\000\000\000\000\000\000\000\000\000"
 541      67466972 
 541      73745468 
 541      72656164 
 541      00000000 
 542 0019 000000A1 		.ascii	"\000\000\000\241\000\000\000chRegNextThread\000\000"
 542      00000063 
 542      68526567 
 542      4E657874 
 542      54687265 
 543 0031 00000000 		.ascii	"\000\000\000\000\000\000\000\000\000\000Q\001\000\000"
 543      00000000 
 543      00005101 
 543      0000
 544 003f 63685265 		.ascii	"chRegFindThreadByName\000\000\000\000\000\000\000\000"
 544      6746696E 
 544      64546872 
 544      65616442 
 544      794E616D 
 545 005c 00000000 		.ascii	"\000\000\000\000X\001\000\000chRegFindThreadByPoint"
 545      58010000 
 545      63685265 
 545      6746696E 
 545      64546872 
 546 007a 65720000 		.ascii	"er\000\000\000\000\000\000\000\000\000\000\000\000^"
 546      00000000 
 546      00000000 
 546      00005E
 547 0089 01000063 		.ascii	"\001\000\000chRegFindThreadByWorkingArea\000\000\000"
 547      68526567 
 547      46696E64 
 547      54687265 
 547      61644279 
 548 00ab 00000000 		.ascii	"\000\000\000\000\000\000\000\000\000b\001\000\000ch"
 548      00000000 
 548      00620100 
 548      006368
 549 00ba 5F646562 		.ascii	"_debug\000\000\000\000\000\000\000\000\000\000\000\000"
 549      75670000 
 549      00000000 
 549      00000000 
 549      0000
 550 00cc C6010000 		.ascii	"\306\001\000\000ch\000\000\002\000\000\000\000\000\000"
 550      63680000 
 550      02000000 
 550      000000
 551 00db 0000007A 		.ascii	"\000\000\000z\001\000\000chThdRelease\000\000\002\000"
 551      01000063 
 551      68546864 
 551      52656C65 
ARM GAS  /tmp/ccw82XVy.s 			page 44


 551      61736500 
 552 00f2 00000000 		.ascii	"\000\000\000\000\000\000\000\000i\001\000\000"
 552      00000000 
 552      69010000 
 553              		.text
 554              		.section	.gnu.lto_.opts,"",%progbits
 555 0000 272D6D63 		.ascii	"'-mcpu=cortex-m3' '-mno-thumb-interwork' '-mthumb' "
 555      70753D63 
 555      6F727465 
 555      782D6D33 
 555      2720272D 
 556 0033 272D6767 		.ascii	"'-ggdb' '-O2' '-fomit-frame-pointer' '-falign-funct"
 556      64622720 
 556      272D4F32 
 556      2720272D 
 556      666F6D69 
 557 0066 696F6E73 		.ascii	"ions=16' '-ffunction-sections' '-fdata-sections' '-"
 557      3D313627 
 557      20272D66 
 557      66756E63 
 557      74696F6E 
 558 0099 666E6F2D 		.ascii	"fno-common' '-flto'\000"
 558      636F6D6D 
 558      6F6E2720 
 558      272D666C 
 558      746F2700 
 559              		.text
 560              		.cfi_sections	.debug_frame
 561              		.section	.text.chRegFirstThread,"ax",%progbits
 562              		.align	2
 563              		.p2align 4,,15
 564              		.global	chRegFirstThread
 565              		.thumb
 566              		.thumb_func
 567              		.type	chRegFirstThread, %function
 568              	chRegFirstThread:
 569              	.LFB188:
 570              		.file 1 "../../../os/rt/src/chregistry.c"
 571              		.loc 1 134 0
 572              		.cfi_startproc
 573              		@ args = 0, pretend = 0, frame = 0
 574              		@ frame_needed = 0, uses_anonymous_args = 0
 575              		@ link register save eliminated.
 576              	.LVL0:
 577              	.LBB71:
 578              	.LBB72:
 579              	.LBB73:
 580              	.LBB74:
 581              		.file 2 "../../../os/common/ext/CMSIS/include/cmsis_gcc.h"
 582              		.loc 2 264 0
 583 0000 2023     		movs	r3, #32
 584              	@ 264 "../../../os/common/ext/CMSIS/include/cmsis_gcc.h" 1
 585 0002 83F31188 		MSR basepri, r3
 586              	@ 0 "" 2
 587              		.thumb
 588              	.LBE74:
 589              	.LBE73:
ARM GAS  /tmp/ccw82XVy.s 			page 45


 590              	.LBE72:
 591              	.LBE71:
 592              		.loc 1 138 0
 593 0006 40F20003 		movw	r3, #:lower16:ch
 594 000a C0F20003 		movt	r3, #:upper16:ch
 595 000e 1869     		ldr	r0, [r3, #16]
 596              	.LVL1:
 597              	.LBB75:
 598              	.LBB76:
 599              	.LBB77:
 600              	.LBB78:
 601              	.LBB79:
 602              		.loc 2 264 0
 603 0010 0023     		movs	r3, #0
 604              	.LBE79:
 605              	.LBE78:
 606              	.LBE77:
 607              	.LBE76:
 608              	.LBE75:
 609              		.loc 1 140 0
 610 0012 90F82220 		ldrb	r2, [r0, #34]	@ zero_extendqisi2
 611 0016 0132     		adds	r2, r2, #1
 612 0018 80F82220 		strb	r2, [r0, #34]
 613              	.LVL2:
 614              	.LBB84:
 615              	.LBB83:
 616              	.LBB82:
 617              	.LBB81:
 618              	.LBB80:
 619              		.loc 2 264 0
 620              	@ 264 "../../../os/common/ext/CMSIS/include/cmsis_gcc.h" 1
 621 001c 83F31188 		MSR basepri, r3
 622              	@ 0 "" 2
 623              		.thumb
 624              	.LBE80:
 625              	.LBE81:
 626              	.LBE82:
 627              	.LBE83:
 628              	.LBE84:
 629              		.loc 1 145 0
 630 0020 7047     		bx	lr
 631              		.cfi_endproc
 632              	.LFE188:
 633              		.size	chRegFirstThread, .-chRegFirstThread
 634 0022 00BFAFF3 		.section	.text.chRegNextThread,"ax",%progbits
 634      0080AFF3 
 634      0080AFF3 
 634      0080
 635              		.align	2
 636              		.p2align 4,,15
 637              		.global	chRegNextThread
 638              		.thumb
 639              		.thumb_func
 640              		.type	chRegNextThread, %function
 641              	chRegNextThread:
 642              	.LFB189:
 643              		.loc 1 158 0
ARM GAS  /tmp/ccw82XVy.s 			page 46


 644              		.cfi_startproc
 645              		@ args = 0, pretend = 0, frame = 0
 646              		@ frame_needed = 0, uses_anonymous_args = 0
 647              	.LVL3:
 648 0000 10B5     		push	{r4, lr}
 649              		.cfi_def_cfa_offset 8
 650              		.cfi_offset 4, -8
 651              		.cfi_offset 14, -4
 652              	.LBB85:
 653              	.LBB86:
 654              	.LBB87:
 655              	.LBB88:
 656              		.loc 2 264 0
 657 0002 2023     		movs	r3, #32
 658              	@ 264 "../../../os/common/ext/CMSIS/include/cmsis_gcc.h" 1
 659 0004 83F31188 		MSR basepri, r3
 660              	@ 0 "" 2
 661              		.thumb
 662              	.LBE88:
 663              	.LBE87:
 664              	.LBE86:
 665              	.LBE85:
 666              		.loc 1 164 0
 667 0008 40F20003 		movw	r3, #:lower16:ch
 668              		.loc 1 162 0
 669 000c 0469     		ldr	r4, [r0, #16]
 670              	.LVL4:
 671              		.loc 1 164 0
 672 000e C0F20003 		movt	r3, #:upper16:ch
 673 0012 9C42     		cmp	r4, r3
 674              		.loc 1 171 0
 675 0014 17BF     		itett	ne
 676 0016 94F82230 		ldrbne	r3, [r4, #34]	@ zero_extendqisi2
 677              		.loc 1 166 0
 678 001a 0024     		moveq	r4, #0
 679              	.LVL5:
 680              		.loc 1 171 0
 681 001c 0133     		addne	r3, r3, #1
 682 001e 84F82230 		strbne	r3, [r4, #34]
 683              	.LBB89:
 684              	.LBB90:
 685              	.LBB91:
 686              	.LBB92:
 687              	.LBB93:
 688              		.loc 2 264 0
 689 0022 0023     		movs	r3, #0
 690              	@ 264 "../../../os/common/ext/CMSIS/include/cmsis_gcc.h" 1
 691 0024 83F31188 		MSR basepri, r3
 692              	@ 0 "" 2
 693              		.thumb
 694              	.LBE93:
 695              	.LBE92:
 696              	.LBE91:
 697              	.LBE90:
 698              	.LBE89:
 699              		.loc 1 176 0
 700 0028 FFF7FEFF 		bl	chThdRelease
ARM GAS  /tmp/ccw82XVy.s 			page 47


 701              	.LVL6:
 702              		.loc 1 180 0
 703 002c 2046     		mov	r0, r4
 704 002e 10BD     		pop	{r4, pc}
 705              		.cfi_endproc
 706              	.LFE189:
 707              		.size	chRegNextThread, .-chRegNextThread
 708              		.section	.text.chRegFindThreadByName,"ax",%progbits
 709              		.align	2
 710              		.p2align 4,,15
 711              		.global	chRegFindThreadByName
 712              		.thumb
 713              		.thumb_func
 714              		.type	chRegFindThreadByName, %function
 715              	chRegFindThreadByName:
 716              	.LFB190:
 717              		.loc 1 194 0
 718              		.cfi_startproc
 719              		@ args = 0, pretend = 0, frame = 0
 720              		@ frame_needed = 0, uses_anonymous_args = 0
 721              	.LVL7:
 722 0000 38B5     		push	{r3, r4, r5, lr}
 723              		.cfi_def_cfa_offset 16
 724              		.cfi_offset 3, -16
 725              		.cfi_offset 4, -12
 726              		.cfi_offset 5, -8
 727              		.cfi_offset 14, -4
 728              		.loc 1 194 0
 729 0002 0546     		mov	r5, r0
 730              	.LBB94:
 731              	.LBB95:
 732              	.LBB96:
 733              	.LBB97:
 734              	.LBB98:
 735              	.LBB99:
 736              		.loc 2 264 0
 737 0004 2023     		movs	r3, #32
 738              	@ 264 "../../../os/common/ext/CMSIS/include/cmsis_gcc.h" 1
 739 0006 83F31188 		MSR basepri, r3
 740              	@ 0 "" 2
 741              		.thumb
 742              	.LBE99:
 743              	.LBE98:
 744              	.LBE97:
 745              	.LBE96:
 746              		.loc 1 138 0
 747 000a 40F20003 		movw	r3, #:lower16:ch
 748 000e C0F20003 		movt	r3, #:upper16:ch
 749 0012 1C69     		ldr	r4, [r3, #16]
 750              	.LVL8:
 751              	.LBB100:
 752              	.LBB101:
 753              	.LBB102:
 754              	.LBB103:
 755              	.LBB104:
 756              		.loc 2 264 0
 757 0014 0023     		movs	r3, #0
ARM GAS  /tmp/ccw82XVy.s 			page 48


 758              	.LBE104:
 759              	.LBE103:
 760              	.LBE102:
 761              	.LBE101:
 762              	.LBE100:
 763              		.loc 1 140 0
 764 0016 94F82220 		ldrb	r2, [r4, #34]	@ zero_extendqisi2
 765 001a 0132     		adds	r2, r2, #1
 766 001c 84F82220 		strb	r2, [r4, #34]
 767              	.LVL9:
 768              	.LBB109:
 769              	.LBB108:
 770              	.LBB107:
 771              	.LBB106:
 772              	.LBB105:
 773              		.loc 2 264 0
 774              	@ 264 "../../../os/common/ext/CMSIS/include/cmsis_gcc.h" 1
 775 0020 83F31188 		MSR basepri, r3
 776              	@ 0 "" 2
 777              		.thumb
 778 0024 04E0     		b	.L7
 779              	.LVL10:
 780              	.L13:
 781              	.LBE105:
 782              	.LBE106:
 783              	.LBE107:
 784              	.LBE108:
 785              	.LBE109:
 786              	.LBE95:
 787              	.LBE94:
 788              		.loc 1 203 0
 789 0026 2046     		mov	r0, r4
 790 0028 FFF7FEFF 		bl	chRegNextThread
 791              	.LVL11:
 792              		.loc 1 204 0
 793 002c 0446     		mov	r4, r0
 794              	.LVL12:
 795 002e 28B1     		cbz	r0, .L6
 796              	.LVL13:
 797              	.L7:
 798              		.loc 1 200 0
 799 0030 A069     		ldr	r0, [r4, #24]
 800 0032 2946     		mov	r1, r5
 801 0034 FFF7FEFF 		bl	strcmp
 802              	.LVL14:
 803 0038 0028     		cmp	r0, #0
 804 003a F4D1     		bne	.L13
 805              	.LVL15:
 806              	.L6:
 807              		.loc 1 207 0
 808 003c 2046     		mov	r0, r4
 809 003e 38BD     		pop	{r3, r4, r5, pc}
 810              		.cfi_endproc
 811              	.LFE190:
 812              		.size	chRegFindThreadByName, .-chRegFindThreadByName
 813              		.section	.text.chRegFindThreadByPointer,"ax",%progbits
 814              		.align	2
ARM GAS  /tmp/ccw82XVy.s 			page 49


 815              		.p2align 4,,15
 816              		.global	chRegFindThreadByPointer
 817              		.thumb
 818              		.thumb_func
 819              		.type	chRegFindThreadByPointer, %function
 820              	chRegFindThreadByPointer:
 821              	.LFB191:
 822              		.loc 1 221 0
 823              		.cfi_startproc
 824              		@ args = 0, pretend = 0, frame = 0
 825              		@ frame_needed = 0, uses_anonymous_args = 0
 826              	.LVL16:
 827 0000 10B5     		push	{r4, lr}
 828              		.cfi_def_cfa_offset 8
 829              		.cfi_offset 4, -8
 830              		.cfi_offset 14, -4
 831              	.LBB110:
 832              	.LBB111:
 833              	.LBB112:
 834              	.LBB113:
 835              	.LBB114:
 836              	.LBB115:
 837              		.loc 2 264 0
 838 0002 2023     		movs	r3, #32
 839              	.LBE115:
 840              	.LBE114:
 841              	.LBE113:
 842              	.LBE112:
 843              	.LBE111:
 844              	.LBE110:
 845              		.loc 1 221 0
 846 0004 0446     		mov	r4, r0
 847              	.LBB131:
 848              	.LBB130:
 849              	.LBB119:
 850              	.LBB118:
 851              	.LBB117:
 852              	.LBB116:
 853              		.loc 2 264 0
 854              	@ 264 "../../../os/common/ext/CMSIS/include/cmsis_gcc.h" 1
 855 0006 83F31188 		MSR basepri, r3
 856              	@ 0 "" 2
 857              		.thumb
 858              	.LBE116:
 859              	.LBE117:
 860              	.LBE118:
 861              	.LBE119:
 862              		.loc 1 138 0
 863 000a 40F20003 		movw	r3, #:lower16:ch
 864 000e C0F20003 		movt	r3, #:upper16:ch
 865 0012 1869     		ldr	r0, [r3, #16]
 866              	.LVL17:
 867              	.LBB120:
 868              	.LBB121:
 869              	.LBB122:
 870              	.LBB123:
 871              	.LBB124:
ARM GAS  /tmp/ccw82XVy.s 			page 50


 872              		.loc 2 264 0
 873 0014 0023     		movs	r3, #0
 874              	.LBE124:
 875              	.LBE123:
 876              	.LBE122:
 877              	.LBE121:
 878              	.LBE120:
 879              		.loc 1 140 0
 880 0016 90F82220 		ldrb	r2, [r0, #34]	@ zero_extendqisi2
 881 001a 0132     		adds	r2, r2, #1
 882 001c 80F82220 		strb	r2, [r0, #34]
 883              	.LVL18:
 884              	.LBB129:
 885              	.LBB128:
 886              	.LBB127:
 887              	.LBB126:
 888              	.LBB125:
 889              		.loc 2 264 0
 890              	@ 264 "../../../os/common/ext/CMSIS/include/cmsis_gcc.h" 1
 891 0020 83F31188 		MSR basepri, r3
 892              	@ 0 "" 2
 893              	.LVL19:
 894              		.thumb
 895              	.LBE125:
 896              	.LBE126:
 897              	.LBE127:
 898              	.LBE128:
 899              	.LBE129:
 900              	.LBE130:
 901              	.LBE131:
 902              		.loc 1 227 0
 903 0024 8442     		cmp	r4, r0
 904 0026 02D1     		bne	.L16
 905 0028 06E0     		b	.L19
 906              	.LVL20:
 907              	.L17:
 908 002a 8442     		cmp	r4, r0
 909 002c 04D0     		beq	.L19
 910              	.L16:
 911              		.loc 1 230 0
 912 002e FFF7FEFF 		bl	chRegNextThread
 913              	.LVL21:
 914              		.loc 1 231 0
 915 0032 0028     		cmp	r0, #0
 916 0034 F9D1     		bne	.L17
 917 0036 10BD     		pop	{r4, pc}
 918              	.LVL22:
 919              	.L19:
 920              		.loc 1 230 0
 921 0038 2046     		mov	r0, r4
 922              	.LVL23:
 923              		.loc 1 234 0
 924 003a 10BD     		pop	{r4, pc}
 925              		.cfi_endproc
 926              	.LFE191:
 927              		.size	chRegFindThreadByPointer, .-chRegFindThreadByPointer
 928 003c AFF30080 		.section	.text.chRegFindThreadByWorkingArea,"ax",%progbits
ARM GAS  /tmp/ccw82XVy.s 			page 51


 929              		.align	2
 930              		.p2align 4,,15
 931              		.global	chRegFindThreadByWorkingArea
 932              		.thumb
 933              		.thumb_func
 934              		.type	chRegFindThreadByWorkingArea, %function
 935              	chRegFindThreadByWorkingArea:
 936              	.LFB192:
 937              		.loc 1 250 0
 938              		.cfi_startproc
 939              		@ args = 0, pretend = 0, frame = 0
 940              		@ frame_needed = 0, uses_anonymous_args = 0
 941              	.LVL24:
 942 0000 10B5     		push	{r4, lr}
 943              		.cfi_def_cfa_offset 8
 944              		.cfi_offset 4, -8
 945              		.cfi_offset 14, -4
 946              	.LBB132:
 947              	.LBB133:
 948              	.LBB134:
 949              	.LBB135:
 950              	.LBB136:
 951              	.LBB137:
 952              		.loc 2 264 0
 953 0002 2023     		movs	r3, #32
 954              	.LBE137:
 955              	.LBE136:
 956              	.LBE135:
 957              	.LBE134:
 958              	.LBE133:
 959              	.LBE132:
 960              		.loc 1 250 0
 961 0004 0446     		mov	r4, r0
 962              	.LBB153:
 963              	.LBB152:
 964              	.LBB141:
 965              	.LBB140:
 966              	.LBB139:
 967              	.LBB138:
 968              		.loc 2 264 0
 969              	@ 264 "../../../os/common/ext/CMSIS/include/cmsis_gcc.h" 1
 970 0006 83F31188 		MSR basepri, r3
 971              	@ 0 "" 2
 972              		.thumb
 973              	.LBE138:
 974              	.LBE139:
 975              	.LBE140:
 976              	.LBE141:
 977              		.loc 1 138 0
 978 000a 40F20003 		movw	r3, #:lower16:ch
 979 000e C0F20003 		movt	r3, #:upper16:ch
 980 0012 1B69     		ldr	r3, [r3, #16]
 981              	.LVL25:
 982              	.LBB142:
 983              	.LBB143:
 984              	.LBB144:
 985              	.LBB145:
ARM GAS  /tmp/ccw82XVy.s 			page 52


 986              	.LBB146:
 987              		.loc 2 264 0
 988 0014 0022     		movs	r2, #0
 989              	.LBE146:
 990              	.LBE145:
 991              	.LBE144:
 992              	.LBE143:
 993              	.LBE142:
 994              		.loc 1 140 0
 995 0016 93F82210 		ldrb	r1, [r3, #34]	@ zero_extendqisi2
 996 001a 0131     		adds	r1, r1, #1
 997 001c 83F82210 		strb	r1, [r3, #34]
 998              	.LVL26:
 999              	.LBB151:
 1000              	.LBB150:
 1001              	.LBB149:
 1002              	.LBB148:
 1003              	.LBB147:
 1004              		.loc 2 264 0
 1005              	@ 264 "../../../os/common/ext/CMSIS/include/cmsis_gcc.h" 1
 1006 0020 82F31188 		MSR basepri, r2
 1007              	@ 0 "" 2
 1008              		.thumb
 1009 0024 03E0     		b	.L22
 1010              	.LVL27:
 1011              	.L26:
 1012              	.LBE147:
 1013              	.LBE148:
 1014              	.LBE149:
 1015              	.LBE150:
 1016              	.LBE151:
 1017              	.LBE152:
 1018              	.LBE153:
 1019              		.loc 1 259 0
 1020 0026 FFF7FEFF 		bl	chRegNextThread
 1021              	.LVL28:
 1022              		.loc 1 260 0
 1023 002a 0346     		mov	r3, r0
 1024 002c 18B1     		cbz	r0, .L21
 1025              	.LVL29:
 1026              	.L22:
 1027              		.loc 1 256 0
 1028 002e DA69     		ldr	r2, [r3, #28]
 1029              		.loc 1 259 0
 1030 0030 1846     		mov	r0, r3
 1031              		.loc 1 256 0
 1032 0032 A242     		cmp	r2, r4
 1033 0034 F7D1     		bne	.L26
 1034              	.LVL30:
 1035              	.L21:
 1036              		.loc 1 263 0
 1037 0036 1846     		mov	r0, r3
 1038              	.LVL31:
 1039 0038 10BD     		pop	{r4, pc}
 1040              		.cfi_endproc
 1041              	.LFE192:
 1042              		.size	chRegFindThreadByWorkingArea, .-chRegFindThreadByWorkingArea
ARM GAS  /tmp/ccw82XVy.s 			page 53


 1043              		.global	ch_debug
 1044 003a 00BFAFF3 		.section	.rodata.ch_debug,"a",%progbits
 1044      0080
 1045              		.align	2
 1046              		.type	ch_debug, %object
 1047              		.size	ch_debug, 22
 1048              	ch_debug:
 1049 0000 6D       		.byte	109
 1050 0001 61       		.byte	97
 1051 0002 69       		.byte	105
 1052 0003 6E       		.byte	110
 1053 0004 00       		.byte	0
 1054 0005 16       		.byte	22
 1055 0006 0220     		.short	8194
 1056 0008 04       		.byte	4
 1057 0009 02       		.byte	2
 1058 000a 44       		.byte	68
 1059 000b 08       		.byte	8
 1060 000c 0C       		.byte	12
 1061 000d 10       		.byte	16
 1062 000e 14       		.byte	20
 1063 000f 18       		.byte	24
 1064 0010 1C       		.byte	28
 1065 0011 20       		.byte	32
 1066 0012 21       		.byte	33
 1067 0013 22       		.byte	34
 1068 0014 00       		.byte	0
 1069 0015 00       		.byte	0
 1070 0016 0000     		.text
 1071              	.Letext0:
 1072              		.file 3 "/home/julian/MEGA/semestre_ix/Embebidos/arm-2013.11/lib/gcc/arm-none-eabi/4.8.1/include/s
 1073              		.file 4 "/home/julian/MEGA/semestre_ix/Embebidos/arm-2013.11/arm-none-eabi/include/stdint.h"
 1074              		.file 5 "../../../os/common/ports/ARMCMx/compilers/GCC/chtypes.h"
 1075              		.file 6 "../../../os/rt/include/chsystypes.h"
 1076              		.file 7 "../../../os/rt/include/chschd.h"
 1077              		.file 8 "../../../os/common/ports/ARMCMx/chcore.h"
 1078              		.file 9 "../../../os/common/ports/ARMCMx/chcore_v7m.h"
 1079              		.file 10 "../../../os/rt/include/chsem.h"
 1080              		.file 11 "../../../os/rt/include/chmtx.h"
 1081              		.file 12 "../../../os/rt/include/chregistry.h"
 1082              		.file 13 "../../../os/rt/include/chthreads.h"
 1083              		.file 14 "../../../os/rt/include/chsys.h"
 1084              		.file 15 "../../../os/common/ext/CMSIS/include/core_cm3.h"
 1085              		.file 16 "/home/julian/MEGA/semestre_ix/Embebidos/arm-2013.11/arm-none-eabi/include/string.h"