ARM GAS  /tmp/ccnI9Qb6.s 			page 1


   1              		.syntax unified
   2              		.cpu cortex-m3
   3              		.fpu softvfp
   4              		.eabi_attribute 20, 1
   5              		.eabi_attribute 21, 1
   6              		.eabi_attribute 23, 3
   7              		.eabi_attribute 24, 1
   8              		.eabi_attribute 25, 1
   9              		.eabi_attribute 26, 1
  10              		.eabi_attribute 30, 2
  11              		.eabi_attribute 34, 1
  12              		.eabi_attribute 18, 4
  13              		.thumb
  14              		.file	"test_sequence_007.c"
  15              		.text
  16              	.Ltext0:
  17              		.section	.gnu.lto_.jmpfuncs.b5056f4117fff6a0,"",%progbits
  18 0000 789C6362 		.ascii	"x\234cb`b\300\006\326\000\261\004\020\003e\231\230\252"
  18      6062C006 
  18      D600B104 
  18      10036599 
  18      98AA
  19 0012 197E35CC 		.ascii	"\031~5\314h\020\310dd\220c`\234\3330\303!\223\221\021"
  19      6810C864 
  19      64906360 
  19      9CDB30C3 
  19      21939111 
  20 0026 AC0A21C3 		.ascii	"\254\012!\303$\307\300\016\221a\206\030\300\310\000"
  20      24C7C00E 
  20      91618618 
  20      C0C800
  21 0035 359915C8 		.ascii	"5\231\025\310\210`\314dd9\301\004\327\322\001\322\302"
  21      8860CC64 
  21      6439C104 
  21      D7D201D2 
  21      C2
  22 0046 9ACC08B5 		.ascii	"\232\314\010\265\214\205\221\011\244\253\014\252\222"
  22      8C859109 
  22      A4AB0CAA 
  22      92
  23 0053 CD05C840 		.ascii	"\315\005\310@\021pF\027pB\027p\004\331\344\350\344\354"
  23      11704617 
  23      70421770 
  23      04D9E4E8 
  23      E4EC
  24 0065 C2209899 		.ascii	"\302 \230\231W\226\230\223\231\242P\234ZX\232\232\227"
  24      57969893 
  24      99A2509C 
  24      5A589A9A 
  24      97
  25 0076 9CCA0000 		.ascii	"\234\312\000\000\333\023 \013"
  25      DB13200B 
  26              		.text
  27              		.section	.gnu.lto_.inline.b5056f4117fff6a0,"",%progbits
  28 0000 789C6362 		.ascii	"x\234cb`b\300\006\312\2414PV\341$##\003\223\330\205"
  28      6062C006 
  28      CAA13450 
ARM GAS  /tmp/ccnI9Qb6.s 			page 2


  28      56E12423 
  28      230393D8 
  29 0015 366606B6 		.ascii	"6f\006\266\005\362`\345\314<`\031F.\220\012nF\006\306"
  29      05F260E5 
  29      CC3C6019 
  29      462E900A 
  29      6E4606C6 
  30 0029 097ECC3C 		.ascii	"\011~\314<@E\023\374&\370\201\370\014\354\002\014\014"
  30      404513FC 
  30      26F881F8 
  30      0CEC020C 
  30      0C
  31 003a AC13FC18 		.ascii	"\254\023\374\030\300\210\205\201\337\210\021l\017\212"
  31      C0888581 
  31      DF88116C 
  31      0F8A
  32 0048 7EA01C2E 		.ascii	"~\240\034.\232\001\000ot\016\007"
  32      9A01006F 
  32      740E07
  33              		.text
  34              		.section	.gnu.lto_.pureconst.b5056f4117fff6a0,"",%progbits
  35 0000 789C6362 		.ascii	"x\234cb`b`e\200\000&\006I\026\011\000\001\007\000A"
  35      60626065 
  35      80002606 
  35      49160900 
  35      01070041 
  36              		.text
  37              		.section	.gnu.lto_test_007_001_execute.b5056f4117fff6a0,"",%progbits
  38 0000 789C9554 		.ascii	"x\234\225T[kSY\024^k\237s\3224M\215\321V\353\255\255"
  38      5B6B5359 
  38      145E6B9F 
  38      73D2344D 
  38      8DD156EB 
  39 0016 B7979149 		.ascii	"\267\227\221I\024\004)\210x\373\011\012\372$\3614\244"
  39      14042988 
  39      78FB090A 
  39      FA24F134 
  39      A4
  40 0027 079A3A36 		.ascii	"\007\232:6\351\274\314\203\273M\035}\360\022\364\245"
  40      E9BCCC83 
  40      BB4D1D7D 
  40      F012F4A5 
  41 0037 2AE2A554 		.ascii	"*\342\245TA\304\013\202\212x\211\024$\245j\355\203\240"
  41      41C40B82 
  41      8A788914 
  41      24A56AED 
  41      83A0
  42 0049 224C1807 		.ascii	"\"L\030\007\025\005\025_\2523\203\235\265\366>\373L"
  42      1505155F 
  42      AA33839D 
  42      B5F63EFB 
  42      4C
  43 005a B5E38887 		.ascii	"\265\343\210\207d\237u\326Z\337\267\327e\257-@\300\227"
  43      649F75D6 
  43      5ADFB7D7 
  43      65AF2D40 
  43      C097
ARM GAS  /tmp/ccnI9Qb6.s 			page 3


  44 006c CF4AFA4F 		.ascii	"\317J\372O\013\001\364\321\033C\200\242x\037\240;,\320"
  44      0B01F4D1 
  44      1B4380A2 
  44      781FA03B 
  44      2CD0
  45 007e D682A585 		.ascii	"\326\202\245\205\333a[X\245U #\316\203\030\310\250\203"
  45      DB615B58 
  45      A5552023 
  45      CE8318C8 
  45      A883
  46 0090 C86A40D8 		.ascii	"\310j@\330!,\333\301\035\233\221\331\304\0028!\345\201"
  46      212CDBC1 
  46      1D9B91D9 
  46      C4023821 
  46      E581
  47 00a2 CAC08B97 		.ascii	"\312\300\213\227xH\226z\217\313\277\307\307\021=\244"
  47      7848967A 
  47      8FCBBFC7 
  47      C7113DA4 
  48 00b2 9D9723B8 		.ascii	"\235\227#\270\010\233\350\003\233\325K\330\237\207\242"
  48      089BE803 
  48      9BD54BD8 
  48      9F87A2
  49 00c1 B1A5B15F 		.ascii	"\261\245\261_\367\317\222\307{\212\362\023A=\264\004"
  49      F7CF92C7 
  49      7B8AF213 
  49      413DB404 
  50 00d1 ACF816F2 		.ascii	"\254\370\026\362\274(U\306\307\357^\252\374~\037\343"
  50      BC2855C6 
  50      C7EF5EAA 
  50      FC7E1FE3 
  51 00e1 331052D8 		.ascii	"3\020R\330\217\013\300\001\017\355\020-N\230\026\210"
  51      8F0BC001 
  51      0FED102D 
  51      4E981688 
  52 00f1 92FA04A9 		.ascii	"\222\372\004\251k\351#\024\243\245*\356;\326\261\271"
  52      6BE92314 
  52      A3A52AEE 
  52      3BD6B1B9 
  53 0101 9E963071 		.ascii	"\236\2260q9\320+e\261Y\373\252\220\212\245\033w\366"
  53      39D02B65 
  53      B159FBAA 
  53      908AA51B 
  53      77F6
  54 0113 4C0CA95A 		.ascii	"L\014\251Z@\313\267B\002\266\323\263\201V\252\330F\024"
  54      40CBB742 
  54      02B6D3B3 
  54      8156AAD8 
  54      4614
  55 0125 F4B2EE41 		.ascii	"\364\262\356A\317\325\253\257\032R8\200\016\034\201"
  55      CFD5ABAF 
  55      1A523880 
  55      0E1C81
  56 0134 C3DD524E 		.ascii	"\303\335RN\245\024\177\201?\345n\226\"Y\005b\302\010"
  56      A5147F81 
  56      3FE56E96 
  56      22590562 
ARM GAS  /tmp/ccnI9Qb6.s 			page 4


  56      C208
  57 0146 18C9621D 		.ascii	"\030\311b\035!\237~x\365\310\326\320\014:?\302YF\324"
  57      219F7E78 
  57      F5C8D6D0 
  57      0C3A3FC2 
  57      5946D4
  58 0159 304B91A5 		.ascii	"0K\221\245(\263\364\261T\233E\364\261\265\001\313\224"
  58      28B3F4B1 
  58      549B45F4 
  58      B1B501CB 
  58      94
  59 016a 09A111D9 		.ascii	"\011\241\021\331\223\353\307~[\356\347j\222\226oO%\203"
  59      93EBC77E 
  59      5BEEE76A 
  59      92966F4F 
  59      2583
  60 017c 0218A134 		.ascii	"\002\030\2414\374p4NtzcW1\323K\235\244\014\326-\201"
  60      FC70344E 
  60      747A6357 
  60      31D34B9D 
  60      A40CD62D 
  61 0191 3352CACA 		.ascii	"3R\312\312_\037\007~\240\"\352/\331\342a,\310nj\220"
  61      5F1F077E 
  61      A022EA2F 
  61      D9E2612C 
  61      C86E6A90 
  62 01a5 5D3CAB60 		.ascii	"]<\253`\034M\\\305\261\225\311Rx\216\210I\306@\326\021"
  62      1C4D5CC5 
  62      B195C952 
  62      788E8849 
  62      C640D611 
  63 01b9 7EB83C3B 		.ascii	"~\270<;\205\347U\266\365>q\216z\024\020O\243\355\231"
  63      85E755B6 
  63      F53E718E 
  63      7A14104F 
  63      A3ED99
  64 01cc 0B7C2EC1 		.ascii	"\013|.\301\370\013\006_\330=8\374\360b\265\251W\210"
  64      F80B065F 
  64      D83D38FC 
  64      F062B5A9 
  64      5788
  65 01de 48D8D961 		.ascii	"H\330\331a\367\021h0\372p\020\335t\027-\320Y9\252\354"
  65      F7116830 
  65      FA7010DD 
  65      74172DD0 
  65      5939AAEC 
  66 01f2 65C138B6 		.ascii	"e\3018\266\207=\254s\321\257=g\355a\275\212q\250\030"
  66      873DAC73 
  66      D1AF3D67 
  66      ED61BD8A 
  66      71A818
  67 0205 D14AEE86 		.ascii	"\321J\356\206N\374\337\266\316\010\250gf\0255\263\316"
  67      4EFCDFB6 
  67      CE08A867 
  67      661535B3 
  67      CE
  68 0216 FC8F8664 		.ascii	"\374\217\206d\370\340\251\243\361\346{\217\006\327s"
ARM GAS  /tmp/ccnI9Qb6.s 			page 5


  68      F8E0A9A3 
  68      F1E67B8F 
  68      06D773
  69 0225 087A2A37 		.ascii	"\010z*7\012U\301\301\345#m\372\245\004V(o\263\341F\022"
  69      0A55C1C1 
  69      E5236DFA 
  69      A5045628 
  69      6FB3E146 
  70 023a 4BABAC11 		.ascii	"K\253\254\021(Tn\016\206RxS\225\"\032\354\325\340j("
  70      28546E0E 
  70      86527853 
  70      95221AEC 
  70      D5E06A28 
  71 024e 8DC42CE6 		.ascii	"\215\304,\346\027\332E\317\0049\252h\257\355\034\333"
  71      17DA45CF 
  71      0439AA68 
  71      AFED1CDB 
  72 025e 338F83AF 		.ascii	"3\217\203\257\245hy*\310\240\332\261Ho\302a\335z\346"
  72      A568792A 
  72      C8A0DAB1 
  72      486FC261 
  72      DD7AE6
  73 0271 B367D156 		.ascii	"\263g\321V8R\206\315\244W\016\356\372c\024\017\024d"
  73      385286CD 
  73      A4570EEE 
  73      FA63140F 
  73      1464
  74 0283 59F69668 		.ascii	"Y\366\226h\260\232<\236\334\223\324\307\377\037-\342"
  74      B09A3C9E 
  74      DC93D4C7 
  74      FF1F2DE2 
  75 0293 5244EFDE 		.ascii	"RD\357\336_i7\201\235R9sgwV\312\317\"Z\015\020d4\333"
  75      5F693781 
  75      9D523973 
  75      677756CA 
  75      CF225A0D 
  76 02ab A5CB4DD7 		.ascii	"\245\313M\327:J\021{8G\345\360\272pz_\302\344\037\313"
  76      3A4A117B 
  76      3847E5F0 
  76      BA707A5F 
  76      C2E41FCB 
  77 02bf F0B88C80 		.ascii	"\360\270\214\200=\011=\327\305*\037\035\363p\236>^\205"
  77      3D093DD7 
  77      C52A1F1D 
  77      F3709E3E 
  77      5E85
  78 02d1 B1BD2D06 		.ascii	"\261\275-\006\032\317 \006\243:\241^\375\252^qSu\033"
  78      1ACF2006 
  78      A33AA15E 
  78      FDAA5E71 
  78      53751B
  79 02e4 E8D2B474 		.ascii	"\350\322\264t\015\214\221\020e\350}\336]c\2704Q\320"
  79      0D8C9110 
  79      65E87DDE 
  79      5D63B834 
  79      51D0
  80 02f6 2B780CE8 		.ascii	"+x\014\3507O\224-\"\263\372\252\230\313\341\373\204"
ARM GAS  /tmp/ccnI9Qb6.s 			page 6


  80      374F942D 
  80      22B3FAAA 
  80      98CBE1FB 
  80      84
  81 0307 3B383C58 		.ascii	";8<X3)\340FW\335e\334\300&]\224\273\3758\311\253\331"
  81      3329E046 
  81      57DD65DC 
  81      C0265D94 
  81      BBFD38C9 
  82 031d C56AE5C5 		.ascii	"\305j\345\305\232\006\017\3477B7\036\225}\253=\212\314"
  82      9A060FE7 
  82      3742371E 
  82      957DAB3D 
  82      8ACC
  83 032f F7F64D0B 		.ascii	"\367\366M\013\033a\227oZdL\036.\006\030\205\200W?\033"
  83      1B61976F 
  83      5A644C1E 
  83      2E061885 
  83      80573F1B 
  84 0343 28A30731 		.ascii	"(\243\0071>\227\313\022\211\244\376\345\323\271|\262"
  84      3E97CB12 
  84      89A4FEE5 
  84      D3B97CB2 
  85 0353 339FCC6D 		.ascii	"3\237\314m\353\352t\323\372\223\227-\271\364\366\256"
  85      EBEA74D3 
  85      FA93972D 
  85      B9F4F6AE 
  86 0363 74879BDE 		.ascii	"t\207\233\336\262t\351\212\204\013\"\377\023zV6\227"
  86      B274E98A 
  86      840B22FF 
  86      137A5636 
  86      97
  87 0374 591840B7 		.ascii	"Y\030@\267\345\030\350u\270\355]\255\351\244\333\226"
  87      E518E875 
  87      B8ED5DAD 
  87      E9A4DB96 
  88 0384 6FEB4CA7 		.ascii	"o\353L\247Zs\2116h\372\252\017\021\220\335Y\263v\335"
  88      5A738936 
  88      68FAAA0F 
  88      1190DD59 
  88      B376DD
  89 0397 7A887B1D 		.ascii	"z\210{\035?\247\332\275\326f\263\025\374\003\271r\232"
  89      3FA7DABD 
  89      D666B315 
  89      FC03B972 
  89      9A
  90 03a8 36       		.ascii	"6"
  91              		.text
  92              		.section	.gnu.lto_msg_thread1.b5056f4117fff6a0,"",%progbits
  93 0000 789C6362 		.ascii	"x\234cb`b@\007\222@,\304\310\300`\014\244\031\231\031"
  93      60624007 
  93      92402CC4 
  93      C8C0600C 
  93      A4199919 
  94 0014 1899269C 		.ascii	"\030\231&\234c`h\344`bd\0041\030\030\031\352\231\030"
  94      636068E4 
  94      60626404 
ARM GAS  /tmp/ccnI9Qb6.s 			page 7


  94      31181819 
  94      EA9918
  95 0027 EB2319C1 		.ascii	"\353#\031\301j\3273\035x\360\377\377\272+[\037U0\262"
  95      6AD7331D 
  95      78F0FFFF 
  95      BA2B5B1F 
  95      5530B2
  96 003a 3331E682 		.ascii	"31\346\202EY\031Z\032\032&(00$\203\271!@\022\2443\224"
  96      4559195A 
  96      1A1A2628 
  96      30302483 
  96      B9214012 
  97 0051 91094433 		.ascii	"\221\011D3\237gh}\360\306\"\221q!#+P\266\232\341WCG"
  97      9F67687D 
  97      F0C62291 
  97      7121232B 
  97      50B69AE1 
  98 0068 83402623 		.ascii	"\203@&#P5\304\314tF\246\010\306LFFG\206L\240\016\006"
  98      5035C4CC 
  98      7446A608 
  98      C64C4646 
  98      47864CA0 
  99 007e A0F205B9 		.ascii	"\240\362\005\271\204U;!T\347\021V\355\214P\235OX\265"
  99      84553B21 
  99      54E71156 
  99      ED8C509D 
  99      4F58B5
 100 0091 0B44F545 		.ascii	"\013D\365E\206\306\007?\230`\312! \004\250\024\350)"
 100      86C6073F 
 100      9860CA21 
 100      2004A814 
 100      E829
 101 00a3 50281AEA 		.ascii	"P(\032\352\351\351CPIjq\211~Q\211~q~iQr*\204\013\"\342"
 101      E9E94350 
 101      496A7189 
 101      7E51897E 
 101      717E6951 
 102 00bd 8B530B4B 		.ascii	"\213S\013KS\363\222S\343\015\014\314\365\222\031\000"
 102      53F39253 
 102      E30D0CCC 
 102      F5921900 
 103 00cd 7CCE4F65 		.ascii	"|\316Oe"
 104              		.text
 105              		.section	.gnu.lto_.symbol_nodes.b5056f4117fff6a0,"",%progbits
 106 0000 789C4DCA 		.ascii	"x\234M\312\311\015\3020\024\204\341\031/\020\326\026"
 106      C90DC230 
 106      1484E119 
 106      2F10D616 
 107 0010 A88D4678 		.ascii	"\250\215Fx\221\220@\300\205\002\270\271\224\334i\200"
 107      919040C0 
 107      8502B8B9 
 107      94DC6980 
 108 0020 2DC16193 		.ascii	"-\301a\223(\001!l\021a|\371\374\353\215\202\302\013"
 108      2801216C 
 108      11617CF9 
 108      FCEB8D82 
 108      C20B
ARM GAS  /tmp/ccnI9Qb6.s 			page 8


 109 0032 CD537B0A 		.ascii	"\315S{\012\261\336\002\"\233\305\330\236\030~\260%\031"
 109      B1DE0222 
 109      9BC5D89E 
 109      187EB025 
 109      19
 110 0043 795005D4 		.ascii	"yP\005\324\216\202\277\315\231:\036\21746p\2405\242"
 110      8E82BFCD 
 110      993A1E8F 
 110      343670A0 
 110      35A2
 111 0055 79A3A8EF 		.ascii	"y\243\250\357&\317\311+E\247\272PL\252\232bSyJ+UEi\247"
 111      26CFC92B 
 111      45A7BA50 
 111      4CAA9A62 
 111      53794A2B 
 112 006d BA53B25F 		.ascii	"\272S\262_i\014\340\252w\260\0177\253'\032=\370y\264"
 112      690CE0AA 
 112      77B00F37 
 112      AB271A3D 
 112      F879B4
 113 0080 0BB78C76 		.ascii	"\013\267\214vP\254\236#\215\014>j\206\230\226a\037t"
 113      50AC9E23 
 113      8D0C3E6A 
 113      86989661 
 113      1F74
 114 0092 8D45A30F 		.ascii	"\215E\243\017\342\003\201\272L%"
 114      E20381BA 
 114      4C25
 115              		.text
 116              		.section	.gnu.lto_.refs.b5056f4117fff6a0,"",%progbits
 117 0000 789C6362 		.ascii	"x\234cb`b\020g\200\0006\006FF \227\231\211\205\221\225"
 117      60621067 
 117      80003606 
 117      46462097 
 117      99898591 
 118 0015 9191918D 		.ascii	"\221\221\221\215\211\235\221\235\211\201\001\000\005"
 118      899D919D 
 118      89810100 
 118      05
 119 0022 C70051   		.ascii	"\307\000Q"
 120              		.text
 121              		.section	.gnu.lto_.decls.b5056f4117fff6a0,"",%progbits
 122 0000 789CAD5B 		.ascii	"x\234\255[yp\024\327\231\177\3353\243\231A\342r\214"
 122      797014D7 
 122      997FDD33 
 122      A39941E2 
 122      728C
 123 0012 0BAABCB6 		.ascii	"\013\252\274\266\234u6\266\253,\241\304k\263\331Z\033"
 123      9C7536B6 
 123      AB2CA1C4 
 123      6BB3D95A 
 123      1B
 124 0023 2F9B22FF 		.ascii	"/\233\"\377\260\225\012I\255\253\266\266&\315\250\221"
 124      B0950A49 
 124      ADABB6B6 
 124      26CDA891 
 125 0033 26966626 		.ascii	"&\226f&=-\216\335?\334\010!\313\006\033!\010\002\003"
ARM GAS  /tmp/ccnI9Qb6.s 			page 9


 125      3D2D8EDD 
 125      3FDC0821 
 125      CB061B21 
 125      080203
 126 0046 4202CCA1 		.ascii	"B\002\314\241\030l.s\305\322\020\007!\020FH\330`\300"
 126      186C2E73 
 126      C5D21007 
 126      21104648 
 126      D860C0
 127 0059 1682200E 		.ascii	"\026\202 \016\333\304\304\006c\023@\373\275\243{\372"
 127      DBC4C406 
 127      631340FB 
 127      BDA37BFA 
 128 0069 9CE91699 		.ascii	"\234\351\026\231\322{\352\356y\337\357}\367\273zx\304"
 128      D27BEAEE 
 128      79DFEF7D 
 128      F7BB7A78 
 128      C4
 129 007a A31D1C42 		.ascii	"\243\035\034B\203\360\211\375+B\235y\010\371\020B\317"
 129      83F089FD 
 129      2B429D79 
 129      08F91042 
 129      CF
 130 008b 42094269 		.ascii	"B\011Bi\201\262\006\312\006(\033\241\004\240\264B\331"
 130      81B206CA 
 130      06281BA1 
 130      04A0B442 
 130      D9
 131 009c 82E8270C 		.ascii	"\202\350'\014e\007\224=P\336\203\322\011\3450\224\243"
 131      6507943D 
 131      50DE83D2 
 131      09E53094 
 131      A3
 132 00ad 5052803B 		.ascii	"PR\200;\003J\015\024\200E\257\300\377\371P\352\241\234"
 132      034A0D14 
 132      8045AFC0 
 132      FFF950EA 
 132      A19C
 133 00bf 82F20994 		.ascii	"\202\362\011\224\353\0342|0\316?A\351\2012\002J\001"
 133      EB1C327C 
 133      30CE3F41 
 133      E9813202 
 133      4A01
 134 00d1 EBF339C6 		.ascii	"\353\3639\306\017\306Y\013e\200\361p\007\350_\203\262"
 134      0FC6590B 
 134      6580F170 
 134      07E85F83 
 134      B2
 135 00e2 00CA5D28 		.ascii	"\000\312](~x\266\014\376/\3022A\351\305\240<\345y&\334"
 135      7E78B60C 
 135      FE2FC232 
 135      41E9C5A0 
 135      3CE57926 
 136 00f7 9F86C2C1 		.ascii	"\237\206\302\301=\017E\206k\037\374\357\206\357\374"
 136      3D0F4586 
 136      6B1FFCEF 
 136      86EFFC
ARM GAS  /tmp/ccnI9Qb6.s 			page 10


 137 0106 F0BF0BFE 		.ascii	"\360\277\013\376_\204g{q\237\274U\3666Du\323\010m\326"
 137      5F84677B 
 137      719FBC55 
 137      F6364475 
 137      D3086DD6 
 138 011a 42B900D7 		.ascii	"B\271\000\327\303\030\317y\320~\030O\345\335\301d?\312"
 138      C318CF79 
 138      D07E184F 
 138      E5DDC164 
 138      3FCA
 139 012c 74D1C974 		.ascii	"t\321\311t\023\260\321\301p\336(\377\016\326\307\010"
 139      13B0D1C1 
 139      70DE28FF 
 139      0ED6C708 
 140 013c 9ECA378F 		.ascii	"\236\3127\217\351\207g\337a]\342G\357\032\311P>zUQ\252"
 140      E98767DF 
 140      615DE247 
 140      EF1AC950 
 140      3E7A5551 
 141 0151 95E65AE5 		.ascii	"\225\346Z\345g\235#F\243z\005>\205\313F\204Q\035~\334"
 141      679D2346 
 141      A37A053E 
 141      85CB4684 
 141      511D7EDC 
 142 0165 FFA63276 		.ascii	"\377\2462v,B/p\002\007\217B\344\242 L\200~\200\326A"
 142      2C422F70 
 142      02078F42 
 142      E4A2204C 
 142      807E80D6 
 143 017a 5368CF0B 		.ascii	"Sh\317\013\334Z.\014\035\361&\223\250\037\372=\376`"
 143      DC5A2E0C 
 143      1DF12693 
 143      A81FFA3D 
 143      FE60
 144 018c 727AAD5E 		.ascii	"rz\255^aU3\364\307T\364\000\243Z\303\215f\256R\207\271"
 144      615533F4 
 144      C754F400 
 144      A35AC38D 
 144      66AE5287 
 145 01a1 A22C9216 		.ascii	"\242,\222\026\214\242P\245\3603\212\365\272~\012\302"
 145      8CA250A5 
 145      F0338AF5 
 145      BA7E0AC2 
 146 01b1 990B3FE3 		.ascii	"\231\013?\343\304\211\256\205\313\317\241\017\312-\243"
 146      C489AE85 
 146      CBCFA10F 
 146      CA2DA3
 147 01c0 AFE35480 		.ascii	"\257\343T\200\321\014`\243gV79\260:*\007\253\033\034"
 147      D10C60A3 
 147      67563739 
 147      B03A2A07 
 147      AB1B1C
 148 01d3 587D00FD 		.ascii	"X}\000\375\216\365\254p\262\300=;\306\021\341\367\334"
 148      8EF5AC70 
 148      B2C03D3B 
 148      C611E1F7 
 148      DC
ARM GAS  /tmp/ccnI9Qb6.s 			page 11


 149 01e4 03E4CA47 		.ascii	"\003\344\312G|\003\036<\227\017\325\257|\232\275\234"
 149      7C031E3C 
 149      970FD5AF 
 149      7C9ABD9C 
 150 01f4 085BA1EB 		.ascii	"\010[\241\353'\320&j\365\3636\3066Ho\217C\274\246\276"
 150      27D0266A 
 150      F5F336C6 
 150      36486F8F 
 150      43BCA6BE 
 151 0208 FFBD750B 		.ascii	"\377\275u\013\376MQB\002\267\205x\316d\016\3407sOx\306"
 151      FE4D5142 
 151      02B78578 
 151      CE640EE0 
 151      37734F78 
 152 021d D9D7D1DD 		.ascii	"\331\327\321\335\303U\203\310\002\267\225 \265pF(\201"
 152      C35583C8 
 152      02B79520 
 152      B5704628 
 152      81
 153 022e CB0B1B7D 		.ascii	"\313\013\033}\021\356\325\006\030\017nq_\337\342<\306"
 153      11EED506 
 153      180F6E71 
 153      5FDFE23C 
 153      C6
 154 023f BDC49EE0 		.ascii	"\275\304\236\340\233 \0322\335\303\250II_\353\337>\177"
 154      9B201A32 
 154      DDC3A849 
 154      495FEBDF 
 154      3E7F
 155 0251 E7D8E54A 		.ascii	"\347\330\345J\272F\031\034|\211\351\235GgL\014>\212"
 155      BA46191C 
 155      7C89E99D 
 155      47674C0C 
 155      3E8A
 156 0263 D62A4A83 		.ascii	"\326*J\203\262MQ\302\304\022<\272DZ\354\340\036\266"
 156      B24D51C2 
 156      C4123CBA 
 156      445AECE0 
 156      1EB6
 157 0275 159C3442 		.ascii	"\025\2344B8\327\275\211\373W6*>bm\304h\014<\357\344"
 157      38D7BD89 
 157      FB57362A 
 157      3E626DC4 
 157      680C3CEF 
 158 028a 0C5982F2 		.ascii	"\014Y\202\362\225\336\323\361\3728\245\271:=8\370\034"
 158      95DED3F1 
 158      FA38A5B9 
 158      3A3D38F8 
 158      1C
 159 029b 72EF367B 		.ascii	"r\3576{\231\333d\\\205GWL\302\330\263\265\307\314\326"
 159      99DB645C 
 159      8547574C 
 159      C2D8B3B5 
 159      C7CCD6
 160 02ae 3E2B5BFD 		.ascii	">+[\375\365\375w\272/Us\213\3466w*\327\006\007G\032"
 160      F5FD77BA 
 160      2F55738B 
ARM GAS  /tmp/ccnI9Qb6.s 			page 12


 160      E636772A 
 160      D7060747 
 161 02c3 390BA197 		.ascii	"9\013\241\227I:\232\247\314\341~\233;\037\265s!\340"
 161      493A9AA7 
 161      CCE17E9B 
 161      3B1FB573 
 161      21E0
 162 02d5 6E857342 		.ascii	"n\205sB\302\015\020\263$\275V\2578g\377o3\006\216!\374"
 162      C20D10B3 
 162      24BD56AF 
 162      3867FF6F 
 162      33068E21 
 163 02ea 0CF9C142 		.ascii	"\014\371\301B\371~&h\355\210\265d\233\036\273l\204\275"
 163      F97E2668 
 163      ED88B564 
 163      9B1EBB6C 
 163      84BD
 164 02fc 7402B78E 		.ascii	"t\002\267\216\373\201\333Lj\351\377@\246\177\203\005"
 164      FB81DB4C 
 164      6AE9FF40 
 164      A67F8305 
 165 030c 89115B78 		.ascii	"\211\021[x\263\021i\243\203\266V:{\374\202\260\\\371"
 165      B31169A3 
 165      83B6563A 
 165      7BFC82B0 
 165      5CF9
 166 031e A3EAD47B 		.ascii	"\243\352\324{\211S\237s\2008do\350\205_:\032:\253\013"
 166      89539F73 
 166      8038646F 
 166      E8855F3A 
 166      1A3AAB0B 
 167 0332 76993317 		.ascii	"v\2313\027\226\333$\315\327\016\254|`\313\312\3227\332"
 167      96DB24CD 
 167      D70EAC7C 
 167      60CBCAD2 
 167      37DA
 168 0344 C7292D5E 		.ascii	"\307)-^C\241;\213#\334\207\026\221!C\227\270\232\375"
 168      43A13B8B 
 168      23DC8716 
 168      91214397 
 168      B89AFD
 169 0357 2AC07F20 		.ascii	"*\300\177 -s5\236i\377\011\311\200\275\334}\000\323"
 169      2D73359E 
 169      69FF09C9 
 169      80BDDC7D 
 169      00D3
 170 0369 E933B29D 		.ascii	"\3513\262\235\023\206G=\204\344# \247\2044\000\372o"
 170      1386473D 
 170      84E42320 
 170      A7843400 
 170      FA6F
 171 037b 367D5ACD 		.ascii	"6}Z\315\315!)\021\177\207l\264\301>\217\240f H\337<"
 171      CD212911 
 171      7F876CB4 
 171      C13E8FA0 
 171      662048DF 
 172 0390 BC92539A 		.ascii	"\274\222S\232\377\310\331t9Q\3551\244c|\305\207\213"
ARM GAS  /tmp/ccnI9Qb6.s 			page 13


 172      FFC8D974 
 172      3951ED31 
 172      A4637CC5 
 172      878B
 173 03a2 B81A827F 		.ascii	"\270\032\202\177\212\260~\333\236\365\346\211N@<Z\340"
 173      8AB07EDB 
 173      9EF5E689 
 173      4E403C5A 
 173      E0
 174 03b3 C7249F58 		.ascii	"\307$\237XX\357\353VY\377\304\005\353\325\351\236WW"
 174      58EFEB56 
 174      59FFC405 
 174      EBD5E99E 
 174      5757
 175 03c5 8DC3AC0B 		.ascii	"\215\303\254\013\\\017\207S\347*\015\327\316t\332P\213"
 175      5C0F8753 
 175      E72A0DD7 
 175      CE74DA50 
 175      8B
 176 03d6 90C69811 		.ascii	"\220\306\230\021\257\367pA\275\240\202\255\361\014V"
 176      AFF77041 
 176      BDA082AD 
 176      F10C56
 177 03e5 68C7AAEA 		.ascii	"h\307\252\352\200\031i\005\256\217\304\362Y\356\021"
 177      80196905 
 177      AE8FC4F2 
 177      59EE11
 178 03f4 A8CF41AD 		.ascii	"\250\317A\255}x\264\301\257Z\325Nu\271E\370\356\360"
 178      7D78B4C1 
 178      AF5AD54E 
 178      75B945F8 
 178      EEF0
 179 0406 4AA21296 		.ascii	"J\242\022\226S\334\214\305\315l,\036 #\350f\277\315"
 179      53DC8CC5 
 179      CD6C2C1E 
 179      2023E866 
 179      BFCD
 180 0418 60EC0A68 		.ascii	"`\354\012h_\355\207\177e\203\361e\002\265\323o\036\214"
 180      5FED877F 
 180      6583F165 
 180      02B5D36F 
 180      1E8C
 181 042a 83A6C138 		.ascii	"\203\246\3018h\034T\203\341\314\005\036KG\"\257\315"
 181      681C5483 
 181      E1CC051E 
 181      4B4722AF 
 181      CD
 182 043b 79D46656 		.ascii	"y\324fV\240\235\3312\331\337\244@\354\204}\015\334\342"
 182      A09DD932 
 182      D9DFA440 
 182      EC847D0D 
 182      DCE2
 183 044d B94AE778 		.ascii	"\271J\347x\325\221\363\234\344\346\321\373\244\263\253"
 183      D591F39C 
 183      E4E6D1FB 
 183      A4B3AB
 184 045c 6647EEB9 		.ascii	"fG\356\271\330\371\3702E\031E\277\312\355\307;\0177"
ARM GAS  /tmp/ccnI9Qb6.s 			page 14


 184      D8F9F832 
 184      451945BF 
 184      CAEDC73B 
 184      0F37
 185 046e 12A3E5CC 		.ascii	"\022\243\345\314$\274\332\375\243\244\373[\244\373\257"
 185      24BCDAFD 
 185      A3A4FB5B 
 185      A4FBAF
 186 047d CCDDAFFA 		.ascii	"\314\335\257\372\254\363\277i\367_\271\352~\317\311"
 186      ACF3BF69 
 186      F75FB9EA 
 186      7ECFC9
 187 048c 25D6EE1D 		.ascii	"%\326\356\0353 \263v\317\305\313\017\256&\235|C\302"
 187      3320B376 
 187      CFC5CB0F 
 187      AE269D7C 
 187      43C2
 188 049e 6547C06C 		.ascii	"eG\300l\354\347\364\203\216:\317\324\032\360\350\275"
 188      ECE7F483 
 188      8E3ACFD4 
 188      1AF0E8BD 
 189 04ae 80CAFD90 		.ascii	"\200\312\375\220\242\025\304\274\374?\233`\342\364J"
 189      A215C4BC 
 189      FC3F9B60 
 189      E2F44A
 190 04bd 9ECA43DA 		.ascii	"\236\312C\3323b\241A\021\1778I\342\237\202\275\357\006"
 190      3362A141 
 190      117F3849 
 190      E29F82BD 
 190      EF06
 191 04cf CCD191AA 		.ascii	"\314\321\221\252\323mz\260\016\317`F\316\216\351\301"
 191      D36D7AB0 
 191      0ECF6046 
 191      CE8EE9C1 
 192 04df 0EB9011B 		.ascii	"\016\271\001\033\345\314Y\257\036\354\210g0#g\037\352"
 192      E5CC59AF 
 192      1EEC8867 
 192      3023671F 
 192      EA
 193 04f0 C1BADD80 		.ascii	"\301\272\335\200\215u\346\354\204\036\354\270g0#g\037"
 193      8D75E6EC 
 193      841EECB8 
 193      67302367 
 193      1F
 194 0501 EBC14EBA 		.ascii	"\353\301N\272\001+\264\341L\3738\315\006\376\232\231"
 194      012BB4E1 
 194      4CFB38CD 
 194      06FE9A99 
 195 0511 5CF1E874 		.ascii	"\\\361\350t@M\010\036}\032e0>\015x\315`\006\271!\203"
 195      404D081E 
 195      7D1A6530 
 195      3E0D78CD 
 195      6006B921 
 196 0526 9D5D4333 		.ascii	"\235]C3\230:\224\235s\203\230\305a\352\273t\343\342"
 196      983A949D 
 196      738398C5 
 196      61EABB74 
ARM GAS  /tmp/ccnI9Qb6.s 			page 15


 196      E3E2
 197 0538 25CF6046 		.ascii	"%\317`F\2634Q\260\003\004\354\252\033\260,\016s\014"
 197      B33451B0 
 197      0304ECAA 
 197      1BB02C0E 
 197      730C
 198 054a 83D94DA6 		.ascii	"\203\331M\246\323\265J\0357g\353\203Y\3472\220\303\376"
 198      D3B54A1D 
 198      3767EB83 
 198      59E73290 
 198      C3FE
 199 055c A195E4B0 		.ascii	"\241\225\344\260%<\036\260\276\012\330\216}\256\260"
 199      253C1EB0 
 199      BE0AD88E 
 199      7DAEB0
 200 056b F6D5DEDE 		.ascii	"\366\325\336\336\317\315%\243_#\001\273cI\210a\323\350"
 200      CFCD25A3 
 200      5F2301BB 
 200      63498861 
 200      D3E8
 201 057d 17360E67 		.ascii	"\0276\016g\341p\346bP\375\030\2270\256i\234\234u1\257"
 201      E170E662 
 201      50FD1897 
 201      30AE699C 
 201      9C7531AF 
 202 0591 73D6DA3C 		.ascii	"s\326\332<\257\3127;\3327\015\334\327\325\312\262\361"
 202      AFCA373B 
 202      DA370DDC 
 202      D7D5CAB2 
 202      F1
 203 05a2 BAED22A7 		.ascii	"\272\355\"\247\025\214:\333\270\376\271\217\3146V\022"
 203      158C3ADB 
 203      B8FEB98F 
 203      CC365612 
 204 05b2 25BD9667 		.ascii	"%\275\226g\253q\027@\373j7\027\023\240\325\004hi\236"
 204      AB711740 
 204      FB6A3717 
 204      13A0D504 
 204      68699E
 205 05c5 59DB9C49 		.ascii	"Y\333\234I\333\234Qs\332\342\211\255\235\274\264\345"
 205      DB9C5173 
 205      DAE289AD 
 205      9DBCB4E5 
 206 05d5 51935975 		.ascii	"Q\223Yu\006\026\263\244\023Mu\267\275\253\356\032S\335"
 206      0616B3A4 
 206      134D75B7 
 206      BDABEE1A 
 206      53DD
 207 05e7 3A22F13A 		.ascii	":\"\361:\213\304X\023\336\304x\313\263\030!\243\030"
 207      8BC45813 
 207      DEC478CB 
 207      B31821A3 
 207      18
 208 05f8 4D83DEC5 		.ascii	"M\203\336\305\370\226\211\261\211\210\261\355\357 \306"
 208      F89689B1 
 208      8988B1ED 
 208      EF20C6
ARM GAS  /tmp/ccnI9Qb6.s 			page 16


 209 0607 5ECF628C 		.ascii	"^\317b\214\322\211A\026\036Kh\306\374\036j\310>\347"
 209      D2894116 
 209      1E4B68C6 
 209      FC1E6AC8 
 209      3EE7
 210 0619 C3FC6CE1 		.ascii	"\303\374l\341\277g\230p\245?:\312\025\322\307\271\227"
 210      BF679870 
 210      A53F3ACA 
 210      15D2C7B9 
 210      97
 211 062a 5B5F1F5D 		.ascii	"[_\037]\311\326,t\357\253\235\360\216i\2072\013R\322"
 211      C9D62C74 
 211      EFAB9DF0 
 211      8E698732 
 211      0B52D2
 212 063d F5DD249D 		.ascii	"\365\335$\235R\260\216{\002\253N\257^\250.\250\310V"
 212      52B08E7B 
 212      02AB4EAF 
 212      5EA82EA8 
 212      C856
 213 064f 54F73DC2 		.ascii	"T\367=\302\375\241\333\234\235MS\314^\207\334\243\255"
 213      FDA1DB9C 
 213      9D4D53CC 
 213      5E87DCA3 
 213      AD
 214 0660 353BF6B3 		.ascii	"5;\366\263\025\305n\0363t\302\342,=\234i\226\211\037"
 214      15C56E1E 
 214      3374C2E2 
 214      2C3D9C69 
 214      96891F
 215 0673 E89A38D9 		.ascii	"\350\2328\331p\227>\021^\2717\033\200\377\334X\254\216"
 215      70973E11 
 215      5EB9371B 
 215      80FFDC58 
 215      AC8E
 216 0685 B8D4105F 		.ascii	"\270\324\020_\336\243\346\276c\206\310\265\"\370\265"
 216      DEA3E6BE 
 216      6386C8B5 
 216      22F8B5
 217 0694 8A554004 		.ascii	"\212U@\004\271I\272M\363\246\005\301\362[\375\265L\217"
 217      B949BA4D 
 217      F3A605C1 
 217      F25BFDB5 
 217      4C8F
 218 06a6 F8BBDC4E 		.ascii	"\370\273\334Nzf \2544\024\320\025\276\300\375\231\343"
 218      7A6620AC 
 218      3414D015 
 218      BEC0FD99 
 218      E3
 219 06b7 19AADDF8 		.ascii	"\031\252\335\370\227\333E\373\304\316\361\036\366\206"
 219      97DB45FB 
 219      C4CEF11E 
 219      F686
 220 06c5 77B0F5E8 		.ascii	"w\260\365\350\001\232\346\202f\223o5gv\017[\263<j\015"
 220      019AE682 
 220      66936F35 
 220      67760F5B 
ARM GAS  /tmp/ccnI9Qb6.s 			page 17


 220      B33C6A0D 
 221 06d9 724661DC 		.ascii	"rFa\334N\353\265\217\223K\265\353]jK\360\236\034\000"
 221      4EEBB58F 
 221      934BB5EB 
 221      5D6A4BF0 
 221      9E1C00
 222 06ec 5CAA631D 		.ascii	"\\\252c\035u\251\\.\240h\247\021\243H\317;I\317G\314"
 222      75A95C2E 
 222      A068A711 
 222      A348CF3B 
 222      49CF47CC 
 223 0700 3E70E76F 		.ascii	">p\347o\235/\263\315\225#\256|\340\206\215\017\034\031"
 223      9D2FB3CD 
 223      9523AE7C 
 223      E0868D0F 
 223      1C19
 224 0712 A20F8043 		.ascii	"\242\017\200C_9\304\0218:\211\354\323\230\364h\005\006"
 224      5F39C411 
 224      383A89EC 
 224      D398F468 
 224      0506
 225 0724 775BF4AA 		.ascii	"w[\364\252\030\352]\351S\0038U\177\310\343\235\253\013"
 225      18EA5DE9 
 225      53033855 
 225      7FC8E39D 
 225      AB0B
 226 0736 16D7A29A 		.ascii	"\026\327\242\232\321\271VF\215\002w\224\307\2736\335"
 226      D1B95646 
 226      8D027794 
 226      C7BB36DD 
 227 0746 3CDEB539 		.ascii	"<\336\2659F\352^^\267w\343\344\026\3073n!p\375f5\272"
 227      46EA5E5E 
 227      B777E3E4 
 227      16C7336E 
 227      2170FD66 
 228 075c 9DDBE7EC 		.ascii	"\235\333\347\354\246K\357}_\334\243\367}\323w\324\217"
 228      A64BEF7D 
 228      5FDCA3F7 
 228      7DD377D4 
 228      8F
 229 076d 8F2E7C1E 		.ascii	"\217.|\036\266\221\336ba{\212\204\355\327\026\335^6"
 229      B691DE62 
 229      617B8A84 
 229      EDD716DD 
 229      5E36
 230 077f 87AD9BDD 		.ascii	"\207\255\233\335\234\301\241\012\242}`\232\033r1\315"
 230      9CC1A10A 
 230      A27D609A 
 230      1B7231CD 
 231 078f 2DB4D1B9 		.ascii	"-\264\321\271\232\335\233N,q\271#\244m\356\036\231\303"
 231      9ADD9B4E 
 231      2C71B923 
 231      A46DEE1E 
 231      99C3
 232 07a1 F648CF12 		.ascii	"\366H\317\022O\253\013\331\357\221f\331Zj$$\347\315"
 232      4FAB0BD9 
 232      EF9166D9 
ARM GAS  /tmp/ccnI9Qb6.s 			page 18


 232      5A6A2424 
 232      E7CD
 233 07b3 617CB3E9 		.ascii	"a|\263\351\210\272Gz\336E\030W\247\267\033\366HU\017"
 233      88BA477A 
 233      DE451857 
 233      A7B71BF6 
 233      48550F
 234 07c6 3C9FDD03 		.ascii	"<\237\335\003\263j\324`\304\363"
 234      B36AD460 
 234      C4F3
 235 07d0 BA00B940 		.ascii	"\272\000\271@\002d@\037\024<\332\340F\373\2179\271\""
 235      0264401F 
 235      143CDAE0 
 235      46FB8F39 
 235      B922
 236 07e2 A4A15EBA 		.ascii	"\244\241^\272=\255n7\277m\306\263KD\006<\2755a-{\234"
 236      3DAD6E37 
 236      BF6DC6B3 
 236      4B44063C 
 236      BD35612D 
 237 07f8 CC97A897 		.ascii	"\314\227\250\227\356v\303\334xg\260\325\213U\345v\221"
 237      EE76C3DC 
 237      7867B0D5 
 237      8B55E576 
 237      91
 238 0809 F9C97E37 		.ascii	"\371\311~7x\023\234\204\255N\357:\256N\016\351f\354"
 238      78139C84 
 238      AD4EEF3A 
 238      AE4E0EE9 
 238      66EC
 239 081b 21CF7846 		.ascii	"!\317xF\376>Zl\230\317\365\272\201\233\350\332\366\231"
 239      FE3E5A6C 
 239      98CFF5BA 
 239      819BE8DA 
 239      F699
 240 082d B307813B 		.ascii	"\263\007\201;I\266\264?&[\332\027H\375\005\251\027\220"
 240      49B6B43F 
 240      265BDA17 
 240      48FD05A9 
 240      1790
 241 083f 44F93AA9 		.ascii	"D\371:\251\353I\335@\352\025\244^K\352\215\244\336L"
 241      EB49DD40 
 241      EA15A45E 
 241      4BEA8DA4 
 241      DE4C
 242 0851 EA3E525F 		.ascii	"\352>R_\"\365\025R\177N\352\253\244\376\322M\3025\315"
 242      22F51552 
 242      7F4EEAAB 
 242      A4FED24D 
 242      C235CD
 243 0864 00B5D3A2 		.ascii	"\000\265\323\242-4\001\231\016\214>6\205\246*\334W\274"
 243      2D340199 
 243      0E8C3E36 
 243      85A62ADC 
 243      57BC
 244 0876 DD8151E3 		.ascii	"\335\201Q\343\351\266\207\264\343/\323\211\021\356\327"
 244      E9B687B4 
ARM GAS  /tmp/ccnI9Qb6.s 			page 19


 244      E32FD389 
 244      11EED7
 245 0885 89A7EBBC 		.ascii	"\211\247\353\274\365\364t\300\241\347\033\266=\267o"
 245      F5F474C0 
 245      A1E71BB6 
 245      3DB76F
 246 0894 38F5ECAA 		.ascii	"8\365\354\252mJ\315+\312\335\301\2278\017]\337\344\255"
 246      6D4ACD2B 
 246      CADDC197 
 246      380F5DDF 
 246      E4AD
 247 08a6 E7FDECDA 		.ascii	"\347\375\354\332}v?\331z\356'o\223\235\222[$pn\204\315"
 247      7D763FD9 
 247      7AEE276F 
 247      939D925B 
 247      24706E84 
 248 08bb E93D60CA 		.ascii	"\351=`\312\356\001cv\017\2043\027\231\255}\215\247\001"
 248      EE016376 
 248      0F843317 
 248      99AD7D8D 
 248      A701
 249 08cd 6A1BFBA3 		.ascii	"j\033\373\243U|r\236\205\267\366\015\373\307n$\274\015"
 249      557C729E 
 249      85B7F60D 
 249      FBC76E24 
 249      BC0D
 250 08df 9220BC6D 		.ascii	"\222 \274m\341\255\325\274Hh5\272\210I;V'\251\031fo"
 250      E1ADD5BC 
 250      486835BA 
 250      88493B56 
 250      27A91966 
 251 08f4 AAB93E5B 		.ascii	"\252\271>['y\243m\234\223\223l\311rL<\317g\262\0246"
 251      2779A36D 
 251      9C93936C 
 251      C9724C3C 
 251      CF67B214 
 252 0909 6B0EF75D 		.ascii	"k\016\367]\352\300Y\235\221\263\357\243\026\245\271"
 252      EAC0599D 
 252      91B3EFA3 
 252      16A5B9
 253 0918 A1FFCEC2 		.ascii	"\241\377\316\302\263\015\\\003>zU\32209~\230\230\203"
 253      B30D5C03 
 253      3E7A55D2 
 253      30397E98 
 253      9883
 254 092a 47CD1A88 		.ascii	"G\315\032\210\023k\257f\3400\324;\370 \270o\016\267"
 254      136BAF66 
 254      E030D43B 
 254      F820B86F 
 254      0EB7
 255 093c 58D1A0D4 		.ascii	"X\321\240\324wetk\274t\266c\004\353\211\000k\325\254"
 255      7765746B 
 255      BC74B663 
 255      04EB8900 
 255      6BD5AC
 256 094f 4DDBEE27 		.ascii	"M\333\356'\2173\300\204\300\241\025\344\030\237\372"
 256      8F33C084 
ARM GAS  /tmp/ccnI9Qb6.s 			page 20


 256      C0A115E4 
 256      189FFA
 257 095e 36CE7AFD 		.ascii	"6\316z\375LCw\013\223\177\263\240V\230\205FI\301\234"
 257      4C43770B 
 257      937FB3A0 
 257      56988546 
 257      49C19C
 258 0971 379B3E3A 		.ascii	"7\233>:\3105d$\265\233j\006U\230$\322\255^\257\267\260"
 258      C8356424 
 258      B59B6A06 
 258      559824D2 
 258      AD5EAFB7 
 259 0986 1DC1453E 		.ascii	"\035\301E><tm\036f;\013p\006\342\321\036B\262\304g\231"
 259      3C746D1E 
 259      663B0B70 
 259      06E2D11E 
 259      42B2C467 
 260 099b 05F4D5B2 		.ascii	"\005\364\325\262Y\000\376.\367d~\321\031\307C\336~M"
 260      5900FE2E 
 260      F7647ED1 
 260      19C743DE 
 260      7E4D
 261 09ad 050FEA78 		.ascii	"\005\017\352x?s\362\034\343}\031\341\375\375\334\274"
 261      3F73F21C 
 261      E37D19E1 
 261      FDFDDCBC 
 262 09bd 1B817874 		.ascii	"\033\201xt\214\220\254\260\362~u\036\343}\205+\336w"
 262      8C90ACB0 
 262      F27E751E 
 262      E37D852B 
 262      DE77
 263 09cf 9DD4CF00 		.ascii	"\235\324\317\000\324\245\010\246\035\332Rd7=\027\030"
 263      D4A508A6 
 263      1DDA5264 
 263      373D1718 
 264 09df 20DB4A9F 		.ascii	" \333J\237\233\301<-D\024\365\310\210\036\001\316\347"
 264      9BC13C2D 
 264      4414F5C8 
 264      881E01CE 
 264      E7
 265 09f0 BD82151A 		.ascii	"\275\202\025\0328;\336h\234\253\275\346\006/\313\276"
 265      383BDE68 
 265      9CABBDE6 
 265      062FCBBE 
 266 0a00 3D3B9BA1 		.ascii	"=;\233\241`\013=\203\031\231;}Rw\010\320\247\3316\013"
 266      600B3D83 
 266      19993B7D 
 266      527708D0 
 266      A7D9360B 
 267 0a14 98DDBEBD 		.ascii	"\230\335\276\275\335G\357$\002\267\312\207g\022M><\336"
 267      DD47EF24 
 267      02B7CA87 
 267      67124D3E 
 267      3CDE
 268 0a26 AF267533 		.ascii	"\257&u3\251[H\275\206\324k}\2069\346E-Jl]1\227K(\351"
 268      A95B48BD 
 268      86D46B7D 
ARM GAS  /tmp/ccnI9Qb6.s 			page 21


 268      8639E645 
 268      2D4A6C5D 
 269 0a3f E5CEE161 		.ascii	"\345\316\341a\330a\321\"\373\322\034n\036q\341\015$"
 269      D861D122 
 269      FBD21C6E 
 269      1E71E10D 
 269      24
 270 0a50 3ABEC81D 		.ascii	":\276\310\035\035\246\235\232\352|L\321j\011\216\276"
 270      1DA69D9A 
 270      EA7C4CD1 
 270      6A098EBE 
 271 0a60 136A70B4 		.ascii	"\023jp\264\272\010\216\352\364\247K\335m\024\031\023"
 271      BA088EEA 
 271      F4A74BDD 
 271      6D141913 
 272 0a70 9D16E517 		.ascii	"\235\026\345\027\324w9\336&r,\317\317\375\032\212\001"
 272      D47739DE 
 272      26722CCF 
 272      CFFD1A8A 
 272      01
 273 0a81 88479B08 		.ascii	"\210G\233\010\3116\253 \035\252 \333\\\011\262j\251"
 273      C936AB20 
 273      1DAA20DB 
 273      5C09B26A 
 273      A9
 274 0a92 EAFB5B7C 		.ascii	"\352\373[|\231u\312\266\354\036\346h\322\352t\323\011"
 274      9975CAB6 
 274      EC1EE668 
 274      D2EA74D3 
 274      09
 275 0aa3 BA2F4AC0 		.ascii	"\272/J\300\316{\0063\372\376\326\023+\307*\315\373\325"
 275      CE7B0633 
 275      FAFED613 
 275      2BC72ACD 
 275      FBD5
 276 0ab5 B72A945A 		.ascii	"\267*\224Z\345\261\215\031\225\214R\021x\275j\337}\202"
 276      E5B18D19 
 276      958C5211 
 276      78BD6ADF 
 276      7D82
 277 0ac7 2C8777FB 		.ascii	",\207w\373\360\363\275&\305\272\007\332W\273k\002\001"
 277      F0F3BD26 
 277      C5BA07DA 
 277      57BB6B02 
 277      01
 278 0ad8 DA4780FE 		.ascii	"\332G\200\376\224o\236\334\370L\023/\237q\342\345\013"
 278      946F9EDC 
 278      F84C132F 
 278      9F71E2E5 
 278      0B
 279 0ae9 672E0607 		.ascii	"g.\006\007}\310[c\036}\240\331\327\216\311\\\011\022"
 279      7DC85B63 
 279      1E7DA0D9 
 279      D78EC95C 
 279      0912
 280 0afb 6F641DF9 		.ascii	"od\035\371\235\315FV\316Y]\343\012\230_\260=K\0379\016"
 280      9DCD4656 
ARM GAS  /tmp/ccnI9Qb6.s 			page 22


 280      CE595DE3 
 280      0A985FB0 
 280      3D4B1F39 
 281 0b10 B6489E6B 		.ascii	"\266H\236kZ\307\243O\314\314{K\310\300\374\007o\252"
 281      5AC7A34F 
 281      CCCC7B4B 
 281      C8C0FC07 
 281      6FAA
 282 0b22 1BBB6405 		.ascii	"\033\273d\005u\316\015\240]F\266\373\350\303F\340v\220"
 282      75CE0DA0 
 282      5D46B6FB 
 282      E8C346E0 
 282      7690
 283 0b34 BCB793E4 		.ascii	"\274\267\223\344\267wI\275\213\324\355\244\376\223\317"
 283      B77749BD 
 283      8BD4EDA4 
 283      FE93CF
 284 0b43 C5CA073B 		.ascii	"\305\312\007;\273\206M\003\250u\310\001t\315\032@^\300"
 284      BB864D03 
 284      A875C801 
 284      74CD1A40 
 284      5EC0
 285 0b55 0C8A4CDF 		.ascii	"\014\212L\337`\001D\343A\340\332|&<o^\225^\322Xp\354"
 285      600144E3 
 285      41E0DA7C 
 285      263C6F5E 
 285      955ED258 
 286 0b6b D76A700D 		.ascii	"\327jp\015h\271\324-\230\372\226\265\255QZuFy\213\030"
 286      68B9D42D 
 286      98FA96B5 
 286      AD515A75 
 286      46798B18 
 287 0b7f 65333141 		.ascii	"e31A\007\251\017\222\272\3238\000\375%\3374\000\031"
 287      07A90F92 
 287      BAD33800 
 287      FD25DF34 
 287      0019
 288 0b91 B2BDDD70 		.ascii	"\262\275\335p\250W\217\222~\347\014\350\332\375\356"
 288      A8578F92 
 288      7EE70CE8 
 288      DAFDEE
 289 0ba0 D2557577 		.ascii	"\322Uuw\351\010\311\3327\354\263v\266\335\245\232\002"
 289      E908C9DA 
 289      37ECB376 
 289      B6DDA59A 
 289      02
 290 0bb1 4CD26D9D 		.ascii	"L\322m\235\233\335U\263vw\356\254]37\275\374\215\365"
 290      9BDD55B3 
 290      7677EEAC 
 290      5D3337BD 
 290      FC8DF5
 291 0bc4 99E167AE 		.ascii	"\231\341g\256\026\333\035YV9\007\364\357K,\321\370\360"
 291      16DB1D59 
 291      563907F4 
 291      EF4B2CD1 
 291      F8F0
 292 0bd6 E8A4F6A6 		.ascii	"\350\244\366\246\353\326\231\256\207\230\256\327h\250"
ARM GAS  /tmp/ccnI9Qb6.s 			page 23


 292      EBD699AE 
 292      8798AED7 
 292      68A8
 293 0be4 A60293A1 		.ascii	"\246\002\223\241<\356F\3559\243\316E\351{\233k\314x"
 293      3CEE46ED 
 293      39A3CE45 
 293      E97B9B6B 
 293      CC78
 294 0bf6 C6B734ED 		.ascii	"\306\2674\355\000\013\263\011\260D'\300R\"@#\361\267"
 294      000BB309 
 294      B04427C0 
 294      52224023 
 294      F1B7
 295 0c08 F5A4EE22 		.ascii	"\365\244\356\"\365\011\243H\233\013Lk\032\343\032\002"
 295      F509A348 
 295      9B0B4C6B 
 295      1AE31A02 
 296 0c18 A37E6C5C 		.ascii	"\243~l\\\3234\303\352mq_\213~M\243_d\3516\023\254\313"
 296      D334C3EA 
 296      6D715F8B 
 296      7E4DA35F 
 296      64E93613 
 297 0c2e A3D3D655 		.ascii	"\243\323\326U\026\217\3361\263`\245;cZ@\246\373\267"
 297      168FDE31 
 297      B360A53B 
 297      635A40A6 
 297      FBB7
 298 0c40 CFBFD902 		.ascii	"\317\277\331\002\013H\305\304\002~o\324\260\202T\275"
 298      0B48C5C4 
 298      027E6FD4 
 298      B08254BD 
 299 0c50 19BC32C7 		.ascii	"\031\2742\307\346>,o\017\224\300X\231\363,\000\222#"
 299      E63E2C6F 
 299      0F94C058 
 299      99F32C00 
 299      9223
 300 0c62 E8366733 		.ascii	"\3506g3\262\277i\012\221\364\337\304B\3724\367\224\346"
 300      B2BF690A 
 300      91F4DFC4 
 300      42FA34F7 
 300      94E6
 301 0c74 CE9D4E7A 		.ascii	"\316\235Nz\346q\200\214K\213\310\004\374\374\220\023"
 301      E671808C 
 301      4B8BC804 
 301      FCFC9013 
 302 0c84 F2E01502 		.ascii	"\362\340\025\002g\032F\367:\014\243\230\275\213>\323"
 302      671A46F7 
 302      3A0CA398 
 302      BD8B3ED3 
 303 0c94 78B89B18 		.ascii	"x\270\233\030\312\013\013\205\006\026\352;\310\230p"
 303      CA0B0B85 
 303      0616EA3B 
 303      C89870
 304 0ca3 910CC86D 		.ascii	"\221\014\310mn\300\262\344\360\006=\330A\317`\205\226"
 304      6EC0B2E4 
 304      F0063DD8 
 304      41CF6085 
ARM GAS  /tmp/ccnI9Qb6.s 			page 24


 304      96
 305 0cb4 E0A161F3 		.ascii	"\340\241a\363g\0226\027H\250\014\220\3722\251?3\206"
 305      67123617 
 305      48A80C90 
 305      FA32A93F 
 305      3386
 306 0cc6 4D778179 		.ascii	"Mw\201y:A\215\252\303\313\330\036\345F\264\267\201\311"
 306      3A418DAA 
 306      C3CBD81E 
 306      E546B4B7 
 306      81C9
 307 0cd8 58671DE4 		.ascii	"Xg\035\344\303\370W}\206\331L\006r\242Q|]\234P\"\373"
 307      C3F8577D 
 307      86D94C06 
 307      72A2517C 
 307      5D9C5022 
 308 0ced 6602F717 		.ascii	"f\002\367\027\237\327\037%}\351\263\377Q\222\376\365"
 308      9FD71F25 
 308      7DE9B3FF 
 308      5192FEF5 
 309 0cfd 984C2BFC 		.ascii	"\230L+\374\272\2339\360-L\\\203\270\177\010}Q\260J\241"
 309      BA9B39F0 
 309      2D4C5C83 
 309      B87F087D 
 309      51B04AA1 
 310 0d11 4F9E42DB 		.ascii	"O\236B\333\225\2724\204\320\247\300\235\346\026\377"
 310      95BA3484 
 310      D0A7C09D 
 310      E616FF
 311 0d20 876E29CB 		.ascii	"\207n)\313\224\376\355]7K\250L8G\034;\226\336z\020\247"
 311      94FEED5D 
 311      374BA84C 
 311      38471C3B 
 311      96DE7A10 
 312 0d35 5B9805DE 		.ascii	"[\230\005\336\205\014A\325\307\243\332\341\346\204g"
 312      850C41D5 
 312      C7A3DAE1 
 312      E68467
 313 0d44 89DA1B2C 		.ascii	"\211\332\033,\333\320\336&RJjB\332Uz\373A\316\315O\275"
 313      DBD0DE26 
 313      524A6A42 
 313      DA557AFB 
 313      41CECD4F 
 314 0d59 366AD063 		.ascii	"6j\320c\030\364w\236\265z\313A\253\367g\365\034\201"
 314      18F4779E 
 314      B57ACB41 
 314      ABF767F5 
 314      1C81
 315 0d6b FB36E310 		.ascii	"\3736\343\020\017\241\305\303W)\313&f\272\247\236\210"
 315      0FA1C5C3 
 315      5729CB26 
 315      66BAA79E 
 315      88
 316 0d7c 292E9266 		.ascii	").\222f\324'\365\367\2371a\353\224\364\356\240\232\013"
 316      D427F5F7 
 316      9F3161EB 
 316      94F4EEA0 
ARM GAS  /tmp/ccnI9Qb6.s 			page 25


 316      9A0B
 317 0d8e F4BFC561 		.ascii	"\364\277\305a\375R\011U\35739l\300Y\254;>\373_\242\011"
 317      FD520955 
 317      EF33396C 
 317      C059AC3B 
 317      3EFB5FA2 
 318 0da3 DC828C69 		.ascii	"\334\202\214i-Tw\035\251\026e\211\215AG*\274\273\355"
 318      2D54771D 
 318      A9166589 
 318      8D41472A 
 318      BCBBED
 319 0db6 44A5F89D 		.ascii	"D\245\370\235\250Ng\341p\216#\325\365,}U;RugI\320s\035"
 319      A84E67E1 
 319      708E23D5 
 319      F52C7D55 
 319      3B527567 
 320 0dce A9BAB250 		.ascii	"\251\272\262P\3258R\265e\241\232\227\241b?Pk\337ph\312"
 320      D53852B5 
 320      65A19A97 
 320      A1623F50 
 320      6BDF7068 
 321 0de3 DBF8056A 		.ascii	"\333\370\005j|\2440\247\346y\323V\365@\226I\334\313"
 321      7CA430A7 
 321      E679D356 
 321      F5409649 
 321      DCCB
 322 0df5 7EEB79C6 		.ascii	"~\353y\306\246\341\306\214\312~\015V\255l\333\210\177"
 322      A6E1C68C 
 322      CA7E0D56 
 322      AD6CDB88 
 322      7F
 323 0e06 DC46B7F8 		.ascii	"\334F\267\370\005\256\326o\377\3136\206W\347\267\373"
 323      05AED66F 
 323      FFCB3686 
 323      57E7B7FB 
 324 0e16 CDDA77BD 		.ascii	"\315\332w\275+\331o\326\332\225GB\324\024<\332\227\275"
 324      2BD96FD6 
 324      DA954742 
 324      D4143CDA 
 324      97BD
 325 0e28 47FA6E90 		.ascii	"G\372n\220\300\275\232\275\307\371\306\036\177\210\326"
 325      C0BD9ABD 
 325      C7F9C61E 
 325      7F88D6
 326 0e37 E3A9F0F6 		.ascii	"\343\251\360\366\256\333\243\227\327\207,o\030Yt\216"
 326      AEDBA397 
 326      D7872C6F 
 326      1859748E 
 327 0e47 77ED9DD4 		.ascii	"w\355\235\324\364zF\347\310\037-\027\244\274\311\377"
 327      F47A46E7 
 327      C81F2D17 
 327      A4BCC9FF 
 328 0e57 F9ABC249 		.ascii	"\371\253\302IhBQQ1\375K\244\212\243\211\312\312D\274"
 328      68425151 
 328      31FD4BA4 
 328      8AA389CA 
 328      CA44BC
ARM GAS  /tmp/ccnI9Qb6.s 			page 26


 329 0e6a 389990E4 		.ascii	"8\231\220\344T\361\363\277\2302i\312,\374,\031\253\020"
 329      54F1F3BF 
 329      983269CA 
 329      2CFC2C19 
 329      AB10
 330 0e7c A554F1E4 		.ascii	"\245T\361\344I\223\212\243\345\362\354\244\230**G\201"
 330      49938AA3 
 330      E5F2ECA4 
 330      982A2A47 
 330      81
 331 0e8d CA545944 		.ascii	"\312TYD\236Z\\\236\250\024\213\177SU\021\023\342\305"
 331      9E5A5C9E 
 331      A8148B7F 
 331      53551113 
 331      E2C5
 332 0e9f 537E3AF9 		.ascii	"S~:\371\371\342\224X)\246dI\214\304f\025\377\264r\232"
 332      F9E29458 
 332      29A66449 
 332      8CC46615 
 332      FFB4729A 
 333 0eb3 382D560A 		.ascii	"8-V\012\320\202T\371\344\217\306\227\374\270\250\244"
 333      D08254F9 
 333      E48FC697 
 333      FCB8A8A4 
 334 0ec3 845CC713 		.ascii	"\204\\\307\023q\361IQ\230\026+\216\305\243\025U\245"
 334      71F14951 
 334      98162B8E 
 334      C5A31555 
 334      A5
 335 0ed4 62714A2E 		.ascii	"bqJ.\215\305e@\016\302\277\037\377(\"\227h\254\311\000"
 335      8DC56540 
 335      0EC2BF1F 
 335      FF282297 
 335      68ACC900 
 336 0ee8 582CC9C5 		.ascii	"X,\311\305\251D\225\024\025\351-\256\")\361\267Ub<*"
 336      A9449514 
 336      15E92DAE 
 336      2229F1B7 
 336      55623C2A 
 337 0efc 46C68F7F 		.ascii	"F\306\217\177\246(\212\362\011O\345\222(\224\226p\311"
 337      A6288AF2 
 337      094FE592 
 337      28949670 
 337      C9
 338 0f0d FB4913F8 		.ascii	"\373I\023\370\006JID\234%F\253d\361A#hEl\032\310\024"
 338      064A4944 
 338      9C2546AB 
 338      64F14123 
 338      68456C1A 
 339 0f23 C1D758A6 		.ascii	"\301\327X\246\310\277'\022\025c\310mDH\245D)\323\305"
 339      C8BF2712 
 339      1563C86D 
 339      4448A544 
 339      29D3C5
 340 0f36 E3B9B991 		.ascii	"\343\271\271\221\022\011\2142\232\334\314\024b2\343"
 340      12098C32 
 340      9ADCCC14 
ARM GAS  /tmp/ccnI9Qb6.s 			page 27


 340      6232E3
 341 0f45 2535923C 		.ascii	"%5\222<\021+\361\223\304\213b\374a\275\322\001IUA\264"
 341      112BF193 
 341      C48B62FC 
 341      61BDD201 
 341      495541B4 
 342 0f59 1C040084 		.ascii	"\034\004\000\204G\035\277O\315N\251\006\010Q\360\210"
 342      471DBF4F 
 342      CD4EA906 
 342      0851F088 
 343 0f69 1CC60290 		.ascii	"\034\306\002\220\353Bg\272hy)\320\214d\014E@\246*1\""
 343      EB4267BA 
 343      687929D0 
 343      8C640C45 
 343      40A62A31 
 344 0f7e 8FD248D9 		.ascii	"\217\322H\331#\177\\\234%\373\223\2228#@\356\203rR\212"
 344      237F5C9C 
 344      25FB9392 
 344      382340EE 
 344      8372528A 
 345 0f92 252272A8 		.ascii	"%\"r\250\212\031\305\217\357\013\260\207D\242"
 345      8A19C58F 
 345      EF0BB087 
 345      44A2
 346 0fa0 89B80CAD 		.ascii	"\211\270\014\255\037\317\351A\345\321\204$B\357\371"
 346      1FCFE941 
 346      E5D18424 
 346      42EFF9
 347 0faf 840C80A2 		.ascii	"\204\014\200\242\362\254'\335QEf<S\211e\225\3042\360"
 347      F2AC27DD 
 347      5145663C 
 347      53896595 
 347      C432F0
 348 0fc2 9A88CC4B 		.ascii	"\232\210\314KO\361\322?\363\322\323\274\364\014/M\340"
 348      4FF1D23F 
 348      F3D2D3BC 
 348      F40C2F4D 
 348      E0
 349 0fd3 A57FF149 		.ascii	"\245\177\361I%\343\241\224\360\025\022\237J\372\000"
 349      25E3A194 
 349      F015129F 
 349      4AFA00
 350 0fe2 3A101767 		.ascii	":\020\027g\212R QQ*J\376\270P)\016K\311/\012\025\261"
 350      8A522051 
 350      512A4AFE 
 350      B850290E 
 350      4BC92F0A 
 351 0ff8 B23893E3 		.ascii	"\2628\223\343\351\247\"r"
 351      E9A72272 
 352 1000 DE4C619A 		.ascii	"\336La\232\220\022CrJ\026d\320D\020\1771!\"\007\310"
 352      90124372 
 352      4A1664D0 
 352      44107F31 
 352      212207C8 
 353 1014 7D50AE4C 		.ascii	"}P\256L\224\302\323\300\364\012\241,\025\004o\236\236"
 353      94C2D3C0 
 353      F40AA12C 
ARM GAS  /tmp/ccnI9Qb6.s 			page 28


 353      15046F9E 
 353      9E
 354 1025 02D9F1BF 		.ascii	"\002\331\361\277<\251t6X)$\316\212\311Qh\2247SNL\373"
 354      3CA97436 
 354      582924CE 
 354      8AC95168 
 354      9437534E 
 355 103b 4DF23E66 		.ascii	"M\362>f\015h\"J\304%\345\300LY\226\222\301\224\030\227"
 355      0D68224A 
 355      C425E5C0 
 355      4C599692 
 355      C1941897 
 356 104f 81A00054 		.ascii	"\201\240\000T\015\241!$\313A,g\007\200&\330\021\243"
 356      0DA12124 
 356      CB412C67 
 356      078026D8 
 356      11A3
 357 1061 7170151F 		.ascii	"qp\025\037\324\000\017\217\222!\240\256\004\367\235"
 357      D4000F8F 
 357      9221A0AE 
 357      04F79D
 358 1070 95C575E4 		.ascii	"\225\305u\344Y\230213.JA\322\026K)\303\343d\2768\003"
 358      59983231 
 358      332E4A41 
 358      D2164B29 
 358      C3E364BE 
 359 1086 3321A45E 		.ascii	"3!\244^\204G\342L|\301U\215P\015_\021\003\347\224G\352"
 359      8447E24C 
 359      7CC1558D 
 359      500D5F11 
 359      03E79447 
 360 109b 5C013F09 		.ascii	"\\\001?\011b\007\216\305\313B\300;q\205\220\230\024"
 360      62078EC5 
 360      CB42C03B 
 360      71859098 
 360      14
 361 10ac E310A265 		.ascii	"\343\020\242eA\200\304-\300(B\005v\207@e\022\302\006"
 361      4180C42D 
 361      C0284205 
 361      76874065 
 361      12C206
 362 10bf 049C922A 		.ascii	"\004\234\222*\373\205X!\202^\303\344\346\277\000\342"
 362      FB855821 
 362      825EC3E4 
 362      E6BF00E2 
 363 10cf 1F1D1966 		.ascii	"\037\035\031f\275\001\323\302P\262\010\016\335\262h"
 363      BD01D3C2 
 363      50B2080E 
 363      DDB268
 364 10de D4944D9E 		.ascii	"\324\224M\236*\232PT\242\317)\245\342t\350!/\025\373"
 364      2A9A5054 
 364      A2CF29A5 
 364      E274E821 
 364      2F15FB
 365 10f1 5F6C6579 		.ascii	"_leyzU<\032\221GG\313\177Y^:\011\372\227\305\251`\360"
 365      7A553C1A 
 365      914747CB 
ARM GAS  /tmp/ccnI9Qb6.s 			page 29


 365      7F595E3A 
 365      09FA97C5 
 366 1108 5894323C 		.ascii	"X\2242<\025$\014\323\314\"\213I~\246\220\217\255\006"
 366      15240CD3 
 366      CC228B49 
 366      7EA6908F 
 366      AD06
 367 111a 312756D2 		.ascii	"1'V\3228\243\327\005\230\361\331Lq\303\341q\346>\030"
 367      38A3D705 
 367      98F1D94C 
 367      71C3E171 
 367      E63E18
 368 112d AD92C0FE 		.ascii	"\255\222\300\376r@\302wcf\304$\271J\250\210\310\261"
 368      7240C277 
 368      6366C424 
 368      B94AA888 
 368      C8B1
 369 113f 4A48A18C 		.ascii	"JH\241\214\342\001\240\260\371b\244\341\031\015N\303"
 369      E201A0B0 
 369      F962A4E1 
 369      190D4EC3 
 370 114f A330EE1D 		.ascii	"\2430\356\035.\230\033\227<\015>V*V\310Bh\006\223\313"
 370      2E981B97 
 370      3C0D3E56 
 370      2A56C842 
 370      680693CB 
 371 1163 8FFFF992 		.ascii	"\217\377\371\222\202\024\252\020R2n\2337C\306\330#\230"
 371      8214AA10 
 371      52326E9B 
 371      3743C6D8 
 371      2398
 372 1175 10A5E2B4 		.ascii	"\020\245\342\264\2522jl\375\223pR\210\307\242\0210\265"
 372      AA326A6C 
 372      FD937052 
 372      88C7A211 
 372      30B5
 373 1187 AF745AD9 		.ascii	"\257tZ\331\260J\001\340\211u\370hy\220\331)\220\022"
 373      B04A01E0 
 373      8975F868 
 373      7990D929 
 373      9012
 374 1199 E5AA6448 		.ascii	"\345\252dH\026\005\251\024\234,\310\022\3520\254\256"
 374      1605A914 
 374      9C2CC812 
 374      EA30ACAE 
 375 11a9 28981CB4 		.ascii	"(\230\034\264j\311\311\343\212\244D\251 \013E\226o\012"
 375      6AC9C9E3 
 375      8AA444A9 
 375      200B4596 
 375      6F0A
 376 11bb F4C979CC 		.ascii	"\364\311y\314\0241\225\022\312\304T\341TQ\232!J\205"
 376      14319512 
 376      CAC454E1 
 376      54519A21 
 376      4A85
 377 11cd 15894412 		.ascii	"\025\211D\022Q#M\026\345\237\203\217I1y\366\013\303"
 377      51234D16 
ARM GAS  /tmp/ccnI9Qb6.s 			page 30


 377      E59F838F 
 377      493179F6 
 377      0BC3
 378 11df D52753C5 		.ascii	"\325'S\305\212\351/\374?g\376~\302"
 378      8AE92FFC 
 378      3F67FE7E 
 378      C2
 379              		.text
 380              		.section	.gnu.lto_.symtab.b5056f4117fff6a0,"",%progbits
 381 0000 74657374 		.ascii	"test_sequence_007\000\000\000\000\000\000\000\000\000"
 381      5F736571 
 381      75656E63 
 381      655F3030 
 381      37000000 
 382 001a 000000DC 		.ascii	"\000\000\000\334\001\000\000test_step\000\000\002\000"
 382      01000074 
 382      6573745F 
 382      73746570 
 382      00000200 
 383 002e 00000000 		.ascii	"\000\000\000\000\000\000\000\000\211\001\000\000wa\000"
 383      00000000 
 383      89010000 
 383      776100
 384 003d 00020000 		.ascii	"\000\002\000\000\000\000\000\000\000\000\000\213\001"
 384      00000000 
 384      0000008B 
 384      01
 385 004a 00006368 		.ascii	"\000\000ch\000\000\002\000\000\000\000\000\000\000\000"
 385      00000200 
 385      00000000 
 385      000000
 386 0059 00900100 		.ascii	"\000\220\001\000\000threads\000\000\002\000\000\000"
 386      00746872 
 386      65616473 
 386      00000200 
 386      0000
 387 006b 00000000 		.ascii	"\000\000\000\000\000\000\331\001\000\000_test_asser"
 387      0000D901 
 387      00005F74 
 387      6573745F 
 387      61737365 
 388 0080 745F7365 		.ascii	"t_sequence\000\000\002\000\000\000\000\000\000\000\000"
 388      7175656E 
 388      63650000 
 388      02000000 
 388      00000000 
 389 0095 00BD0000 		.ascii	"\000\275\000\000\000test_wait_threads\000\000\002\000"
 389      00746573 
 389      745F7761 
 389      69745F74 
 389      68726561 
 390 00af 00000000 		.ascii	"\000\000\000\000\000\000\000\000\310\000\000\000tes"
 390      00000000 
 390      C8000000 
 390      746573
 391 00be 745F656D 		.ascii	"t_emit_token\000\000\002\000\000\000\000\000\000\000"
 391      69745F74 
ARM GAS  /tmp/ccnI9Qb6.s 			page 31


 391      6F6B656E 
 391      00000200 
 391      00000000 
 392 00d4 0000CA00 		.ascii	"\000\000\312\000\000\000chMsgRelease\000\000\002\000"
 392      00006368 
 392      4D736752 
 392      656C6561 
 392      73650000 
 393 00ea 00000000 		.ascii	"\000\000\000\000\000\000\000\000\316\000\000\000chM"
 393      00000000 
 393      CE000000 
 393      63684D
 394 00f9 73675761 		.ascii	"sgWait\000\000\002\000\000\000\000\000\000\000\000\000"
 394      69740000 
 394      02000000 
 394      00000000 
 394      0000
 395 010b 73010000 		.ascii	"s\001\000\000chThdCreateStatic\000\000\002\000\000\000"
 395      63685468 
 395      64437265 
 395      61746553 
 395      74617469 
 396 0126 00000000 		.ascii	"\000\000\000\000\000\000v\001\000\000chMsgSend\000\000"
 396      00007601 
 396      00006368 
 396      4D736753 
 396      656E6400 
 397 013b 02000000 		.ascii	"\002\000\000\000\000\000\000\000\000\000\204\001\000"
 397      00000000 
 397      00008401 
 397      00
 398 0148 00       		.ascii	"\000"
 399              		.text
 400              		.section	.gnu.lto_.opts,"",%progbits
 401 0000 272D6D63 		.ascii	"'-mcpu=cortex-m3' '-mno-thumb-interwork' '-mthumb' "
 401      70753D63 
 401      6F727465 
 401      782D6D33 
 401      2720272D 
 402 0033 272D6767 		.ascii	"'-ggdb' '-O2' '-fomit-frame-pointer' '-falign-funct"
 402      64622720 
 402      272D4F32 
 402      2720272D 
 402      666F6D69 
 403 0066 696F6E73 		.ascii	"ions=16' '-ffunction-sections' '-fdata-sections' '-"
 403      3D313627 
 403      20272D66 
 403      66756E63 
 403      74696F6E 
 404 0099 666E6F2D 		.ascii	"fno-common' '-flto'\000"
 404      636F6D6D 
 404      6F6E2720 
 404      272D666C 
 404      746F2700 
 405              		.text
 406              		.cfi_sections	.debug_frame
 407              		.section	.text.test_007_001_execute,"ax",%progbits
ARM GAS  /tmp/ccnI9Qb6.s 			page 32


 408              		.align	2
 409              		.p2align 4,,15
 410              		.thumb
 411              		.thumb_func
 412              		.type	test_007_001_execute, %function
 413              	test_007_001_execute:
 414              	.LFB220:
 415              		.file 1 "../../../test/rt/source/test/test_sequence_007.c"
 416              		.loc 1 76 0
 417              		.cfi_startproc
 418              		@ args = 0, pretend = 0, frame = 0
 419              		@ frame_needed = 0, uses_anonymous_args = 0
 420 0000 30B5     		push	{r4, r5, lr}
 421              		.cfi_def_cfa_offset 12
 422              		.cfi_offset 4, -12
 423              		.cfi_offset 5, -8
 424              		.cfi_offset 14, -4
 425              	.LBB13:
 426              	.LBB14:
 427              	.LBB15:
 428              	.LBB16:
 429              		.file 2 "../../../os/rt/include/chthreads.h"
 430              		.loc 2 286 0
 431 0002 40F20003 		movw	r3, #:lower16:ch
 432 0006 C0F20003 		movt	r3, #:upper16:ch
 433 000a 9969     		ldr	r1, [r3, #24]
 434              	.LBE16:
 435              	.LBE15:
 436              	.LBE14:
 437              	.LBE13:
 438              		.loc 1 83 0
 439 000c 40F20003 		movw	r3, #:lower16:wa
 440 0010 8A68     		ldr	r2, [r1, #8]
 441 0012 C0F20003 		movt	r3, #:upper16:wa
 442              		.loc 1 81 0
 443 0016 40F20004 		movw	r4, #:lower16:test_step
 444 001a C0F20004 		movt	r4, #:upper16:test_step
 445              		.loc 1 76 0
 446 001e 83B0     		sub	sp, sp, #12
 447              		.cfi_def_cfa_offset 24
 448              		.loc 1 83 0
 449 0020 1868     		ldr	r0, [r3]
 450              		.loc 1 81 0
 451 0022 0125     		movs	r5, #1
 452              		.loc 1 83 0
 453 0024 40F20003 		movw	r3, #:lower16:msg_thread1
 454 0028 0091     		str	r1, [sp]
 455 002a 0132     		adds	r2, r2, #1
 456 002c C0F20003 		movt	r3, #:upper16:msg_thread1
 457              		.loc 1 81 0
 458 0030 2560     		str	r5, [r4]
 459              		.loc 1 83 0
 460 0032 4FF4A471 		mov	r1, #328
 461 0036 FFF7FEFF 		bl	chThdCreateStatic
 462              	.LVL0:
 463 003a 40F20003 		movw	r3, #:lower16:threads
 464 003e C0F20003 		movt	r3, #:upper16:threads
ARM GAS  /tmp/ccnI9Qb6.s 			page 33


 465              		.loc 1 89 0
 466 0042 0222     		movs	r2, #2
 467 0044 2260     		str	r2, [r4]
 468              	.LVL1:
 469              		.loc 1 83 0
 470 0046 1860     		str	r0, [r3]
 471              		.loc 1 89 0
 472 0048 0424     		movs	r4, #4
 473              	.LVL2:
 474              	.L3:
 475              	.LBB17:
 476              		.loc 1 94 0 discriminator 2
 477 004a FFF7FEFF 		bl	chMsgWait
 478              	.LVL3:
 479              	.LBE17:
 480              		.loc 1 77 0 discriminator 2
 481 004e 456A     		ldr	r5, [r0, #36]
 482              	.LVL4:
 483              	.LBB18:
 484              		.loc 1 96 0 discriminator 2
 485 0050 2946     		mov	r1, r5
 486 0052 FFF7FEFF 		bl	chMsgRelease
 487              	.LVL5:
 488              		.loc 1 97 0 discriminator 2
 489 0056 E8B2     		uxtb	r0, r5
 490 0058 FFF7FEFF 		bl	test_emit_token
 491              	.LVL6:
 492              		.loc 1 93 0 discriminator 2
 493 005c 013C     		subs	r4, r4, #1
 494              	.LVL7:
 495 005e F4D1     		bne	.L3
 496              		.loc 1 99 0
 497 0060 FFF7FEFF 		bl	test_wait_threads
 498              	.LVL8:
 499              		.loc 1 100 0
 500 0064 40F20000 		movw	r0, #:lower16:.LC0
 501 0068 40F20001 		movw	r1, #:lower16:.LC1
 502 006c C0F20000 		movt	r0, #:upper16:.LC0
 503 0070 C0F20001 		movt	r1, #:upper16:.LC1
 504              	.LBE18:
 505              		.loc 1 102 0
 506 0074 03B0     		add	sp, sp, #12
 507              		@ sp needed
 508 0076 BDE83040 		pop	{r4, r5, lr}
 509              	.LVL9:
 510              	.LBB19:
 511              		.loc 1 100 0
 512 007a FFF7FEBF 		b	_test_assert_sequence
 513              	.LVL10:
 514              	.LBE19:
 515              		.cfi_endproc
 516              	.LFE220:
 517              		.size	test_007_001_execute, .-test_007_001_execute
 518 007e 00BF     		.section	.text.msg_thread1,"ax",%progbits
 519              		.align	2
 520              		.p2align 4,,15
 521              		.thumb
ARM GAS  /tmp/ccnI9Qb6.s 			page 34


 522              		.thumb_func
 523              		.type	msg_thread1, %function
 524              	msg_thread1:
 525              	.LFB219:
 526              		.loc 1 50 0
 527              		.cfi_startproc
 528              		@ args = 0, pretend = 0, frame = 0
 529              		@ frame_needed = 0, uses_anonymous_args = 0
 530              	.LVL11:
 531 0000 10B5     		push	{r4, lr}
 532              		.cfi_def_cfa_offset 8
 533              		.cfi_offset 4, -8
 534              		.cfi_offset 14, -4
 535              		.loc 1 52 0
 536 0002 4121     		movs	r1, #65
 537              		.loc 1 50 0
 538 0004 0446     		mov	r4, r0
 539              		.loc 1 52 0
 540 0006 FFF7FEFF 		bl	chMsgSend
 541              	.LVL12:
 542              		.loc 1 53 0
 543 000a 2046     		mov	r0, r4
 544 000c 4221     		movs	r1, #66
 545 000e FFF7FEFF 		bl	chMsgSend
 546              	.LVL13:
 547              		.loc 1 54 0
 548 0012 2046     		mov	r0, r4
 549 0014 4321     		movs	r1, #67
 550 0016 FFF7FEFF 		bl	chMsgSend
 551              	.LVL14:
 552              		.loc 1 55 0
 553 001a 2046     		mov	r0, r4
 554 001c 4421     		movs	r1, #68
 555              		.loc 1 56 0
 556 001e BDE81040 		pop	{r4, lr}
 557              	.LVL15:
 558              		.loc 1 55 0
 559 0022 FFF7FEBF 		b	chMsgSend
 560              	.LVL16:
 561              		.cfi_endproc
 562              	.LFE219:
 563              		.size	msg_thread1, .-msg_thread1
 564              		.global	test_sequence_007
 565 0026 00BFAFF3 		.section	.rodata.test_007_001,"a",%progbits
 565      0080AFF3 
 565      0080
 566              		.align	2
 567              		.type	test_007_001, %object
 568              		.size	test_007_001, 16
 569              	test_007_001:
 570 0000 1C000000 		.word	.LC2
 571 0004 00000000 		.word	0
 572 0008 00000000 		.word	0
 573 000c 00000000 		.word	test_007_001_execute
 574              		.section	.rodata.test_sequence_007,"a",%progbits
 575              		.align	2
 576              		.type	test_sequence_007, %object
ARM GAS  /tmp/ccnI9Qb6.s 			page 35


 577              		.size	test_sequence_007, 8
 578              	test_sequence_007:
 579 0000 00000000 		.word	test_007_001
 580 0004 00000000 		.word	0
 581              		.section	.rodata.str1.4,"aMS",%progbits,1
 582              		.align	2
 583              	.LC0:
 584 0000 41424344 		.ascii	"ABCD\000"
 584      00
 585 0005 000000   		.space	3
 586              	.LC1:
 587 0008 696E7661 		.ascii	"invalid sequence\000"
 587      6C696420 
 587      73657175 
 587      656E6365 
 587      00
 588 0019 000000   		.space	3
 589              	.LC2:
 590 001c 4D657373 		.ascii	"Messages Server loop\000"
 590      61676573 
 590      20536572 
 590      76657220 
 590      6C6F6F70 
 591 0031 000000   		.text
 592              	.Letext0:
 593              		.file 3 "/home/julian/MEGA/semestre_ix/Embebidos/arm-2013.11/lib/gcc/arm-none-eabi/4.8.1/include/s
 594              		.file 4 "/home/julian/MEGA/semestre_ix/Embebidos/arm-2013.11/arm-none-eabi/include/stdint.h"
 595              		.file 5 "../../../os/common/ports/ARMCMx/compilers/GCC/chtypes.h"
 596              		.file 6 "../../../os/rt/include/chsystypes.h"
 597              		.file 7 "../../../os/rt/include/chschd.h"
 598              		.file 8 "../../../os/common/ports/ARMCMx/chcore.h"
 599              		.file 9 "../../../os/common/ports/ARMCMx/chcore_v7m.h"
 600              		.file 10 "../../../os/rt/include/chsem.h"
 601              		.file 11 "../../../os/rt/include/chmtx.h"
 602              		.file 12 "../../../test/lib/ch_test.h"
 603              		.file 13 "../../../os/common/ext/CMSIS/include/core_cm3.h"
 604              		.file 14 "../../../test/rt/source/test/test_root.h"
 605              		.file 15 "../../../os/rt/include/chmsg.h"