ARM GAS  /tmp/ccx8yv7a.s 			page 1


   1              		.syntax unified
   2              		.cpu cortex-m3
   3              		.fpu softvfp
   4              		.eabi_attribute 20, 1
   5              		.eabi_attribute 21, 1
   6              		.eabi_attribute 23, 3
   7              		.eabi_attribute 24, 1
   8              		.eabi_attribute 25, 1
   9              		.eabi_attribute 26, 1
  10              		.eabi_attribute 30, 2
  11              		.eabi_attribute 34, 1
  12              		.eabi_attribute 18, 4
  13              		.thumb
  14              		.file	"test_sequence_001.c"
  15              		.text
  16              	.Ltext0:
  17              		.section	.gnu.lto_.jmpfuncs.bca81873edb5e780,"",%progbits
  18 0000 789CA593 		.ascii	"x\234\245\223\255o\024A\030\207g\267\337\250\376\005"
  18      AD6F1441 
  18      188767B7 
  18      DFA8FE05 
  19 0010 97152892 		.ascii	"\227\025(\222\026BP\213an\366\275\273I\367\253;\263"
  19      1642508B 
  19      616EF6BD 
  19      BB49F7AB 
  19      3BB3
  20 0022 A5C54CAE 		.ascii	"\245\305L\256\245\264K\31259\256\012sA\200@\020\202"
  20      A5B44BCA 
  20      3539AE0A 
  20      73418040 
  20      1082
  21 0034 A0092108 		.ascii	"\240\011!\010\004\010\004\002\201@ \020 \010A \020\010"
  21      04080402 
  21      81402010 
  21      20084120 
  21      1008
  22 0046 04094110 		.ascii	"\004\011A\020\202@TPv\357\366R\366\353\222aV\356\373"
  22      82405450 
  22      76EFF652 
  22      F6EB9261 
  22      56EEFB
  23 0059 CCF3FEE6 		.ascii	"\314\363\376\346\235\031\035\351\250\354;\234C\350\354"
  23      9D191DE9 
  23      A8EC3B9C 
  23      43E8EC
  24 0068 144AAA9A 		.ascii	"\024J\252\232~\015\035\364\367\373\363\221\206jH{\320"
  24      7E0D1DF4 
  24      F7FBF391 
  24      866A487B 
  24      D0
  25 0079 DF3F1769 		.ascii	"\337?\027i\332\200\322\364U-\322t\224\201&jhb\010M\246"
  25      DA80D2F4 
  25      552DD274 
  25      9481266A 
  25      6862084D 
  26 008e 90F4FAE3 		.ascii	"\220\364\372\343\212\353An}_\313\013.\311\011\016\013"
  26      8AEB416E 
ARM GAS  /tmp/ccx8yv7a.s 			page 2


  26      7D5FCB0B 
  26      2EC9090E 
  26      0B
  27 009f 829B9AE2 		.ascii	"\202\233\232\342\026\236\250\012\336\252\012\276\253"
  27      169EA80A 
  27      DEAA0ABE 
  27      AB
  28 00ac 0A6EE972 		.ascii	"\012n\351r\202\302\020\237\252\012\336\251\012~\250"
  28      82C2109F 
  28      AA0ADEA9 
  28      0A7EA8
  29 00bb 0A6E4B3E 		.ascii	"\012nK>\205\202\340\231\352[\372\240\232\340\227\252"
  29      8582E099 
  29      EA5BFAA0 
  29      9AE097AA 
  30 00cb E0EEA4A2 		.ascii	"\340\356\244\242\340\271\252\340\243\252\340\267\244"
  30      E0B9AAE0 
  30      A3AAE0B7 
  30      A4
  31 00d8 A0700AF7 		.ascii	"\240p\012\367\246\024\023\274\220\024\024\022|RMp\240"
  31      A61413BC 
  31      90141412 
  31      7C524D70 
  31      A0
  32 00e9 2AB83FAD 		.ascii	"*\270?\255(x))(\314\340\263j\202?\252\011\036\316(\012"
  32      28782929 
  32      28CCE0B3 
  32      6A823FAA 
  32      091ECE28 
  33 00fe 5EA90ABE 		.ascii	"^\251\012\276H\012\364\274\340\372\254\234\340\333L"
  33      480AF4BC 
  33      E0FAAC9C 
  33      E0DB4C
  34 010d DEF048D2 		.ascii	"\336\360H\3220\237\027\274\316\010\364\377\331\305W"
  34      309F17BC 
  34      CE08F4FF 
  34      D9C557
  35 011c C90C8539 		.ascii	"\311\014\2059\336\230\223\023L\346\005\217\253\004S"
  35      DE989313 
  35      4CE6058F 
  35      AB0453
  36 012b 35F426AD 		.ascii	"5\364&\255M\347k\361\272\367\222\215\013\227\370g\225"
  36      4DE76BF1 
  36      BAF7928D 
  36      0B97F867 
  36      95
  37 013c 60A686EE 		.ascii	"`\246\206\356\034\033\326f\321\260\210\214\205\205\005"
  37      1C1BD666 
  37      D1B0888C 
  37      858505
  38 014b 83B48455 		.ascii	"\203\264\204Uo\012\336\012\000[L\370\201\327\2406u\233"
  38      6F0ADE0A 
  38      005B4CF8 
  38      81D7A036 
  38      759B
  39 015d A6616480 		.ascii	"\246ad\200\370\257=\242\342\332\340\313\000\340\342"
  39      F8AF3DA2 
ARM GAS  /tmp/ccx8yv7a.s 			page 3


  39      E2DAE0CB 
  39      00E0E2
  40 016c BA0D8271 		.ascii	"\272\015\202qL\226\004i\001Y2\263\000\0170\001Q\017"
  40      4C960469 
  40      015932B3 
  40      000F3001 
  40      510F
  41 017e 1B0D0804 		.ascii	"\033\015\010\004\243\027 \337b\0108\230-\215\032\224"
  41      A31720DF 
  41      62083898 
  41      2D8D1A94 
  42 018e B7C08C41 		.ascii	"\267\300\214A\300\323\024e\300\240\373(e\006`k\214\203"
  42      C0D31465 
  42      C0A0FB28 
  42      6506606B 
  42      8C83
  43 01a0 9384E450 		.ascii	"\223\204\344P\0322\251P\306)a%\031H\243)B\006\302Zs"
  43      1A32A950 
  43      C6296125 
  43      1948A329 
  43      4206C25A 
  44 01b5 B1438959 		.ascii	"\261C\211Y\0118\340\370\236g\027\0075\002Z\200\375\243"
  44      0938E0F8 
  44      9E671707 
  44      35025A80 
  44      FDA3
  45 01c7 06E506E2 		.ascii	"\006\345\006\342\0050\246\005\246v\335[\205\3026\217"
  45      0530A605 
  45      A676DD5B 
  45      85C2368F 
  46 01d7 0C8CE126 		.ascii	"\014\214\341&$GJ\315q@eHX\001\2273\301\251\003^\310"
  46      24474ACD 
  46      71406548 
  46      58019733 
  46      C1A9035E 
  47 01ec CD2A60CC 		.ascii	"\315*`\314\240\210\347Z+8H\035%\206\021P\231\301\011"
  47      A088E75A 
  47      2B38481D 
  47      25861150 
  47      99C109
  48 01ff 39C49B14 		.ascii	"9\304\233\024\001\2200\301\252\200\352A1p\260\337\212"
  48      019030C1 
  48      AA80EA41 
  48      3170B0DF 
  48      8A
  49 0210 67994E62 		.ascii	"g\231Nb\014`\226\033\316c\032\367\240\2742d\000\315"
  49      0C60961B 
  49      CE631AF7 
  49      A0BC3264 
  49      00CD
  50 0222 F8CE046B 		.ascii	"\370\316\004k\225\000w\376=\354\034\340\371\361t\342"
  50      950077FE 
  50      3DEC1CE0 
  50      F9F174E2 
  51 0232 E720980F 		.ascii	"\347 \230\017`\225dp=A\255\370Z\017__\011\220^\226\321"
  51      60956470 
  51      3D41ADF8 
ARM GAS  /tmp/ccx8yv7a.s 			page 4


  51      5A0F5F5F 
  51      09905E96 
  52 0247 A32A02C9 		.ascii	"\243*\002\311\370\305r\210]\036:\245\000\343\003\306"
  52      F8C57288 
  52      5D1E3AA5 
  52      00E303C6 
  53 0257 029BE32A 		.ascii	"\002\233\343*\240\021\300r\010.)\337f\014\304\023\364"
  53      A011C072 
  53      082E29DF 
  53      660CC413 
  53      F4
  54 0268 EC9053CF 		.ascii	"\354\220S\317\315\334I\277\335\333\3306\334\275+\353"
  54      CDDC49BF 
  54      DDDBD836 
  54      DCBD2BEB 
  55 0278 9BDDEC18 		.ascii	"\233\335\354\030R\300\211:\273\335\261@\373r%0}f\361"
  55      52C0893A 
  55      BBDDB140 
  55      FB722530 
  55      7D66F1
  56 028b D4E2E921 		.ascii	"\324\342\351!\267\262\331\275\032\355v\014\326\353F"
  56      B7B2D9BD 
  56      1AED760C 
  56      D6EB46
  57 029a 9D2DB328 		.ascii	"\235-\263(b\275\366\372\316\246\321\330io\345<\006:"
  57      62BDF6FA 
  57      CEA6D1D8 
  57      696FE53C 
  57      063A
  58 02ac 31C8DADD 		.ascii	"1\310\332\335\275\270\267\321\313\027\223\217lG\353"
  58      BDB8B7D1 
  58      CB17938F 
  58      6C47EB
  59 02bb 91C74E06 		.ascii	"\221\307N\006\034\375\005R\306V\346"
  59      1CFD0552 
  59      C656E6
  60              		.text
  61              		.section	.gnu.lto_.inline.bca81873edb5e780,"",%progbits
  62 0000 789C6362 		.ascii	"x\234cb`b\300\006^B\205\201\324\005\306\247\034\214"
  62      6062C006 
  62      5E428581 
  62      D405C6A7 
  62      1C8C
  63 0012 0C4C4C17 		.ascii	"\014LL\027\370\031\330\026\310\203\305\231\270\031\030"
  63      F819D816 
  63      C883C599 
  63      B81918
  64 0021 1847C951 		.ascii	"\030G\311Q\222\226$\203\322\012F\272\245;\006\000\337"
  64      92962483 
  64      D20A46BA 
  64      A53B0600 
  64      DF
  65 0032 090D39   		.ascii	"\011\0159"
  66              		.text
  67              		.section	.gnu.lto_.pureconst.bca81873edb5e780,"",%progbits
  68 0000 789C6362 		.ascii	"x\234cb`b`e\200\000&\006\011&\011\000\001\000\000>"
  68      60626065 
ARM GAS  /tmp/ccx8yv7a.s 			page 5


  68      80002606 
  68      09260900 
  68      0100003E 
  69              		.text
  70              		.section	.gnu.lto_test_001_002_execute.bca81873edb5e780,"",%progbits
  71 0000 789CA5D9 		.ascii	"x\234\245\331Ol\323V\034\007\360\367\234\226v\2348\262"
  71      4F6CD356 
  71      1C07F0F7 
  71      9C96769C 
  71      38B2
  72 0012 0BCA8D53 		.ascii	"\013\312\215S[\220v\352i\256\363\322XM\354\324~.\224"
  72      5B9076EA 
  72      69AEF3D2 
  72      584DECD4 
  72      7E2E94
  73 0025 8B354539 		.ascii	"\2135E9\344\260M\243E\232\264\003.\252D\201\002= -\375"
  73      E4B04DA3 
  73      459AB403 
  73      2EAA4481 
  73      023D202D 
  74 003a 074313DA 		.ascii	"\007C\023\332:\376i\207I\254\0036\3550ml\024m\207\211"
  74      3AFE6987 
  74      49AC0336 
  74      ED306D6C 
  74      146D8789 
  75 004e 51A095D0 		.ascii	"Q\240\225\320D\241@\017H\033\224Bx\266\023\022\022\377"
  75      44A1400F 
  75      481B9442 
  75      78B61312 
  75      12FF
  76 0060 94F7F4AC 		.ascii	"\224\367\364\254\306u\342\357{\277\217\177~\316%\012"
  76      C675E2EF 
  76      7BBF8F7F 
  76      7ECE250A 
  77 0070 5250FDF6 		.ascii	"RP\375\366.{\015lE\350\363\026\204p\014aeb\001\241\221"
  77      2E7B0D6C 
  77      45E8F316 
  77      84700C61 
  77      656201A1 
  78 0085 760563FF 		.ascii	"v\005c\377\000a\264_\301\373\007q\220\275\250\374\264"
  78      0061B45F 
  78      C1FB0771 
  78      90BDA8FC 
  78      B4
  79 0096 5C2A5D98 		.ascii	"\\*]\230:xn\006\317+\005\366I+\032\365\274\2118B\271"
  79      3A786E06 
  79      CF2B05F6 
  79      492B1AF5 
  79      BC893842 
  80 00ab 2041D9DE 		.ascii	" A\331\336\037\346`\305\377\037\273\216\016\\*\376\267"
  80      1FE660C5 
  80      FF1FBB8E 
  80      0E5C2AFE 
  80      B7
  81 00bc F5037C1A 		.ascii	"\365\003|\032\267\242i45\342y[\012\030}\206\326\275"
  81      B7A26934 
  81      35E2795B 
ARM GAS  /tmp/ccx8yv7a.s 			page 6


  81      0A187D86 
  81      D6BD
  82 00ce 31FF087F 		.ascii	"1\377\010\177\030\014\333\215\331!\252\034!\377\360"
  82      180CDB8D 
  82      D921AA1C 
  82      21FFF0
  83 00dd 061A5DBE 		.ascii	"\006\032]\276u\257-\034\211\252#\224\\9\351\177R\364"
  83      75AF2D1C 
  83      89AA2394 
  83      5C39E97F 
  83      52F4
  84 00ef BCFE028E 		.ascii	"\274\376\002\216mC\357\315z\305\367\013\270\005\225"
  84      6D43EFCD 
  84      7AC5F70B 
  84      B80595
  85 00fe F3057FC7 		.ascii	"\363\005\177\307\246\370b1\3260\303\246\034V\336\324"
  85      A6F86231 
  85      D630C3A6 
  85      1C56DED4 
  86 010e 6ADBC2B2 		.ascii	"j\333\302\262\355a\271\333_n\216*\027\253-\347\024\360"
  86      ED61B9DB 
  86      5F6E8E2A 
  86      17AB2DE7 
  86      14F0
  87 0120 3BDB9013 		.ascii	";\333\220\023\226\333\\_n\371\016\267x\027$\276\333"
  87      96DB5C5F 
  87      6EF90EB7 
  87      781724BE 
  87      DB
  88 0131 4CBCD256 		.ascii	"L\274\322V%/\311\223W\270\311\237B\344\007\315\310J"
  88      252FC993 
  88      57B8C99F 
  88      42E407CD 
  88      C84A
  89 0143 55FC505E 		.ascii	"U\374P^\274\312-\236\304\020\371Q32\252\222\037\313"
  89      BCCA2D9E 
  89      C410F951 
  89      3332AA92 
  89      1FCB
  90 0155 939F7093 		.ascii	"\223\237p\223\347A\362\232\000\371\231<\37197y\021$"
  90      E741F29A 
  90      00F9993C 
  90      F9393779 
  90      1124
  91 0167 AF0B905F 		.ascii	"\257\013\220_\310\2237\270\311\033 \371e32\256\222_"
  91      C89337B8 
  91      C91B20F9 
  91      653332AE 
  91      925F
  92 0179 C9934BDC 		.ascii	"\311\223K\334\344Y\005\"\217\265\362w\371\320\031i\362"
  92      E4590522 
  92      8FB5F277 
  92      F9D01969 
  92      F2
  93 018a E17F79C9 		.ascii	"\341\177y\311WA\362\221f\344\232.\217\313\223\217r\223"
  93      5741F291 
  93      66E49A2E 
ARM GAS  /tmp/ccx8yv7a.s 			page 7


  93      8FCB938F 
  93      7293
  94 019c 9740F231 		.ascii	"\227@\3621\001\362qyr\221\233\354\305 \362\244\000y"
  94      01F27179 
  94      72919BEC 
  94      C520F2A4 
  94      0079
  95 01ae 4A9E3CCD 		.ascii	"J\236<\315M>\015\222g\004\326\362\254<\371$7\371g\220"
  95      4D3E0D92 
  95      6704D6F2 
  95      AC3CF924 
  95      37F96790 
  96 01c2 7C4AA0CB 		.ascii	"|J\240\313_\313\223\347\270\311\367@\3627\002]>+O>\307"
  96      5FCB93E7 
  96      B8C9F740 
  96      F237025D 
  96      3E2B4F3E 
  97 01d7 4D1E6D81 		.ascii	"M\036m\201\310\347\005\272|A\236|\221\233|\006$_\022"
  97      C8E705BA 
  97      7C419E7C 
  97      919B7C06 
  97      245F12
  98 01ea 207F2F4F 		.ascii	" \177/O\236\347&\377\002\222\177\020 _\226'_\341&\337"
  98      9EE726FF 
  98      02927F10 
  98      205F9627 
  98      5FE126DF 
  99 01fe 07C95705 		.ascii	"\007\311W\005\310?\312\223\177\345&\217\265B\344\337"
  99      C83FCA93 
  99      7FE5268F 
  99      B542E4DF 
 100 020e 04C8D7E4 		.ascii	"\004\310\327\344\311\277s\223\347@\362\037\002\337\030"
 100      C9BF7393 
 100      E740F21F 
 100      02DF18
 101 021d D7E5C90B 		.ascii	"\327\345\311\013\334\344k \371\206@\227o\312\223\377"
 101      DCE46B20 
 101      F9864097 
 101      6FCA93FF 
 102 022d E126AF82 		.ascii	"\341&\257\202\344[\002\344Ey\362mn\362\370&\210|G\200"
 102      E45B02E4 
 102      4579F26D 
 102      6EF2F826 
 102      887C4780 
 103 0241 7C579EBC 		.ascii	"|W\236\274\304M>\017\222W\004\310\017\344\311\017\271"
 103      C44D3E0F 
 103      925704C8 
 103      0FE4C90F 
 103      B9
 104 0252 C90B2079 		.ascii	"\311\013 yU\200\374H\236\374\230\233\274\006\222\237"
 104      5580FC48 
 104      9EFC989B 
 104      BC06929F 
 105 0262 087C63AC 		.ascii	"\010|c\254\311\223\237q\223'\332 \362s\001\362\272<"
 105      C9939F71 
 105      9327DA20 
 105      F27301F2 
ARM GAS  /tmp/ccx8yv7a.s 			page 8


 105      BA3C
 106 0274 F90537F9 		.ascii	"\371\0057\371[\220\274!@~)O~\305M\376\013$\227\004\310"
 106      5B90BC21 
 106      407E294F 
 106      7EC54DFE 
 106      0B249704 
 107 0289 635F4993 		.ascii	"c_I\223\017\335\347%?\005\311\207\033\247x\233\\\252"
 107      0FDDE725 
 107      3F05C987 
 107      1BA7789B 
 107      5CAA
 108 029b 79FE8EC8 		.ascii	"y\376\216\310\233\307\271\315'\332!\363\321ff\257\306"
 108      9BC7B9CD 
 108      27DA21F3 
 108      D16666AF 
 108      C6
 109 02ac 7C4CDE7C 		.ascii	"|L\336|\234\333\374\035h.63\327,\215Iy\362\0247\371"
 109      9CDBFC1D 
 109      682E3633 
 109      D72C8D49 
 109      79F21437 
 110 02c1 6F903C2D 		.ascii	"o\220<-@\236\221'\317r\223\377\007\311'\005\310\247"
 110      409E9127 
 110      CF7293FF 
 110      07C92705 
 110      C8A7
 111 02d3 E4C87FA2 		.ascii	"\344\310\177\242\221\345\271\355\225\031\302\2152\355"
 111      91E5B9ED 
 111      9519C28D 
 111      32ED
 112 02e1 C442F04B 		.ascii	"\304B\360K\304\316\316\316\256\360o8?4\334\265w\270"
 112      C4CECECE 
 112      AEF06F38 
 112      3F34DCB5 
 112      77B8
 113 02f3 6BE8E37D 		.ascii	"k\350\343}{s\371\360\255\277s\207\362\237\354\313\177"
 113      7B73F9F0 
 113      ADBF7387 
 113      F29FECCB 
 113      7F
 114 0304 94CBBB3B 		.ascii	"\224\313\273;v\354\354\314\241xGGG\\K\271Z\262\327\265"
 114      76ECECCC 
 114      A1784747 
 114      475C4BB9 
 114      5AB2D7B5 
 115 0318 A96B11DB 		.ascii	"\251k\021\333L;T7\215\356x\260!\\\037IZ\244\337!\206"
 115      4C3B5437 
 115      8DEE78B0 
 115      215C1F49 
 115      5AA4DF21 
 116 032d 36584EC4 		.ascii	"6XN\304\353\003T\317\220\004IS52\340\237u\373\035\325"
 116      EB0354CF 
 116      90044953 
 116      3532E09F 
 116      75FB1DD5 
 117 0341 A04E2632 		.ascii	"\240N&2\220!\031\315\264\210k\353{Hd\3000]=\221&.MY"
 117      902119CD 
ARM GAS  /tmp/ccx8yv7a.s 			page 9


 117      B4886BEB 
 117      7B4864C0 
 117      305D3D91 
 118 0359 444D7437 		.ascii	"DMt7\006\314,+\302F\273v\226\220\250\200c\263\321o\252"
 118      06CC2C2B 
 118      C246BB76 
 118      9690A880 
 118      63B3D16F 
 119 036e 4794F003 		.ascii	"G\224\360\003\026\351\325mjE_\246\037\330\245\352\224"
 119      16E9D56D 
 119      6A455FA6 
 119      1FD8A5EA 
 119      94
 120 037f ECD62918 		.ascii	"\354\326)\030\260IF\315\246\330\265\330\200\241\032"
 120      B04946CD 
 120      A6D8B5D8 
 120      80A11A
 121 038e 70B396DE 		.ascii	"p\263\226\336\335\030\3108\254Bex\324\014\345\000\303"
 121      DD18C838 
 121      AC426578 
 121      D40CE500 
 121      C3
 122 039f 6A8E6547 		.ascii	"j\216eG\314\240\231Fb@\265l\020Y\011\0047\306\214\230"
 122      CCA09946 
 122      6240B56C 
 122      10590904 
 122      37C68C98 
 123 03b3 810C1083 		.ascii	"\201\014\020\203V\011P \034\357\320\250\253 \266\255"
 123      56095020 
 123      1CEFD0A8 
 123      AB20B6AD 
 124 03c3 F612D850 		.ascii	"\366\022\330P\011\204]\210\012\250z\272\307\254v\"b"
 124      09845D88 
 124      0AA87ABA 
 124      C7AC7622 
 124      62
 125 03d4 8660D1C0 		.ascii	"\206`\321\300\215J\0215[{\303\243f\310\232f\032F&\006"
 125      8D4A1135 
 125      5B7BC3A3 
 125      66C89A66 
 125      1A462606 
 126 03e8 0D35A36B 		.ascii	"\0155\243k\215%\022=\376\262W)[-\272\026\325\250 0h"
 126      8D25123D 
 126      FEB25729 
 126      5B2DBA16 
 126      D5A82030 
 127 03fd 53920972 		.ascii	"S\222\011r\254\347)\242\365u\277\035 \206\332\223.\237"
 127      ACE729A2 
 127      F575BF1D 
 127      2086DA93 
 127      2E9F
 128 040f 6AB8CC9A 		.ascii	"j\270\314\232\200j\333\304\242\365+\312\017PK\325\374"
 128      806ADBC4 
 128      A2F52BCA 
 128      0F504BD5 
 128      FC
 129 0420 56D97D80 		.ascii	"V\331}\200!\014\3648\311$\261*\217WT\011\206\324\372"
ARM GAS  /tmp/ccx8yv7a.s 			page 10


 129      210CF438 
 129      C924B12A 
 129      8F575409 
 129      86D4FA
 130 0433 2291493D 		.ascii	"\"\221I=\235.?w\215\215\012J\204\347\330\2154YV7z\375"
 130      9D2E3F77 
 130      8D8D0A4A 
 130      84E7D88D 
 130      34595637 
 131 0449 12AF01D6 		.ascii	"\022\257\001\326\256\032\216"
 131      AE1A8E
 132              		.text
 133              		.section	.gnu.lto_test_001_001_execute.bca81873edb5e780,"",%progbits
 134 0000 789C6362 		.ascii	"x\234cb`b@\007\222@\254\311\302\300\300\303\310\300"
 134      60624007 
 134      9240ACC9 
 134      C2C0C0C3 
 134      C8C0
 135 0012 C0C8CCC0 		.ascii	"\300\310\314\300\3104\341\034\003C#\007\023##\210\301"
 135      C834E11C 
 135      03432307 
 135      13232388 
 135      C1
 136 0023 C0C850CF 		.ascii	"\300\310P\317\304X\037\311\010V\273\236\351\300\203"
 136      C4581FC9 
 136      0856BB9E 
 136      E9C083
 137 0032 FFFFD7FD 		.ascii	"\377\377\327\375x\370h%\243\240\020P\200\225\241\245"
 137      78F86825 
 137      A3A01050 
 137      8095A1A5 
 138 0042 A1618202 		.ascii	"\241a\202\002\003C2XA\010\220\004\351\012ed\002\321"
 138      03433258 
 138      41089004 
 138      E90A6564 
 138      02D1
 139 0054 CC67199A 		.ascii	"\314g\031\232v\374\270\317\230\310\270\220\221\225a"
 139      76FCB8CF 
 139      98C8B890 
 139      919561
 140 0063 36C3ACC6 		.ascii	"6\303\254\306\206\006\201LF\206j\206_\015\035 \026c"
 140      8606814C 
 140      46866A86 
 140      5F0D1D20 
 140      1663
 141 0075 2E585B04 		.ascii	".X[\004#\220\311\000c1\200\230\347\031Z\036t.\346\202"
 141      2390C900 
 141      63318098 
 141      E7195A1E 
 141      742EE682 
 142 0089 E86440E8 		.ascii	"\350d@\350`J\206\252\004\211\314hh\010\315dd\226c0\231"
 142      604A86AA 
 142      0489CC68 
 142      6808CD64 
 142      64966330 
 143 009e DB30C321 		.ascii	"\3330\303!\223\221\205\001\252>\023D\200\214\350z\314"
 143      93918501 
ARM GAS  /tmp/ccx8yv7a.s 			page 11


 143      AA3E1344 
 143      808CE87A 
 143      CC
 144 00af 8ECD0826 		.ascii	"\216\315\010&d#\0023\031\331\344\030\342!F\260\243\033"
 144      64230233 
 144      19D9E418 
 144      E22146B0 
 144      A31B
 145 00c1 B1A09B19 		.ascii	"\261\240\233\031\303\004\216d`@\301\234\313\311\010"
 145      C3048E64 
 145      6040C19C 
 145      CBC908
 146 00d0 54CB05B1 		.ascii	"T\313\005\261\256\2078\027s\313140B\354\343\301pr/\321"
 146      AE873817 
 146      73CB3134 
 146      3042ECE3 
 146      C170722F 
 147 00e5 4E6E62C4 		.ascii	"Nnb\304\341\346\007}\304\271\203W\216a1\324\014>\014"
 147      E1E6077D 
 147      C4B98357 
 147      8E6131D4 
 147      0C3E0C
 148 00f8 33FA8976 		.ascii	"3\372\211v\307*\\\356X0\203P\330\261 \302n&\025\302"
 148      C72A5CEE 
 148      58308350 
 148      D8B120C2 
 148      6E2615C2 
 149 010c 6E16D16E 		.ascii	"n\026\321n>\215\323\315\263\011\271\231\001\341\346"
 149      3E8DD3CD 
 149      B309B999 
 149      01E1E6
 150 011b 395470F3 		.ascii	"9Tp\363\\\242\335\374\006\247\233\347\021r3\023\302"
 150      5CA2DDFC 
 150      06A79BE7 
 150      11723313 
 150      C2
 151 012c CDF32974 		.ascii	"\315\363)t\363E\206\306\007+\225aF@@\010P;0\277\203"
 151      F34586C6 
 151      072B9561 
 151      46404008 
 151      503B30BF 
 152 0141 DC6CA8A7 		.ascii	"\334l\250\247\247\017A%\251\305%\372E%\372\305\371\245"
 152      A70F4125 
 152      A9C525FA 
 152      4525FAC5 
 152      F9A5
 153 0153 45C9A910 		.ascii	"E\311\251\020.\210\210/N-,M\315KN\215700\324Kf\320\322"
 153      2E88882F 
 153      4E2D2C4D 
 153      CD4B4E8D 
 153      373030D4 
 154 016b D5D55508 		.ascii	"\325\325U\010(\312O)M.\261R\300\004\316\031\231I\231"
 154      28CA4F29 
 154      4D2EB152 
 154      C004CE19 
 154      994999
 155 017e FEC1FA41 		.ascii	"\376\301\372A!\014\012 \245\301%\211I9\251\012n9\211"
ARM GAS  /tmp/ccx8yv7a.s 			page 12


 155      210C0A20 
 155      A5C12589 
 155      4939A90A 
 155      6E3989
 156 0191 E9E8CA81 		.ascii	"\351\350\312\201E\007XIXjQqf~\036PiQf\036\252*\0066"
 156      45075849 
 156      586A5171 
 156      667E1E50 
 156      6951661E 
 157 01a9 133D033D 		.ascii	"\023=\003=#\210:\337\304\254\374\"\005\277\322\334\244"
 157      23883ADF 
 157      C4ACFC22 
 157      05BFD2DC 
 157      A4
 158 01ba D42234B3 		.ascii	"\324\"4\263\240\0122\363\360+\010H,I\316\300\241\000"
 158      A00A32F3 
 158      F02B0848 
 158      2C49CEC0 
 158      A100
 159 01cc 00ED4748 		.ascii	"\000\355GHC"
 159      43
 160              		.text
 161              		.section	.gnu.lto_.symbol_nodes.bca81873edb5e780,"",%progbits
 162 0000 789C4D93 		.ascii	"x\234M\223]\212\032Q\020F\353V\353\350.\262\212,hVr"
 162      5D8A1A51 
 162      1046EB56 
 162      EBE82EB2 
 162      8A2C6856 
 163 0015 070A46A2 		.ascii	"\007\012F\242\240AAA\203>\364F\006\372=\033\310\337"
 163      A0414141 
 163      833EF446 
 163      06FA3D1B 
 163      C8DF
 164 0027 38171474 		.ascii	"8\027\024tPp\236\023\322\351:\225\304\227\272}>9\337"
 164      50709E13 
 164      D2E93A95 
 164      C497BA7D 
 164      3E39DF
 165 003a D3A7A2F2 		.ascii	"\323\247\242\362\276'\376\323o)\213|\374,\222\363\247"
 165      BE27FED3 
 165      6F298B7C 
 165      FC2C92F3 
 165      A7
 166 004b 0FF7FDE7 		.ascii	"\017\367\375\347\324\276D\277\244\234\376\243?R\352"
 166      D4BE44BF 
 166      A49CFEA3 
 166      3F52EA
 167 005a 67E97F4D 		.ascii	"g\351\177M\332\313U\377{\252\332\223J\312\352\377yx"
 167      DACB55FF 
 167      7BAADA93 
 167      4ACAEAFF 
 167      7978
 168 006c 48E925E5 		.ascii	"H\351%\345\352\337\327>\345\336\337\257J\206R?\377j"
 168      EADFD73E 
 168      E5DEDFAF 
 168      4A86523F 
 168      FF6A
ARM GAS  /tmp/ccx8yv7a.s 			page 13


 169 007e EF409AEE 		.ascii	"\357@\232\356\336I\351\356Pl\357\274\336;o\366\316\013"
 169      DE49E9EE 
 169      506CEFBC 
 169      DE3B6FF6 
 169      CE0B
 170 0090 DC1E5FDF 		.ascii	"\334\036_\337\375\341uw\207\322tw \005n#\347\365\310"
 170      FDE17577 
 170      87D27477 
 170      20056E23 
 170      E7F5C8
 171 00a3 7933725E 		.ascii	"y3r^\3406v^\217\2357c\347\005n\023\374\023\374\023\374"
 171      E036765E 
 171      8F9D3763 
 171      E7056E13 
 171      FC13FC13 
 172 00b8 709BE29F 		.ascii	"p\233\342\237\342\237\342\207\333\014\377\014\377\014"
 172      E29FE287 
 172      DB0CFF0C 
 172      FF0C
 173 00c6 3FDCE6F8 		.ascii	"?\334\346\370\347\370\347\370\341\266\300\277\300\277"
 173      E7F8E7F8 
 173      E1B6C0BF 
 173      C0BF
 174 00d4 C00FB725 		.ascii	"\300\017\267%\376%\376%~\270\255\360\257\360\257\360"
 174      FE25FE25 
 174      7EB8ADF0 
 174      AFF0AFF0 
 175 00e4 C36D8D7F 		.ascii	"\303m\215\177\215\177\215\037n\033\374\033\374\033\374"
 175      8D7F8D1F 
 175      6E1BFC1B 
 175      FC1BFC
 176 00f3 70DBE2DF 		.ascii	"p\333\342\337\342\337\342\207\333\016\377\016\377\016"
 176      E2DFE287 
 176      DB0EFF0E 
 176      FF0E
 177 0101 3FDC5E9E 		.ascii	"?\334^\236~V]\201?\332\006\177\264\025\021Y!\252\013"
 177      7E565D81 
 177      3FDA067F 
 177      B4151159 
 177      21AA0B
 178 0114 5153884A 		.ascii	"QS\210JDv \252\017D\315\201\250Dd\307\350:F\3271\272"
 178      447620AA 
 178      0F44CD81 
 178      A84464C7 
 178      E83A46D7 
 179 012a 22B25374 		.ascii	"\"\262St\235\242\353\024]\021\3319\272\316\321u\216"
 179      9DA2EB14 
 179      5D11D939 
 179      BACED175 
 179      8E
 180 013b AE88EC12 		.ascii	"\256\210\354\022]\227\350\272DWDv\215\256kt]\243+\""
 180      5D97E8BA 
 180      44574476 
 180      8DAE6B74 
 180      5DA32B22 
 181 014f BB45D72D 		.ascii	"\273E\327-\272n\321\025\221\275E\327[tu\017\275\363"
 181      BA6ED115 
ARM GAS  /tmp/ccx8yv7a.s 			page 14


 181      91BD45D7 
 181      5B74750F 
 181      BDF3
 182 0161 59E9D067 		.ascii	"Y\351\320g\245\003\237U\313\273Y\265\274\233\2252+e"
 182      A5039F55 
 182      CBBB59B5 
 182      BC9B9532 
 182      2B65
 183 0173 56CAAC94 		.ascii	"V\312\254\224Y)\263Rf\245\314J\231\2252+\365Y\311o\241"
 183      5929B352 
 183      66A5CC4A 
 183      9995322B 
 183      F559C96F 
 184 0188 A35D19   		.ascii	"\243]\031"
 185              		.text
 186              		.section	.gnu.lto_.refs.bca81873edb5e780,"",%progbits
 187 0000 789C25C2 		.ascii	"x\234%\302\201\011\000 \014\300\260\266\316\033\374"
 187      81090020 
 187      0CC0B0B6 
 187      CE1BFC
 188 000f FF530543 		.ascii	"\377S\005C\"\016\237\250\275\253i;\345\016.\005H\000"
 188      220E9FA8 
 188      BDAB693B 
 188      E50E2E05 
 188      4800
 189 0021 47       		.ascii	"G"
 190              		.text
 191              		.section	.gnu.lto_.decls.bca81873edb5e780,"",%progbits
 192 0000 789C9D56 		.ascii	"x\234\235Vkh\034U\024>w\362\\\263l\232\242%\005i\266"
 192      6B681C55 
 192      143E77F2 
 192      5CB36C9A 
 192      A2250569 
 193 0015 420503DD 		.ascii	"B\005\003\335\311&\376\224R\221RE\364O)\010\012\353"
 193      C926FE94 
 193      52915245 
 193      F44F2908 
 193      0AEB
 194 0027 6473352B 		.ascii	"ds5+\311l\334\235\305\202\177\256\0214H\321m|\345Gk"
 194      C96CDC9D 
 194      C5827FAE 
 194      113448D1 
 194      6D7CE547 
 195 003c 933ED5D6 		.ascii	"\223>\325\326\364\225\266)\006\231\006\233\306Vc\212"
 195      F495B629 
 195      0699069B 
 195      C656638A 
 196 004c 452B6A59 		.ascii	"E+jY\264\255\017T\222B\037(q=3\367\316\316\354\316\214"
 196      B4AD0F54 
 196      92421F28 
 196      713D33F7 
 196      CECEECCE 
 197 0061 BBEB2567 		.ascii	"\273\353%gr\347\316=\337\371\316w\357=w%\220\340\001"
 197      72E7CE3D 
 197      DFF9CE77 
 197      EF3D7725 
 197      90E001
ARM GAS  /tmp/ccx8yv7a.s 			page 15


 198 0074 0290C7F6 		.ascii	"\002\220\307\366T\010`;\366k\000`\035Z\000m\014m\027"
 198      5408603B 
 198      F66B0060 
 198      1D5A006D 
 198      0C6D17
 199 0087 DA7EB403 		.ascii	"\332~\264\003h\007\321\306\321\016\241\035A;\012\274"
 199      6807D1C6 
 199      D10EA11D 
 199      413B0ABC 
 200 0097 D5A14DA0 		.ascii	"\325\241M\240M\242}\214v\032\355\014Z-\332Y\264\317"
 200      4DA27D8C 
 200      761AED0C 
 200      5A2DDA59 
 200      B4CF
 201 00a9 D07E44FB 		.ascii	"\320~D\373\035\212\233\341\323$\374o\240\335t\304\231"
 201      1D8A9BE1 
 201      D324FC6F 
 201      A0DD74C4 
 201      99
 202 00ba 42BB2562 		.ascii	"B\273%bO;\270\200\300\235\0201N\213\230D\304r6\203O"
 202      4F3BB880 
 202      C09D1031 
 202      4E8B9844 
 202      C4723683 
 203 00cf 7309BEC5 		.ascii	"s\011\276\305{\312\021\313+\216\225\247\025\317\312"
 203      7BCA11CB 
 203      2B8E95A7 
 203      15CFCA
 204 00de CD8AE915 		.ascii	"\315\212\351\025\257\011^cl\220\215\276\302\036\236"
 204      AF095E63 
 204      6C908DBE 
 204      C21E9E
 205 00ed 0DB54096 		.ascii	"\015\265@\226a\313\325\215\204\0020d\214\347\366\262"
 205      61CBD58D 
 205      84023064 
 205      8CE7F6B2 
 206 00fd D6568027 		.ascii	"\326V\200'\210Bp\250\321\354\004\003&\322\032\330\203"
 206      884270A8 
 206      D1EC0403 
 206      26D21AD8 
 206      83
 207 010e 73D14152 		.ascii	"s\321AR\310n\022\300u\221\010x6\376\335h\206;\357[\275"
 207      C86E12C0 
 207      75910878 
 207      36FEDD68 
 207      863BEF5B 
 208 0123 3CF14637 		.ascii	"<\361F7\274v\221\026\263gra\202\2439Cx\204-\217Z\341"
 208      BC769116 
 208      B3677261 
 208      82A33943 
 208      78842D8F 
 209 0139 B1CF1127 		.ascii	"\261\317\021'\030pv\2400\356\3457F\232\254)\"q\036\314"
 209      187076A0 
 209      30EEE537 
 209      469AAC29 
 209      22711ECC 
 210 014d DBC3CC3C 		.ascii	"\333\303\314<\233{\343\267\333\022c\215\012\331of\377"
ARM GAS  /tmp/ccx8yv7a.s 			page 16


 210      9B7BE3B7 
 210      DB12638D 
 210      0AD96F66 
 210      FF
 211 015e 248176F8 		.ascii	"$\201v\370\200K2\330\345%\205B\032\002\256w\205|H\332"
 211      804B32D8 
 211      E5258542 
 211      1A02AE77 
 211      857C48DA 
 212 0172 05B58680 		.ascii	"\005\265\206\200\33516x\263\367\372\204GB\\<A\216I\026"
 212      DD313678 
 212      B3F7FA84 
 212      47425C3C 
 212      418E4916 
 213 0186 BBB0C03D 		.ascii	"\273\260\300=X\265r\037\371(\327VF\271\003\266r\225"
 213      58B5721F 
 213      F928D756 
 213      46B903B6 
 213      7295
 214 0198 50EDB0FC 		.ascii	"P\355\260\374\353\205\377\241\252\231\036\366aZW\206"
 214      EB85FFA1 
 214      AA991EF6 
 214      615A5786 
 215 01a8 E978754C 		.ascii	"\351xuL\347\013\242\266\013\200\243US=\346C\365\276"
 215      E70BA2B6 
 215      0B80A355 
 215      533DE643 
 215      F5BE
 216 01ba 32548FD8 		.ascii	"2T\217\330T\333\340=\246/\344N\236\275v\201l{\231\315"
 216      54DBE03D 
 216      A62FE44E 
 216      9EBD7681 
 216      6C7B99CD 
 217 01ce B205635B 		.ascii	"\262\005c[\254\200\267\005\005F4\205\254\273\313\027"
 217      AC80B705 
 217      05463485 
 217      ACBBCB17 
 218 01de EA385921 		.ascii	"\3528Y!z\233k8\242\004;\010)l;\336\356\205\275\006\036"
 218      7A9B6B38 
 218      A2043B08 
 218      296C3BDE 
 218      EE85BD06 
 219 01f3 7B9FD598 		.ascii	"{\237\325\230h\306\374\011\322\006\216\246\220\023D"
 219      68C6FC09 
 219      D2068EA6 
 219      901344
 220 0202 720E7066 		.ascii	"r\016pf\372m\3129\361P\022\034\255\010|\262\024\374"
 220      FA6DCA39 
 220      F150121C 
 220      AD087CB2 
 220      14FC
 221 0214 941B3C97 		.ascii	"\224\033<\227\315\355\234\373s\020\323\036\255:\355"
 221      CDED9CFB 
 221      7310D31E 
 221      AD3AED
 222 0223 2991760D 		.ascii	")\221v\015H\256\005/\2246\275u$\344]}\024\262\207\254"
 222      48AE052F 
ARM GAS  /tmp/ccx8yv7a.s 			page 17


 222      9436BD75 
 222      24E45D7D 
 222      14B287AC 
 223 0237 A9B46EB9 		.ascii	"\251\264n\271\202\177b/\237-\273\251\374\025\2278|\222"
 223      827F622F 
 223      9F2DBBA9 
 223      FC159738 
 223      7C92
 224 0249 EE95BD7E 		.ascii	"\356\225\275~\342\374VF\262/\345\362\371\266\3123\237"
 224      E2FC5646 
 224      B22FE5F2 
 224      F9B6CA33 
 224      9F
 225 025a 2ECE9C57 		.ascii	".\316\234W\247\022\032\213>4>\365\2441i\323\340\302"
 225      A7121A8B 
 225      3E343EF5 
 225      A43169D3 
 225      E0C2
 226 026c 4AB0E403 		.ascii	"J\260\344\0030S\014p\017\214\261\321a}\351\334[+\331"
 226      30530C70 
 226      0F8CB1D1 
 226      617DE9DC 
 226      5B2BD9
 227 027f D82063FF 		.ascii	"\330 c\377\344\363H\266\316\250\226C\222\205\340\227"
 227      E4F348B6 
 227      CEA89643 
 227      9285E097 
 228 028f C8AC8D65 		.ascii	"\310\254\215e\340\034\326\361\020\\\331M\336dx\010\230"
 228      E01CD6F1 
 228      105CD94D 
 228      DE647808 
 228      98
 229 02a0 8E486DD6 		.ascii	"\216Hm\326\311\235\015\025\326W\307\365]\016\333L\255"
 229      C99D0D15 
 229      D657C7F5 
 229      5D0EDB4C 
 229      AD
 230 02b1 502A4705 		.ascii	"P*G\005g\304\012\260\014\012%|\347\353g\242X\302\205"
 230      67C40AB0 
 230      0C0A257C 
 230      E7EB67A2 
 230      58C285
 231 02c4 47D877BA 		.ascii	"G\330w\272B\276\300\375Pv\2321\361K\262\\$\306/H\375"
 231      42BEC0FD 
 231      50769A31 
 231      F14BB25C 
 231      24C62F48 
 232 02d9 6F1AE6A3 		.ascii	"o\032\346\243\340!\231h\253\001\331\016\352KK\263\204"
 232      E0219968 
 232      AB01D90E 
 232      EA4B4BB3 
 232      84
 233 02ea 0D07F90E 		.ascii	"\015\007\371\016\222`\330\324\310p\365\322\250\350j"
 233      9260D8D4 
 233      C870F5D2 
 233      A8E86A
 234 02f9 13138AE1 		.ascii	"\023\023\212\341\362\277\232pE\233\237\037S?\315/b\\"
ARM GAS  /tmp/ccx8yv7a.s 			page 18


 234      F2BF9A70 
 234      459B9F1F 
 234      533FCD2F 
 234      625C
 235 030b 074909DE 		.ascii	"\007I\011\336\255\232B\270\210Bv&\230U8.\326\235J\300"
 235      AD9A42B8 
 235      88427626 
 235      9855382E 
 235      D69D4AC0 
 236 031f 1AFDF319 		.ascii	"\032\375\363\031v\202\355\253\032,\\\":OT!\363\346Q"
 236      7682EDAB 
 236      1A2C5C22 
 236      3A4F5421 
 236      F3E651
 237 0332 BF4056E3 		.ascii	"\277@V\343\363+\363\371\265\371\274\204\317B\223`\\"
 237      F32BF3F9 
 237      B5F9BC84 
 237      CF429360 
 237      5C
 238 0343 2ADEF3D6 		.ascii	"*\336\363\326\242:\360\354\265\207\362\210\336kP\262"
 238      A23AF0EC 
 238      B587F288 
 238      DE6B50B2 
 239 0353 589FFBE4 		.ascii	"X\237\373\344g\340\177g\227\231b\310\247\255\231As\324"
 239      67E07F67 
 239      979962C8 
 239      A7AD9941 
 239      73D4
 240 0365 3E26DCC7 		.ascii	">&\334\307{\226B\276\257\372~\373\301\347~s\026\001"
 240      7B9642BE 
 240      AFFA7EFB 
 240      C1E77E73 
 240      1601
 241 0377 7B160E9F 		.ascii	"{\026\016\237*=\365.\022\227\361\324\257\202\363\322"
 241      2A3DF52E 
 241      1297F1D4 
 241      AF82F3D2 
 242 0387 0EC6D7EE 		.ascii	"\016\306\327\356~8\306\206\364\016\205\234Cv\205]\361"
 242      7E38C686 
 242      F40E859C 
 242      4376855D 
 242      F1
 243 0398 22FCC546 		.ascii	"\"\374\305FX\356\344\253W\273xNF\205\230\237\327\277"
 243      58EEE4AB 
 243      57BB784E 
 243      4685989F 
 243      D7BF
 244 03aa 99D94ED8 		.ascii	"\231\331N\330h\241\322\030\352Ip\2654\250\373\320\376"
 244      68A1D218 
 244      EA4970B5 
 244      34A8FBD0 
 244      FE
 245 03bb 246A0D8F 		.ascii	"$j\015\217\266\236{\362\025\344\241\364ogH%\277\032"
 245      B69E7BF2 
 245      15E4A1F4 
 245      6F674825 
 245      BF1A
ARM GAS  /tmp/ccx8yv7a.s 			page 19


 246 03cd 5CF9FC5C 		.ascii	"\\\371\374\\\265\250\277\370\210j-\266\237\3375{;\254"
 246      B5A8BFF8 
 246      886A2DB6 
 246      9FDF357B 
 246      3BAC
 247 03df 82EB28E0 		.ascii	"\202\353(\340\310z;<\337\207\206\307Es\032\337\221\316"
 247      C87A3B3C 
 247      DF8786C7 
 247      45731ADF 
 247      91CE
 248 03f1 F74B22D7 		.ascii	"\367K\"\327!\246_\256\267*\201\363\232\026q\211\245"
 248      21A65FAE 
 248      B72A81F3 
 248      9A167189 
 248      A5
 249 0402 C83BCDC5 		.ascii	"\310;\315\305\322\317yH\237//\375\037\345\245\237\253"
 249      D2CF7948 
 249      9F2F2FFD 
 249      1FE5A59F 
 249      AB
 250 0413 487A37F4 		.ascii	"Hz7\364b\325\332_\367\321\276\271\214\366\013N\355\267"
 250      62D5DA5F 
 250      F7D1BEB9 
 250      8CF60B4E 
 250      EDB7
 251 0425 D670ED17 		.ascii	"\326p\355\027\377\227\366!K\373\011\267\366\374'\251"
 251      FF97F621 
 251      4BFB09B7 
 251      F6FC27A9 
 252 0435 75EE4B4A 		.ascii	"u\356KJE\235\177Z7|~\372\362\353\334\317\353\246\257"
 252      459D7F5A 
 252      377C7EFA 
 252      F2EBDCCF 
 252      EBA6AF
 253 0448 D7F47F78 		.ascii	"\327\364\177x\335rT\245\332x\257\222\332$\367&\373\251"
 253      DD7254A5 
 253      DA78AF92 
 253      DA24F726 
 253      FBA9
 254 045a FC5CA62F 		.ascii	"\374\\\246/\241\250\362c\0336>(\247i?Mk)\032Kl\2217"
 254      A1A8F263 
 254      1B363E28 
 254      A7693F4D 
 254      6B291A4B 
 255 0471 F477D3EE 		.ascii	"\364w\323\356DO2-+\251\376\265\235\035\321\256H4j\366"
 255      444F322D 
 255      2BA9FEB5 
 255      9D1DD1AE 
 255      48346AF6 
 256 0485 D5A44AD7 		.ascii	"\325\244J\327R\245;!'\324x_\246\207\312i\255'\241j\221"
 256      52A53B21 
 256      27D4785F 
 256      A687CA69 
 256      AD27A16A 
 257 049a 5E68CCE0 		.ascii	"^h\314\340\377\256\316\230V\277\361\361\315\341\207"
 257      FFAECE98 
 257      56BFF1F1 
ARM GAS  /tmp/ccx8yv7a.s 			page 20


 257      CDE187
 258 04a9 201A89C8 		.ascii	" \032\211\310\374OC`9\245\311\351d&\025\247\374\325"
 258      FC4F4360 
 258      39A5C9E9 
 258      642615A7 
 258      FCD5
 259 04bb 78C4D2F4 		.ascii	"x\304\322\364\371\014U\3434\326\321\021\215\304\341"
 259      F90C55E3 
 259      34D6D111 
 259      8DC4E1
 260 04ca 4E7310FB 		.ascii	"Ns\020\373h\2351\272\205\3063\032u\016F\255\301\273"
 260      689D31BA 
 260      85C6331A 
 260      750E46AD 
 260      C1BB
 261 04dc 8BB1FB12 		.ascii	"\213\261\373\022\335r\2747f\364\221H\320\364\030H!\235"
 261      DD72BC37 
 261      66F49148 
 261      D0F41848 
 261      219D
 262 04ee 3EB5C97E 		.ascii	">\265\311~Q\357\260\373\001\036_\243\003\265\252\322"
 262      51EFB0FB 
 262      011E5FA3 
 262      03B5AAD2 
 263 04fe 4FEBD254 		.ascii	"O\353\322T\313\0144jTI\365$_P\033D\030\323!\256\244"
 263      CB0C346A 
 263      5449F524 
 263      5F501B44 
 263      18D321AE 
 264 0513 694C6B71 		.ascii	"iLkq\021^\031I%{\024M\211\270\276\004\235\224\203\217"
 264      115E1949 
 264      257B144D 
 264      89B8BE04 
 264      9D94838F 
 265 0527 D2944AFB 		.ascii	"\322\224J\373\302\217\250\317$\301\371\245s\231\370"
 265      C28FA8CF 
 265      24C1F9A5 
 265      7399F8
 266 0536 B2896A5A 		.ascii	"\262\211jZB}6\015\377\002\367\004b\332"
 266      427D360D 
 266      FF02F704 
 266      62DA
 267              		.text
 268              		.section	.gnu.lto_.symtab.bca81873edb5e780,"",%progbits
 269 0000 74657374 		.ascii	"test_sequence_001\000\000\000\000\000\000\000\000\000"
 269      5F736571 
 269      75656E63 
 269      655F3030 
 269      31000000 
 270 001a 000000C9 		.ascii	"\000\000\000\311\000\000\000test_step\000\000\002\000"
 270      00000074 
 270      6573745F 
 270      73746570 
 270      00000200 
 271 002e 00000000 		.ascii	"\000\000\000\000\000\000\000\000\307\000\000\000tes"
 271      00000000 
 271      C7000000 
ARM GAS  /tmp/ccx8yv7a.s 			page 21


 271      746573
 272 003d 745F7072 		.ascii	"t_println\000\000\002\000\000\000\000\000\000\000\000"
 272      696E746C 
 272      6E000002 
 272      00000000 
 272      00000000 
 273 0051 00BB0000 		.ascii	"\000\273\000\000\000test_printn\000\000\002\000\000"
 273      00746573 
 273      745F7072 
 273      696E746E 
 273      00000200 
 274 0066 00000000 		.ascii	"\000\000\000\000\000\000\000\301\000\000\000test_pr"
 274      000000C1 
 274      00000074 
 274      6573745F 
 274      7072
 275 0078 696E7400 		.ascii	"int\000\000\002\000\000\000\000\000\000\000\000\000"
 275      00020000 
 275      00000000 
 275      000000
 276 0087 C5000000 		.ascii	"\305\000\000\000"
 277              		.text
 278              		.section	.gnu.lto_.opts,"",%progbits
 279 0000 272D6D63 		.ascii	"'-mcpu=cortex-m3' '-mno-thumb-interwork' '-mthumb' "
 279      70753D63 
 279      6F727465 
 279      782D6D33 
 279      2720272D 
 280 0033 272D6767 		.ascii	"'-ggdb' '-O2' '-fomit-frame-pointer' '-falign-funct"
 280      64622720 
 280      272D4F32 
 280      2720272D 
 280      666F6D69 
 281 0066 696F6E73 		.ascii	"ions=16' '-ffunction-sections' '-fdata-sections' '-"
 281      3D313627 
 281      20272D66 
 281      66756E63 
 281      74696F6E 
 282 0099 666E6F2D 		.ascii	"fno-common' '-flto'\000"
 282      636F6D6D 
 282      6F6E2720 
 282      272D666C 
 282      746F2700 
 283              		.text
 284              		.cfi_sections	.debug_frame
 285              		.section	.text.test_001_002_execute,"ax",%progbits
 286              		.align	2
 287              		.p2align 4,,15
 288              		.thumb
 289              		.thumb_func
 290              		.type	test_001_002_execute, %function
 291              	test_001_002_execute:
 292              	.LFB220:
 293              		.file 1 "../../../test/rt/source/test/test_sequence_001.c"
 294              		.loc 1 101 0
 295              		.cfi_startproc
 296              		@ args = 0, pretend = 0, frame = 0
ARM GAS  /tmp/ccx8yv7a.s 			page 22


 297              		@ frame_needed = 0, uses_anonymous_args = 0
 298 0000 38B5     		push	{r3, r4, r5, lr}
 299              		.cfi_def_cfa_offset 16
 300              		.cfi_offset 3, -16
 301              		.cfi_offset 4, -12
 302              		.cfi_offset 5, -8
 303              		.cfi_offset 14, -4
 304              		.loc 1 106 0
 305 0002 40F20000 		movw	r0, #:lower16:.LC0
 306              		.loc 1 104 0
 307 0006 40F20003 		movw	r3, #:lower16:test_step
 308 000a C0F20003 		movt	r3, #:upper16:test_step
 309 000e 0125     		movs	r5, #1
 310              		.loc 1 106 0
 311 0010 C0F20000 		movt	r0, #:upper16:.LC0
 312              		.loc 1 108 0
 313 0014 40F20004 		movw	r4, #:lower16:.LC1
 314              		.loc 1 104 0
 315 0018 1D60     		str	r5, [r3]
 316              		.loc 1 108 0
 317 001a C0F20004 		movt	r4, #:upper16:.LC1
 318              		.loc 1 106 0
 319 001e FFF7FEFF 		bl	test_print
 320              	.LVL0:
 321              		.loc 1 107 0
 322 0022 1020     		movs	r0, #16
 323 0024 FFF7FEFF 		bl	test_printn
 324              	.LVL1:
 325              		.loc 1 108 0
 326 0028 2046     		mov	r0, r4
 327 002a FFF7FEFF 		bl	test_println
 328              	.LVL2:
 329              		.loc 1 109 0
 330 002e 40F20000 		movw	r0, #:lower16:.LC2
 331 0032 C0F20000 		movt	r0, #:upper16:.LC2
 332 0036 FFF7FEFF 		bl	test_print
 333              	.LVL3:
 334              		.loc 1 110 0
 335 003a 4FF47A70 		mov	r0, #1000
 336 003e FFF7FEFF 		bl	test_printn
 337              	.LVL4:
 338              		.loc 1 111 0
 339 0042 2046     		mov	r0, r4
 340 0044 FFF7FEFF 		bl	test_println
 341              	.LVL5:
 342              		.loc 1 112 0
 343 0048 40F20000 		movw	r0, #:lower16:.LC3
 344 004c C0F20000 		movt	r0, #:upper16:.LC3
 345 0050 FFF7FEFF 		bl	test_print
 346              	.LVL6:
 347              		.loc 1 113 0
 348 0054 0220     		movs	r0, #2
 349 0056 FFF7FEFF 		bl	test_printn
 350              	.LVL7:
 351              		.loc 1 114 0
 352 005a 2046     		mov	r0, r4
 353 005c FFF7FEFF 		bl	test_println
ARM GAS  /tmp/ccx8yv7a.s 			page 23


 354              	.LVL8:
 355              		.loc 1 115 0
 356 0060 40F20000 		movw	r0, #:lower16:.LC4
 357 0064 C0F20000 		movt	r0, #:upper16:.LC4
 358 0068 FFF7FEFF 		bl	test_print
 359              	.LVL9:
 360              		.loc 1 116 0
 361 006c 0020     		movs	r0, #0
 362 006e FFF7FEFF 		bl	test_printn
 363              	.LVL10:
 364              		.loc 1 117 0
 365 0072 2046     		mov	r0, r4
 366 0074 FFF7FEFF 		bl	test_println
 367              	.LVL11:
 368              		.loc 1 118 0
 369 0078 40F20000 		movw	r0, #:lower16:.LC5
 370 007c C0F20000 		movt	r0, #:upper16:.LC5
 371 0080 FFF7FEFF 		bl	test_print
 372              	.LVL12:
 373              		.loc 1 119 0
 374 0084 0020     		movs	r0, #0
 375 0086 FFF7FEFF 		bl	test_printn
 376              	.LVL13:
 377              		.loc 1 120 0
 378 008a 2046     		mov	r0, r4
 379 008c FFF7FEFF 		bl	test_println
 380              	.LVL14:
 381              		.loc 1 121 0
 382 0090 40F20000 		movw	r0, #:lower16:.LC6
 383 0094 C0F20000 		movt	r0, #:upper16:.LC6
 384 0098 FFF7FEFF 		bl	test_print
 385              	.LVL15:
 386              		.loc 1 122 0
 387 009c 0020     		movs	r0, #0
 388 009e FFF7FEFF 		bl	test_printn
 389              	.LVL16:
 390              		.loc 1 123 0
 391 00a2 2046     		mov	r0, r4
 392 00a4 FFF7FEFF 		bl	test_println
 393              	.LVL17:
 394              		.loc 1 124 0
 395 00a8 40F20000 		movw	r0, #:lower16:.LC7
 396 00ac C0F20000 		movt	r0, #:upper16:.LC7
 397 00b0 FFF7FEFF 		bl	test_print
 398              	.LVL18:
 399              		.loc 1 125 0
 400 00b4 2846     		mov	r0, r5
 401 00b6 FFF7FEFF 		bl	test_printn
 402              	.LVL19:
 403              		.loc 1 126 0
 404 00ba 2046     		mov	r0, r4
 405 00bc FFF7FEFF 		bl	test_println
 406              	.LVL20:
 407              		.loc 1 127 0
 408 00c0 40F20000 		movw	r0, #:lower16:.LC8
 409 00c4 C0F20000 		movt	r0, #:upper16:.LC8
 410 00c8 FFF7FEFF 		bl	test_print
ARM GAS  /tmp/ccx8yv7a.s 			page 24


 411              	.LVL21:
 412              		.loc 1 128 0
 413 00cc 0020     		movs	r0, #0
 414 00ce FFF7FEFF 		bl	test_printn
 415              	.LVL22:
 416              		.loc 1 129 0
 417 00d2 2046     		mov	r0, r4
 418 00d4 FFF7FEFF 		bl	test_println
 419              	.LVL23:
 420              		.loc 1 130 0
 421 00d8 40F20000 		movw	r0, #:lower16:.LC9
 422 00dc C0F20000 		movt	r0, #:upper16:.LC9
 423 00e0 FFF7FEFF 		bl	test_print
 424              	.LVL24:
 425              		.loc 1 131 0
 426 00e4 2846     		mov	r0, r5
 427 00e6 FFF7FEFF 		bl	test_printn
 428              	.LVL25:
 429              		.loc 1 132 0
 430 00ea 2046     		mov	r0, r4
 431 00ec FFF7FEFF 		bl	test_println
 432              	.LVL26:
 433              		.loc 1 133 0
 434 00f0 40F20000 		movw	r0, #:lower16:.LC10
 435 00f4 C0F20000 		movt	r0, #:upper16:.LC10
 436 00f8 FFF7FEFF 		bl	test_print
 437              	.LVL27:
 438              		.loc 1 134 0
 439 00fc 2846     		mov	r0, r5
 440 00fe FFF7FEFF 		bl	test_printn
 441              	.LVL28:
 442              		.loc 1 135 0
 443 0102 2046     		mov	r0, r4
 444 0104 FFF7FEFF 		bl	test_println
 445              	.LVL29:
 446              		.loc 1 136 0
 447 0108 40F20000 		movw	r0, #:lower16:.LC11
 448 010c C0F20000 		movt	r0, #:upper16:.LC11
 449 0110 FFF7FEFF 		bl	test_print
 450              	.LVL30:
 451              		.loc 1 137 0
 452 0114 2846     		mov	r0, r5
 453 0116 FFF7FEFF 		bl	test_printn
 454              	.LVL31:
 455              		.loc 1 138 0
 456 011a 2046     		mov	r0, r4
 457 011c FFF7FEFF 		bl	test_println
 458              	.LVL32:
 459              		.loc 1 139 0
 460 0120 40F20000 		movw	r0, #:lower16:.LC12
 461 0124 C0F20000 		movt	r0, #:upper16:.LC12
 462 0128 FFF7FEFF 		bl	test_print
 463              	.LVL33:
 464              		.loc 1 140 0
 465 012c 0020     		movs	r0, #0
 466 012e FFF7FEFF 		bl	test_printn
 467              	.LVL34:
ARM GAS  /tmp/ccx8yv7a.s 			page 25


 468              		.loc 1 141 0
 469 0132 2046     		mov	r0, r4
 470 0134 FFF7FEFF 		bl	test_println
 471              	.LVL35:
 472              		.loc 1 142 0
 473 0138 40F20000 		movw	r0, #:lower16:.LC13
 474 013c C0F20000 		movt	r0, #:upper16:.LC13
 475 0140 FFF7FEFF 		bl	test_print
 476              	.LVL36:
 477              		.loc 1 143 0
 478 0144 2846     		mov	r0, r5
 479 0146 FFF7FEFF 		bl	test_printn
 480              	.LVL37:
 481              		.loc 1 144 0
 482 014a 2046     		mov	r0, r4
 483 014c FFF7FEFF 		bl	test_println
 484              	.LVL38:
 485              		.loc 1 145 0
 486 0150 40F20000 		movw	r0, #:lower16:.LC14
 487 0154 C0F20000 		movt	r0, #:upper16:.LC14
 488 0158 FFF7FEFF 		bl	test_print
 489              	.LVL39:
 490              		.loc 1 146 0
 491 015c 0020     		movs	r0, #0
 492 015e FFF7FEFF 		bl	test_printn
 493              	.LVL40:
 494              		.loc 1 147 0
 495 0162 2046     		mov	r0, r4
 496 0164 FFF7FEFF 		bl	test_println
 497              	.LVL41:
 498              		.loc 1 148 0
 499 0168 40F20000 		movw	r0, #:lower16:.LC15
 500 016c C0F20000 		movt	r0, #:upper16:.LC15
 501 0170 FFF7FEFF 		bl	test_print
 502              	.LVL42:
 503              		.loc 1 149 0
 504 0174 2846     		mov	r0, r5
 505 0176 FFF7FEFF 		bl	test_printn
 506              	.LVL43:
 507              		.loc 1 150 0
 508 017a 2046     		mov	r0, r4
 509 017c FFF7FEFF 		bl	test_println
 510              	.LVL44:
 511              		.loc 1 151 0
 512 0180 40F20000 		movw	r0, #:lower16:.LC16
 513 0184 C0F20000 		movt	r0, #:upper16:.LC16
 514 0188 FFF7FEFF 		bl	test_print
 515              	.LVL45:
 516              		.loc 1 152 0
 517 018c 2846     		mov	r0, r5
 518 018e FFF7FEFF 		bl	test_printn
 519              	.LVL46:
 520              		.loc 1 153 0
 521 0192 2046     		mov	r0, r4
 522 0194 FFF7FEFF 		bl	test_println
 523              	.LVL47:
 524              		.loc 1 154 0
ARM GAS  /tmp/ccx8yv7a.s 			page 26


 525 0198 40F20000 		movw	r0, #:lower16:.LC17
 526 019c C0F20000 		movt	r0, #:upper16:.LC17
 527 01a0 FFF7FEFF 		bl	test_print
 528              	.LVL48:
 529              		.loc 1 155 0
 530 01a4 2846     		mov	r0, r5
 531 01a6 FFF7FEFF 		bl	test_printn
 532              	.LVL49:
 533              		.loc 1 156 0
 534 01aa 2046     		mov	r0, r4
 535 01ac FFF7FEFF 		bl	test_println
 536              	.LVL50:
 537              		.loc 1 157 0
 538 01b0 40F20000 		movw	r0, #:lower16:.LC18
 539 01b4 C0F20000 		movt	r0, #:upper16:.LC18
 540 01b8 FFF7FEFF 		bl	test_print
 541              	.LVL51:
 542              		.loc 1 158 0
 543 01bc 2846     		mov	r0, r5
 544 01be FFF7FEFF 		bl	test_printn
 545              	.LVL52:
 546              		.loc 1 159 0
 547 01c2 2046     		mov	r0, r4
 548 01c4 FFF7FEFF 		bl	test_println
 549              	.LVL53:
 550              		.loc 1 160 0
 551 01c8 40F20000 		movw	r0, #:lower16:.LC19
 552 01cc C0F20000 		movt	r0, #:upper16:.LC19
 553 01d0 FFF7FEFF 		bl	test_print
 554              	.LVL54:
 555              		.loc 1 161 0
 556 01d4 2846     		mov	r0, r5
 557 01d6 FFF7FEFF 		bl	test_printn
 558              	.LVL55:
 559              		.loc 1 162 0
 560 01da 2046     		mov	r0, r4
 561 01dc FFF7FEFF 		bl	test_println
 562              	.LVL56:
 563              		.loc 1 163 0
 564 01e0 40F20000 		movw	r0, #:lower16:.LC20
 565 01e4 C0F20000 		movt	r0, #:upper16:.LC20
 566 01e8 FFF7FEFF 		bl	test_print
 567              	.LVL57:
 568              		.loc 1 164 0
 569 01ec 0020     		movs	r0, #0
 570 01ee FFF7FEFF 		bl	test_printn
 571              	.LVL58:
 572              		.loc 1 165 0
 573 01f2 2046     		mov	r0, r4
 574 01f4 FFF7FEFF 		bl	test_println
 575              	.LVL59:
 576              		.loc 1 166 0
 577 01f8 40F20000 		movw	r0, #:lower16:.LC21
 578 01fc C0F20000 		movt	r0, #:upper16:.LC21
 579 0200 FFF7FEFF 		bl	test_print
 580              	.LVL60:
 581              		.loc 1 167 0
ARM GAS  /tmp/ccx8yv7a.s 			page 27


 582 0204 2846     		mov	r0, r5
 583 0206 FFF7FEFF 		bl	test_printn
 584              	.LVL61:
 585              		.loc 1 168 0
 586 020a 2046     		mov	r0, r4
 587 020c FFF7FEFF 		bl	test_println
 588              	.LVL62:
 589              		.loc 1 169 0
 590 0210 40F20000 		movw	r0, #:lower16:.LC22
 591 0214 C0F20000 		movt	r0, #:upper16:.LC22
 592 0218 FFF7FEFF 		bl	test_print
 593              	.LVL63:
 594              		.loc 1 170 0
 595 021c 2846     		mov	r0, r5
 596 021e FFF7FEFF 		bl	test_printn
 597              	.LVL64:
 598              		.loc 1 171 0
 599 0222 2046     		mov	r0, r4
 600 0224 FFF7FEFF 		bl	test_println
 601              	.LVL65:
 602              		.loc 1 172 0
 603 0228 40F20000 		movw	r0, #:lower16:.LC23
 604 022c C0F20000 		movt	r0, #:upper16:.LC23
 605 0230 FFF7FEFF 		bl	test_print
 606              	.LVL66:
 607              		.loc 1 173 0
 608 0234 2846     		mov	r0, r5
 609 0236 FFF7FEFF 		bl	test_printn
 610              	.LVL67:
 611              		.loc 1 174 0
 612 023a 2046     		mov	r0, r4
 613 023c FFF7FEFF 		bl	test_println
 614              	.LVL68:
 615              		.loc 1 175 0
 616 0240 40F20000 		movw	r0, #:lower16:.LC24
 617 0244 C0F20000 		movt	r0, #:upper16:.LC24
 618 0248 FFF7FEFF 		bl	test_print
 619              	.LVL69:
 620              		.loc 1 176 0
 621 024c 2846     		mov	r0, r5
 622 024e FFF7FEFF 		bl	test_printn
 623              	.LVL70:
 624              		.loc 1 177 0
 625 0252 2046     		mov	r0, r4
 626 0254 FFF7FEFF 		bl	test_println
 627              	.LVL71:
 628              		.loc 1 178 0
 629 0258 40F20000 		movw	r0, #:lower16:.LC25
 630 025c C0F20000 		movt	r0, #:upper16:.LC25
 631 0260 FFF7FEFF 		bl	test_print
 632              	.LVL72:
 633              		.loc 1 179 0
 634 0264 2846     		mov	r0, r5
 635 0266 FFF7FEFF 		bl	test_printn
 636              	.LVL73:
 637              		.loc 1 180 0
 638 026a 2046     		mov	r0, r4
ARM GAS  /tmp/ccx8yv7a.s 			page 28


 639 026c FFF7FEFF 		bl	test_println
 640              	.LVL74:
 641              		.loc 1 181 0
 642 0270 40F20000 		movw	r0, #:lower16:.LC26
 643 0274 C0F20000 		movt	r0, #:upper16:.LC26
 644 0278 FFF7FEFF 		bl	test_print
 645              	.LVL75:
 646              		.loc 1 182 0
 647 027c 0020     		movs	r0, #0
 648 027e FFF7FEFF 		bl	test_printn
 649              	.LVL76:
 650              		.loc 1 183 0
 651 0282 2046     		mov	r0, r4
 652 0284 FFF7FEFF 		bl	test_println
 653              	.LVL77:
 654              		.loc 1 184 0
 655 0288 40F20000 		movw	r0, #:lower16:.LC27
 656 028c C0F20000 		movt	r0, #:upper16:.LC27
 657 0290 FFF7FEFF 		bl	test_print
 658              	.LVL78:
 659              		.loc 1 185 0
 660 0294 0020     		movs	r0, #0
 661 0296 FFF7FEFF 		bl	test_printn
 662              	.LVL79:
 663              		.loc 1 186 0
 664 029a 2046     		mov	r0, r4
 665 029c FFF7FEFF 		bl	test_println
 666              	.LVL80:
 667              		.loc 1 187 0
 668 02a0 40F20000 		movw	r0, #:lower16:.LC28
 669 02a4 C0F20000 		movt	r0, #:upper16:.LC28
 670 02a8 FFF7FEFF 		bl	test_print
 671              	.LVL81:
 672              		.loc 1 188 0
 673 02ac 0020     		movs	r0, #0
 674 02ae FFF7FEFF 		bl	test_printn
 675              	.LVL82:
 676              		.loc 1 189 0
 677 02b2 2046     		mov	r0, r4
 678 02b4 FFF7FEFF 		bl	test_println
 679              	.LVL83:
 680              		.loc 1 190 0
 681 02b8 40F20000 		movw	r0, #:lower16:.LC29
 682 02bc C0F20000 		movt	r0, #:upper16:.LC29
 683 02c0 FFF7FEFF 		bl	test_print
 684              	.LVL84:
 685              		.loc 1 191 0
 686 02c4 0020     		movs	r0, #0
 687 02c6 FFF7FEFF 		bl	test_printn
 688              	.LVL85:
 689              		.loc 1 192 0
 690 02ca 2046     		mov	r0, r4
 691 02cc FFF7FEFF 		bl	test_println
 692              	.LVL86:
 693              		.loc 1 193 0
 694 02d0 40F20000 		movw	r0, #:lower16:.LC30
 695 02d4 C0F20000 		movt	r0, #:upper16:.LC30
ARM GAS  /tmp/ccx8yv7a.s 			page 29


 696 02d8 FFF7FEFF 		bl	test_print
 697              	.LVL87:
 698              		.loc 1 194 0
 699 02dc FF20     		movs	r0, #255
 700 02de FFF7FEFF 		bl	test_printn
 701              	.LVL88:
 702              		.loc 1 195 0
 703 02e2 2046     		mov	r0, r4
 704 02e4 FFF7FEFF 		bl	test_println
 705              	.LVL89:
 706              		.loc 1 196 0
 707 02e8 40F20000 		movw	r0, #:lower16:.LC31
 708 02ec C0F20000 		movt	r0, #:upper16:.LC31
 709 02f0 FFF7FEFF 		bl	test_print
 710              	.LVL90:
 711              		.loc 1 197 0
 712 02f4 8020     		movs	r0, #128
 713 02f6 FFF7FEFF 		bl	test_printn
 714              	.LVL91:
 715              		.loc 1 198 0
 716 02fa 2046     		mov	r0, r4
 717 02fc FFF7FEFF 		bl	test_println
 718              	.LVL92:
 719              		.loc 1 199 0
 720 0300 40F20000 		movw	r0, #:lower16:.LC32
 721 0304 C0F20000 		movt	r0, #:upper16:.LC32
 722 0308 FFF7FEFF 		bl	test_print
 723              	.LVL93:
 724              		.loc 1 200 0
 725 030c 0020     		movs	r0, #0
 726 030e FFF7FEFF 		bl	test_printn
 727              	.LVL94:
 728              		.loc 1 201 0
 729 0312 2046     		mov	r0, r4
 730 0314 FFF7FEFF 		bl	test_println
 731              	.LVL95:
 732              		.loc 1 202 0
 733 0318 40F20000 		movw	r0, #:lower16:.LC33
 734 031c C0F20000 		movt	r0, #:upper16:.LC33
 735 0320 FFF7FEFF 		bl	test_print
 736              	.LVL96:
 737              		.loc 1 203 0
 738 0324 0020     		movs	r0, #0
 739 0326 FFF7FEFF 		bl	test_printn
 740              	.LVL97:
 741              		.loc 1 204 0
 742 032a 2046     		mov	r0, r4
 743 032c FFF7FEFF 		bl	test_println
 744              	.LVL98:
 745              		.loc 1 205 0
 746 0330 40F20000 		movw	r0, #:lower16:.LC34
 747 0334 C0F20000 		movt	r0, #:upper16:.LC34
 748 0338 FFF7FEFF 		bl	test_print
 749              	.LVL99:
 750              		.loc 1 206 0
 751 033c 0020     		movs	r0, #0
 752 033e FFF7FEFF 		bl	test_printn
ARM GAS  /tmp/ccx8yv7a.s 			page 30


 753              	.LVL100:
 754              		.loc 1 207 0
 755 0342 2046     		mov	r0, r4
 756              		.loc 1 209 0
 757 0344 BDE83840 		pop	{r3, r4, r5, lr}
 758              		.loc 1 207 0
 759 0348 FFF7FEBF 		b	test_println
 760              	.LVL101:
 761              		.cfi_endproc
 762              	.LFE220:
 763              		.size	test_001_002_execute, .-test_001_002_execute
 764 034c AFF30080 		.section	.text.test_001_001_execute,"ax",%progbits
 765              		.align	2
 766              		.p2align 4,,15
 767              		.thumb
 768              		.thumb_func
 769              		.type	test_001_001_execute, %function
 770              	test_001_001_execute:
 771              	.LFB219:
 772              		.loc 1 60 0
 773              		.cfi_startproc
 774              		@ args = 0, pretend = 0, frame = 0
 775              		@ frame_needed = 0, uses_anonymous_args = 0
 776 0000 38B5     		push	{r3, r4, r5, lr}
 777              		.cfi_def_cfa_offset 16
 778              		.cfi_offset 3, -16
 779              		.cfi_offset 4, -12
 780              		.cfi_offset 5, -8
 781              		.cfi_offset 14, -4
 782              		.loc 1 65 0
 783 0002 40F20000 		movw	r0, #:lower16:.LC35
 784              		.loc 1 63 0
 785 0006 40F20003 		movw	r3, #:lower16:test_step
 786 000a C0F20003 		movt	r3, #:upper16:test_step
 787 000e 0125     		movs	r5, #1
 788              		.loc 1 65 0
 789 0010 C0F20000 		movt	r0, #:upper16:.LC35
 790              		.loc 1 63 0
 791 0014 1D60     		str	r5, [r3]
 792              		.loc 1 65 0
 793 0016 FFF7FEFF 		bl	test_println
 794              	.LVL102:
 795              		.loc 1 66 0
 796 001a 40F20000 		movw	r0, #:lower16:.LC36
 797 001e C0F20000 		movt	r0, #:upper16:.LC36
 798              		.loc 1 68 0
 799 0022 40F20004 		movw	r4, #:lower16:.LC1
 800 0026 C0F20004 		movt	r4, #:upper16:.LC1
 801              		.loc 1 66 0
 802 002a FFF7FEFF 		bl	test_print
 803              	.LVL103:
 804              		.loc 1 67 0
 805 002e 2846     		mov	r0, r5
 806 0030 FFF7FEFF 		bl	test_printn
 807              	.LVL104:
 808              		.loc 1 68 0
 809 0034 2046     		mov	r0, r4
ARM GAS  /tmp/ccx8yv7a.s 			page 31


 810 0036 FFF7FEFF 		bl	test_println
 811              	.LVL105:
 812              		.loc 1 69 0
 813 003a 40F20000 		movw	r0, #:lower16:.LC37
 814 003e C0F20000 		movt	r0, #:upper16:.LC37
 815 0042 FFF7FEFF 		bl	test_print
 816              	.LVL106:
 817              		.loc 1 70 0
 818 0046 40F20000 		movw	r0, #:lower16:.LC38
 819 004a C0F20000 		movt	r0, #:upper16:.LC38
 820 004e FFF7FEFF 		bl	test_println
 821              	.LVL107:
 822              		.loc 1 71 0
 823 0052 40F20000 		movw	r0, #:lower16:.LC39
 824 0056 C0F20000 		movt	r0, #:upper16:.LC39
 825 005a FFF7FEFF 		bl	test_print
 826              	.LVL108:
 827              		.loc 1 72 0
 828 005e 0420     		movs	r0, #4
 829 0060 FFF7FEFF 		bl	test_printn
 830              	.LVL109:
 831              		.loc 1 73 0
 832 0064 2046     		mov	r0, r4
 833 0066 FFF7FEFF 		bl	test_println
 834              	.LVL110:
 835              		.loc 1 74 0
 836 006a 40F20000 		movw	r0, #:lower16:.LC40
 837 006e C0F20000 		movt	r0, #:upper16:.LC40
 838 0072 FFF7FEFF 		bl	test_print
 839              	.LVL111:
 840              		.loc 1 75 0
 841 0076 0020     		movs	r0, #0
 842 0078 FFF7FEFF 		bl	test_printn
 843              	.LVL112:
 844              		.loc 1 76 0
 845 007c 2046     		mov	r0, r4
 846 007e FFF7FEFF 		bl	test_println
 847              	.LVL113:
 848              		.loc 1 77 0
 849 0082 40F20000 		movw	r0, #:lower16:.LC41
 850 0086 C0F20000 		movt	r0, #:upper16:.LC41
 851 008a FFF7FEFF 		bl	test_print
 852              	.LVL114:
 853              		.loc 1 78 0
 854 008e 0220     		movs	r0, #2
 855 0090 FFF7FEFF 		bl	test_printn
 856              	.LVL115:
 857              		.loc 1 79 0
 858 0094 2046     		mov	r0, r4
 859              		.loc 1 81 0
 860 0096 BDE83840 		pop	{r3, r4, r5, lr}
 861              		.loc 1 79 0
 862 009a FFF7FEBF 		b	test_println
 863              	.LVL116:
 864              		.cfi_endproc
 865              	.LFE219:
 866              		.size	test_001_001_execute, .-test_001_001_execute
ARM GAS  /tmp/ccx8yv7a.s 			page 32


 867              		.global	test_sequence_001
 868 009e 00BF     		.section	.rodata.test_sequence_001,"a",%progbits
 869              		.align	2
 870              		.type	test_sequence_001, %object
 871              		.size	test_sequence_001, 12
 872              	test_sequence_001:
 873 0000 00000000 		.word	test_001_001
 874 0004 00000000 		.word	test_001_002
 875 0008 00000000 		.word	0
 876              		.section	.rodata.test_001_001,"a",%progbits
 877              		.align	2
 878              		.type	test_001_001, %object
 879              		.size	test_001_001, 16
 880              	test_001_001:
 881 0000 28050000 		.word	.LC43
 882 0004 00000000 		.word	0
 883 0008 00000000 		.word	0
 884 000c 00000000 		.word	test_001_001_execute
 885              		.section	.rodata.test_001_002,"a",%progbits
 886              		.align	2
 887              		.type	test_001_002, %object
 888              		.size	test_001_002, 16
 889              	test_001_002:
 890 0000 18050000 		.word	.LC42
 891 0004 00000000 		.word	0
 892 0008 00000000 		.word	0
 893 000c 00000000 		.word	test_001_002_execute
 894              		.section	.rodata.str1.4,"aMS",%progbits,1
 895              		.align	2
 896              	.LC0:
 897 0000 2D2D2D20 		.ascii	"--- CH_CFG_ST_RESOLUTION:      \000"
 897      43485F43 
 897      46475F53 
 897      545F5245 
 897      534F4C55 
 898              	.LC1:
 899 0020 00       		.ascii	"\000"
 900 0021 000000   		.space	3
 901              	.LC2:
 902 0024 2D2D2D20 		.ascii	"--- CH_CFG_ST_FREQUENCY:       \000"
 902      43485F43 
 902      46475F53 
 902      545F4652 
 902      45515545 
 903              	.LC3:
 904 0044 2D2D2D20 		.ascii	"--- CH_CFG_ST_TIMEDELTA:       \000"
 904      43485F43 
 904      46475F53 
 904      545F5449 
 904      4D454445 
 905              	.LC4:
 906 0064 2D2D2D20 		.ascii	"--- CH_CFG_TIME_QUANTUM:       \000"
 906      43485F43 
 906      46475F54 
 906      494D455F 
 906      5155414E 
 907              	.LC5:
ARM GAS  /tmp/ccx8yv7a.s 			page 33


 908 0084 2D2D2D20 		.ascii	"--- CH_CFG_MEMCORE_SIZE:       \000"
 908      43485F43 
 908      46475F4D 
 908      454D434F 
 908      52455F53 
 909              	.LC6:
 910 00a4 2D2D2D20 		.ascii	"--- CH_CFG_NO_IDLE_THREAD:     \000"
 910      43485F43 
 910      46475F4E 
 910      4F5F4944 
 910      4C455F54 
 911              	.LC7:
 912 00c4 2D2D2D20 		.ascii	"--- CH_CFG_OPTIMIZE_SPEED:     \000"
 912      43485F43 
 912      46475F4F 
 912      5054494D 
 912      495A455F 
 913              	.LC8:
 914 00e4 2D2D2D20 		.ascii	"--- CH_CFG_USE_TM:             \000"
 914      43485F43 
 914      46475F55 
 914      53455F54 
 914      4D3A2020 
 915              	.LC9:
 916 0104 2D2D2D20 		.ascii	"--- CH_CFG_USE_REGISTRY:       \000"
 916      43485F43 
 916      46475F55 
 916      53455F52 
 916      45474953 
 917              	.LC10:
 918 0124 2D2D2D20 		.ascii	"--- CH_CFG_USE_WAITEXIT:       \000"
 918      43485F43 
 918      46475F55 
 918      53455F57 
 918      41495445 
 919              	.LC11:
 920 0144 2D2D2D20 		.ascii	"--- CH_CFG_USE_SEMAPHORES:     \000"
 920      43485F43 
 920      46475F55 
 920      53455F53 
 920      454D4150 
 921              	.LC12:
 922 0164 2D2D2D20 		.ascii	"--- CH_CFG_USE_SEMAPHORES_PRI: \000"
 922      43485F43 
 922      46475F55 
 922      53455F53 
 922      454D4150 
 923              	.LC13:
 924 0184 2D2D2D20 		.ascii	"--- CH_CFG_USE_MUTEXES:        \000"
 924      43485F43 
 924      46475F55 
 924      53455F4D 
 924      55544558 
 925              	.LC14:
 926 01a4 2D2D2D20 		.ascii	"--- CH_CFG_USE_MUTEXES_RECURS: \000"
 926      43485F43 
 926      46475F55 
ARM GAS  /tmp/ccx8yv7a.s 			page 34


 926      53455F4D 
 926      55544558 
 927              	.LC15:
 928 01c4 2D2D2D20 		.ascii	"--- CH_CFG_USE_CONDVARS:       \000"
 928      43485F43 
 928      46475F55 
 928      53455F43 
 928      4F4E4456 
 929              	.LC16:
 930 01e4 2D2D2D20 		.ascii	"--- CH_CFG_USE_CONDVARS_TIMEO: \000"
 930      43485F43 
 930      46475F55 
 930      53455F43 
 930      4F4E4456 
 931              	.LC17:
 932 0204 2D2D2D20 		.ascii	"--- CH_CFG_USE_EVENTS:         \000"
 932      43485F43 
 932      46475F55 
 932      53455F45 
 932      56454E54 
 933              	.LC18:
 934 0224 2D2D2D20 		.ascii	"--- CH_CFG_USE_EVENTS_TIMEOUT: \000"
 934      43485F43 
 934      46475F55 
 934      53455F45 
 934      56454E54 
 935              	.LC19:
 936 0244 2D2D2D20 		.ascii	"--- CH_CFG_USE_MESSAGES:       \000"
 936      43485F43 
 936      46475F55 
 936      53455F4D 
 936      45535341 
 937              	.LC20:
 938 0264 2D2D2D20 		.ascii	"--- CH_CFG_USE_MESSAGES_PRI:   \000"
 938      43485F43 
 938      46475F55 
 938      53455F4D 
 938      45535341 
 939              	.LC21:
 940 0284 2D2D2D20 		.ascii	"--- CH_CFG_USE_MAILBOXES:      \000"
 940      43485F43 
 940      46475F55 
 940      53455F4D 
 940      41494C42 
 941              	.LC22:
 942 02a4 2D2D2D20 		.ascii	"--- CH_CFG_USE_MEMCORE:        \000"
 942      43485F43 
 942      46475F55 
 942      53455F4D 
 942      454D434F 
 943              	.LC23:
 944 02c4 2D2D2D20 		.ascii	"--- CH_CFG_USE_HEAP:           \000"
 944      43485F43 
 944      46475F55 
 944      53455F48 
 944      4541503A 
 945              	.LC24:
ARM GAS  /tmp/ccx8yv7a.s 			page 35


 946 02e4 2D2D2D20 		.ascii	"--- CH_CFG_USE_MEMPOOLS:       \000"
 946      43485F43 
 946      46475F55 
 946      53455F4D 
 946      454D504F 
 947              	.LC25:
 948 0304 2D2D2D20 		.ascii	"--- CH_CFG_USE_DYNAMIC:        \000"
 948      43485F43 
 948      46475F55 
 948      53455F44 
 948      594E414D 
 949              	.LC26:
 950 0324 2D2D2D20 		.ascii	"--- CH_DBG_STATISTICS:         \000"
 950      43485F44 
 950      42475F53 
 950      54415449 
 950      53544943 
 951              	.LC27:
 952 0344 2D2D2D20 		.ascii	"--- CH_DBG_SYSTEM_STATE_CHECK: \000"
 952      43485F44 
 952      42475F53 
 952      59535445 
 952      4D5F5354 
 953              	.LC28:
 954 0364 2D2D2D20 		.ascii	"--- CH_DBG_ENABLE_CHECKS:      \000"
 954      43485F44 
 954      42475F45 
 954      4E41424C 
 954      455F4348 
 955              	.LC29:
 956 0384 2D2D2D20 		.ascii	"--- CH_DBG_ENABLE_ASSERTS:     \000"
 956      43485F44 
 956      42475F45 
 956      4E41424C 
 956      455F4153 
 957              	.LC30:
 958 03a4 2D2D2D20 		.ascii	"--- CH_DBG_TRACE_MASK:         \000"
 958      43485F44 
 958      42475F54 
 958      52414345 
 958      5F4D4153 
 959              	.LC31:
 960 03c4 2D2D2D20 		.ascii	"--- CH_DBG_TRACE_BUFFER_SIZE:  \000"
 960      43485F44 
 960      42475F54 
 960      52414345 
 960      5F425546 
 961              	.LC32:
 962 03e4 2D2D2D20 		.ascii	"--- CH_DBG_ENABLE_STACK_CHECK: \000"
 962      43485F44 
 962      42475F45 
 962      4E41424C 
 962      455F5354 
 963              	.LC33:
 964 0404 2D2D2D20 		.ascii	"--- CH_DBG_FILL_THREADS:       \000"
 964      43485F44 
 964      42475F46 
ARM GAS  /tmp/ccx8yv7a.s 			page 36


 964      494C4C5F 
 964      54485245 
 965              	.LC34:
 966 0424 2D2D2D20 		.ascii	"--- CH_DBG_THREADS_PROFILING:  \000"
 966      43485F44 
 966      42475F54 
 966      48524541 
 966      44535F50 
 967              	.LC35:
 968 0444 2D2D2D20 		.ascii	"--- Product:                   ChibiOS/RT\000"
 968      50726F64 
 968      7563743A 
 968      20202020 
 968      20202020 
 969 046e 0000     		.space	2
 970              	.LC36:
 971 0470 2D2D2D20 		.ascii	"--- Stable Flag:               \000"
 971      53746162 
 971      6C652046 
 971      6C61673A 
 971      20202020 
 972              	.LC37:
 973 0490 2D2D2D20 		.ascii	"--- Version String:            \000"
 973      56657273 
 973      696F6E20 
 973      53747269 
 973      6E673A20 
 974              	.LC38:
 975 04b0 342E302E 		.ascii	"4.0.2\000"
 975      3200
 976 04b6 0000     		.space	2
 977              	.LC39:
 978 04b8 2D2D2D20 		.ascii	"--- Major Number:              \000"
 978      4D616A6F 
 978      72204E75 
 978      6D626572 
 978      3A202020 
 979              	.LC40:
 980 04d8 2D2D2D20 		.ascii	"--- Minor Number:              \000"
 980      4D696E6F 
 980      72204E75 
 980      6D626572 
 980      3A202020 
 981              	.LC41:
 982 04f8 2D2D2D20 		.ascii	"--- Patch Number:              \000"
 982      50617463 
 982      68204E75 
 982      6D626572 
 982      3A202020 
 983              	.LC42:
 984 0518 4B65726E 		.ascii	"Kernel Settings\000"
 984      656C2053 
 984      65747469 
 984      6E677300 
 985              	.LC43:
 986 0528 4B65726E 		.ascii	"Kernel Info\000"
 986      656C2049 
ARM GAS  /tmp/ccx8yv7a.s 			page 37


 986      6E666F00 
 987              		.text
 988              	.Letext0:
 989              		.file 2 "/home/julian/MEGA/semestre_ix/Embebidos/arm-2013.11/lib/gcc/arm-none-eabi/4.8.1/include/s
 990              		.file 3 "/home/julian/MEGA/semestre_ix/Embebidos/arm-2013.11/arm-none-eabi/include/stdint.h"
 991              		.file 4 "../../../os/common/ports/ARMCMx/compilers/GCC/chtypes.h"
 992              		.file 5 "../../../os/rt/include/chsystypes.h"
 993              		.file 6 "../../../os/rt/include/chschd.h"
 994              		.file 7 "../../../os/common/ports/ARMCMx/chcore.h"
 995              		.file 8 "../../../os/common/ports/ARMCMx/chcore_v7m.h"
 996              		.file 9 "../../../os/rt/include/chsem.h"
 997              		.file 10 "../../../os/rt/include/chmtx.h"
 998              		.file 11 "../../../test/lib/ch_test.h"
 999              		.file 12 "../../../os/common/ext/CMSIS/include/core_cm3.h"