ARM GAS  /tmp/ccnI9Qb6.s 			page 1


   1              		.syntax unified
   2              		.cpu cortex-m3
   3              		.fpu softvfp
   4              		.eabi_attribute 20, 1
   5              		.eabi_attribute 21, 1
   6              		.eabi_attribute 23, 3
   7              		.eabi_attribute 24, 1
   8              		.eabi_attribute 25, 1
   9              		.eabi_attribute 26, 1
  10              		.eabi_attribute 30, 2
  11              		.eabi_attribute 34, 1
  12              		.eabi_attribute 18, 4
  13              		.thumb
  14              		.file	"test_sequence_007.c"
  15              		.text
  16              	.Ltext0:
  17              		.section	.gnu.lto_.jmpfuncs.b5056f4117fff6a0,"",%progbits
  18 0000 789C6362 		.ascii	"x\234cb`b\300\006\326\000\261\004\020\003e\231\230\252"
  18      6062C006 
  18      D600B104 
  18      10036599 
  18      98AA
  19 0012 197E35CC 		.ascii	"\031~5\314h\020\310dd\220c`\234\3330\303!\223\221\021"
  19      6810C864 
  19      64906360 
  19      9CDB30C3 
  19      21939111 
  20 0026 AC0A21C3 		.ascii	"\254\012!\303$\307\300\016\221a\206\030\300\310\000"
  20      24C7C00E 
  20      91618618 
  20      C0C800
  21 0035 359915C8 		.ascii	"5\231\025\310\210`\314dd9\301\004\327\322\001\322\302"
  21      8860CC64 
  21      6439C104 
  21      D7D201D2 
  21      C2
  22 0046 9ACC08B5 		.ascii	"\232\314\010\265\214\205\221\011\244\253\014\252\222"
  22      8C859109 
  22      A4AB0CAA 
  22      92
  23 0053 CD05C840 		.ascii	"\315\005\310@\021pF\027pB\027p\004\331\344\350\344\354"
  23      11704617 
  23      70421770 
  23      04D9E4E8 
  23      E4EC
  24 0065 C2209899 		.ascii	"\302 \230\231W\226\230\223\231\242P\234ZX\232\232\227"
  24      57969893 
  24      99A2509C 
  24      5A589A9A 
  24      97
  25 0076 9CCA0000 		.ascii	"\234\312\000\000\333\023 \013"
  25      DB13200B 
  26              		.text
  27              		.section	.gnu.lto_.inline.b5056f4117fff6a0,"",%progbits
  28 0000 789C6362 		.ascii	"x\234cb`b\300\006\312\2414PV\341$##\003\223\330\205"
  28      6062C006 
  28      CAA13450 
ARM GAS  /tmp/ccnI9Qb6.s 			page 2


  28      56E12423 
  28      230393D8 
  29 0015 366606B6 		.ascii	"6f\006\266\005\362`\345\314<`\031F.\220\012nF\006\306"
  29      05F260E5 
  29      CC3C6019 
  29      462E900A 
  29      6E4606C6 
  30 0029 097ECC3C 		.ascii	"\011~\314<@E\023\374&\370\201\370\014\354\002\014\014"
  30      404513FC 
  30      26F881F8 
  30      0CEC020C 
  30      0C
  31 003a AC13FC18 		.ascii	"\254\023\374\030\300\210\205\201\337\210\021l\017\212"
  31      C0888581 
  31      DF88116C 
  31      0F8A
  32 0048 7EA01C2E 		.ascii	"~\240\034.\232\001\000ot\016\007"
  32      9A01006F 
  32      740E07
  33              		.text
  34              		.section	.gnu.lto_.pureconst.b5056f4117fff6a0,"",%progbits
  35 0000 789C6362 		.ascii	"x\234cb`b`e\200\000&\006I\026\011\000\001\007\000A"
  35      60626065 
  35      80002606 
  35      49160900 
  35      01070041 
  36              		.text
  37              		.section	.gnu.lto_test_007_001_execute.b5056f4117fff6a0,"",%progbits
  38 0000 789C9554 		.ascii	"x\234\225T[kSY\024^k\237s\3224M\215\321V\353\255\255"
  38      5B6B5359 
  38      145E6B9F 
  38      73D2344D 
  38      8DD156EB 
  39 0016 B7979149 		.ascii	"\267\227\221I\024\004)\210x\373\011\012\372$\3614\244"
  39      14042988 
  39      78FB090A 
  39      FA24F134 
  39      A4
  40 0027 079A3A36 		.ascii	"\007\232:6\351\274\314\203\273M\035}\360\022\364\245"
  40      E9BCCC83 
  40      BB4D1D7D 
  40      F012F4A5 
  41 0037 2AE2A554 		.ascii	"*\342\245TA\304\013\202\212x\211\024$\245j\355\203\240"
  41      41C40B82 
  41      8A788914 
  41      24A56AED 
  41      83A0
  42 0049 224C1807 		.ascii	"\"L\030\007\025\005\025_\2523\203\235\265\366>\373L"
  42      1505155F 
  42      AA33839D 
  42      B5F63EFB 
  42      4C
  43 005a B5E38887 		.ascii	"\265\343\210\207d\237u\326Z\337\267\327e\257-@\300\227"
  43      649F75D6 
  43      5ADFB7D7 
  43      65AF2D40 
  43      C097
ARM GAS  /tmp/ccnI9Qb6.s 			page 3


  44 006c CF4AFA4F 		.ascii	"\317J\372O\013\001\364\321\033C\200\242x\037\240;,\320"
  44      0B01F4D1 
  44      1B4380A2 
  44      781FA03B 
  44      2CD0
  45 007e D682A585 		.ascii	"\326\202\245\205\333a[X\245U #\316\203\030\310\250\203"
  45      DB615B58 
  45      A5552023 
  45      CE8318C8 
  45      A883
  46 0090 C86A40D8 		.ascii	"\310j@\330!,\333\301\035\233\221\331\304\0028!\345\201"
  46      212CDBC1 
  46      1D9B91D9 
  46      C4023821 
  46      E581
  47 00a2 CAC08B97 		.ascii	"\312\300\213\227xH\226z\217\313\277\307\307\021=\244"
  47      7848967A 
  47      8FCBBFC7 
  47      C7113DA4 
  48 00b2 9D9723B8 		.ascii	"\235\227#\270\010\233\350\003\233\325K\330\237\207\242"
  48      089BE803 
  48      9BD54BD8 
  48      9F87A2
  49 00c1 B1A5B15F 		.ascii	"\261\245\261_\367\317\222\307{\212\362\023A=\264\004"
  49      F7CF92C7 
  49      7B8AF213 
  49      413DB404 
  50 00d1 ACF816F2 		.ascii	"\254\370\026\362\274(U\306\307\357^\252\374~\037\343"
  50      BC2855C6 
  50      C7EF5EAA 
  50      FC7E1FE3 
  51 00e1 331052D8 		.ascii	"3\020R\330\217\013\300\001\017\355\020-N\230\026\210"
  51      8F0BC001 
  51      0FED102D 
  51      4E981688 
  52 00f1 92FA04A9 		.ascii	"\222\372\004\251k\351#\024\243\245*\356;\326\261\271"
  52      6BE92314 
  52      A3A52AEE 
  52      3BD6B1B9 
  53 0101 9E963071 		.ascii	"\236\2260q9\320+e\261Y\373\252\220\212\245\033w\366"
  53      39D02B65 
  53      B159FBAA 
  53      908AA51B 
  53      77F6
  54 0113 4C0CA95A 		.ascii	"L\014\251Z@\313\267B\002\266\323\263\201V\252\330F\024"
  54      40CBB742 
  54      02B6D3B3 
  54      8156AAD8 
  54      4614
  55 0125 F4B2EE41 		.ascii	"\364\262\356A\317\325\253\257\032R8\200\016\034\201"
  55      CFD5ABAF 
  55      1A523880 
  55      0E1C81
  56 0134 C3DD524E 		.ascii	"\303\335RN\245\024\177\201?\345n\226\"Y\005b\302\010"
  56      A5147F81 
  56      3FE56E96 
  56      22590562 
ARM GAS  /tmp/ccnI9Qb6.s 			page 4


  56      C208
  57 0146 18C9621D 		.ascii	"\030\311b\035!\237~x\365\310\326\320\014:?\302YF\324"
  57      219F7E78 
  57      F5C8D6D0 
  57      0C3A3FC2 
  57      5946D4
  58 0159 304B91A5 		.ascii	"0K\221\245(\263\364\261T\233E\364\261\265\001\313\224"
  58      28B3F4B1 
  58      549B45F4 
  58      B1B501CB 
  58      94
  59 016a 09A111D9 		.ascii	"\011\241\021\331\223\353\307~[\356\347j\222\226oO%\203"
  59      93EBC77E 
  59      5BEEE76A 
  59      92966F4F 
  59      2583
  60 017c 0218A134 		.ascii	"\002\030\2414\374p4NtzcW1\323K\235\244\014\326-\201"
  60      FC70344E 
  60      747A6357 
  60      31D34B9D 
  60      A40CD62D 
  61 0191 3352CACA 		.ascii	"3R\312\312_\037\007~\240\"\352/\331\342a,\310nj\220"
  61      5F1F077E 
  61      A022EA2F 
  61      D9E2612C 
  61      C86E6A90 
  62 01a5 5D3CAB60 		.ascii	"]<\253`\034M\\\305\261\225\311Rx\216\210I\306@\326\021"
  62      1C4D5CC5 
  62      B195C952 
  62      788E8849 
  62      C640D611 
  63 01b9 7EB83C3B 		.ascii	"~\270<;\205\347U\266\365>q\216z\024\020O\243\355\231"
  63      85E755B6 
  63      F53E718E 
  63      7A14104F 
  63      A3ED99
  64 01cc 0B7C2EC1 		.ascii	"\013|.\301\370\013\006_\330=8\374\360b\265\251W\210"
  64      F80B065F 
  64      D83D38FC 
  64      F062B5A9 
  64      5788
  65 01de 48D8D961 		.ascii	"H\330\331a\367\021h0\372p\020\335t\027-\320Y9\252\354"
  65      F7116830 
  65      FA7010DD 
  65      74172DD0 
  65      5939AAEC 
  66 01f2 65C138B6 		.ascii	"e\3018\266\207=\254s\321\257=g\355a\275\212q\250\030"
  66      873DAC73 
  66      D1AF3D67 
  66      ED61BD8A 
  66      71A818
  67 0205 D14AEE86 		.ascii	"\321J\356\206N\374\337\266\316\010\250gf\0255\263\316"
  67      4EFCDFB6 
  67      CE08A867 
  67      661535B3 
  67      CE
  68 0216 FC8F8664 		.ascii	"\374\217\206d\370\340\251\243\361\346{\217\006\327s"
ARM GAS  /tmp/ccnI9Qb6.s 			page 5


  68      F8E0A9A3 
  68      F1E67B8F 
  68      06D773
  69 0225 087A2A37 		.ascii	"\010z*7\012U\301\301\345#m\372\245\004V(o\263\341F\022"
  69      0A55C1C1 
  69      E5236DFA 
  69      A5045628 
  69      6FB3E146 
  70 023a 4BABAC11 		.ascii	"K\253\254\021(Tn\016\206RxS\225\"\032\354\325\340j("
  70      28546E0E 
  70      86527853 
  70      95221AEC 
  70      D5E06A28 
  71 024e 8DC42CE6 		.ascii	"\215\304,\346\027\332E\317\0049\252h\257\355\034\333"
  71      17DA45CF 
  71      0439AA68 
  71      AFED1CDB 
  72 025e 338F83AF 		.ascii	"3\217\203\257\245hy*\310\240\332\261Ho\302a\335z\346"
  72      A568792A 
  72      C8A0DAB1 
  72      486FC261 
  72      DD7AE6
  73 0271 B367D156 		.ascii	"\263g\321V8R\206\315\244W\016\356\372c\024\017\024d"
  73      385286CD 
  73      A4570EEE 
  73      FA63140F 
  73      1464
  74 0283 59F69668 		.ascii	"Y\366\226h\260\232<\236\334\223\324\307\377\037-\342"
  74      B09A3C9E 
  74      DC93D4C7 
  74      FF1F2DE2 
  75 0293 5244EFDE 		.ascii	"RD\357\336_i7\201\235R9sgwV\312\317\"Z\015\020d4\333"
  75      5F693781 
  75      9D523973 
  75      677756CA 
  75      CF225A0D 
  76 02ab A5CB4DD7 		.ascii	"\245\313M\327:J\021{8G\345\360\272pz_\302\344\037\313"
  76      3A4A117B 
  76      3847E5F0 
  76      BA707A5F 
  76      C2E41FCB 
  77 02bf F0B88C80 		.ascii	"\360\270\214\200=\011=\327\305*\037\035\363p\236>^\205"
  77      3D093DD7 
  77      C52A1F1D 
  77      F3709E3E 
  77      5E85
  78 02d1 B1BD2D06 		.ascii	"\261\275-\006\032\317 \006\243:\241^\375\252^qSu\033"
  78      1ACF2006 
  78      A33AA15E 
  78      FDAA5E71 
  78      53751B
  79 02e4 E8D2B474 		.ascii	"\350\322\264t\015\214\221\020e\350}\336]c\2704Q\320"
  79      0D8C9110 
  79      65E87DDE 
  79      5D63B834 
  79      51D0
  80 02f6 2B780CE8 		.ascii	"+x\014\3507O\224-\"\263\372\252\230\313\341\373\204"
ARM GAS  /tmp/ccnI9Qb6.s 			page 6


  80      374F942D 
  80      22B3FAAA 
  80      98CBE1FB 
  80      84
  81 0307 3B383C58 		.ascii	";8<X3)\340FW\335e\334\300&]\224\273\3758\311\253\331"
  81      3329E046 
  81      57DD65DC 
  81      C0265D94 
  81      BBFD38C9 
  82 031d C56AE5C5 		.ascii	"\305j\345\305\232\006\017\3477B7\036\225}\253=\212\314"
  82      9A060FE7 
  82      3742371E 
  82      957DAB3D 
  82      8ACC
  83 032f F7F64D0B 		.ascii	"\367\366M\013\033a\227oZdL\036.\006\030\205\200W?\033"
  83      1B61976F 
  83      5A644C1E 
  83      2E061885 
  83      80573F1B 
  84 0343 28A30731 		.ascii	"(\243\0071>\227\313\022\211\244\376\345\323\271|\262"
  84      3E97CB12 
  84      89A4FEE5 
  84      D3B97CB2 
  85 0353 339FCC6D 		.ascii	"3\237\314m\353\352t\323\372\223\227-\271\364\366\256"
  85      EBEA74D3 
  85      FA93972D 
  85      B9F4F6AE 
  86 0363 74879BDE 		.ascii	"t\207\233\336\262t\351\212\204\013\"\377\023zV6\227"
  86      B274E98A 
  86      840B22FF 
  86      137A5636 
  86      97
  87 0374 591840B7 		.ascii	"Y\030@\267\345\030\350u\270\355]\255\351\244\333\226"
  87      E518E875 
  87      B8ED5DAD 
  87      E9A4DB96 
  88 0384 6FEB4CA7 		.ascii	"o\353L\247Zs\2116h\372\252\017\021\220\335Y\263v\335"
  88      5A738936 
  88      68FAAA0F 
  88      1190DD59 
  88      B376DD
  89 0397 7A887B1D 		.ascii	"z\210{\035?\247\332\275\326f\263\025\374\003\271r\232"
  89      3FA7DABD 
  89      D666B315 
  89      FC03B972 
  89      9A
  90 03a8 36       		.ascii	"6"
  91              		.text
  92              		.section	.gnu.lto_msg_thread1.b5056f4117fff6a0,"",%progbits
  93 0000 789C6362 		.ascii	"x\234cb`b@\007\222@,\304\310\300`\014\244\031\231\031"
  93      60624007 
  93      92402CC4 
  93      C8C0600C 
  93      A4199919 
  94 0014 1899269C 		.ascii	"\030\231&\234c`h\344`bd\0041\030\030\031\352\231\030"
  94      636068E4 
  94      60626404 
ARM GAS  /tmp/ccnI9Qb6.s 			page 7


  94      31181819 
  94      EA9918
  95 0027 EB2319C1 		.ascii	"\353#\031\301j\3273\035x\360\377\377\272+[\037U0\262"
  95      6AD7331D 
  95      78F0FFFF 
  95      BA2B5B1F 
  95      5530B2
  96 003a 3331E682 		.ascii	"31\346\202EY\031Z\032\032&(00$\203\271!@\022\2443\224"
  96      4559195A 
  96      1A1A2628 
  96      30302483 
  96      B9214012 
  97 0051 91094433 		.ascii	"\221\011D3\237gh}\360\306\"\221q!#+P\266\232\341WCG"
  97      9F67687D 
  97      F0C62291 
  97      7121232B 
  97      50B69AE1 
  98 0068 83402623 		.ascii	"\203@&#P5\304\314tF\246\010\306LFFG\206L\240\016\006"
  98      5035C4CC 
  98      7446A608 
  98      C64C4646 
  98      47864CA0 
  99 007e A0F205B9 		.ascii	"\240\362\005\271\204U;!T\347\021V\355\214P\235OX\265"
  99      84553B21 
  99      54E71156 
  99      ED8C509D 
  99      4F58B5
 100 0091 0B44F545 		.ascii	"\013D\365E\206\306\007?\230`\312! \004\250\024\350)"
 100      86C6073F 
 100      9860CA21 
 100      2004A814 
 100      E829
 101 00a3 50281AEA 		.ascii	"P(\032\352\351\351CPIjq\211~Q\211~q~iQr*\204\013\"\342"
 101      E9E94350 
 101      496A7189 
 101      7E51897E 
 101      717E6951 
 102 00bd 8B530B4B 		.ascii	"\213S\013KS\363\222S\343\015\014\314\365\222\031\000"
 102      53F39253 
 102      E30D0CCC 
 102      F5921900 
 103 00cd 7CCE4F65 		.ascii	"|\316Oe"
 104              		.text
 105              		.section	.gnu.lto_.symbol_nodes.b5056f4117fff6a0,"",%progbits
 106 0000 789C4DCA 		.ascii	"x\234M\312\311\015\3020\024\204\341\031/\020\326\026"
 106      C90DC230 
 106      1484E119 
 106      2F10D616 
 107 0010 A88D4678 		.ascii	"\250\215Fx\221\220@\300\205\002\270\271\224\334i\200"
 107      919040C0 
 107      8502B8B9 
 107      94DC6980 
 108 0020 2DC16193 		.ascii	"-\301a\223(\001!l\021a|\371\374\353\215\202\302\013"
 108      2801216C 
 108      11617CF9 
 108      FCEB8D82 
 108      C20B
ARM GAS  /tmp/ccnI9Qb6.s 			page 8


 109 0032 CD537B0A 		.ascii	"\315S{\012\261\336\002\"\233\305\330\236\030~\260%\031"
 109      B1DE0222 
 109      9BC5D89E 
 109      187EB025 
 109      19
 110 0043 795005D4 		.ascii	"yP\005\324\216\202\277\315\231:\036\21746p\2405\242"
 110      8E82BFCD 
 110      993A1E8F 
 110      343670A0 
 110      35A2
 111 0055 79A3A8EF 		.ascii	"y\243\250\357&\317\311+E\247\272PL\252\232bSyJ+UEi\247"
 111      26CFC92B 
 111      45A7BA50 
 111      4CAA9A62 
 111      53794A2B 
 112 006d BA53B25F 		.ascii	"\272S\262_i\014\340\252w\260\0177\253'\032=\370y\264"
 112      690CE0AA 
 112      77B00F37 
 112      AB271A3D 
 112      F879B4
 113 0080 0BB78C76 		.ascii	"\013\267\214vP\254\236#\215\014>j\206\230\226a\037t"
 113      50AC9E23 
 113      8D0C3E6A 
 113      86989661 
 113      1F74
 114 0092 8D45A30F 		.ascii	"\215E\243\017\342\003\201\272L%"
 114      E20381BA 
 114      4C25
 115              		.text
 116              		.section	.gnu.lto_.refs.b5056f4117fff6a0,"",%progbits
 117 0000 789C6362 		.ascii	"x\234cb`b\020g\200\0006\006FF \227\231\211\205\221\225"
 117      60621067 
 117      80003606 
 117      46462097 
 117      99898591 
 118 0015 9191918D 		.ascii	"\221\221\221\215\211\235\221\235\211\201\001\000\005"
 118      899D919D 
 118      89810100 
 118      05
 119 0022 C70051   		.ascii	"\307\000Q"
 120              		.text
 121              		.section	.gnu.lto_.decls.b5056f4117fff6a0,"",%progbits
 122 0000 789CAD5B 		.ascii	"x\234\255[yp\024\327\231\177\3353\243\231A\342r\214"
 122      797014D7 
 122      997FDD33 
 122      A39941E2 
 122      728C
 123 0012 0BAABCB6 		.ascii	"\013\252\274\266\234u6\266\253,\241\304k\263\331Z\033"
 123      9C7536B6 
 123      AB2CA1C4 
 123      6BB3D95A 
 123      1B
 124 0023 2F9B22FF 		.ascii	"/\233\"\377\260\225\012I\255\253\266\266&\315\250\221"
 124      B0950A49 
 124      ADABB6B6 
 124      26CDA891 
 125 0033 26966626 		.ascii	"&\226f&=-\216\335?\334\010!\313\006\033!\010\002\003"
ARM GAS  /tmp/ccnI9Qb6.s 			page 9


 125      3D2D8EDD 
 125      3FDC0821 
 125      CB061B21 
 125      080203
 126 0046 4202CCA1 		.ascii	"B\002\314\241\030l.s\305\322\020\007!\020FH\330`\300"
 126      186C2E73 
 126      C5D21007 
 126      21104648 
 126      D860C0
 127 0059 1682200E 		.ascii	"\026\202 \016\333\304\304\006c\023@\373\275\243{\372"
 127      DBC4C406 
 127      631340FB 
 127      BDA37BFA 
 128 0069 9CE91699 		.ascii	"\234\351\026\231\322{\352\356y\337\357}\367\273zx\304"
 128      D27BEAEE 
 128      79DFEF7D 
 128      F7BB7A78 
 128      C4
 129 007a A31D1C42 		.ascii	"\243\035\034B\203\360\211\375+B\235y\010\371\020B\317"
 129      83F089FD 
 129      2B429D79 
 129      08F91042 
 129      CF
 130 008b 42094269 		.ascii	"B\011Bi\201\262\006\312\006(\033\241\004\240\264B\331"
 130      81B206CA 
 130      06281BA1 
 130      04A0B442 
 130      D9
 131 009c 82E8270C 		.ascii	"\202\350'\014e\007\224=P\336\203\322\011\3450\224\243"
 131      6507943D 
 131      50DE83D2 
 131      09E53094 
 131      A3
 132 00ad 5052803B 		.ascii	"PR\200;\003J\015\024\200E\257\300\377\371P\352\241\234"
 132      034A0D14 
 132      8045AFC0 
 132      FFF950EA 
 132      A19C
 133 00bf 82F20994 		.ascii	"\202\362\011\224\353\0342|0\316?A\351\2012\002J\001"
 133      EB1C327C 
 133      30CE3F41 
 133      E9813202 
 133      4A01
 134 00d1 EBF339C6 		.ascii	"\353\3639\306\017\306Y\013e\200\361p\007\350_\203\262"
 134      0FC6590B 
 134      6580F170 
 134      07E85F83 
 134      B2
 135 00e2 00CA5D28 		.ascii	"\000\312](~x\266\014\376/\3022A\351\305\240<\345y&\334"
 135      7E78B60C 
 135      FE2FC232 
 135      41E9C5A0 
 135      3CE57926 
 136 00f7 9F86C2C1 		.ascii	"\237\206\302\301=\017E\206k\037\374\357\206\357\374"
 136      3D0F4586 
 136      6B1FFCEF 
 136      86EFFC
ARM GAS  /tmp/ccnI9Qb6.s 			page 10


 137 0106 F0BF0BFE 		.ascii	"\360\277\013\376_\204g{q\237\274U\3666Du\323\010m\326"
 137      5F84677B 
 137      719FBC55 
 137      F6364475 
 137      D3086DD6 
 138 011a 42B900D7 		.ascii	"B\271\000\327\303\030\317y\320~\030O\345\335\301d?\312"
 138      C318CF79 
 138      D07E184F 
 138      E5DDC164 
 138      3FCA
 139 012c 74D1C974 		.ascii	"t\321\311t\023\260\321\301p\336(\377\016\326\307\010"
 139      13B0D1C1 
 139      70DE28FF 
 139      0ED6C708 
 140 013c 9ECA378F 		.ascii	"\236\3127\217\351\207g\337a]\342G\357\032\311P>zUQ\252"
 140      E98767DF 
 140      615DE247 
 140      EF1AC950 
 140      3E7A5551 
 141 0151 95E65AE5 		.ascii	"\225\346Z\345g\235#F\243z\005>\205\313F\204Q\035~\334"
 141      679D2346 
 141      A37A053E 
 141      85CB4684 
 141      511D7EDC 
 142 0165 FFA63276 		.ascii	"\377\2462v,B/p\002\007\217B\344\242 L\200~\200\326A"
 142      2C422F70 
 142      02078F42 
 142      E4A2204C 
 142      807E80D6 
 143 017a 5368CF0B 		.ascii	"Sh\317\013\334Z.\014\035\361&\223\250\037\372=\376`"
 143      DC5A2E0C 
 143      1DF12693 
 143      A81FFA3D 
 143      FE60
 144 018c 727AAD5E 		.ascii	"rz\255^aU3\364\307T\364\000\243Z\303\215f\256R\207\271"
 144      615533F4 
 144      C754F400 
 144      A35AC38D 
 144      66AE5287 
 145 01a1 A22C9216 		.ascii	"\242,\222\026\214\242P\245\3603\212\365\272~\012\302"
 145      8CA250A5 
 145      F0338AF5 
 145      BA7E0AC2 
 146 01b1 990B3FE3 		.ascii	"\231\013?\343\304\211\256\205\313\317\241\017\312-\243"
 146      C489AE85 
 146      CBCFA10F 
 146      CA2DA3
 147 01c0 AFE35480 		.ascii	"\257\343T\200\321\014`\243gV79\260:*\007\253\033\034"
 147      D10C60A3 
 147      67563739 
 147      B03A2A07 
 147      AB1B1C
 148 01d3 587D00FD 		.ascii	"X}\000\375\216\365\254p\262\300=;\306\021\341\367\334"
 148      8EF5AC70 
 148      B2C03D3B 
 148      C611E1F7 
 148      DC
ARM GAS  /tmp/ccnI9Qb6.s 			page 11


 149 01e4 03E4CA47 		.ascii	"\003\344\312G|\003\036<\227\017\325\257|\232\275\234"
 149      7C031E3C 
 149      970FD5AF 
 149      7C9ABD9C 
 150 01f4 085BA1EB 		.ascii	"\010[\241\353'\320&j\365\3636\3066Ho\217C\274\246\276"
 150      27D0266A 
 150      F5F336C6 
 150      36486F8F 
 150      43BCA6BE 
 151 0208 FFBD750B 		.ascii	"\377\275u\013\376MQB\002\267\205x\316d\016\3407sOx\306"
 151      FE4D5142 
 151      02B78578 
 151      CE640EE0 
 151      37734F78 
 152 021d D9D7D1DD 		.ascii	"\331\327\321\335\303U\203\310\002\267\225 \265pF(\201"
 152      C35583C8 
 152      02B79520 
 152      B5704628 
 152      81
 153 022e CB0B1B7D 		.ascii	"\313\013\033}\021\356\325\006\030\017nq_\337\342<\306"
 153      11EED506 
 153      180F6E71 
 153      5FDFE23C 
 153      C6
 154 023f BDC49EE0 		.ascii	"\275\304\236\340\233 \0322\335\303\250II_\353\337>\177"
 154      9B201A32 
 154      DDC3A849 
 154      495FEBDF 
 154      3E7F
 155 0251 E7D8E54A 		.ascii	"\347\330\345J\272F\031\034|\211\351\235GgL\014>\212"
 155      BA46191C 
 155      7C89E99D 
 155      47674C0C 
 155      3E8A
 156 0263 D62A4A83 		.ascii	"\326*J\203\262MQ\302\304\022<\272DZ\354\340\036\266"
 156      B24D51C2 
 156      C4123CBA 
 156      445AECE0 
 156      1EB6
 157 0275 159C3442 		.ascii	"\025\2344B8\327\275\211\373W6*>bm\304h\014<\357\344"
 157      38D7BD89 
 157      FB57362A 
 157      3E626DC4 
 157      680C3CEF 
 158 028a 0C5982F2 		.ascii	"\014Y\202\362\225\336\323\361\3728\245\271:=8\370\034"
 158      95DED3F1 
 158      FA38A5B9 
 158      3A3D38F8 
 158      1C
 159 029b 72EF367B 		.ascii	"r\3576{\231\333d\\\205GWL\302\330\263\265\307\314\326"
 159      99DB645C 
 159      8547574C 
 159      C2D8B3B5 
 159      C7CCD6
 160 02ae 3E2B5BFD 		.ascii	">+[\375\365\375w\272/Us\213\3466w*\327\006\007G\032"
 160      F5FD77BA 
 160      2F55738B 
ARM GAS  /tmp/ccnI9Qb6.s 			page 12


 160      E636772A 
 160      D7060747 
 161 02c3 390BA197 		.ascii	"9\013\241\227I:\232\247\314\341~\233;\037\265s!\340"
 161      493A9AA7 
 161      CCE17E9B 
 161      3B1FB573 
 161      21E0
 162 02d5 6E857342 		.ascii	"n\205sB\302\015\020\263$\275V\2578g\377o3\006\216!\374"
 162      C20D10B3 
 162      24BD56AF 
 162      3867FF6F 
 162      33068E21 
 163 02ea 0CF9C142 		.ascii	"\014\371\301B\371~&h\355\210\265d\233\036\273l\204\275"
 163      F97E2668 
 163      ED88B564 
 163      9B1EBB6C 
 163      84BD
 164 02fc 7402B78E 		.ascii	"t\002\267\216\373\201\333Lj\351\377@\246\177\203\005"
 164      FB81DB4C 
 164      6AE9FF40 
 164      A67F8305 
 165 030c 89115B78 		.ascii	"\211\021[x\263\021i\243\203\266V:{\374\202\260\\\371"
 165      B31169A3 
 165      83B6563A 
 165      7BFC82B0 
 165      5CF9
 166 031e A3EAD47B 		.ascii	"\243\352\324{\211S\237s\2008do\350\205_:\032:\253\013"
 166      89539F73 
 166      8038646F 
 166      E8855F3A 
 166      1A3AAB0B 
 167 0332 76993317 		.ascii	"v\2313\027\226\333$\315\327\016\254|`\313\312\3227\332"
 167      96DB24CD 
 167      D70EAC7C 
 167      60CBCAD2 
 167      37DA
 168 0344 C7292D5E 		.ascii	"\307)-^C\241;\213#\334\207\026\221!C\227\270\232\375"
 168      43A13B8B 
 168      23DC8716 
 168      91214397 
 168      B89AFD
 169 0357 2AC07F20 		.ascii	"*\300\177 -s5\236i\377\011\311\200\275\334}\000\323"
 169      2D73359E 
 169      69FF09C9 
 169      80BDDC7D 
 169      00D3
 170 0369 E933B29D 		.ascii	"\3513\262\235\023\206G=\204\344# \247\2044\000\372o"
 170      1386473D 
 170      84E42320 
 170      A7843400 
 170      FA6F
 171 037b 367D5ACD 		.ascii	"6}Z\315\315!)\021\177\207l\264\301>\217\240f H\337<"
 171      CD212911 
 171      7F876CB4 
 171      C13E8FA0 
 171      662048DF 
 172 0390 BC92539A 		.ascii	"\274\222S\232\377\310\331t9Q\3551\244c|\305\207\213"
ARM GAS  /tmp/ccnI9Qb6.s 			page 13


 172      FFC8D974 
 172      3951ED31 
 172      A4637CC5 
 172      878B
 173 03a2 B81A827F 		.ascii	"\270\032\202\177\212\260~\333\236\365\346\211N@<Z\340"
 173      8AB07EDB 
 173      9EF5E689 
 173      4E403C5A 
 173      E0
 174 03b3 C7249F58 		.ascii	"\307$\237XX\357\353VY\377\304\005\353\325\351\236WW"
 174      58EFEB56 
 174      59FFC405 
 174      EBD5E99E 
 174      5757
 175 03c5 8DC3AC0B 		.ascii	"\215\303\254\013\\\017\207S\347*\015\327\316t\332P\213"
 175      5C0F8753 
 175      E72A0DD7 
 175      CE74DA50 
 175      8B
 176 03d6 90C69811 		.ascii	"\220\306\230\021\257\367pA\275\240\202\255\361\014V"
 176      AFF77041 
 176      BDA082AD 
 176      F10C56
 177 03e5 68C7AAEA 		.ascii	"h\307\252\352\200\031i\005\256\217\304\362Y\356\021"
 177      80196905 
 177      AE8FC4F2 
 177      59EE11
 178 03f4 A8CF41AD 		.ascii	"\250\317A\255}x\264\301\257Z\325Nu\271E\370\356\360"
 178      7D78B4C1 
 178      AF5AD54E 
 178      75B945F8 
 178      EEF0
 179 0406 4AA21296 		.ascii	"J\242\022\226S\334\214\305\315l,\036 #\350f\277\315"
 179      53DC8CC5 
 179      CD6C2C1E 
 179      2023E866 
 179      BFCD
 180 0418 60EC0A68 		.ascii	"`\354\012h_\355\207\177e\203\361e\002\265\323o\036\214"
 180      5FED877F 
 180      6583F165 
 180      02B5D36F 
 180      1E8C
 181 042a 83A6C138 		.ascii	"\203\246\3018h\034T\203\341\314\005\036KG\"\257\315"
 181      681C5483 
 181      E1CC051E 
 181      4B4722AF 
 181      CD
 182 043b 79D46656 		.ascii	"y\324fV\240\235\3312\331\337\244@\354\204}\015\334\342"
 182      A09DD932 
 182      D9DFA440 
 182      EC847D0D 
 182      DCE2
 183 044d B94AE778 		.ascii	"\271J\347x\325\221\363\234\344\346\321\373\244\263\253"
 183      D591F39C 
 183      E4E6D1FB 
 183      A4B3AB
 184 045c 6647EEB9 		.ascii	"fG\356\271\330\371\3702E\031E\277\312\355\307;\0177"
ARM GAS  /tmp/ccnI9Qb6.s 			page 14


 184      D8F9F832 
 184      451945BF 
 184      CAEDC73B 
 184      0F37
 185 046e 12A3E5CC 		.ascii	"\022\243\345\314$\274\332\375\243\244\373[\244\373\257"
 185      24BCDAFD 
 185      A3A4FB5B 
 185      A4FBAF
 186 047d CCDDAFFA 		.ascii	"\314\335\257\372\254\363\277i\367_\271\352~\317\311"
 186      ACF3BF69 
 186      F75FB9EA 
 186      7ECFC9
 187 048c 25D6EE1D 		.ascii	"%\326\356\0353 \263v\317\305\313\017\256&\235|C\302"
 187      3320B376 
 187      CFC5CB0F 
 187      AE269D7C 
 187      43C2
 188 049e 6547C06C 		.ascii	"eG\300l\354\347\364\203\216:\317\324\032\360\350\275"
 188      ECE7F483 
 188      8E3ACFD4 
 188      1AF0E8BD 
 189 04ae 80CAFD90 		.ascii	"\200\312\375\220\242\025\304\274\374?\233`\342\364J"
 189      A215C4BC 
 189      FC3F9B60 
 189      E2F44A
 190 04bd 9ECA43DA 		.ascii	"\236\312C\3323b\241A\021\1778I\342\237\202\275\357\006"
 190      3362A141 
 190      117F3849 
 190      E29F82BD 
 190      EF06
 191 04cf CCD191AA 		.ascii	"\314\321\221\252\323mz\260\016\317`F\316\216\351\301"
 191      D36D7AB0 
 191      0ECF6046 
 191      CE8EE9C1 
 192 04df 0EB9011B 		.ascii	"\016\271\001\033\345\314Y\257\036\354\210g0#g\037\352"
 192      E5CC59AF 
 192      1EEC8867 
 192      3023671F 
 192      EA
 193 04f0 C1BADD80 		.ascii	"\301\272\335\200\215u\346\354\204\036\354\270g0#g\037"
 193      8D75E6EC 
 193      841EECB8 
 193      67302367 
 193      1F
 194 0501 EBC14EBA 		.ascii	"\353\301N\272\001+\264\341L\3738\315\006\376\232\231"
 194      012BB4E1 
 194      4CFB38CD 
 194      06FE9A99 
 195 0511 5CF1E874 		.ascii	"\\\361\350t@M\010\036}\032e0>\015x\315`\006\271!\203"
 195      404D081E 
 195      7D1A6530 
 195      3E0D78CD 
 195      6006B921 
 196 0526 9D5D4333 		.ascii	"\235]C3\230:\224\235s\203\230\305a\352\273t\343\342"
 196      983A949D 
 196      738398C5 
 196      61EABB74 
ARM GAS  /tmp/ccnI9Qb6.s 			page 15


 196      E3E2
 197 0538 25CF6046 		.ascii	"%\317`F\2634Q\260\003\004\354\252\033\260,\016s\014"
 197      B33451B0 
 197      0304ECAA 
 197      1BB02C0E 
 197      730C
 198 054a 83D94DA6 		.ascii	"\203\331M\246\323\265J\0357g\353\203Y\3472\220\303\376"
 198      D3B54A1D 
 198      3767EB83 
 198      59E73290 
 198      C3FE
 199 055c A195E4B0 		.ascii	"\241\225\344\260%<\036\260\276\012\330\216}\256\260"
 199      253C1EB0 
 199      BE0AD88E 
 199      7DAEB0
 200 056b F6D5DEDE 		.ascii	"\366\325\336\336\317\315%\243_#\001\273cI\210a\323\350"
 200      CFCD25A3 
 200      5F2301BB 
 200      63498861 
 200      D3E8
 201 057d 17360E67 		.ascii	"\0276\016g\341p\346bP\375\030\2270\256i\234\234u1\257"
 201      E170E662 
 201      50FD1897 
 201      30AE699C 
 201      9C7531AF 
 202 0591 73D6DA3C 		.ascii	"s\326\332<\257\3127;\3327\015\334\327\325\312\262\361"
 202      AFCA373B 
 202      DA370DDC 
 202      D7D5CAB2 
 202      F1
 203 05a2 BAED22A7 		.ascii	"\272\355\"\247\025\214:\333\270\376\271\217\3146V\022"
 203      158C3ADB 
 203      B8FEB98F 
 203      CC365612 
 204 05b2 25BD9667 		.ascii	"%\275\226g\253q\027@\373j7\027\023\240\325\004hi\236"
 204      AB711740 
 204      FB6A3717 
 204      13A0D504 
 204      68699E
 205 05c5 59DB9C49 		.ascii	"Y\333\234I\333\234Qs\332\342\211\255\235\274\264\345"
 205      DB9C5173 
 205      DAE289AD 
 205      9DBCB4E5 
 206 05d5 51935975 		.ascii	"Q\223Yu\006\026\263\244\023Mu\267\275\253\356\032S\335"
 206      0616B3A4 
 206      134D75B7 
 206      BDABEE1A 
 206      53DD
 207 05e7 3A22F13A 		.ascii	":\"\361:\213\304X\023\336\304x\313\263\030!\243\030"
 207      8BC45813 
 207      DEC478CB 
 207      B31821A3 
 207      18
 208 05f8 4D83DEC5 		.ascii	"M\203\336\305\370\226\211\261\211\210\261\355\357 \306"
 208      F89689B1 
 208      8988B1ED 
 208      EF20C6
ARM GAS  /tmp/ccnI9Qb6.s 			page 16


 209 0607 5ECF628C 		.ascii	"^\317b\214\322\211A\026\036Kh\306\374\036j\310>\347"
 209      D2894116 
 209      1E4B68C6 
 209      FC1E6AC8 
 209      3EE7
 210 0619 C3FC6CE1 		.ascii	"\303\374l\341\277g\230p\245?:\312\025\322\307\271\227"
 210      BF679870 
 210      A53F3ACA 
 210      15D2C7B9 
 210      97
 211 062a 5B5F1F5D 		.ascii	"[_\037]\311\326,t\357\253\235\360\216i\2072\013R\322"
 211      C9D62C74 
 211      EFAB9DF0 
 211      8E698732 
 211      0B52D2
 212 063d F5DD249D 		.ascii	"\365\335$\235R\260\216{\002\253N\257^\250.\250\310V"
 212      52B08E7B 
 212      02AB4EAF 
 212      5EA82EA8 
 212      C856
 213 064f 54F73DC2 		.ascii	"T\367=\302\375\241\333\234\235MS\314^\207\334\243\255"
 213      FDA1DB9C 
 213      9D4D53CC 
 213      5E87DCA3 
 213      AD
 214 0660 353BF6B3 		.ascii	"5;\366\263\025\305n\0363t\302\342,=\234i\226\211\037"
 214      15C56E1E 
 214      3374C2E2 
 214      2C3D9C69 
 214      96891F
 215 0673 E89A38D9 		.ascii	"\350\2328\331p\227>\021^\2717\033\200\377\334X\254\216"
 215      70973E11 
 215      5EB9371B 
 215      80FFDC58 
 215      AC8E
 216 0685 B8D4105F 		.ascii	"\270\324\020_\336\243\346\276c\206\310\265\"\370\265"
 216      DEA3E6BE 
 216      6386C8B5 
 216      22F8B5
 217 0694 8A554004 		.ascii	"\212U@\004\271I\272M\363\246\005\301\362[\375\265L\217"
 217      B949BA4D 
 217      F3A605C1 
 217      F25BFDB5 
 217      4C8F
 218 06a6 F8BBDC4E 		.ascii	"\370\273\334Nzf \2544\024\320\025\276\300\375\231\343"
 218      7A6620AC 
 218      3414D015 
 218      BEC0FD99 
 218      E3
 219 06b7 19AADDF8 		.ascii	"\031\252\335\370\227\333E\373\304\316\361\036\366\206"
 219      97DB45FB 
 219      C4CEF11E 
 219      F686
 220 06c5 77B0F5E8 		.ascii	"w\260\365\350\001\232\346\202f\223o5gv\017[\263<j\015"
 220      019AE682 
 220      66936F35 
 220      67760F5B 
ARM GAS  /tmp/ccnI9Qb6.s 			page 17


 220      B33C6A0D 
 221 06d9 724661DC 		.ascii	"rFa\334N\353\265\217\223K\265\353]jK\360\236\034\000"
 221      4EEBB58F 
 221      934BB5EB 
 221      5D6A4BF0 
 221      9E1C00
 222 06ec 5CAA631D 		.ascii	"\\\252c\035u\251\\.\240h\247\021\243H\317;I\317G\314"
 222      75A95C2E 
 222      A068A711 
 222      A348CF3B 
 222      49CF47CC 
 223 0700 3E70E76F 		.ascii	">p\347o\235/\263\315\225#\256|\340\206\215\017\034\031"
 223      9D2FB3CD 
 223      9523AE7C 
 223      E0868D0F 
 223      1C19
 224 0712 A20F8043 		.ascii	"\242\017\200C_9\304\0218:\211\354\323\230\364h\005\006"
 224      5F39C411 
 224      383A89EC 
 224      D398F468 
 224      0506
 225 0724 775BF4AA 		.ascii	"w[\364\252\030\352]\351S\0038U\177\310\343\235\253\013"
 225      18EA5DE9 
 225      53033855 
 225      7FC8E39D 
 225      AB0B
 226 0736 16D7A29A 		.ascii	"\026\327\242\232\321\271VF\215\002w\224\307\2736\335"
 226      D1B95646 
 226      8D027794 
 226      C7BB36DD 
 227 0746 3CDEB539 		.ascii	"<\336\2659F\352^^\267w\343\344\026\3073n!p\375f5\272"
 227      46EA5E5E 
 227      B777E3E4 
 227      16C7336E 
 227      2170FD66 
 228 075c 9DDBE7EC 		.ascii	"\235\333\347\354\246K\357}_\334\243\367}\323w\324\217"
 228      A64BEF7D 
 228      5FDCA3F7 
 228      7DD377D4 
 228      8F
 229 076d 8F2E7C1E 		.ascii	"\217.|\036\266\221\336ba{\212\204\355\327\026\335^6"
 229      B691DE62 
 229      617B8A84 
 229      EDD716DD 
 229      5E36
 230 077f 87AD9BDD 		.ascii	"\207\255\233\335\234\301\241\012\242}`\232\033r1\315"
 230      9CC1A10A 
 230      A27D609A 
 230      1B7231CD 
 231 078f 2DB4D1B9 		.ascii	"-\264\321\271\232\335\233N,q\271#\244m\356\036\231\303"
 231      9ADD9B4E 
 231      2C71B923 
 231      A46DEE1E 
 231      99C3
 232 07a1 F648CF12 		.ascii	"\366H\317\022O\253\013\331\357\221f\331Zj$$\347\315"
 232      4FAB0BD9 
 232      EF9166D9 
ARM GAS  /tmp/ccnI9Qb6.s 			page 18


 232      5A6A2424 
 232      E7CD
 233 07b3 617CB3E9 		.ascii	"a|\263\351\210\272Gz\336E\030W\247\267\033\366HU\017"
 233      88BA477A 
 233      DE451857 
 233      A7B71BF6 
 233      48550F
 234 07c6 3C9FDD03 		.ascii	"<\237\335\003\263j\324`\304\363"
 234      B36AD460 
 234      C4F3
 235 07d0 BA00B940 		.ascii	"\272\000\271@\002d@\037\024<\332\340F\373\2179\271\""
 235      0264401F 
 235      143CDAE0 
 235      46FB8F39 
 235      B922
 236 07e2 A4A15EBA 		.ascii	"\244\241^\272=\255n7\277m\306\263KD\006<\2755a-{\234"
 236      3DAD6E37 
 236      BF6DC6B3 
 236      4B44063C 
 236      BD35612D 
 237 07f8 CC97A897 		.ascii	"\314\227\250\227\356v\303\334xg\260\325\213U\345v\221"
 237      EE76C3DC 
 237      7867B0D5 
 237      8B55E576 
 237      91
 238 0809 F9C97E37 		.ascii	"\371\311~7x\023\234\204\255N\357:\256N\016\351f\354"
 238      78139C84 
 238      AD4EEF3A 
 238      AE4E0EE9 
 238      66EC
 239 081b 21CF7846 		.ascii	"!\317xF\376>Zl\230\317\365\272\201\233\350\332\366\231"
 239      FE3E5A6C 
 239      98CFF5BA 
 239      819BE8DA 
 239      F699
 240 082d B307813B 		.ascii	"\263\007\201;I\266\264?&[\332\027H\375\005\251\027\220"
 240      49B6B43F 
 240      265BDA17 
 240      48FD05A9 
 240      1790
 241 083f 44F93AA9 		.ascii	"D\371:\251\353I\335@\352\025\244^K\352\215\244\336L"
 241      EB49DD40 
 241      EA15A45E 
 241      4BEA8DA4 
 241      DE4C
 242 0851 EA3E525F 		.ascii	"\352>R_\"\365\025R\177N\352\253\244\376\322M\3025\315"
 242      22F51552 
 242      7F4EEAAB 
 242      A4FED24D 
 242      C235CD
 243 0864 00B5D3A2 		.ascii	"\000\265\323\242-4\001\231\016\214>6\205\246*\334W\274"
 243      2D340199 
 243      0E8C3E36 
 243      85A62ADC 
 243      57BC
 244 0876 DD8151E3 		.ascii	"\335\201Q\343\351\266\207\264\343/\323\211\021\356\327"
 244      E9B687B4 
ARM GAS  /tmp/ccnI9Qb6.s 			page 19


 244      E32FD389 
 244      11EED7
 245 0885 89A7EBBC 		.ascii	"\211\247\353\274\365\364t\300\241\347\033\266=\267o"
 245      F5F474C0 
 245      A1E71BB6 
 245      3DB76F
 246 0894 38F5ECAA 		.ascii	"8\365\354\252mJ\315+\312\335\301\2278\017]\337\344\255"
 246      6D4ACD2B 
 246      CADDC197 
 246      380F5DDF 
 246      E4AD
 247 08a6 E7FDECDA 		.ascii	"\347\375\354\332}v?\331z\356'o\223\235\222[$pn\204\315"
 247      7D763FD9 
 247      7AEE276F 
 247      939D925B 
 247      24706E84 
 248 08bb E93D60CA 		.ascii	"\351=`\312\356\001cv\017\2043\027\231\255}\215\247\001"
 248      EE016376 
 248      0F843317 
 248      99AD7D8D 
 248      A701
 249 08cd 6A1BFBA3 		.ascii	"j\033\373\243U|r\236\205\267\366\015\373\307n$\274\015"
 249      557C729E 
 249      85B7F60D 
 249      FBC76E24 
 249      BC0D
 250 08df 9220BC6D 		.ascii	"\222 \274m\341\255\325\274Hh5\272\210I;V'\251\031fo"
 250      E1ADD5BC 
 250      486835BA 
 250      88493B56 
 250      27A91966 
 251 08f4 AAB93E5B 		.ascii	"\252\271>['y\243m\234\223\223l\311rL<\317g\262\0246"
 251      2779A36D 
 251      9C93936C 
 251      C9724C3C 
 251      CF67B214 
 252 0909 6B0EF75D 		.ascii	"k\016\367]\352\300Y\235\221\263\357\243\026\245\271"
 252      EAC0599D 
 252      91B3EFA3 
 252      16A5B9
 253 0918 A1FFCEC2 		.ascii	"\241\377\316\302\263\015\\\003>zU\32209~\230\230\203"
 253      B30D5C03 
 253      3E7A55D2 
 253      30397E98 
 253      9883
 254 092a 47CD1A88 		.ascii	"G\315\032\210\023k\257f\3400\324;\370 \270o\016\267"
 254      136BAF66 
 254      E030D43B 
 254      F820B86F 
 254      0EB7
 255 093c 58D1A0D4 		.ascii	"X\321\240\324wetk\274t\266c\004\353\211\000k\325\254"
 255      7765746B 
 255      BC74B663 
 255      04EB8900 
 255      6BD5AC
 256 094f 4DDBEE27 		.ascii	"M\333\356'\2173\300\204\300\241\025\344\030\237\372"
 256      8F33C084 
ARM GAS  /tmp/ccnI9Qb6.s 			page 20


 256      C0A115E4 
 256      189FFA
 257 095e 36CE7AFD 		.ascii	"6\316z\375LCw\013\223\177\263\240V\230\205FI\301\234"
 257      4C43770B 
 257      937FB3A0 
 257      56988546 
 257      49C19C
 258 0971 379B3E3A 		.ascii	"7\233>:\3105d$\265\233j\006U\230$\322\255^\257\267\260"
 258      C8356424 
 258      B59B6A06 
 258      559824D2 
 258      AD5EAFB7 
 259 0986 1DC1453E 		.ascii	"\035\301E><tm\036f;\013p\006\342\321\036B\262\304g\231"
 259      3C746D1E 
 259      663B0B70 
 259      06E2D11E 
 259      42B2C467 
 260 099b 05F4D5B2 		.ascii	"\005\364\325\262Y\000\376.\367d~\321\031\307C\336~M"
 260      5900FE2E 
 260      F7647ED1 
 260      19C743DE 
 260      7E4D
 261 09ad 050FEA78 		.ascii	"\005\017\352x?s\362\034\343}\031\341\375\375\334\274"
 261      3F73F21C 
 261      E37D19E1 
 261      FDFDDCBC 
 262 09bd 1B817874 		.ascii	"\033\201xt\214\220\254\260\362~u\036\343}\205+\336w"
 262      8C90ACB0 
 262      F27E751E 
 262      E37D852B 
 262      DE77
 263 09cf 9DD4CF00 		.ascii	"\235\324\317\000\324\245\010\246\035\332Rd7=\027\030"
 263      D4A508A6 
 263      1DDA5264 
 263      373D1718 
 264 09df 20DB4A9F 		.ascii	" \333J\237\233\301<-D\024\365\310\210\036\001\316\347"
 264      9BC13C2D 
 264      4414F5C8 
 264      881E01CE 
 264      E7
 265 09f0 BD82151A 		.ascii	"\275\202\025\0328;\336h\234\253\275\346\006/\313\276"
 265      383BDE68 
 265      9CABBDE6 
 265      062FCBBE 
 266 0a00 3D3B9BA1 		.ascii	"=;\233\241`\013=\203\031\231;}Rw\010\320\247\3316\013"
 266      600B3D83 
 266      19993B7D 
 266      527708D0 
 266      A7D9360B 
 267 0a14 98DDBEBD 		.ascii	"\230\335\276\275\335G\357$\002\267\312\207g\022M><\336"
 267      DD47EF24 
 267      02B7CA87 
 267      67124D3E 
 267      3CDE
 268 0a26 AF267533 		.ascii	"\257&u3\251[H\275\206\324k}\2069\346E-Jl]1\227K(\351"
 268      A95B48BD 
 268      86D46B7D 
ARM GAS  /tmp/ccnI9Qb6.s 			page 21


 268      8639E645 
 268      2D4A6C5D 
 269 0a3f E5CEE161 		.ascii	"\345\316\341a\330a\321\"\373\322\034n\036q\341\015$"
 269      D861D122 
 269      FBD21C6E 
 269      1E71E10D 
 269      24
 270 0a50 3ABEC81D 		.ascii	":\276\310\035\035\246\235\232\352|L\321j\011\216\276"
 270      1DA69D9A 
 270      EA7C4CD1 
 270      6A098EBE 
 271 0a60 136A70B4 		.ascii	"\023jp\264\272\010\216\352\364\247K\335m\024\031\023"
 271      BA088EEA 
 271      F4A74BDD 
 271      6D141913 
 272 0a70 9D16E517 		.ascii	"\235\026\345\027\324w9\336&r,\317\317\375\032\212\001"
 272      D47739DE 
 272      26722CCF 
 272      CFFD1A8A 
 272      01
 273 0a81 88479B08 		.ascii	"\210G\233\010\3116\253 \035\252 \333\\\011\262j\251"
 273      C936AB20 
 273      1DAA20DB 
 273      5C09B26A 
 273      A9
 274 0a92 EAFB5B7C 		.ascii	"\352\373[|\231u\312\266\354\036\346h\322\352t\323\011"
 274      9975CAB6 
 274      EC1EE668 
 274      D2EA74D3 
 274      09
 275 0aa3 BA2F4AC0 		.ascii	"\272/J\300\316{\0063\372\376\326\023+\307*\315\373\325"
 275      CE7B0633 
 275      FAFED613 
 275      2BC72ACD 
 275      FBD5
 276 0ab5 B72A945A 		.ascii	"\267*\224Z\345\261\215\031\225\214R\021x\275j\337}\202"
 276      E5B18D19 
 276      958C5211 
 276      78BD6ADF 
 276      7D82
 277 0ac7 2C8777FB 		.ascii	",\207w\373\360\363\275&\305\272\007\332W\273k\002\001"
 277      F0F3BD26 
 277      C5BA07DA 
 277      57BB6B02 
 277      01
 278 0ad8 DA4780FE 		.ascii	"\332G\200\376\224o\236\334\370L\023/\237q\342\345\013"
 278      946F9EDC 
 278      F84C132F 
 278      9F71E2E5 
 278      0B
 279 0ae9 672E0607 		.ascii	"g.\006\007}\310[c\036}\240\331\327\216\311\\\011\022"
 279      7DC85B63 
 279      1E7DA0D9 
 279      D78EC95C 
 279      0912
 280 0afb 6F641DF9 		.ascii	"od\035\371\235\315FV\316Y]\343\012\230_\260=K\0379\016"
 280      9DCD4656 
ARM GAS  /tmp/ccnI9Qb6.s 			page 22


 280      CE595DE3 
 280      0A985FB0 
 280      3D4B1F39 
 281 0b10 B6489E6B 		.ascii	"\266H\236kZ\307\243O\314\314{K\310\300\374\007o\252"
 281      5AC7A34F 
 281      CCCC7B4B 
 281      C8C0FC07 
 281      6FAA
 282 0b22 1BBB6405 		.ascii	"\033\273d\005u\316\015\240]F\266\373\350\303F\340v\220"
 282      75CE0DA0 
 282      5D46B6FB 
 282      E8C346E0 
 282      7690
 283 0b34 BCB793E4 		.ascii	"\274\267\223\344\267wI\275\213\324\355\244\376\223\317"
 283      B77749BD 
 283      8BD4EDA4 
 283      FE93CF
 284 0b43 C5CA073B 		.ascii	"\305\312\007;\273\206M\003\250u\310\001t\315\032@^\300"
 284      BB864D03 
 284      A875C801 
 284      74CD1A40 
 284      5EC0
 285 0b55 0C8A4CDF 		.ascii	"\014\212L\337`\001D\343A\340\332|&<o^\225^\322Xp\354"
 285      600144E3 
 285      41E0DA7C 
 285      263C6F5E 
 285      955ED258 
 286 0b6b D76A700D 		.ascii	"\327jp\015h\271\324-\230\372\226\265\255QZuFy\213\030"
 286      68B9D42D 
 286      98FA96B5 
 286      AD515A75 
 286      46798B18 
 287 0b7f 65333141 		.ascii	"e31A\007\251\017\222\272\3238\000\375%\3374\000\031"
 287      07A90F92 
 287      BAD33800 
 287      FD25DF34 
 287      0019
 288 0b91 B2BDDD70 		.ascii	"\262\275\335p\250W\217\222~\347\014\350\332\375\356"
 288      A8578F92 
 288      7EE70CE8 
 288      DAFDEE
 289 0ba0 D2557577 		.ascii	"\322Uuw\351\010\311\3327\354\263v\266\335\245\232\002"
 289      E908C9DA 
 289      37ECB376 
 289      B6DDA59A 
 289      02
 290 0bb1 4CD26D9D 		.ascii	"L\322m\235\233\335U\263vw\356\254]37\275\374\215\365"
 290      9BDD55B3 
 290      7677EEAC 
 290      5D3337BD 
 290      FC8DF5
 291 0bc4 99E167AE 		.ascii	"\231\341g\256\026\333\035YV9\007\364\357K,\321\370\360"
 291      16DB1D59 
 291      563907F4 
 291      EF4B2CD1 
 291      F8F0
 292 0bd6 E8A4F6A6 		.ascii	"\350\244\366\246\353\326\231\256\207\230\256\327h\250"
ARM GAS  /tmp/ccnI9Qb6.s 			page 23


 292      EBD699AE 
 292      8798AED7 
 292      68A8
 293 0be4 A60293A1 		.ascii	"\246\002\223\241<\356F\3559\243\316E\351{\233k\314x"
 293      3CEE46ED 
 293      39A3CE45 
 293      E97B9B6B 
 293      CC78
 294 0bf6 C6B734ED 		.ascii	"\306\2674\355\000\013\263\011\260D'\300R\"@#\361\267"
 294      000BB309 
 294      B04427C0 
 294      52224023 
 294      F1B7
 295 0c08 F5A4EE22 		.ascii	"\365\244\356\"\365\011\243H\233\013Lk\032\343\032\002"
 295      F509A348 
 295      9B0B4C6B 
 295      1AE31A02 
 296 0c18 A37E6C5C 		.ascii	"\243~l\\\3234\303\352mq_\213~M\243_d\3516\023\254\313"
 296      D334C3EA 
 296      6D715F8B 
 296      7E4DA35F 
 296      64E93613 
 297 0c2e A3D3D655 		.ascii	"\243\323\326U\026\217\3361\263`\245;cZ@\246\373\267"
 297      168FDE31 
 297      B360A53B 
 297      635A40A6 
 297      FBB7
 298 0c40 CFBFD902 		.ascii	"\317\277\331\002\013H\305\304\002~o\324\260\202T\275"
 298      0B48C5C4 
 298      027E6FD4 
 298      B08254BD 
 299 0c50 19BC32C7 		.ascii	"\031\2742\307\346>,o\017\224\300X\231\363,\000\222#"
 299      E63E2C6F 
 299      0F94C058 
 299      99F32C00 
 299      9223
 300 0c62 E8366733 		.ascii	"\3506g3\262\277i\012\221\364\337\304B\3724\367\224\346"
 300      B2BF690A 
 300      91F4DFC4 
 300      42FA34F7 
 300      94E6
 301 0c74 CE9D4E7A 		.ascii	"\316\235Nz\346q\200\214K\213\310\004\374\374\220\023"
 301      E671808C 
 301      4B8BC804 
 301      FCFC9013 
 302 0c84 F2E01502 		.ascii	"\362\340\025\002g\032F\367:\014\243\230\275\213>\323"
 302      671A46F7 
 302      3A0CA398 
 302      BD8B3ED3 
 303 0c94 78B89B18 		.ascii	"x\270\233\030\312\013\013\205\006\026\352;\310\230p"
 303      CA0B0B85 
 303      0616EA3B 
 303      C89870
 304 0ca3 910CC86D 		.ascii	"\221\014\310mn\300\262\344\360\006=\330A\317`\205\226"
 304      6EC0B2E4 
 304      F0063DD8 
 304      41CF6085 
ARM GAS  /tmp/ccnI9Qb6.s 			page 24


 304      96
 305 0cb4 E0A161F3 		.ascii	"\340\241a\363g\0226\027H\250\014\220\3722\251?3\206"
 305      67123617 
 305      48A80C90 
 305      FA32A93F 
 305      3386
 306 0cc6 4D778179 		.ascii	"Mw\201y:A\215\252\303\313\330\036\345F\264\267\201\311"
 306      3A418DAA 
 306      C3CBD81E 
 306      E546B4B7 
 306      81C9
 307 0cd8 58671DE4 		.ascii	"Xg\035\344\303\370W}\206\331L\006r\242Q|]\234P\"\373"
 307      C3F8577D 
 307      86D94C06 
 307      72A2517C 
 307      5D9C5022 
 308 0ced 6602F717 		.ascii	"f\002\367\027\237\327\037%}\351\263\377Q\222\376\365"
 308      9FD71F25 
 308      7DE9B3FF 
 308      5192FEF5 
 309 0cfd 984C2BFC 		.ascii	"\230L+\374\272\2339\360-L\\\203\270\177\010}Q\260J\241"
 309      BA9B39F0 
 309      2D4C5C83 
 309      B87F087D 
 309      51B04AA1 
 310 0d11 4F9E42DB 		.ascii	"O\236B\333\225\2724\204\320\247\300\235\346\026\377"
 310      95BA3484 
 310      D0A7C09D 
 310      E616FF
 311 0d20 876E29CB 		.ascii	"\207n)\313\224\376\355]7K\250L8G\034;\226\336z\020\247"
 311      94FEED5D 
 311      374BA84C 
 311      38471C3B 
 311      96DE7A10 
 312 0d35 5B9805DE 		.ascii	"[\230\005\336\205\014A\325\307\243\332\341\346\204g"
 312      850C41D5 
 312      C7A3DAE1 
 312      E68467
 313 0d44 89DA1B2C 		.ascii	"\211\332\033,\333\320\336&RJjB\332Uz\373A\316\315O\275"
 313      DBD0DE26 
 313      524A6A42 
 313      DA557AFB 
 313      41CECD4F 
 314 0d59 366AD063 		.ascii	"6j\320c\030\364w\236\265z\313A\253\367g\365\034\201"
 314      18F4779E 
 314      B57ACB41 
 314      ABF767F5 
 314      1C81
 315 0d6b FB36E310 		.ascii	"\3736\343\020\017\241\305\303W)\313&f\272\247\236\210"
 315      0FA1C5C3 
 315      5729CB26 
 315      66BAA79E 
 315      88
 316 0d7c 292E9266 		.ascii	").\222f\324'\365\367\2371a\353\224\364\356\240\232\013"
 316      D427F5F7 
 316      9F3161EB 
 316      94F4EEA0 
ARM GAS  /tmp/ccnI9Qb6.s 			page 25


 316      9A0B
 317 0d8e F4BFC561 		.ascii	"\364\277\305a\375R\011U\35739l\300Y\254;>\373_\242\011"
 317      FD520955 
 317      EF33396C 
 317      C059AC3B 
 317      3EFB5FA2 
 318 0da3 DC828C69 		.ascii	"\334\202\214i-Tw\035\251\026e\211\215AG*\274\273\355"
 318      2D54771D 
 318      A9166589 
 318      8D41472A 
 318      BCBBED
 319 0db6 44A5F89D 		.ascii	"D\245\370\235\250Ng\341p\216#\325\365,}U;RugI\320s\035"
 319      A84E67E1 
 319      708E23D5 
 319      F52C7D55 
 319      3B527567 
 320 0dce A9BAB250 		.ascii	"\251\272\262P\3258R\265e\241\232\227\241b?Pk\337ph\312"
 320      D53852B5 
 320      65A19A97 
 320      A1623F50 
 320      6BDF7068 
 321 0de3 DBF8056A 		.ascii	"\333\370\005j|\2440\247\346y\323V\365@\226I\334\313"
 321      7CA430A7 
 321      E679D356 
 321      F5409649 
 321      DCCB
 322 0df5 7EEB79C6 		.ascii	"~\353y\306\246\341\306\214\312~\015V\255l\333\210\177"
 322      A6E1C68C 
 322      CA7E0D56 
 322      AD6CDB88 
 322      7F
 323 0e06 DC46B7F8 		.ascii	"\334F\267\370\005\256\326o\377\3136\206W\347\267\373"
 323      05AED66F 
 323      FFCB3686 
 323      57E7B7FB 
 324 0e16 CDDA77BD 		.ascii	"\315\332w\275+\331o\326\332\225GB\324\024<\332\227\275"
 324      2BD96FD6 
 324      DA954742 
 324      D4143CDA 
 324      97BD
 325 0e28 47FA6E90 		.ascii	"G\372n\220\300\275\232\275\307\371\306\036\177\210\326"
 325      C0BD9ABD 
 325      C7F9C61E 
 325      7F88D6
 326 0e37 E3A9F0F6 		.ascii	"\343\251\360\366\256\333\243\227\327\207,o\030Yt\216"
 326      AEDBA397 
 326      D7872C6F 
 326      1859748E 
 327 0e47 77ED9DD4 		.ascii	"w\355\235\324\364zF\347\310\037-\027\244\274\311\377"
 327      F47A46E7 
 327      C81F2D17 
 327      A4BCC9FF 
 328 0e57 F9ABC249 		.ascii	"\371\253\302IhBQQ1\375K\244\212\243\211\312\312D\274"
 328      68425151 
 328      31FD4BA4 
 328      8AA389CA 
 328      CA44BC
ARM GAS  /tmp/ccnI9Qb6.s 			page 26


 329 0e6a 389990E4 		.ascii	"8\231\220\344T\361\363\277\2302i\312,\374,\031\253\020"
 329      54F1F3BF 
 329      983269CA 
 329      2CFC2C19 
 329      AB10
 330 0e7c A554F1E4 		.ascii	"\245T\361\344I\223\212\243\345\362\354\244\230**G\201"
 330      49938AA3 
 330      E5F2ECA4 
 330      982A2A47 
 330      81
 331 0e8d CA545944 		.ascii	"\312TYD\236Z\\\236\250\024\213\177SU\021\023\342\305"
 331      9E5A5C9E 
 331      A8148B7F 
 331      53551113 
 331      E2C5
 332 0e9f 537E3AF9 		.ascii	"S~:\371\371\342\224X)\246dI\214\304f\025\377\264r\232"
 332      F9E29458 
 332      29A66449 
 332      8CC46615 
 332      FFB4729A 
 333 0eb3 382D560A 		.ascii	"8-V\012\320\202T\371\344\217\306\227\374\270\250\244"
 333      D08254F9 
 333      E48FC697 
 333      FCB8A8A4 
 334 0ec3 845CC713 		.ascii	"\204\\\307\023q\361IQ\230\026+\216\305\243\025U\245"
 334      71F14951 
 334      98162B8E 
 334      C5A31555 
 334      A5
 335 0ed4 62714A2E 		.ascii	"bqJ.\215\305e@\016\302\277\037\377(\"\227h\254\311\000"
 335      8DC56540 
 335      0EC2BF1F 
 335      FF282297 
 335      68ACC900 
 336 0ee8 582CC9C5 		.ascii	"X,\311\305\251D\225\024\025\351-\256\")\361\267Ub<*"
 336      A9449514 
 336      15E92DAE 
 336      2229F1B7 
 336      55623C2A 
 337 0efc 46C68F7F 		.ascii	"F\306\217\177\246(\212\362\011O\345\222(\224\226p\311"
 337      A6288AF2 
 337      094FE592 
 337      28949670 
 337      C9
 338 0f0d FB4913F8 		.ascii	"\373I\023\370\006JID\234%F\253d\361A#hEl\032\310\024"
 338      064A4944 
 338      9C2546AB 
 338      64F14123 
 338      68456C1A 
 339 0f23 C1D758A6 		.ascii	"\301\327X\246\310\277'\022\025c\310mDH\245D)\323\305"
 339      C8BF2712 
 339      1563C86D 
 339      4448A544 
 339      29D3C5
 340 0f36 E3B9B991 		.ascii	"\343\271\271\221\022\011\2142\232\334\314\024b2\343"
 340      12098C32 
 340      9ADCCC14 
ARM GAS  /tmp/ccnI9Qb6.s 			page 27


 340      6232E3
 341 0f45 2535923C 		.ascii	"%5\222<\021+\361\223\304\213b\374a\275\322\001IUA\264"
 341      112BF193 
 341      C48B62FC 
 341      61BDD201 
 341      495541B4 
 342 0f59 1C040084 		.ascii	"\034\004\000\204G\035\277O\315N\251\006\010Q\360\210"
 342      471DBF4F 
 342      CD4EA906 
 342      0851F088 
 343 0f69 1CC60290 		.ascii	"\034\306\002\220\353Bg\272hy)\320\214d\014E@\246*1\""
 343      EB4267BA 
 343      687929D0 
 343      8C640C45 
 343      40A62A31 
 344 0f7e 8FD248D9 		.ascii	"\217\322H\331#\177\\\234%\373\223\2228#@\356\203rR\212"
 344      237F5C9C 
 344      25FB9392 
 344      382340EE 
 344      8372528A 
 345 0f92 252272A8 		.ascii	"%\"r\250\212\031\305\217\357\013\260\207D\242"
 345      8A19C58F 
 345      EF0BB087 
 345      44A2
 346 0fa0 89B80CAD 		.ascii	"\211\270\014\255\037\317\351A\345\321\204$B\357\371"
 346      1FCFE941 
 346      E5D18424 
 346      42EFF9
 347 0faf 840C80A2 		.ascii	"\204\014\200\242\362\254'\335QEf<S\211e\225\3042\360"
 347      F2AC27DD 
 347      5145663C 
 347      53896595 
 347      C432F0
 348 0fc2 9A88CC4B 		.ascii	"\232\210\314KO\361\322?\363\322\323\274\364\014/M\340"
 348      4FF1D23F 
 348      F3D2D3BC 
 348      F40C2F4D 
 348      E0
 349 0fd3 A57FF149 		.ascii	"\245\177\361I%\343\241\224\360\025\022\237J\372\000"
 349      25E3A194 
 349      F015129F 
 349      4AFA00
 350 0fe2 3A101767 		.ascii	":\020\027g\212R QQ*J\376\270P)\016K\311/\012\025\261"
 350      8A522051 
 350      512A4AFE 
 350      B850290E 
 350      4BC92F0A 
 351 0ff8 B23893E3 		.ascii	"\2628\223\343\351\247\"r"
 351      E9A72272 
 352 1000 DE4C619A 		.ascii	"\336La\232\220\022CrJ\026d\320D\020\1771!\"\007\310"
 352      90124372 
 352      4A1664D0 
 352      44107F31 
 352      212207C8 
 353 1014 7D50AE4C 		.ascii	"}P\256L\224\302\323\300\364\012\241,\025\004o\236\236"
 353      94C2D3C0 
 353      F40AA12C 
ARM GAS  /tmp/ccnI9Qb6.s 			page 28


 353      15046F9E 
 353      9E
 354 1025 02D9F1BF 		.ascii	"\002\331\361\277<\251t6X)$\316\212\311Qh\2247SNL\373"
 354      3CA97436 
 354      582924CE 
 354      8AC95168 
 354      9437534E 
 355 103b 4DF23E66 		.ascii	"M\362>f\015h\"J\304%\345\300LY\226\222\301\224\030\227"
 355      0D68224A 
 355      C425E5C0 
 355      4C599692 
 355      C1941897 
 356 104f 81A00054 		.ascii	"\201\240\000T\015\241!$\313A,g\007\200&\330\021\243"
 356      0DA12124 
 356      CB412C67 
 356      078026D8 
 356      11A3
 357 1061 7170151F 		.ascii	"qp\025\037\324\000\017\217\222!\240\256\004\367\235"
 357      D4000F8F 
 357      9221A0AE 
 357      04F79D
 358 1070 95C575E4 		.ascii	"\225\305u\344Y\230213.JA\322\026K)\303\343d\2768\003"
 358      59983231 
 358      332E4A41 
 358      D2164B29 
 358      C3E364BE 
 359 1086 3321A45E 		.ascii	"3!\244^\204G\342L|\301U\215P\015_\021\003\347\224G\352"
 359      8447E24C 
 359      7CC1558D 
 359      500D5F11 
 359      03E79447 
 360 109b 5C013F09 		.ascii	"\\\001?\011b\007\216\305\313B\300;q\205\220\230\024"
 360      62078EC5 
 360      CB42C03B 
 360      71859098 
 360      14
 361 10ac E310A265 		.ascii	"\343\020\242eA\200\304-\300(B\005v\207@e\022\302\006"
 361      4180C42D 
 361      C0284205 
 361      76874065 
 361      12C206
 362 10bf 049C922A 		.ascii	"\004\234\222*\373\205X!\202^\303\344\346\277\000\342"
 362      FB855821 
 362      825EC3E4 
 362      E6BF00E2 
 363 10cf 1F1D1966 		.ascii	"\037\035\031f\275\001\323\302P\262\010\016\335\262h"
 363      BD01D3C2 
 363      50B2080E 
 363      DDB268
 364 10de D4944D9E 		.ascii	"\324\224M\236*\232PT\242\317)\245\342t\350!/\025\373"
 364      2A9A5054 
 364      A2CF29A5 
 364      E274E821 
 364      2F15FB
 365 10f1 5F6C6579 		.ascii	"_leyzU<\032\221GG\313\177Y^:\011\372\227\305\251`\360"
 365      7A553C1A 
 365      914747CB 
ARM GAS  /tmp/ccnI9Qb6.s 			page 29


 365      7F595E3A 
 365      09FA97C5 
 366 1108 5894323C 		.ascii	"X\2242<\025$\014\323\314\"\213I~\246\220\217\255\006"
 366      15240CD3 
 366      CC228B49 
 366      7EA6908F 
 366      AD06
 367 111a 312756D2 		.ascii	"1'V\3228\243\327\005\230\361\331Lq\303\341q\346>\030"
 367      38A3D705 
 367      98F1D94C 
 367      71C3E171 
 367      E63E18
 368 112d AD92C0FE 		.ascii	"\255\222\300\376r@\302wcf\304$\271J\250\210\310\261"
 368      7240C277 
 368      6366C424 
 368      B94AA888 
 368      C8B1
 369 113f 4A48A18C 		.ascii	"JH\241\214\342\001\240\260\371b\244\341\031\015N\303"
 369      E201A0B0 
 369      F962A4E1 
 369      190D4EC3 
 370 114f A330EE1D 		.ascii	"\2430\356\035.\230\033\227<\015>V*V\310Bh\006\223\313"
 370      2E981B97 
 370      3C0D3E56 
 370      2A56C842 
 370      680693CB 
 371 1163 8FFFF992 		.ascii	"\217\377\371\222\202\024\252\020R2n\2337C\306\330#\230"
 371      8214AA10 
 371      52326E9B 
 371      3743C6D8 
 371      2398
 372 1175 10A5E2B4 		.ascii	"\020\245\342\264\2522jl\375\223pR\210\307\242\0210\265"
 372      AA326A6C 
 372      FD937052 
 372      88C7A211 
 372      30B5
 373 1187 AF745AD9 		.ascii	"\257tZ\331\260J\001\340\211u\370hy\220\331)\220\022"
 373      B04A01E0 
 373      8975F868 
 373      7990D929 
 373      9012
 374 1199 E5AA6448 		.ascii	"\345\252dH\026\005\251\024\234,\310\022\3520\254\256"
 374      1605A914 
 374      9C2CC812 
 374      EA30ACAE 
 375 11a9 28981CB4 		.ascii	"(\230\034\264j\311\311\343\212\244D\251 \013E\226o\012"
 375      6AC9C9E3 
 375      8AA444A9 
 375      200B4596 
 375      6F0A
 376 11bb F4C979CC 		.ascii	"\364\311y\314\0241\225\022\312\304T\341TQ\232!J\205"
 376      14319512 
 376      CAC454E1 
 376      54519A21 
 376      4A85
 377 11cd 15894412 		.ascii	"\025\211D\022Q#M\026\345\237\203\217I1y\366\013\303"
 377      51234D16 
ARM GAS  /tmp/ccnI9Qb6.s 			page 30


 377      E59F838F 
 377      493179F6 
 377      0BC3
 378 11df D52753C5 		.ascii	"\325'S\305\212\351/\374?g\376~\302"
 378      8AE92FFC 
 378      3F67FE7E 
 378      C2
 379              		.text
 380              		.section	.gnu.lto_.symtab.b5056f4117fff6a0,"",%progbits
 381 0000 74657374 		.ascii	"test_sequence_007\000\000\000\000\000\000\000\000\000"
 381      5F736571 
 381      75656E63 
 381      655F3030 
 381      37000000 
 382 001a 000000DC 		.ascii	"\000\000\000\334\001\000\000test_step\000\000\002\000"
 382      01000074 
 382      6573745F 
 382      73746570 
 382      00000200 
 383 002e 00000000 		.ascii	"\000\000\000\000\000\000\000\000\211\001\000\000wa\000"
 383      00000000 
 383      89010000 
 383      776100
 384 003d 00020000 		.ascii	"\000\002\000\000\000\000\000\000\000\000\000\213\001"
 384      00000000 
 384      0000008B 
 384      01
 385 004a 00006368 		.ascii	"\000\000ch\000\000\002\000\000\000\000\000\000\000\000"
 385      00000200 
 385      00000000 
 385      000000
 386 0059 00900100 		.ascii	"\000\220\001\000\000threads\000\000\002\000\000\000"
 386      00746872 
 386      65616473 
 386      00000200 
 386      0000
 387 006b 00000000 		.ascii	"\000\000\000\000\000\000\331\001\000\000_test_asser"
 387      0000D901 
 387      00005F74 
 387      6573745F 
 387      61737365 
 388 0080 745F7365 		.ascii	"t_sequence\000\000\002\000\000\000\000\000\000\000\000"
 388      7175656E 
 388      63650000 
 388      02000000 
 388      00000000 
 389 0095 00BD0000 		.ascii	"\000\275\000\000\000test_wait_threads\000\000\002\000"
 389      00746573 
 389      745F7761 
 389      69745F74 
 389      68726561 
 390 00af 00000000 		.ascii	"\000\000\000\000\000\000\000\000\310\000\000\000tes"
 390      00000000 
 390      C8000000 
 390      746573
 391 00be 745F656D 		.ascii	"t_emit_token\000\000\002\000\000\000\000\000\000\000"
 391      69745F74 
ARM GAS  /tmp/ccnI9Qb6.s 			page 31


 391      6F6B656E 
 391      00000200 
 391      00000000 
 392 00d4 0000CA00 		.ascii	"\000\000\312\000\000\000chMsgRelease\000\000\002\000"
 392      00006368 
 392      4D736752 
 392      656C6561 
 392      73650000 
 393 00ea 00000000 		.ascii	"\000\000\000\000\000\000\000\000\316\000\000\000chM"
 393      00000000 
 393      CE000000 
 393      63684D
 394 00f9 73675761 		.ascii	"sgWait\000\000\002\000\000\000\000\000\000\000\000\000"
 394      69740000 
 394      02000000 
 394      00000000 
 394      0000
 395 010b 73010000 		.ascii	"s\001\000\000chThdCreateStatic\000\000\002\000\000\000"
 395      63685468 
 395      64437265 
 395      61746553 
 395      74617469 
 396 0126 00000000 		.ascii	"\000\000\000\000\000\000v\001\000\000chMsgSend\000\000"
 396      00007601 
 396      00006368 
 396      4D736753 
 396      656E6400 
 397 013b 02000000 		.ascii	"\002\000\000\000\000\000\000\000\000\000\204\001\000"
 397      00000000 
 397      00008401 
 397      00
 398 0148 00       		.ascii	"\000"
 399              		.text
 400              		.section	.gnu.lto_.opts,"",%progbits
 401 0000 272D6D63 		.ascii	"'-mcpu=cortex-m3' '-mno-thumb-interwork' '-mthumb' "
 401      70753D63 
 401      6F727465 
 401      782D6D33 
 401      2720272D 
 402 0033 272D6767 		.ascii	"'-ggdb' '-O2' '-fomit-frame-pointer' '-falign-funct"
 402      64622720 
 402      272D4F32 
 402      2720272D 
 402      666F6D69 
 403 0066 696F6E73 		.ascii	"ions=16' '-ffunction-sections' '-fdata-sections' '-"
 403      3D313627 
 403      20272D66 
 403      66756E63 
 403      74696F6E 
 404 0099 666E6F2D 		.ascii	"fno-common' '-flto'\000"
 404      636F6D6D 
 404      6F6E2720 
 404      272D666C 
 404      746F2700 
 405              		.text
 406              		.cfi_sections	.debug_frame
 407              		.section	.text.test_007_001_execute,"ax",%progbits
ARM GAS  /tmp/ccnI9Qb6.s 			page 32


 408              		.align	2
 409              		.p2align 4,,15
 410              		.thumb
 411              		.thumb_func
 412              		.type	test_007_001_execute, %function
 413              	test_007_001_execute:
 414              	.LFB220:
 415              		.file 1 "../../../test/rt/source/test/test_sequence_007.c"
 416              		.loc 1 76 0
 417              		.cfi_startproc
 418              		@ args = 0, pretend = 0, frame = 0
 419              		@ frame_needed = 0, uses_anonymous_args = 0
 420 0000 30B5     		push	{r4, r5, lr}
 421              		.cfi_def_cfa_offset 12
 422              		.cfi_offset 4, -12
 423              		.cfi_offset 5, -8
 424              		.cfi_offset 14, -4
 425              	.LBB13:
 426              	.LBB14:
 427              	.LBB15:
 428              	.LBB16:
 429              		.file 2 "../../../os/rt/include/chthreads.h"
 430              		.loc 2 286 0
 431 0002 40F20003 		movw	r3, #:lower16:ch
 432 0006 C0F20003 		movt	r3, #:upper16:ch
 433 000a 9969     		ldr	r1, [r3, #24]
 434              	.LBE16:
 435              	.LBE15:
 436              	.LBE14:
 437              	.LBE13:
 438              		.loc 1 83 0
 439 000c 40F20003 		movw	r3, #:lower16:wa
 440 0010 8A68     		ldr	r2, [r1, #8]
 441 0012 C0F20003 		movt	r3, #:upper16:wa
 442              		.loc 1 81 0
 443 0016 40F20004 		movw	r4, #:lower16:test_step
 444 001a C0F20004 		movt	r4, #:upper16:test_step
 445              		.loc 1 76 0
 446 001e 83B0     		sub	sp, sp, #12
 447              		.cfi_def_cfa_offset 24
 448              		.loc 1 83 0
 449 0020 1868     		ldr	r0, [r3]
 450              		.loc 1 81 0
 451 0022 0125     		movs	r5, #1
 452              		.loc 1 83 0
 453 0024 40F20003 		movw	r3, #:lower16:msg_thread1
 454 0028 0091     		str	r1, [sp]
 455 002a 0132     		adds	r2, r2, #1
 456 002c C0F20003 		movt	r3, #:upper16:msg_thread1
 457              		.loc 1 81 0
 458 0030 2560     		str	r5, [r4]
 459              		.loc 1 83 0
 460 0032 4FF4A471 		mov	r1, #328
 461 0036 FFF7FEFF 		bl	chThdCreateStatic
 462              	.LVL0:
 463 003a 40F20003 		movw	r3, #:lower16:threads
 464 003e C0F20003 		movt	r3, #:upper16:threads
ARM GAS  /tmp/ccnI9Qb6.s 			page 33


 465              		.loc 1 89 0
 466 0042 0222     		movs	r2, #2
 467 0044 2260     		str	r2, [r4]
 468              	.LVL1:
 469              		.loc 1 83 0
 470 0046 1860     		str	r0, [r3]
 471              		.loc 1 89 0
 472 0048 0424     		movs	r4, #4
 473              	.LVL2:
 474              	.L3:
 475              	.LBB17:
 476              		.loc 1 94 0 discriminator 2
 477 004a FFF7FEFF 		bl	chMsgWait
 478              	.LVL3:
 479              	.LBE17:
 480              		.loc 1 77 0 discriminator 2
 481 004e 456A     		ldr	r5, [r0, #36]
 482              	.LVL4:
 483              	.LBB18:
 484              		.loc 1 96 0 discriminator 2
 485 0050 2946     		mov	r1, r5
 486 0052 FFF7FEFF 		bl	chMsgRelease
 487              	.LVL5:
 488              		.loc 1 97 0 discriminator 2
 489 0056 E8B2     		uxtb	r0, r5
 490 0058 FFF7FEFF 		bl	test_emit_token
 491              	.LVL6:
 492              		.loc 1 93 0 discriminator 2
 493 005c 013C     		subs	r4, r4, #1
 494              	.LVL7:
 495 005e F4D1     		bne	.L3
 496              		.loc 1 99 0
 497 0060 FFF7FEFF 		bl	test_wait_threads
 498              	.LVL8:
 499              		.loc 1 100 0
 500 0064 40F20000 		movw	r0, #:lower16:.LC0
 501 0068 40F20001 		movw	r1, #:lower16:.LC1
 502 006c C0F20000 		movt	r0, #:upper16:.LC0
 503 0070 C0F20001 		movt	r1, #:upper16:.LC1
 504              	.LBE18:
 505              		.loc 1 102 0
 506 0074 03B0     		add	sp, sp, #12
 507              		@ sp needed
 508 0076 BDE83040 		pop	{r4, r5, lr}
 509              	.LVL9:
 510              	.LBB19:
 511              		.loc 1 100 0
 512 007a FFF7FEBF 		b	_test_assert_sequence
 513              	.LVL10:
 514              	.LBE19:
 515              		.cfi_endproc
 516              	.LFE220:
 517              		.size	test_007_001_execute, .-test_007_001_execute
 518 007e 00BF     		.section	.text.msg_thread1,"ax",%progbits
 519              		.align	2
 520              		.p2align 4,,15
 521              		.thumb
ARM GAS  /tmp/ccnI9Qb6.s 			page 34


 522              		.thumb_func
 523              		.type	msg_thread1, %function
 524              	msg_thread1:
 525              	.LFB219:
 526              		.loc 1 50 0
 527              		.cfi_startproc
 528              		@ args = 0, pretend = 0, frame = 0
 529              		@ frame_needed = 0, uses_anonymous_args = 0
 530              	.LVL11:
 531 0000 10B5     		push	{r4, lr}
 532              		.cfi_def_cfa_offset 8
 533              		.cfi_offset 4, -8
 534              		.cfi_offset 14, -4
 535              		.loc 1 52 0
 536 0002 4121     		movs	r1, #65
 537              		.loc 1 50 0
 538 0004 0446     		mov	r4, r0
 539              		.loc 1 52 0
 540 0006 FFF7FEFF 		bl	chMsgSend
 541              	.LVL12:
 542              		.loc 1 53 0
 543 000a 2046     		mov	r0, r4
 544 000c 4221     		movs	r1, #66
 545 000e FFF7FEFF 		bl	chMsgSend
 546              	.LVL13:
 547              		.loc 1 54 0
 548 0012 2046     		mov	r0, r4
 549 0014 4321     		movs	r1, #67
 550 0016 FFF7FEFF 		bl	chMsgSend
 551              	.LVL14:
 552              		.loc 1 55 0
 553 001a 2046     		mov	r0, r4
 554 001c 4421     		movs	r1, #68
 555              		.loc 1 56 0
 556 001e BDE81040 		pop	{r4, lr}
 557              	.LVL15:
 558              		.loc 1 55 0
 559 0022 FFF7FEBF 		b	chMsgSend
 560              	.LVL16:
 561              		.cfi_endproc
 562              	.LFE219:
 563              		.size	msg_thread1, .-msg_thread1
 564              		.global	test_sequence_007
 565 0026 00BFAFF3 		.section	.rodata.test_007_001,"a",%progbits
 565      0080AFF3 
 565      0080
 566              		.align	2
 567              		.type	test_007_001, %object
 568              		.size	test_007_001, 16
 569              	test_007_001:
 570 0000 1C000000 		.word	.LC2
 571 0004 00000000 		.word	0
 572 0008 00000000 		.word	0
 573 000c 00000000 		.word	test_007_001_execute
 574              		.section	.rodata.test_sequence_007,"a",%progbits
 575              		.align	2
 576              		.type	test_sequence_007, %object
ARM GAS  /tmp/ccnI9Qb6.s 			page 35


 577              		.size	test_sequence_007, 8
 578              	test_sequence_007:
 579 0000 00000000 		.word	test_007_001
 580 0004 00000000 		.word	0
 581              		.section	.rodata.str1.4,"aMS",%progbits,1
 582              		.align	2
 583              	.LC0:
 584 0000 41424344 		.ascii	"ABCD\000"
 584      00
 585 0005 000000   		.space	3
 586              	.LC1:
 587 0008 696E7661 		.ascii	"invalid sequence\000"
 587      6C696420 
 587      73657175 
 587      656E6365 
 587      00
 588 0019 000000   		.space	3
 589              	.LC2:
 590 001c 4D657373 		.ascii	"Messages Server loop\000"
 590      61676573 
 590      20536572 
 590      76657220 
 590      6C6F6F70 
 591 0031 000000   		.text
 592              	.Letext0:
 593              		.file 3 "/home/julian/MEGA/semestre_ix/Embebidos/arm-2013.11/lib/gcc/arm-none-eabi/4.8.1/include/s
 594              		.file 4 "/home/julian/MEGA/semestre_ix/Embebidos/arm-2013.11/arm-none-eabi/include/stdint.h"
 595              		.file 5 "../../../os/common/ports/ARMCMx/compilers/GCC/chtypes.h"
 596              		.file 6 "../../../os/rt/include/chsystypes.h"
 597              		.file 7 "../../../os/rt/include/chschd.h"
 598              		.file 8 "../../../os/common/ports/ARMCMx/chcore.h"
 599              		.file 9 "../../../os/common/ports/ARMCMx/chcore_v7m.h"
 600              		.file 10 "../../../os/rt/include/chsem.h"
 601              		.file 11 "../../../os/rt/include/chmtx.h"
 602              		.file 12 "../../../test/lib/ch_test.h"
 603              		.file 13 "../../../os/common/ext/CMSIS/include/core_cm3.h"
 604              		.file 14 "../../../test/rt/source/test/test_root.h"
 605              		.file 15 "../../../os/rt/include/chmsg.h"
 606              		.section	.debug_info,"",%progbits
 607              	.Ldebug_info0:
 608 0000 F6080000 		.4byte	0x8f6
 609 0004 0400     		.2byte	0x4
 610 0006 00000000 		.4byte	.Ldebug_abbrev0
 611 000a 04       		.byte	0x4
 612 000b 01       		.uleb128 0x1
 613 000c 34030000 		.4byte	.LASF105
 614 0010 01       		.byte	0x1
 615 0011 EA040000 		.4byte	.LASF106
 616 0015 F7010000 		.4byte	.LASF107
 617 0019 20000000 		.4byte	.Ldebug_ranges0+0x20
 618 001d 00000000 		.4byte	0
 619 0021 00000000 		.4byte	.Ldebug_line0
 620 0025 02       		.uleb128 0x2
 621 0026 04       		.byte	0x4
 622 0027 05       		.byte	0x5
 623 0028 696E7400 		.ascii	"int\000"
 624 002c 03       		.uleb128 0x3
ARM GAS  /tmp/ccnI9Qb6.s 			page 36


 625 002d 15000000 		.4byte	.LASF2
 626 0031 03       		.byte	0x3
 627 0032 D4       		.byte	0xd4
 628 0033 37000000 		.4byte	0x37
 629 0037 04       		.uleb128 0x4
 630 0038 04       		.byte	0x4
 631 0039 07       		.byte	0x7
 632 003a 60010000 		.4byte	.LASF0
 633 003e 04       		.uleb128 0x4
 634 003f 01       		.byte	0x1
 635 0040 06       		.byte	0x6
 636 0041 D8000000 		.4byte	.LASF1
 637 0045 03       		.uleb128 0x3
 638 0046 48050000 		.4byte	.LASF3
 639 004a 04       		.byte	0x4
 640 004b 2A       		.byte	0x2a
 641 004c 50000000 		.4byte	0x50
 642 0050 04       		.uleb128 0x4
 643 0051 01       		.byte	0x1
 644 0052 08       		.byte	0x8
 645 0053 FD030000 		.4byte	.LASF4
 646 0057 04       		.uleb128 0x4
 647 0058 02       		.byte	0x2
 648 0059 05       		.byte	0x5
 649 005a 13040000 		.4byte	.LASF5
 650 005e 03       		.uleb128 0x3
 651 005f 38010000 		.4byte	.LASF6
 652 0063 04       		.byte	0x4
 653 0064 36       		.byte	0x36
 654 0065 69000000 		.4byte	0x69
 655 0069 04       		.uleb128 0x4
 656 006a 02       		.byte	0x2
 657 006b 07       		.byte	0x7
 658 006c 9D010000 		.4byte	.LASF7
 659 0070 03       		.uleb128 0x3
 660 0071 F5030000 		.4byte	.LASF8
 661 0075 04       		.byte	0x4
 662 0076 4F       		.byte	0x4f
 663 0077 7B000000 		.4byte	0x7b
 664 007b 04       		.uleb128 0x4
 665 007c 04       		.byte	0x4
 666 007d 05       		.byte	0x5
 667 007e 17010000 		.4byte	.LASF9
 668 0082 03       		.uleb128 0x3
 669 0083 6A040000 		.4byte	.LASF10
 670 0087 04       		.byte	0x4
 671 0088 50       		.byte	0x50
 672 0089 8D000000 		.4byte	0x8d
 673 008d 04       		.uleb128 0x4
 674 008e 04       		.byte	0x4
 675 008f 07       		.byte	0x7
 676 0090 90040000 		.4byte	.LASF11
 677 0094 04       		.uleb128 0x4
 678 0095 08       		.byte	0x8
 679 0096 05       		.byte	0x5
 680 0097 CA000000 		.4byte	.LASF12
 681 009b 03       		.uleb128 0x3
ARM GAS  /tmp/ccnI9Qb6.s 			page 37


 682 009c 29000000 		.4byte	.LASF13
 683 00a0 04       		.byte	0x4
 684 00a1 78       		.byte	0x78
 685 00a2 A6000000 		.4byte	0xa6
 686 00a6 04       		.uleb128 0x4
 687 00a7 08       		.byte	0x8
 688 00a8 07       		.byte	0x7
 689 00a9 5E000000 		.4byte	.LASF14
 690 00ad 03       		.uleb128 0x3
 691 00ae D5010000 		.4byte	.LASF15
 692 00b2 05       		.byte	0x5
 693 00b3 3C       		.byte	0x3c
 694 00b4 45000000 		.4byte	0x45
 695 00b8 03       		.uleb128 0x3
 696 00b9 2A010000 		.4byte	.LASF16
 697 00bd 05       		.byte	0x5
 698 00be 3D       		.byte	0x3d
 699 00bf 45000000 		.4byte	0x45
 700 00c3 03       		.uleb128 0x3
 701 00c4 17030000 		.4byte	.LASF17
 702 00c8 05       		.byte	0x5
 703 00c9 3E       		.byte	0x3e
 704 00ca 45000000 		.4byte	0x45
 705 00ce 03       		.uleb128 0x3
 706 00cf D7030000 		.4byte	.LASF18
 707 00d3 05       		.byte	0x5
 708 00d4 40       		.byte	0x40
 709 00d5 82000000 		.4byte	0x82
 710 00d9 03       		.uleb128 0x3
 711 00da BA010000 		.4byte	.LASF19
 712 00de 05       		.byte	0x5
 713 00df 41       		.byte	0x41
 714 00e0 70000000 		.4byte	0x70
 715 00e4 03       		.uleb128 0x3
 716 00e5 EB010000 		.4byte	.LASF20
 717 00e9 05       		.byte	0x5
 718 00ea 43       		.byte	0x43
 719 00eb 82000000 		.4byte	0x82
 720 00ef 03       		.uleb128 0x3
 721 00f0 5A010000 		.4byte	.LASF21
 722 00f4 05       		.byte	0x5
 723 00f5 45       		.byte	0x45
 724 00f6 70000000 		.4byte	0x70
 725 00fa 03       		.uleb128 0x3
 726 00fb BD040000 		.4byte	.LASF22
 727 00ff 06       		.byte	0x6
 728 0100 35       		.byte	0x35
 729 0101 5E000000 		.4byte	0x5e
 730 0105 03       		.uleb128 0x3
 731 0106 B4040000 		.4byte	.LASF23
 732 010a 06       		.byte	0x6
 733 010b 3F       		.byte	0x3f
 734 010c 10010000 		.4byte	0x110
 735 0110 05       		.uleb128 0x5
 736 0111 B0010000 		.4byte	.LASF41
 737 0115 44       		.byte	0x44
 738 0116 07       		.byte	0x7
ARM GAS  /tmp/ccnI9Qb6.s 			page 38


 739 0117 9A       		.byte	0x9a
 740 0118 EE010000 		.4byte	0x1ee
 741 011c 06       		.uleb128 0x6
 742 011d 91010000 		.4byte	.LASF24
 743 0121 07       		.byte	0x7
 744 0122 9B       		.byte	0x9b
 745 0123 23020000 		.4byte	0x223
 746 0127 00       		.byte	0
 747 0128 06       		.uleb128 0x6
 748 0129 0A030000 		.4byte	.LASF25
 749 012d 07       		.byte	0x7
 750 012e 9C       		.byte	0x9c
 751 012f CE000000 		.4byte	0xce
 752 0133 08       		.byte	0x8
 753 0134 07       		.uleb128 0x7
 754 0135 63747800 		.ascii	"ctx\000"
 755 0139 07       		.byte	0x7
 756 013a 9D       		.byte	0x9d
 757 013b 0F040000 		.4byte	0x40f
 758 013f 0C       		.byte	0xc
 759 0140 06       		.uleb128 0x6
 760 0141 DA040000 		.4byte	.LASF26
 761 0145 07       		.byte	0x7
 762 0146 9F       		.byte	0x9f
 763 0147 F9010000 		.4byte	0x1f9
 764 014b 10       		.byte	0x10
 765 014c 06       		.uleb128 0x6
 766 014d AE040000 		.4byte	.LASF27
 767 0151 07       		.byte	0x7
 768 0152 A0       		.byte	0xa0
 769 0153 F9010000 		.4byte	0x1f9
 770 0157 14       		.byte	0x14
 771 0158 06       		.uleb128 0x6
 772 0159 8C010000 		.4byte	.LASF28
 773 015d 07       		.byte	0x7
 774 015e A7       		.byte	0xa7
 775 015f 74050000 		.4byte	0x574
 776 0163 18       		.byte	0x18
 777 0164 06       		.uleb128 0x6
 778 0165 A2040000 		.4byte	.LASF29
 779 0169 07       		.byte	0x7
 780 016a B0       		.byte	0xb0
 781 016b 86050000 		.4byte	0x586
 782 016f 1C       		.byte	0x1c
 783 0170 06       		.uleb128 0x6
 784 0171 11010000 		.4byte	.LASF30
 785 0175 07       		.byte	0x7
 786 0176 B5       		.byte	0xb5
 787 0177 B8000000 		.4byte	0xb8
 788 017b 20       		.byte	0x20
 789 017c 06       		.uleb128 0x6
 790 017d 50050000 		.4byte	.LASF31
 791 0181 07       		.byte	0x7
 792 0182 B9       		.byte	0xb9
 793 0183 AD000000 		.4byte	0xad
 794 0187 21       		.byte	0x21
 795 0188 06       		.uleb128 0x6
ARM GAS  /tmp/ccnI9Qb6.s 			page 39


 796 0189 1F030000 		.4byte	.LASF32
 797 018d 07       		.byte	0x7
 798 018e BE       		.byte	0xbe
 799 018f C3000000 		.4byte	0xc3
 800 0193 22       		.byte	0x22
 801 0194 08       		.uleb128 0x8
 802 0195 7500     		.ascii	"u\000"
 803 0197 07       		.byte	0x7
 804 0198 0F01     		.2byte	0x10f
 805 019a A9040000 		.4byte	0x4a9
 806 019e 24       		.byte	0x24
 807 019f 09       		.uleb128 0x9
 808 01a0 4A010000 		.4byte	.LASF33
 809 01a4 07       		.byte	0x7
 810 01a5 1401     		.2byte	0x114
 811 01a7 FF010000 		.4byte	0x1ff
 812 01ab 28       		.byte	0x28
 813 01ac 09       		.uleb128 0x9
 814 01ad 08010000 		.4byte	.LASF34
 815 01b1 07       		.byte	0x7
 816 01b2 1A01     		.2byte	0x11a
 817 01b4 23020000 		.4byte	0x223
 818 01b8 2C       		.byte	0x2c
 819 01b9 09       		.uleb128 0x9
 820 01ba C0010000 		.4byte	.LASF35
 821 01be 07       		.byte	0x7
 822 01bf 2001     		.2byte	0x120
 823 01c1 E4000000 		.4byte	0xe4
 824 01c5 34       		.byte	0x34
 825 01c6 09       		.uleb128 0x9
 826 01c7 A1050000 		.4byte	.LASF36
 827 01cb 07       		.byte	0x7
 828 01cc 2701     		.2byte	0x127
 829 01ce 6E050000 		.4byte	0x56e
 830 01d2 38       		.byte	0x38
 831 01d3 09       		.uleb128 0x9
 832 01d4 77020000 		.4byte	.LASF37
 833 01d8 07       		.byte	0x7
 834 01d9 2B01     		.2byte	0x12b
 835 01db CE000000 		.4byte	0xce
 836 01df 3C       		.byte	0x3c
 837 01e0 09       		.uleb128 0x9
 838 01e1 97010000 		.4byte	.LASF38
 839 01e5 07       		.byte	0x7
 840 01e6 3201     		.2byte	0x132
 841 01e8 D6020000 		.4byte	0x2d6
 842 01ec 40       		.byte	0x40
 843 01ed 00       		.byte	0
 844 01ee 03       		.uleb128 0x3
 845 01ef 89020000 		.4byte	.LASF39
 846 01f3 06       		.byte	0x6
 847 01f4 44       		.byte	0x44
 848 01f5 F9010000 		.4byte	0x1f9
 849 01f9 0A       		.uleb128 0xa
 850 01fa 04       		.byte	0x4
 851 01fb 05010000 		.4byte	0x105
 852 01ff 03       		.uleb128 0x3
ARM GAS  /tmp/ccnI9Qb6.s 			page 40


 853 0200 7D050000 		.4byte	.LASF40
 854 0204 06       		.byte	0x6
 855 0205 49       		.byte	0x49
 856 0206 0A020000 		.4byte	0x20a
 857 020a 05       		.uleb128 0x5
 858 020b 7A040000 		.4byte	.LASF42
 859 020f 04       		.byte	0x4
 860 0210 07       		.byte	0x7
 861 0211 88       		.byte	0x88
 862 0212 23020000 		.4byte	0x223
 863 0216 06       		.uleb128 0x6
 864 0217 B4000000 		.4byte	.LASF43
 865 021b 07       		.byte	0x7
 866 021c 89       		.byte	0x89
 867 021d F9010000 		.4byte	0x1f9
 868 0221 00       		.byte	0
 869 0222 00       		.byte	0
 870 0223 03       		.uleb128 0x3
 871 0224 1B050000 		.4byte	.LASF44
 872 0228 06       		.byte	0x6
 873 0229 50       		.byte	0x50
 874 022a 2E020000 		.4byte	0x22e
 875 022e 05       		.uleb128 0x5
 876 022f B9000000 		.4byte	.LASF45
 877 0233 08       		.byte	0x8
 878 0234 07       		.byte	0x7
 879 0235 8F       		.byte	0x8f
 880 0236 53020000 		.4byte	0x253
 881 023a 06       		.uleb128 0x6
 882 023b B4000000 		.4byte	.LASF43
 883 023f 07       		.byte	0x7
 884 0240 90       		.byte	0x90
 885 0241 F9010000 		.4byte	0x1f9
 886 0245 00       		.byte	0
 887 0246 06       		.uleb128 0x6
 888 0247 32000000 		.4byte	.LASF46
 889 024b 07       		.byte	0x7
 890 024c 91       		.byte	0x91
 891 024d F9010000 		.4byte	0x1f9
 892 0251 04       		.byte	0x4
 893 0252 00       		.byte	0
 894 0253 03       		.uleb128 0x3
 895 0254 08000000 		.4byte	.LASF47
 896 0258 06       		.byte	0x6
 897 0259 57       		.byte	0x57
 898 025a 5E020000 		.4byte	0x25e
 899 025e 0B       		.uleb128 0xb
 900 025f DD010000 		.4byte	.LASF48
 901 0263 1C       		.byte	0x1c
 902 0264 07       		.byte	0x7
 903 0265 6A01     		.2byte	0x16a
 904 0267 BA020000 		.4byte	0x2ba
 905 026b 09       		.uleb128 0x9
 906 026c 91010000 		.4byte	.LASF24
 907 0270 07       		.byte	0x7
 908 0271 6B01     		.2byte	0x16b
 909 0273 23020000 		.4byte	0x223
ARM GAS  /tmp/ccnI9Qb6.s 			page 41


 910 0277 00       		.byte	0
 911 0278 09       		.uleb128 0x9
 912 0279 0A030000 		.4byte	.LASF25
 913 027d 07       		.byte	0x7
 914 027e 6C01     		.2byte	0x16c
 915 0280 CE000000 		.4byte	0xce
 916 0284 08       		.byte	0x8
 917 0285 08       		.uleb128 0x8
 918 0286 63747800 		.ascii	"ctx\000"
 919 028a 07       		.byte	0x7
 920 028b 6E01     		.2byte	0x16e
 921 028d 0F040000 		.4byte	0x40f
 922 0291 0C       		.byte	0xc
 923 0292 09       		.uleb128 0x9
 924 0293 DA040000 		.4byte	.LASF26
 925 0297 07       		.byte	0x7
 926 0298 7101     		.2byte	0x171
 927 029a F9010000 		.4byte	0x1f9
 928 029e 10       		.byte	0x10
 929 029f 09       		.uleb128 0x9
 930 02a0 AE040000 		.4byte	.LASF27
 931 02a4 07       		.byte	0x7
 932 02a5 7201     		.2byte	0x172
 933 02a7 F9010000 		.4byte	0x1f9
 934 02ab 14       		.byte	0x14
 935 02ac 09       		.uleb128 0x9
 936 02ad 0F030000 		.4byte	.LASF49
 937 02b1 07       		.byte	0x7
 938 02b2 7501     		.2byte	0x175
 939 02b4 F9010000 		.4byte	0x1f9
 940 02b8 18       		.byte	0x18
 941 02b9 00       		.byte	0
 942 02ba 03       		.uleb128 0x3
 943 02bb C7040000 		.4byte	.LASF50
 944 02bf 06       		.byte	0x6
 945 02c0 5C       		.byte	0x5c
 946 02c1 C5020000 		.4byte	0x2c5
 947 02c5 0A       		.uleb128 0xa
 948 02c6 04       		.byte	0x4
 949 02c7 CB020000 		.4byte	0x2cb
 950 02cb 0C       		.uleb128 0xc
 951 02cc D6020000 		.4byte	0x2d6
 952 02d0 0D       		.uleb128 0xd
 953 02d1 D6020000 		.4byte	0x2d6
 954 02d5 00       		.byte	0
 955 02d6 0E       		.uleb128 0xe
 956 02d7 04       		.byte	0x4
 957 02d8 03       		.uleb128 0x3
 958 02d9 24030000 		.4byte	.LASF51
 959 02dd 06       		.byte	0x6
 960 02de 61       		.byte	0x61
 961 02df E3020000 		.4byte	0x2e3
 962 02e3 0B       		.uleb128 0xb
 963 02e4 3F040000 		.4byte	.LASF52
 964 02e8 14       		.byte	0x14
 965 02e9 07       		.byte	0x7
 966 02ea 4501     		.2byte	0x145
ARM GAS  /tmp/ccnI9Qb6.s 			page 42


 967 02ec 32030000 		.4byte	0x332
 968 02f0 09       		.uleb128 0x9
 969 02f1 B4000000 		.4byte	.LASF43
 970 02f5 07       		.byte	0x7
 971 02f6 4601     		.2byte	0x146
 972 02f8 8C050000 		.4byte	0x58c
 973 02fc 00       		.byte	0
 974 02fd 09       		.uleb128 0x9
 975 02fe 32000000 		.4byte	.LASF46
 976 0302 07       		.byte	0x7
 977 0303 4701     		.2byte	0x147
 978 0305 8C050000 		.4byte	0x58c
 979 0309 04       		.byte	0x4
 980 030a 09       		.uleb128 0x9
 981 030b 1C000000 		.4byte	.LASF53
 982 030f 07       		.byte	0x7
 983 0310 4801     		.2byte	0x148
 984 0312 FA000000 		.4byte	0xfa
 985 0316 08       		.byte	0x8
 986 0317 09       		.uleb128 0x9
 987 0318 33010000 		.4byte	.LASF54
 988 031c 07       		.byte	0x7
 989 031d 4901     		.2byte	0x149
 990 031f BA020000 		.4byte	0x2ba
 991 0323 0C       		.byte	0xc
 992 0324 08       		.uleb128 0x8
 993 0325 70617200 		.ascii	"par\000"
 994 0329 07       		.byte	0x7
 995 032a 4B01     		.2byte	0x14b
 996 032c D6020000 		.4byte	0x2d6
 997 0330 10       		.byte	0x10
 998 0331 00       		.byte	0
 999 0332 03       		.uleb128 0x3
 1000 0333 91000000 		.4byte	.LASF55
 1001 0337 06       		.byte	0x6
 1002 0338 66       		.byte	0x66
 1003 0339 3D030000 		.4byte	0x33d
 1004 033d 0B       		.uleb128 0xb
 1005 033e 9C020000 		.4byte	.LASF56
 1006 0342 0C       		.byte	0xc
 1007 0343 07       		.byte	0x7
 1008 0344 5501     		.2byte	0x155
 1009 0346 7F030000 		.4byte	0x37f
 1010 034a 09       		.uleb128 0x9
 1011 034b B4000000 		.4byte	.LASF43
 1012 034f 07       		.byte	0x7
 1013 0350 5601     		.2byte	0x156
 1014 0352 8C050000 		.4byte	0x58c
 1015 0356 00       		.byte	0
 1016 0357 09       		.uleb128 0x9
 1017 0358 32000000 		.4byte	.LASF46
 1018 035c 07       		.byte	0x7
 1019 035d 5801     		.2byte	0x158
 1020 035f 8C050000 		.4byte	0x58c
 1021 0363 04       		.byte	0x4
 1022 0364 09       		.uleb128 0x9
 1023 0365 1C000000 		.4byte	.LASF53
ARM GAS  /tmp/ccnI9Qb6.s 			page 43


 1024 0369 07       		.byte	0x7
 1025 036a 5A01     		.2byte	0x15a
 1026 036c FA000000 		.4byte	0xfa
 1027 0370 08       		.byte	0x8
 1028 0371 09       		.uleb128 0x9
 1029 0372 1D040000 		.4byte	.LASF57
 1030 0376 07       		.byte	0x7
 1031 0377 6201     		.2byte	0x162
 1032 0379 FA000000 		.4byte	0xfa
 1033 037d 0A       		.byte	0xa
 1034 037e 00       		.byte	0
 1035 037f 03       		.uleb128 0x3
 1036 0380 43000000 		.4byte	.LASF58
 1037 0384 06       		.byte	0x6
 1038 0385 6B       		.byte	0x6b
 1039 0386 8A030000 		.4byte	0x38a
 1040 038a 0B       		.uleb128 0xb
 1041 038b DF030000 		.4byte	.LASF59
 1042 038f 04       		.byte	0x4
 1043 0390 07       		.byte	0x7
 1044 0391 7C01     		.2byte	0x17c
 1045 0393 A5030000 		.4byte	0x3a5
 1046 0397 09       		.uleb128 0x9
 1047 0398 D0040000 		.4byte	.LASF60
 1048 039c 07       		.byte	0x7
 1049 039d 8401     		.2byte	0x184
 1050 039f 92050000 		.4byte	0x592
 1051 03a3 00       		.byte	0
 1052 03a4 00       		.byte	0
 1053 03a5 03       		.uleb128 0x3
 1054 03a6 C9010000 		.4byte	.LASF61
 1055 03aa 06       		.byte	0x6
 1056 03ab 70       		.byte	0x70
 1057 03ac B0030000 		.4byte	0x3b0
 1058 03b0 0B       		.uleb128 0xb
 1059 03b1 35040000 		.4byte	.LASF62
 1060 03b5 70       		.byte	0x70
 1061 03b6 07       		.byte	0x7
 1062 03b7 9C01     		.2byte	0x19c
 1063 03b9 F2030000 		.4byte	0x3f2
 1064 03bd 09       		.uleb128 0x9
 1065 03be 34050000 		.4byte	.LASF63
 1066 03c2 07       		.byte	0x7
 1067 03c3 A001     		.2byte	0x1a0
 1068 03c5 53020000 		.4byte	0x253
 1069 03c9 00       		.byte	0
 1070 03ca 09       		.uleb128 0x9
 1071 03cb 01010000 		.4byte	.LASF64
 1072 03cf 07       		.byte	0x7
 1073 03d0 A401     		.2byte	0x1a4
 1074 03d2 32030000 		.4byte	0x332
 1075 03d6 1C       		.byte	0x1c
 1076 03d7 08       		.uleb128 0x8
 1077 03d8 64626700 		.ascii	"dbg\000"
 1078 03dc 07       		.byte	0x7
 1079 03dd A801     		.2byte	0x1a8
 1080 03df 7F030000 		.4byte	0x37f
ARM GAS  /tmp/ccnI9Qb6.s 			page 44


 1081 03e3 28       		.byte	0x28
 1082 03e4 09       		.uleb128 0x9
 1083 03e5 7E000000 		.4byte	.LASF65
 1084 03e9 07       		.byte	0x7
 1085 03ea AC01     		.2byte	0x1ac
 1086 03ec 05010000 		.4byte	0x105
 1087 03f0 2C       		.byte	0x2c
 1088 03f1 00       		.byte	0
 1089 03f2 04       		.uleb128 0x4
 1090 03f3 04       		.byte	0x4
 1091 03f4 07       		.byte	0x7
 1092 03f5 80020000 		.4byte	.LASF66
 1093 03f9 03       		.uleb128 0x3
 1094 03fa 41010000 		.4byte	.LASF67
 1095 03fe 08       		.byte	0x8
 1096 03ff 65       		.byte	0x65
 1097 0400 D6020000 		.4byte	0x2d6
 1098 0404 03       		.uleb128 0x3
 1099 0405 4F020000 		.4byte	.LASF68
 1100 0409 08       		.byte	0x8
 1101 040a 6D       		.byte	0x6d
 1102 040b 9B000000 		.4byte	0x9b
 1103 040f 05       		.uleb128 0x5
 1104 0410 CF020000 		.4byte	.LASF69
 1105 0414 04       		.byte	0x4
 1106 0415 08       		.byte	0x8
 1107 0416 89       		.byte	0x89
 1108 0417 27040000 		.4byte	0x427
 1109 041b 07       		.uleb128 0x7
 1110 041c 737000   		.ascii	"sp\000"
 1111 041f 08       		.byte	0x8
 1112 0420 8A       		.byte	0x8a
 1113 0421 A3040000 		.4byte	0x4a3
 1114 0425 00       		.byte	0
 1115 0426 00       		.byte	0
 1116 0427 0B       		.uleb128 0xb
 1117 0428 37000000 		.4byte	.LASF70
 1118 042c 24       		.byte	0x24
 1119 042d 09       		.byte	0x9
 1120 042e 5901     		.2byte	0x159
 1121 0430 A3040000 		.4byte	0x4a3
 1122 0434 08       		.uleb128 0x8
 1123 0435 723400   		.ascii	"r4\000"
 1124 0438 09       		.byte	0x9
 1125 0439 6C01     		.2byte	0x16c
 1126 043b F9030000 		.4byte	0x3f9
 1127 043f 00       		.byte	0
 1128 0440 08       		.uleb128 0x8
 1129 0441 723500   		.ascii	"r5\000"
 1130 0444 09       		.byte	0x9
 1131 0445 6D01     		.2byte	0x16d
 1132 0447 F9030000 		.4byte	0x3f9
 1133 044b 04       		.byte	0x4
 1134 044c 08       		.uleb128 0x8
 1135 044d 723600   		.ascii	"r6\000"
 1136 0450 09       		.byte	0x9
 1137 0451 6E01     		.2byte	0x16e
ARM GAS  /tmp/ccnI9Qb6.s 			page 45


 1138 0453 F9030000 		.4byte	0x3f9
 1139 0457 08       		.byte	0x8
 1140 0458 08       		.uleb128 0x8
 1141 0459 723700   		.ascii	"r7\000"
 1142 045c 09       		.byte	0x9
 1143 045d 6F01     		.2byte	0x16f
 1144 045f F9030000 		.4byte	0x3f9
 1145 0463 0C       		.byte	0xc
 1146 0464 08       		.uleb128 0x8
 1147 0465 723800   		.ascii	"r8\000"
 1148 0468 09       		.byte	0x9
 1149 0469 7001     		.2byte	0x170
 1150 046b F9030000 		.4byte	0x3f9
 1151 046f 10       		.byte	0x10
 1152 0470 08       		.uleb128 0x8
 1153 0471 723900   		.ascii	"r9\000"
 1154 0474 09       		.byte	0x9
 1155 0475 7101     		.2byte	0x171
 1156 0477 F9030000 		.4byte	0x3f9
 1157 047b 14       		.byte	0x14
 1158 047c 08       		.uleb128 0x8
 1159 047d 72313000 		.ascii	"r10\000"
 1160 0481 09       		.byte	0x9
 1161 0482 7201     		.2byte	0x172
 1162 0484 F9030000 		.4byte	0x3f9
 1163 0488 18       		.byte	0x18
 1164 0489 08       		.uleb128 0x8
 1165 048a 72313100 		.ascii	"r11\000"
 1166 048e 09       		.byte	0x9
 1167 048f 7301     		.2byte	0x173
 1168 0491 F9030000 		.4byte	0x3f9
 1169 0495 1C       		.byte	0x1c
 1170 0496 08       		.uleb128 0x8
 1171 0497 6C7200   		.ascii	"lr\000"
 1172 049a 09       		.byte	0x9
 1173 049b 7401     		.2byte	0x174
 1174 049d F9030000 		.4byte	0x3f9
 1175 04a1 20       		.byte	0x20
 1176 04a2 00       		.byte	0
 1177 04a3 0A       		.uleb128 0xa
 1178 04a4 04       		.byte	0x4
 1179 04a5 27040000 		.4byte	0x427
 1180 04a9 0F       		.uleb128 0xf
 1181 04aa 04       		.byte	0x4
 1182 04ab 07       		.byte	0x7
 1183 04ac D2       		.byte	0xd2
 1184 04ad 0C050000 		.4byte	0x50c
 1185 04b1 10       		.uleb128 0x10
 1186 04b2 22000000 		.4byte	.LASF71
 1187 04b6 07       		.byte	0x7
 1188 04b7 D9       		.byte	0xd9
 1189 04b8 D9000000 		.4byte	0xd9
 1190 04bc 10       		.uleb128 0x10
 1191 04bd 75000000 		.4byte	.LASF72
 1192 04c1 07       		.byte	0x7
 1193 04c2 E0       		.byte	0xe0
 1194 04c3 D9000000 		.4byte	0xd9
ARM GAS  /tmp/ccnI9Qb6.s 			page 46


 1195 04c7 10       		.uleb128 0x10
 1196 04c8 68050000 		.4byte	.LASF73
 1197 04cc 07       		.byte	0x7
 1198 04cd E7       		.byte	0xe7
 1199 04ce D6020000 		.4byte	0x2d6
 1200 04d2 10       		.uleb128 0x10
 1201 04d3 74010000 		.4byte	.LASF74
 1202 04d7 07       		.byte	0x7
 1203 04d8 EE       		.byte	0xee
 1204 04d9 0C050000 		.4byte	0x50c
 1205 04dd 10       		.uleb128 0x10
 1206 04de 89000000 		.4byte	.LASF75
 1207 04e2 07       		.byte	0x7
 1208 04e3 F3       		.byte	0xf3
 1209 04e4 D9000000 		.4byte	0xd9
 1210 04e8 10       		.uleb128 0x10
 1211 04e9 6D010000 		.4byte	.LASF76
 1212 04ed 07       		.byte	0x7
 1213 04ee FC       		.byte	0xfc
 1214 04ef 37050000 		.4byte	0x537
 1215 04f3 11       		.uleb128 0x11
 1216 04f4 73040000 		.4byte	.LASF77
 1217 04f8 07       		.byte	0x7
 1218 04f9 0501     		.2byte	0x105
 1219 04fb 6E050000 		.4byte	0x56e
 1220 04ff 11       		.uleb128 0x11
 1221 0500 2E040000 		.4byte	.LASF78
 1222 0504 07       		.byte	0x7
 1223 0505 0D01     		.2byte	0x10d
 1224 0507 E4000000 		.4byte	0xe4
 1225 050b 00       		.byte	0
 1226 050c 0A       		.uleb128 0xa
 1227 050d 04       		.byte	0x4
 1228 050e EE010000 		.4byte	0x1ee
 1229 0512 05       		.uleb128 0x5
 1230 0513 5D040000 		.4byte	.LASF79
 1231 0517 0C       		.byte	0xc
 1232 0518 0A       		.byte	0xa
 1233 0519 34       		.byte	0x34
 1234 051a 37050000 		.4byte	0x537
 1235 051e 06       		.uleb128 0x6
 1236 051f 91010000 		.4byte	.LASF24
 1237 0523 0A       		.byte	0xa
 1238 0524 35       		.byte	0x35
 1239 0525 23020000 		.4byte	0x223
 1240 0529 00       		.byte	0
 1241 052a 07       		.uleb128 0x7
 1242 052b 636E7400 		.ascii	"cnt\000"
 1243 052f 0A       		.byte	0xa
 1244 0530 37       		.byte	0x37
 1245 0531 EF000000 		.4byte	0xef
 1246 0535 08       		.byte	0x8
 1247 0536 00       		.byte	0
 1248 0537 0A       		.uleb128 0xa
 1249 0538 04       		.byte	0x4
 1250 0539 12050000 		.4byte	0x512
 1251 053d 05       		.uleb128 0x5
ARM GAS  /tmp/ccnI9Qb6.s 			page 47


 1252 053e 2B050000 		.4byte	.LASF80
 1253 0542 10       		.byte	0x10
 1254 0543 0B       		.byte	0xb
 1255 0544 39       		.byte	0x39
 1256 0545 6E050000 		.4byte	0x56e
 1257 0549 06       		.uleb128 0x6
 1258 054a 91010000 		.4byte	.LASF24
 1259 054e 0B       		.byte	0xb
 1260 054f 3A       		.byte	0x3a
 1261 0550 23020000 		.4byte	0x223
 1262 0554 00       		.byte	0
 1263 0555 06       		.uleb128 0x6
 1264 0556 8A040000 		.4byte	.LASF81
 1265 055a 0B       		.byte	0xb
 1266 055b 3C       		.byte	0x3c
 1267 055c F9010000 		.4byte	0x1f9
 1268 0560 08       		.byte	0x8
 1269 0561 06       		.uleb128 0x6
 1270 0562 B4000000 		.4byte	.LASF43
 1271 0566 0B       		.byte	0xb
 1272 0567 3E       		.byte	0x3e
 1273 0568 AD050000 		.4byte	0x5ad
 1274 056c 0C       		.byte	0xc
 1275 056d 00       		.byte	0
 1276 056e 0A       		.uleb128 0xa
 1277 056f 04       		.byte	0x4
 1278 0570 3D050000 		.4byte	0x53d
 1279 0574 0A       		.uleb128 0xa
 1280 0575 04       		.byte	0x4
 1281 0576 7A050000 		.4byte	0x57a
 1282 057a 12       		.uleb128 0x12
 1283 057b 7F050000 		.4byte	0x57f
 1284 057f 04       		.uleb128 0x4
 1285 0580 01       		.byte	0x1
 1286 0581 08       		.byte	0x8
 1287 0582 A9040000 		.4byte	.LASF82
 1288 0586 0A       		.uleb128 0xa
 1289 0587 04       		.byte	0x4
 1290 0588 04040000 		.4byte	0x404
 1291 058c 0A       		.uleb128 0xa
 1292 058d 04       		.byte	0x4
 1293 058e D8020000 		.4byte	0x2d8
 1294 0592 13       		.uleb128 0x13
 1295 0593 74050000 		.4byte	0x574
 1296 0597 03       		.uleb128 0x3
 1297 0598 00000000 		.4byte	.LASF83
 1298 059c 02       		.byte	0x2
 1299 059d 40       		.byte	0x40
 1300 059e C5020000 		.4byte	0x2c5
 1301 05a2 03       		.uleb128 0x3
 1302 05a3 52010000 		.4byte	.LASF84
 1303 05a7 0B       		.byte	0xb
 1304 05a8 34       		.byte	0x34
 1305 05a9 3D050000 		.4byte	0x53d
 1306 05ad 0A       		.uleb128 0xa
 1307 05ae 04       		.byte	0x4
 1308 05af A2050000 		.4byte	0x5a2
ARM GAS  /tmp/ccnI9Qb6.s 			page 48


 1309 05b3 04       		.uleb128 0x4
 1310 05b4 01       		.byte	0x1
 1311 05b5 02       		.byte	0x2
 1312 05b6 EF030000 		.4byte	.LASF85
 1313 05ba 0A       		.uleb128 0xa
 1314 05bb 04       		.byte	0x4
 1315 05bc C0050000 		.4byte	0x5c0
 1316 05c0 14       		.uleb128 0x14
 1317 05c1 15       		.uleb128 0x15
 1318 05c2 10       		.byte	0x10
 1319 05c3 0C       		.byte	0xc
 1320 05c4 3D       		.byte	0x3d
 1321 05c5 FA050000 		.4byte	0x5fa
 1322 05c9 06       		.uleb128 0x6
 1323 05ca 8C010000 		.4byte	.LASF28
 1324 05ce 0C       		.byte	0xc
 1325 05cf 3E       		.byte	0x3e
 1326 05d0 74050000 		.4byte	0x574
 1327 05d4 00       		.byte	0
 1328 05d5 06       		.uleb128 0x6
 1329 05d6 EE020000 		.4byte	.LASF86
 1330 05da 0C       		.byte	0xc
 1331 05db 3F       		.byte	0x3f
 1332 05dc BA050000 		.4byte	0x5ba
 1333 05e0 04       		.byte	0x4
 1334 05e1 06       		.uleb128 0x6
 1335 05e2 7A010000 		.4byte	.LASF87
 1336 05e6 0C       		.byte	0xc
 1337 05e7 40       		.byte	0x40
 1338 05e8 BA050000 		.4byte	0x5ba
 1339 05ec 08       		.byte	0x8
 1340 05ed 06       		.uleb128 0x6
 1341 05ee 0B040000 		.4byte	.LASF88
 1342 05f2 0C       		.byte	0xc
 1343 05f3 41       		.byte	0x41
 1344 05f4 BA050000 		.4byte	0x5ba
 1345 05f8 0C       		.byte	0xc
 1346 05f9 00       		.byte	0
 1347 05fa 03       		.uleb128 0x3
 1348 05fb 5A020000 		.4byte	.LASF89
 1349 05ff 0C       		.byte	0xc
 1350 0600 42       		.byte	0x42
 1351 0601 C1050000 		.4byte	0x5c1
 1352 0605 16       		.uleb128 0x16
 1353 0606 3A050000 		.4byte	.LASF90
 1354 060a 02       		.byte	0x2
 1355 060b 1C01     		.2byte	0x11c
 1356 060d F9010000 		.4byte	0x1f9
 1357 0611 03       		.byte	0x3
 1358 0612 17       		.uleb128 0x17
 1359 0613 83010000 		.4byte	.LASF108
 1360 0617 0F       		.byte	0xf
 1361 0618 60       		.byte	0x60
 1362 0619 D9000000 		.4byte	0xd9
 1363 061d 03       		.byte	0x3
 1364 061e 3A060000 		.4byte	0x63a
 1365 0622 18       		.uleb128 0x18
ARM GAS  /tmp/ccnI9Qb6.s 			page 49


 1366 0623 747000   		.ascii	"tp\000"
 1367 0626 0F       		.byte	0xf
 1368 0627 60       		.byte	0x60
 1369 0628 F9010000 		.4byte	0x1f9
 1370 062c 19       		.uleb128 0x19
 1371 062d 6F050000 		.4byte	.LASF92
 1372 0631 4A060000 		.4byte	0x64a
 1373 0635 83010000 		.4byte	.LASF108
 1374 0639 00       		.byte	0
 1375 063a 1A       		.uleb128 0x1a
 1376 063b 7F050000 		.4byte	0x57f
 1377 063f 4A060000 		.4byte	0x64a
 1378 0643 1B       		.uleb128 0x1b
 1379 0644 F2030000 		.4byte	0x3f2
 1380 0648 08       		.byte	0x8
 1381 0649 00       		.byte	0
 1382 064a 12       		.uleb128 0x12
 1383 064b 3A060000 		.4byte	0x63a
 1384 064f 16       		.uleb128 0x16
 1385 0650 DC020000 		.4byte	.LASF91
 1386 0654 02       		.byte	0x2
 1387 0655 2901     		.2byte	0x129
 1388 0657 CE000000 		.4byte	0xce
 1389 065b 03       		.byte	0x3
 1390 065c 1C       		.uleb128 0x1c
 1391 065d 8C050000 		.4byte	.LASF93
 1392 0661 01       		.byte	0x1
 1393 0662 4C       		.byte	0x4c
 1394 0663 00000000 		.4byte	.LFB220
 1395 0667 7E000000 		.4byte	.LFE220-.LFB220
 1396 066b 01       		.uleb128 0x1
 1397 066c 9C       		.byte	0x9c
 1398 066d 36070000 		.4byte	0x736
 1399 0671 1D       		.uleb128 0x1d
 1400 0672 747000   		.ascii	"tp\000"
 1401 0675 01       		.byte	0x1
 1402 0676 4D       		.byte	0x4d
 1403 0677 F9010000 		.4byte	0x1f9
 1404 067b 00000000 		.4byte	.LLST0
 1405 067f 1E       		.uleb128 0x1e
 1406 0680 6D736700 		.ascii	"msg\000"
 1407 0684 01       		.byte	0x1
 1408 0685 4E       		.byte	0x4e
 1409 0686 D9000000 		.4byte	0xd9
 1410 068a 1F       		.uleb128 0x1f
 1411 068b 4F060000 		.4byte	0x64f
 1412 068f 02000000 		.4byte	.LBB13
 1413 0693 0A000000 		.4byte	.LBE13-.LBB13
 1414 0697 01       		.byte	0x1
 1415 0698 53       		.byte	0x53
 1416 0699 AE060000 		.4byte	0x6ae
 1417 069d 20       		.uleb128 0x20
 1418 069e 05060000 		.4byte	0x605
 1419 06a2 02000000 		.4byte	.LBB15
 1420 06a6 0A000000 		.4byte	.LBE15-.LBB15
 1421 06aa 02       		.byte	0x2
 1422 06ab 2B01     		.2byte	0x12b
ARM GAS  /tmp/ccnI9Qb6.s 			page 50


 1423 06ad 00       		.byte	0
 1424 06ae 21       		.uleb128 0x21
 1425 06af 00000000 		.4byte	.Ldebug_ranges0+0
 1426 06b3 1B070000 		.4byte	0x71b
 1427 06b7 1D       		.uleb128 0x1d
 1428 06b8 6900     		.ascii	"i\000"
 1429 06ba 01       		.byte	0x1
 1430 06bb 5B       		.byte	0x5b
 1431 06bc 37000000 		.4byte	0x37
 1432 06c0 13000000 		.4byte	.LLST1
 1433 06c4 22       		.uleb128 0x22
 1434 06c5 4E000000 		.4byte	.LVL3
 1435 06c9 61080000 		.4byte	0x861
 1436 06cd 23       		.uleb128 0x23
 1437 06ce 56000000 		.4byte	.LVL5
 1438 06d2 6C080000 		.4byte	0x86c
 1439 06d6 E1060000 		.4byte	0x6e1
 1440 06da 24       		.uleb128 0x24
 1441 06db 01       		.uleb128 0x1
 1442 06dc 51       		.byte	0x51
 1443 06dd 02       		.uleb128 0x2
 1444 06de 75       		.byte	0x75
 1445 06df 00       		.sleb128 0
 1446 06e0 00       		.byte	0
 1447 06e1 23       		.uleb128 0x23
 1448 06e2 5C000000 		.4byte	.LVL6
 1449 06e6 82080000 		.4byte	0x882
 1450 06ea F5060000 		.4byte	0x6f5
 1451 06ee 24       		.uleb128 0x24
 1452 06ef 01       		.uleb128 0x1
 1453 06f0 50       		.byte	0x50
 1454 06f1 02       		.uleb128 0x2
 1455 06f2 75       		.byte	0x75
 1456 06f3 00       		.sleb128 0
 1457 06f4 00       		.byte	0
 1458 06f5 22       		.uleb128 0x22
 1459 06f6 64000000 		.4byte	.LVL8
 1460 06fa 93080000 		.4byte	0x893
 1461 06fe 25       		.uleb128 0x25
 1462 06ff 7E000000 		.4byte	.LVL10
 1463 0703 9A080000 		.4byte	0x89a
 1464 0707 24       		.uleb128 0x24
 1465 0708 01       		.uleb128 0x1
 1466 0709 51       		.byte	0x51
 1467 070a 05       		.uleb128 0x5
 1468 070b 03       		.byte	0x3
 1469 070c 08000000 		.4byte	.LC1
 1470 0710 24       		.uleb128 0x24
 1471 0711 01       		.uleb128 0x1
 1472 0712 50       		.byte	0x50
 1473 0713 05       		.uleb128 0x5
 1474 0714 03       		.byte	0x3
 1475 0715 00000000 		.4byte	.LC0
 1476 0719 00       		.byte	0
 1477 071a 00       		.byte	0
 1478 071b 26       		.uleb128 0x26
 1479 071c 3A000000 		.4byte	.LVL0
ARM GAS  /tmp/ccnI9Qb6.s 			page 51


 1480 0720 BA080000 		.4byte	0x8ba
 1481 0724 24       		.uleb128 0x24
 1482 0725 01       		.uleb128 0x1
 1483 0726 53       		.byte	0x53
 1484 0727 05       		.uleb128 0x5
 1485 0728 03       		.byte	0x3
 1486 0729 00000000 		.4byte	msg_thread1
 1487 072d 24       		.uleb128 0x24
 1488 072e 01       		.uleb128 0x1
 1489 072f 51       		.byte	0x51
 1490 0730 03       		.uleb128 0x3
 1491 0731 0A       		.byte	0xa
 1492 0732 4801     		.2byte	0x148
 1493 0734 00       		.byte	0
 1494 0735 00       		.byte	0
 1495 0736 1C       		.uleb128 0x1c
 1496 0737 52000000 		.4byte	.LASF94
 1497 073b 01       		.byte	0x1
 1498 073c 32       		.byte	0x32
 1499 073d 00000000 		.4byte	.LFB219
 1500 0741 26000000 		.4byte	.LFE219-.LFB219
 1501 0745 01       		.uleb128 0x1
 1502 0746 9C       		.byte	0x9c
 1503 0747 BE070000 		.4byte	0x7be
 1504 074b 27       		.uleb128 0x27
 1505 074c 7000     		.ascii	"p\000"
 1506 074e 01       		.byte	0x1
 1507 074f 32       		.byte	0x32
 1508 0750 D6020000 		.4byte	0x2d6
 1509 0754 54000000 		.4byte	.LLST2
 1510 0758 23       		.uleb128 0x23
 1511 0759 0A000000 		.4byte	.LVL12
 1512 075d E3080000 		.4byte	0x8e3
 1513 0761 72070000 		.4byte	0x772
 1514 0765 24       		.uleb128 0x24
 1515 0766 01       		.uleb128 0x1
 1516 0767 51       		.byte	0x51
 1517 0768 02       		.uleb128 0x2
 1518 0769 08       		.byte	0x8
 1519 076a 41       		.byte	0x41
 1520 076b 24       		.uleb128 0x24
 1521 076c 01       		.uleb128 0x1
 1522 076d 50       		.byte	0x50
 1523 076e 02       		.uleb128 0x2
 1524 076f 74       		.byte	0x74
 1525 0770 00       		.sleb128 0
 1526 0771 00       		.byte	0
 1527 0772 23       		.uleb128 0x23
 1528 0773 12000000 		.4byte	.LVL13
 1529 0777 E3080000 		.4byte	0x8e3
 1530 077b 8C070000 		.4byte	0x78c
 1531 077f 24       		.uleb128 0x24
 1532 0780 01       		.uleb128 0x1
 1533 0781 51       		.byte	0x51
 1534 0782 02       		.uleb128 0x2
 1535 0783 08       		.byte	0x8
 1536 0784 42       		.byte	0x42
ARM GAS  /tmp/ccnI9Qb6.s 			page 52


 1537 0785 24       		.uleb128 0x24
 1538 0786 01       		.uleb128 0x1
 1539 0787 50       		.byte	0x50
 1540 0788 02       		.uleb128 0x2
 1541 0789 74       		.byte	0x74
 1542 078a 00       		.sleb128 0
 1543 078b 00       		.byte	0
 1544 078c 23       		.uleb128 0x23
 1545 078d 1A000000 		.4byte	.LVL14
 1546 0791 E3080000 		.4byte	0x8e3
 1547 0795 A6070000 		.4byte	0x7a6
 1548 0799 24       		.uleb128 0x24
 1549 079a 01       		.uleb128 0x1
 1550 079b 51       		.byte	0x51
 1551 079c 02       		.uleb128 0x2
 1552 079d 08       		.byte	0x8
 1553 079e 43       		.byte	0x43
 1554 079f 24       		.uleb128 0x24
 1555 07a0 01       		.uleb128 0x1
 1556 07a1 50       		.byte	0x50
 1557 07a2 02       		.uleb128 0x2
 1558 07a3 74       		.byte	0x74
 1559 07a4 00       		.sleb128 0
 1560 07a5 00       		.byte	0
 1561 07a6 25       		.uleb128 0x25
 1562 07a7 26000000 		.4byte	.LVL16
 1563 07ab E3080000 		.4byte	0x8e3
 1564 07af 24       		.uleb128 0x24
 1565 07b0 01       		.uleb128 0x1
 1566 07b1 51       		.byte	0x51
 1567 07b2 02       		.uleb128 0x2
 1568 07b3 08       		.byte	0x8
 1569 07b4 44       		.byte	0x44
 1570 07b5 24       		.uleb128 0x24
 1571 07b6 01       		.uleb128 0x1
 1572 07b7 50       		.byte	0x50
 1573 07b8 03       		.uleb128 0x3
 1574 07b9 F3       		.byte	0xf3
 1575 07ba 01       		.uleb128 0x1
 1576 07bb 50       		.byte	0x50
 1577 07bc 00       		.byte	0
 1578 07bd 00       		.byte	0
 1579 07be 28       		.uleb128 0x28
 1580 07bf E4000000 		.4byte	.LASF95
 1581 07c3 01       		.byte	0x1
 1582 07c4 68       		.byte	0x68
 1583 07c5 CF070000 		.4byte	0x7cf
 1584 07c9 05       		.uleb128 0x5
 1585 07ca 03       		.byte	0x3
 1586 07cb 00000000 		.4byte	test_007_001
 1587 07cf 12       		.uleb128 0x12
 1588 07d0 FA050000 		.4byte	0x5fa
 1589 07d4 29       		.uleb128 0x29
 1590 07d5 A7000000 		.4byte	.LASF96
 1591 07d9 0D       		.byte	0xd
 1592 07da 9606     		.2byte	0x696
 1593 07dc E0070000 		.4byte	0x7e0
ARM GAS  /tmp/ccnI9Qb6.s 			page 53


 1594 07e0 13       		.uleb128 0x13
 1595 07e1 70000000 		.4byte	0x70
 1596 07e5 2A       		.uleb128 0x2a
 1597 07e6 636800   		.ascii	"ch\000"
 1598 07e9 07       		.byte	0x7
 1599 07ea D201     		.2byte	0x1d2
 1600 07ec A5030000 		.4byte	0x3a5
 1601 07f0 2B       		.uleb128 0x2b
 1602 07f1 B3020000 		.4byte	.LASF97
 1603 07f5 0C       		.byte	0xc
 1604 07f6 9E       		.byte	0x9e
 1605 07f7 37000000 		.4byte	0x37
 1606 07fb 1A       		.uleb128 0x1a
 1607 07fc 0B080000 		.4byte	0x80b
 1608 0800 0B080000 		.4byte	0x80b
 1609 0804 1B       		.uleb128 0x1b
 1610 0805 F2030000 		.4byte	0x3f2
 1611 0809 01       		.byte	0x1
 1612 080a 00       		.byte	0
 1613 080b 0A       		.uleb128 0xa
 1614 080c 04       		.byte	0x4
 1615 080d CF070000 		.4byte	0x7cf
 1616 0811 2C       		.uleb128 0x2c
 1617 0812 56050000 		.4byte	.LASF98
 1618 0816 01       		.byte	0x1
 1619 0817 76       		.byte	0x76
 1620 0818 22080000 		.4byte	0x822
 1621 081c 05       		.uleb128 0x5
 1622 081d 03       		.byte	0x3
 1623 081e 00000000 		.4byte	test_sequence_007
 1624 0822 12       		.uleb128 0x12
 1625 0823 FB070000 		.4byte	0x7fb
 1626 0827 1A       		.uleb128 0x1a
 1627 0828 F9010000 		.4byte	0x1f9
 1628 082c 37080000 		.4byte	0x837
 1629 0830 1B       		.uleb128 0x1b
 1630 0831 F2030000 		.4byte	0x3f2
 1631 0835 04       		.byte	0x4
 1632 0836 00       		.byte	0
 1633 0837 2B       		.uleb128 0x2b
 1634 0838 26040000 		.4byte	.LASF99
 1635 083c 0E       		.byte	0xe
 1636 083d 5C       		.byte	0x5c
 1637 083e 27080000 		.4byte	0x827
 1638 0842 1A       		.uleb128 0x1a
 1639 0843 D6020000 		.4byte	0x2d6
 1640 0847 52080000 		.4byte	0x852
 1641 084b 1B       		.uleb128 0x1b
 1642 084c F2030000 		.4byte	0x3f2
 1643 0850 04       		.byte	0x4
 1644 0851 00       		.byte	0
 1645 0852 2D       		.uleb128 0x2d
 1646 0853 776100   		.ascii	"wa\000"
 1647 0856 0E       		.byte	0xe
 1648 0857 5D       		.byte	0x5d
 1649 0858 5C080000 		.4byte	0x85c
 1650 085c 12       		.uleb128 0x12
ARM GAS  /tmp/ccnI9Qb6.s 			page 54


 1651 085d 42080000 		.4byte	0x842
 1652 0861 2E       		.uleb128 0x2e
 1653 0862 E0040000 		.4byte	.LASF109
 1654 0866 0F       		.byte	0xf
 1655 0867 3D       		.byte	0x3d
 1656 0868 F9010000 		.4byte	0x1f9
 1657 086c 2F       		.uleb128 0x2f
 1658 086d 50040000 		.4byte	.LASF100
 1659 0871 0F       		.byte	0xf
 1660 0872 3E       		.byte	0x3e
 1661 0873 82080000 		.4byte	0x882
 1662 0877 0D       		.uleb128 0xd
 1663 0878 F9010000 		.4byte	0x1f9
 1664 087c 0D       		.uleb128 0xd
 1665 087d D9000000 		.4byte	0xd9
 1666 0881 00       		.byte	0
 1667 0882 2F       		.uleb128 0x2f
 1668 0883 F1000000 		.4byte	.LASF101
 1669 0887 0C       		.byte	0xc
 1670 0888 AE       		.byte	0xae
 1671 0889 93080000 		.4byte	0x893
 1672 088d 0D       		.uleb128 0xd
 1673 088e 7F050000 		.4byte	0x57f
 1674 0892 00       		.byte	0
 1675 0893 30       		.uleb128 0x30
 1676 0894 BD020000 		.4byte	.LASF110
 1677 0898 0E       		.byte	0xe
 1678 0899 61       		.byte	0x61
 1679 089a 31       		.uleb128 0x31
 1680 089b F4020000 		.4byte	.LASF102
 1681 089f 0C       		.byte	0xc
 1682 08a0 A7       		.byte	0xa7
 1683 08a1 B3050000 		.4byte	0x5b3
 1684 08a5 B4080000 		.4byte	0x8b4
 1685 08a9 0D       		.uleb128 0xd
 1686 08aa B4080000 		.4byte	0x8b4
 1687 08ae 0D       		.uleb128 0xd
 1688 08af 74050000 		.4byte	0x574
 1689 08b3 00       		.byte	0
 1690 08b4 0A       		.uleb128 0xa
 1691 08b5 04       		.byte	0x4
 1692 08b6 7F050000 		.4byte	0x57f
 1693 08ba 31       		.uleb128 0x31
 1694 08bb 65020000 		.4byte	.LASF103
 1695 08bf 02       		.byte	0x2
 1696 08c0 F3       		.byte	0xf3
 1697 08c1 F9010000 		.4byte	0x1f9
 1698 08c5 E3080000 		.4byte	0x8e3
 1699 08c9 0D       		.uleb128 0xd
 1700 08ca D6020000 		.4byte	0x2d6
 1701 08ce 0D       		.uleb128 0xd
 1702 08cf 2C000000 		.4byte	0x2c
 1703 08d3 0D       		.uleb128 0xd
 1704 08d4 CE000000 		.4byte	0xce
 1705 08d8 0D       		.uleb128 0xd
 1706 08d9 97050000 		.4byte	0x597
 1707 08dd 0D       		.uleb128 0xd
ARM GAS  /tmp/ccnI9Qb6.s 			page 55


 1708 08de D6020000 		.4byte	0x2d6
 1709 08e2 00       		.byte	0
 1710 08e3 32       		.uleb128 0x32
 1711 08e4 20010000 		.4byte	.LASF104
 1712 08e8 0F       		.byte	0xf
 1713 08e9 3C       		.byte	0x3c
 1714 08ea D9000000 		.4byte	0xd9
 1715 08ee 0D       		.uleb128 0xd
 1716 08ef F9010000 		.4byte	0x1f9
 1717 08f3 0D       		.uleb128 0xd
 1718 08f4 D9000000 		.4byte	0xd9
 1719 08f8 00       		.byte	0
 1720 08f9 00       		.byte	0
 1721              		.section	.debug_abbrev,"",%progbits
 1722              	.Ldebug_abbrev0:
 1723 0000 01       		.uleb128 0x1
 1724 0001 11       		.uleb128 0x11
 1725 0002 01       		.byte	0x1
 1726 0003 25       		.uleb128 0x25
 1727 0004 0E       		.uleb128 0xe
 1728 0005 13       		.uleb128 0x13
 1729 0006 0B       		.uleb128 0xb
 1730 0007 03       		.uleb128 0x3
 1731 0008 0E       		.uleb128 0xe
 1732 0009 1B       		.uleb128 0x1b
 1733 000a 0E       		.uleb128 0xe
 1734 000b 55       		.uleb128 0x55
 1735 000c 17       		.uleb128 0x17
 1736 000d 11       		.uleb128 0x11
 1737 000e 01       		.uleb128 0x1
 1738 000f 10       		.uleb128 0x10
 1739 0010 17       		.uleb128 0x17
 1740 0011 00       		.byte	0
 1741 0012 00       		.byte	0
 1742 0013 02       		.uleb128 0x2
 1743 0014 24       		.uleb128 0x24
 1744 0015 00       		.byte	0
 1745 0016 0B       		.uleb128 0xb
 1746 0017 0B       		.uleb128 0xb
 1747 0018 3E       		.uleb128 0x3e
 1748 0019 0B       		.uleb128 0xb
 1749 001a 03       		.uleb128 0x3
 1750 001b 08       		.uleb128 0x8
 1751 001c 00       		.byte	0
 1752 001d 00       		.byte	0
 1753 001e 03       		.uleb128 0x3
 1754 001f 16       		.uleb128 0x16
 1755 0020 00       		.byte	0
 1756 0021 03       		.uleb128 0x3
 1757 0022 0E       		.uleb128 0xe
 1758 0023 3A       		.uleb128 0x3a
 1759 0024 0B       		.uleb128 0xb
 1760 0025 3B       		.uleb128 0x3b
 1761 0026 0B       		.uleb128 0xb
 1762 0027 49       		.uleb128 0x49
 1763 0028 13       		.uleb128 0x13
 1764 0029 00       		.byte	0
ARM GAS  /tmp/ccnI9Qb6.s 			page 56


 1765 002a 00       		.byte	0
 1766 002b 04       		.uleb128 0x4
 1767 002c 24       		.uleb128 0x24
 1768 002d 00       		.byte	0
 1769 002e 0B       		.uleb128 0xb
 1770 002f 0B       		.uleb128 0xb
 1771 0030 3E       		.uleb128 0x3e
 1772 0031 0B       		.uleb128 0xb
 1773 0032 03       		.uleb128 0x3
 1774 0033 0E       		.uleb128 0xe
 1775 0034 00       		.byte	0
 1776 0035 00       		.byte	0
 1777 0036 05       		.uleb128 0x5
 1778 0037 13       		.uleb128 0x13
 1779 0038 01       		.byte	0x1
 1780 0039 03       		.uleb128 0x3
 1781 003a 0E       		.uleb128 0xe
 1782 003b 0B       		.uleb128 0xb
 1783 003c 0B       		.uleb128 0xb
 1784 003d 3A       		.uleb128 0x3a
 1785 003e 0B       		.uleb128 0xb
 1786 003f 3B       		.uleb128 0x3b
 1787 0040 0B       		.uleb128 0xb
 1788 0041 01       		.uleb128 0x1
 1789 0042 13       		.uleb128 0x13
 1790 0043 00       		.byte	0
 1791 0044 00       		.byte	0
 1792 0045 06       		.uleb128 0x6
 1793 0046 0D       		.uleb128 0xd
 1794 0047 00       		.byte	0
 1795 0048 03       		.uleb128 0x3
 1796 0049 0E       		.uleb128 0xe
 1797 004a 3A       		.uleb128 0x3a
 1798 004b 0B       		.uleb128 0xb
 1799 004c 3B       		.uleb128 0x3b
 1800 004d 0B       		.uleb128 0xb
 1801 004e 49       		.uleb128 0x49
 1802 004f 13       		.uleb128 0x13
 1803 0050 38       		.uleb128 0x38
 1804 0051 0B       		.uleb128 0xb
 1805 0052 00       		.byte	0
 1806 0053 00       		.byte	0
 1807 0054 07       		.uleb128 0x7
 1808 0055 0D       		.uleb128 0xd
 1809 0056 00       		.byte	0
 1810 0057 03       		.uleb128 0x3
 1811 0058 08       		.uleb128 0x8
 1812 0059 3A       		.uleb128 0x3a
 1813 005a 0B       		.uleb128 0xb
 1814 005b 3B       		.uleb128 0x3b
 1815 005c 0B       		.uleb128 0xb
 1816 005d 49       		.uleb128 0x49
 1817 005e 13       		.uleb128 0x13
 1818 005f 38       		.uleb128 0x38
 1819 0060 0B       		.uleb128 0xb
 1820 0061 00       		.byte	0
 1821 0062 00       		.byte	0
ARM GAS  /tmp/ccnI9Qb6.s 			page 57


 1822 0063 08       		.uleb128 0x8
 1823 0064 0D       		.uleb128 0xd
 1824 0065 00       		.byte	0
 1825 0066 03       		.uleb128 0x3
 1826 0067 08       		.uleb128 0x8
 1827 0068 3A       		.uleb128 0x3a
 1828 0069 0B       		.uleb128 0xb
 1829 006a 3B       		.uleb128 0x3b
 1830 006b 05       		.uleb128 0x5
 1831 006c 49       		.uleb128 0x49
 1832 006d 13       		.uleb128 0x13
 1833 006e 38       		.uleb128 0x38
 1834 006f 0B       		.uleb128 0xb
 1835 0070 00       		.byte	0
 1836 0071 00       		.byte	0
 1837 0072 09       		.uleb128 0x9
 1838 0073 0D       		.uleb128 0xd
 1839 0074 00       		.byte	0
 1840 0075 03       		.uleb128 0x3
 1841 0076 0E       		.uleb128 0xe
 1842 0077 3A       		.uleb128 0x3a
 1843 0078 0B       		.uleb128 0xb
 1844 0079 3B       		.uleb128 0x3b
 1845 007a 05       		.uleb128 0x5
 1846 007b 49       		.uleb128 0x49
 1847 007c 13       		.uleb128 0x13
 1848 007d 38       		.uleb128 0x38
 1849 007e 0B       		.uleb128 0xb
 1850 007f 00       		.byte	0
 1851 0080 00       		.byte	0
 1852 0081 0A       		.uleb128 0xa
 1853 0082 0F       		.uleb128 0xf
 1854 0083 00       		.byte	0
 1855 0084 0B       		.uleb128 0xb
 1856 0085 0B       		.uleb128 0xb
 1857 0086 49       		.uleb128 0x49
 1858 0087 13       		.uleb128 0x13
 1859 0088 00       		.byte	0
 1860 0089 00       		.byte	0
 1861 008a 0B       		.uleb128 0xb
 1862 008b 13       		.uleb128 0x13
 1863 008c 01       		.byte	0x1
 1864 008d 03       		.uleb128 0x3
 1865 008e 0E       		.uleb128 0xe
 1866 008f 0B       		.uleb128 0xb
 1867 0090 0B       		.uleb128 0xb
 1868 0091 3A       		.uleb128 0x3a
 1869 0092 0B       		.uleb128 0xb
 1870 0093 3B       		.uleb128 0x3b
 1871 0094 05       		.uleb128 0x5
 1872 0095 01       		.uleb128 0x1
 1873 0096 13       		.uleb128 0x13
 1874 0097 00       		.byte	0
 1875 0098 00       		.byte	0
 1876 0099 0C       		.uleb128 0xc
 1877 009a 15       		.uleb128 0x15
 1878 009b 01       		.byte	0x1
ARM GAS  /tmp/ccnI9Qb6.s 			page 58


 1879 009c 27       		.uleb128 0x27
 1880 009d 19       		.uleb128 0x19
 1881 009e 01       		.uleb128 0x1
 1882 009f 13       		.uleb128 0x13
 1883 00a0 00       		.byte	0
 1884 00a1 00       		.byte	0
 1885 00a2 0D       		.uleb128 0xd
 1886 00a3 05       		.uleb128 0x5
 1887 00a4 00       		.byte	0
 1888 00a5 49       		.uleb128 0x49
 1889 00a6 13       		.uleb128 0x13
 1890 00a7 00       		.byte	0
 1891 00a8 00       		.byte	0
 1892 00a9 0E       		.uleb128 0xe
 1893 00aa 0F       		.uleb128 0xf
 1894 00ab 00       		.byte	0
 1895 00ac 0B       		.uleb128 0xb
 1896 00ad 0B       		.uleb128 0xb
 1897 00ae 00       		.byte	0
 1898 00af 00       		.byte	0
 1899 00b0 0F       		.uleb128 0xf
 1900 00b1 17       		.uleb128 0x17
 1901 00b2 01       		.byte	0x1
 1902 00b3 0B       		.uleb128 0xb
 1903 00b4 0B       		.uleb128 0xb
 1904 00b5 3A       		.uleb128 0x3a
 1905 00b6 0B       		.uleb128 0xb
 1906 00b7 3B       		.uleb128 0x3b
 1907 00b8 0B       		.uleb128 0xb
 1908 00b9 01       		.uleb128 0x1
 1909 00ba 13       		.uleb128 0x13
 1910 00bb 00       		.byte	0
 1911 00bc 00       		.byte	0
 1912 00bd 10       		.uleb128 0x10
 1913 00be 0D       		.uleb128 0xd
 1914 00bf 00       		.byte	0
 1915 00c0 03       		.uleb128 0x3
 1916 00c1 0E       		.uleb128 0xe
 1917 00c2 3A       		.uleb128 0x3a
 1918 00c3 0B       		.uleb128 0xb
 1919 00c4 3B       		.uleb128 0x3b
 1920 00c5 0B       		.uleb128 0xb
 1921 00c6 49       		.uleb128 0x49
 1922 00c7 13       		.uleb128 0x13
 1923 00c8 00       		.byte	0
 1924 00c9 00       		.byte	0
 1925 00ca 11       		.uleb128 0x11
 1926 00cb 0D       		.uleb128 0xd
 1927 00cc 00       		.byte	0
 1928 00cd 03       		.uleb128 0x3
 1929 00ce 0E       		.uleb128 0xe
 1930 00cf 3A       		.uleb128 0x3a
 1931 00d0 0B       		.uleb128 0xb
 1932 00d1 3B       		.uleb128 0x3b
 1933 00d2 05       		.uleb128 0x5
 1934 00d3 49       		.uleb128 0x49
 1935 00d4 13       		.uleb128 0x13
ARM GAS  /tmp/ccnI9Qb6.s 			page 59


 1936 00d5 00       		.byte	0
 1937 00d6 00       		.byte	0
 1938 00d7 12       		.uleb128 0x12
 1939 00d8 26       		.uleb128 0x26
 1940 00d9 00       		.byte	0
 1941 00da 49       		.uleb128 0x49
 1942 00db 13       		.uleb128 0x13
 1943 00dc 00       		.byte	0
 1944 00dd 00       		.byte	0
 1945 00de 13       		.uleb128 0x13
 1946 00df 35       		.uleb128 0x35
 1947 00e0 00       		.byte	0
 1948 00e1 49       		.uleb128 0x49
 1949 00e2 13       		.uleb128 0x13
 1950 00e3 00       		.byte	0
 1951 00e4 00       		.byte	0
 1952 00e5 14       		.uleb128 0x14
 1953 00e6 15       		.uleb128 0x15
 1954 00e7 00       		.byte	0
 1955 00e8 27       		.uleb128 0x27
 1956 00e9 19       		.uleb128 0x19
 1957 00ea 00       		.byte	0
 1958 00eb 00       		.byte	0
 1959 00ec 15       		.uleb128 0x15
 1960 00ed 13       		.uleb128 0x13
 1961 00ee 01       		.byte	0x1
 1962 00ef 0B       		.uleb128 0xb
 1963 00f0 0B       		.uleb128 0xb
 1964 00f1 3A       		.uleb128 0x3a
 1965 00f2 0B       		.uleb128 0xb
 1966 00f3 3B       		.uleb128 0x3b
 1967 00f4 0B       		.uleb128 0xb
 1968 00f5 01       		.uleb128 0x1
 1969 00f6 13       		.uleb128 0x13
 1970 00f7 00       		.byte	0
 1971 00f8 00       		.byte	0
 1972 00f9 16       		.uleb128 0x16
 1973 00fa 2E       		.uleb128 0x2e
 1974 00fb 00       		.byte	0
 1975 00fc 03       		.uleb128 0x3
 1976 00fd 0E       		.uleb128 0xe
 1977 00fe 3A       		.uleb128 0x3a
 1978 00ff 0B       		.uleb128 0xb
 1979 0100 3B       		.uleb128 0x3b
 1980 0101 05       		.uleb128 0x5
 1981 0102 27       		.uleb128 0x27
 1982 0103 19       		.uleb128 0x19
 1983 0104 49       		.uleb128 0x49
 1984 0105 13       		.uleb128 0x13
 1985 0106 20       		.uleb128 0x20
 1986 0107 0B       		.uleb128 0xb
 1987 0108 00       		.byte	0
 1988 0109 00       		.byte	0
 1989 010a 17       		.uleb128 0x17
 1990 010b 2E       		.uleb128 0x2e
 1991 010c 01       		.byte	0x1
 1992 010d 03       		.uleb128 0x3
ARM GAS  /tmp/ccnI9Qb6.s 			page 60


 1993 010e 0E       		.uleb128 0xe
 1994 010f 3A       		.uleb128 0x3a
 1995 0110 0B       		.uleb128 0xb
 1996 0111 3B       		.uleb128 0x3b
 1997 0112 0B       		.uleb128 0xb
 1998 0113 27       		.uleb128 0x27
 1999 0114 19       		.uleb128 0x19
 2000 0115 49       		.uleb128 0x49
 2001 0116 13       		.uleb128 0x13
 2002 0117 20       		.uleb128 0x20
 2003 0118 0B       		.uleb128 0xb
 2004 0119 01       		.uleb128 0x1
 2005 011a 13       		.uleb128 0x13
 2006 011b 00       		.byte	0
 2007 011c 00       		.byte	0
 2008 011d 18       		.uleb128 0x18
 2009 011e 05       		.uleb128 0x5
 2010 011f 00       		.byte	0
 2011 0120 03       		.uleb128 0x3
 2012 0121 08       		.uleb128 0x8
 2013 0122 3A       		.uleb128 0x3a
 2014 0123 0B       		.uleb128 0xb
 2015 0124 3B       		.uleb128 0x3b
 2016 0125 0B       		.uleb128 0xb
 2017 0126 49       		.uleb128 0x49
 2018 0127 13       		.uleb128 0x13
 2019 0128 00       		.byte	0
 2020 0129 00       		.byte	0
 2021 012a 19       		.uleb128 0x19
 2022 012b 34       		.uleb128 0x34
 2023 012c 00       		.byte	0
 2024 012d 03       		.uleb128 0x3
 2025 012e 0E       		.uleb128 0xe
 2026 012f 49       		.uleb128 0x49
 2027 0130 13       		.uleb128 0x13
 2028 0131 34       		.uleb128 0x34
 2029 0132 19       		.uleb128 0x19
 2030 0133 1C       		.uleb128 0x1c
 2031 0134 0E       		.uleb128 0xe
 2032 0135 00       		.byte	0
 2033 0136 00       		.byte	0
 2034 0137 1A       		.uleb128 0x1a
 2035 0138 01       		.uleb128 0x1
 2036 0139 01       		.byte	0x1
 2037 013a 49       		.uleb128 0x49
 2038 013b 13       		.uleb128 0x13
 2039 013c 01       		.uleb128 0x1
 2040 013d 13       		.uleb128 0x13
 2041 013e 00       		.byte	0
 2042 013f 00       		.byte	0
 2043 0140 1B       		.uleb128 0x1b
 2044 0141 21       		.uleb128 0x21
 2045 0142 00       		.byte	0
 2046 0143 49       		.uleb128 0x49
 2047 0144 13       		.uleb128 0x13
 2048 0145 2F       		.uleb128 0x2f
 2049 0146 0B       		.uleb128 0xb
ARM GAS  /tmp/ccnI9Qb6.s 			page 61


 2050 0147 00       		.byte	0
 2051 0148 00       		.byte	0
 2052 0149 1C       		.uleb128 0x1c
 2053 014a 2E       		.uleb128 0x2e
 2054 014b 01       		.byte	0x1
 2055 014c 03       		.uleb128 0x3
 2056 014d 0E       		.uleb128 0xe
 2057 014e 3A       		.uleb128 0x3a
 2058 014f 0B       		.uleb128 0xb
 2059 0150 3B       		.uleb128 0x3b
 2060 0151 0B       		.uleb128 0xb
 2061 0152 27       		.uleb128 0x27
 2062 0153 19       		.uleb128 0x19
 2063 0154 11       		.uleb128 0x11
 2064 0155 01       		.uleb128 0x1
 2065 0156 12       		.uleb128 0x12
 2066 0157 06       		.uleb128 0x6
 2067 0158 40       		.uleb128 0x40
 2068 0159 18       		.uleb128 0x18
 2069 015a 9742     		.uleb128 0x2117
 2070 015c 19       		.uleb128 0x19
 2071 015d 01       		.uleb128 0x1
 2072 015e 13       		.uleb128 0x13
 2073 015f 00       		.byte	0
 2074 0160 00       		.byte	0
 2075 0161 1D       		.uleb128 0x1d
 2076 0162 34       		.uleb128 0x34
 2077 0163 00       		.byte	0
 2078 0164 03       		.uleb128 0x3
 2079 0165 08       		.uleb128 0x8
 2080 0166 3A       		.uleb128 0x3a
 2081 0167 0B       		.uleb128 0xb
 2082 0168 3B       		.uleb128 0x3b
 2083 0169 0B       		.uleb128 0xb
 2084 016a 49       		.uleb128 0x49
 2085 016b 13       		.uleb128 0x13
 2086 016c 02       		.uleb128 0x2
 2087 016d 17       		.uleb128 0x17
 2088 016e 00       		.byte	0
 2089 016f 00       		.byte	0
 2090 0170 1E       		.uleb128 0x1e
 2091 0171 34       		.uleb128 0x34
 2092 0172 00       		.byte	0
 2093 0173 03       		.uleb128 0x3
 2094 0174 08       		.uleb128 0x8
 2095 0175 3A       		.uleb128 0x3a
 2096 0176 0B       		.uleb128 0xb
 2097 0177 3B       		.uleb128 0x3b
 2098 0178 0B       		.uleb128 0xb
 2099 0179 49       		.uleb128 0x49
 2100 017a 13       		.uleb128 0x13
 2101 017b 00       		.byte	0
 2102 017c 00       		.byte	0
 2103 017d 1F       		.uleb128 0x1f
 2104 017e 1D       		.uleb128 0x1d
 2105 017f 01       		.byte	0x1
 2106 0180 31       		.uleb128 0x31
ARM GAS  /tmp/ccnI9Qb6.s 			page 62


 2107 0181 13       		.uleb128 0x13
 2108 0182 11       		.uleb128 0x11
 2109 0183 01       		.uleb128 0x1
 2110 0184 12       		.uleb128 0x12
 2111 0185 06       		.uleb128 0x6
 2112 0186 58       		.uleb128 0x58
 2113 0187 0B       		.uleb128 0xb
 2114 0188 59       		.uleb128 0x59
 2115 0189 0B       		.uleb128 0xb
 2116 018a 01       		.uleb128 0x1
 2117 018b 13       		.uleb128 0x13
 2118 018c 00       		.byte	0
 2119 018d 00       		.byte	0
 2120 018e 20       		.uleb128 0x20
 2121 018f 1D       		.uleb128 0x1d
 2122 0190 00       		.byte	0
 2123 0191 31       		.uleb128 0x31
 2124 0192 13       		.uleb128 0x13
 2125 0193 11       		.uleb128 0x11
 2126 0194 01       		.uleb128 0x1
 2127 0195 12       		.uleb128 0x12
 2128 0196 06       		.uleb128 0x6
 2129 0197 58       		.uleb128 0x58
 2130 0198 0B       		.uleb128 0xb
 2131 0199 59       		.uleb128 0x59
 2132 019a 05       		.uleb128 0x5
 2133 019b 00       		.byte	0
 2134 019c 00       		.byte	0
 2135 019d 21       		.uleb128 0x21
 2136 019e 0B       		.uleb128 0xb
 2137 019f 01       		.byte	0x1
 2138 01a0 55       		.uleb128 0x55
 2139 01a1 17       		.uleb128 0x17
 2140 01a2 01       		.uleb128 0x1
 2141 01a3 13       		.uleb128 0x13
 2142 01a4 00       		.byte	0
 2143 01a5 00       		.byte	0
 2144 01a6 22       		.uleb128 0x22
 2145 01a7 898201   		.uleb128 0x4109
 2146 01aa 00       		.byte	0
 2147 01ab 11       		.uleb128 0x11
 2148 01ac 01       		.uleb128 0x1
 2149 01ad 31       		.uleb128 0x31
 2150 01ae 13       		.uleb128 0x13
 2151 01af 00       		.byte	0
 2152 01b0 00       		.byte	0
 2153 01b1 23       		.uleb128 0x23
 2154 01b2 898201   		.uleb128 0x4109
 2155 01b5 01       		.byte	0x1
 2156 01b6 11       		.uleb128 0x11
 2157 01b7 01       		.uleb128 0x1
 2158 01b8 31       		.uleb128 0x31
 2159 01b9 13       		.uleb128 0x13
 2160 01ba 01       		.uleb128 0x1
 2161 01bb 13       		.uleb128 0x13
 2162 01bc 00       		.byte	0
 2163 01bd 00       		.byte	0
ARM GAS  /tmp/ccnI9Qb6.s 			page 63


 2164 01be 24       		.uleb128 0x24
 2165 01bf 8A8201   		.uleb128 0x410a
 2166 01c2 00       		.byte	0
 2167 01c3 02       		.uleb128 0x2
 2168 01c4 18       		.uleb128 0x18
 2169 01c5 9142     		.uleb128 0x2111
 2170 01c7 18       		.uleb128 0x18
 2171 01c8 00       		.byte	0
 2172 01c9 00       		.byte	0
 2173 01ca 25       		.uleb128 0x25
 2174 01cb 898201   		.uleb128 0x4109
 2175 01ce 01       		.byte	0x1
 2176 01cf 11       		.uleb128 0x11
 2177 01d0 01       		.uleb128 0x1
 2178 01d1 9542     		.uleb128 0x2115
 2179 01d3 19       		.uleb128 0x19
 2180 01d4 31       		.uleb128 0x31
 2181 01d5 13       		.uleb128 0x13
 2182 01d6 00       		.byte	0
 2183 01d7 00       		.byte	0
 2184 01d8 26       		.uleb128 0x26
 2185 01d9 898201   		.uleb128 0x4109
 2186 01dc 01       		.byte	0x1
 2187 01dd 11       		.uleb128 0x11
 2188 01de 01       		.uleb128 0x1
 2189 01df 31       		.uleb128 0x31
 2190 01e0 13       		.uleb128 0x13
 2191 01e1 00       		.byte	0
 2192 01e2 00       		.byte	0
 2193 01e3 27       		.uleb128 0x27
 2194 01e4 05       		.uleb128 0x5
 2195 01e5 00       		.byte	0
 2196 01e6 03       		.uleb128 0x3
 2197 01e7 08       		.uleb128 0x8
 2198 01e8 3A       		.uleb128 0x3a
 2199 01e9 0B       		.uleb128 0xb
 2200 01ea 3B       		.uleb128 0x3b
 2201 01eb 0B       		.uleb128 0xb
 2202 01ec 49       		.uleb128 0x49
 2203 01ed 13       		.uleb128 0x13
 2204 01ee 02       		.uleb128 0x2
 2205 01ef 17       		.uleb128 0x17
 2206 01f0 00       		.byte	0
 2207 01f1 00       		.byte	0
 2208 01f2 28       		.uleb128 0x28
 2209 01f3 34       		.uleb128 0x34
 2210 01f4 00       		.byte	0
 2211 01f5 03       		.uleb128 0x3
 2212 01f6 0E       		.uleb128 0xe
 2213 01f7 3A       		.uleb128 0x3a
 2214 01f8 0B       		.uleb128 0xb
 2215 01f9 3B       		.uleb128 0x3b
 2216 01fa 0B       		.uleb128 0xb
 2217 01fb 49       		.uleb128 0x49
 2218 01fc 13       		.uleb128 0x13
 2219 01fd 02       		.uleb128 0x2
 2220 01fe 18       		.uleb128 0x18
ARM GAS  /tmp/ccnI9Qb6.s 			page 64


 2221 01ff 00       		.byte	0
 2222 0200 00       		.byte	0
 2223 0201 29       		.uleb128 0x29
 2224 0202 34       		.uleb128 0x34
 2225 0203 00       		.byte	0
 2226 0204 03       		.uleb128 0x3
 2227 0205 0E       		.uleb128 0xe
 2228 0206 3A       		.uleb128 0x3a
 2229 0207 0B       		.uleb128 0xb
 2230 0208 3B       		.uleb128 0x3b
 2231 0209 05       		.uleb128 0x5
 2232 020a 49       		.uleb128 0x49
 2233 020b 13       		.uleb128 0x13
 2234 020c 3F       		.uleb128 0x3f
 2235 020d 19       		.uleb128 0x19
 2236 020e 3C       		.uleb128 0x3c
 2237 020f 19       		.uleb128 0x19
 2238 0210 00       		.byte	0
 2239 0211 00       		.byte	0
 2240 0212 2A       		.uleb128 0x2a
 2241 0213 34       		.uleb128 0x34
 2242 0214 00       		.byte	0
 2243 0215 03       		.uleb128 0x3
 2244 0216 08       		.uleb128 0x8
 2245 0217 3A       		.uleb128 0x3a
 2246 0218 0B       		.uleb128 0xb
 2247 0219 3B       		.uleb128 0x3b
 2248 021a 05       		.uleb128 0x5
 2249 021b 49       		.uleb128 0x49
 2250 021c 13       		.uleb128 0x13
 2251 021d 3F       		.uleb128 0x3f
 2252 021e 19       		.uleb128 0x19
 2253 021f 3C       		.uleb128 0x3c
 2254 0220 19       		.uleb128 0x19
 2255 0221 00       		.byte	0
 2256 0222 00       		.byte	0
 2257 0223 2B       		.uleb128 0x2b
 2258 0224 34       		.uleb128 0x34
 2259 0225 00       		.byte	0
 2260 0226 03       		.uleb128 0x3
 2261 0227 0E       		.uleb128 0xe
 2262 0228 3A       		.uleb128 0x3a
 2263 0229 0B       		.uleb128 0xb
 2264 022a 3B       		.uleb128 0x3b
 2265 022b 0B       		.uleb128 0xb
 2266 022c 49       		.uleb128 0x49
 2267 022d 13       		.uleb128 0x13
 2268 022e 3F       		.uleb128 0x3f
 2269 022f 19       		.uleb128 0x19
 2270 0230 3C       		.uleb128 0x3c
 2271 0231 19       		.uleb128 0x19
 2272 0232 00       		.byte	0
 2273 0233 00       		.byte	0
 2274 0234 2C       		.uleb128 0x2c
 2275 0235 34       		.uleb128 0x34
 2276 0236 00       		.byte	0
 2277 0237 03       		.uleb128 0x3
ARM GAS  /tmp/ccnI9Qb6.s 			page 65


 2278 0238 0E       		.uleb128 0xe
 2279 0239 3A       		.uleb128 0x3a
 2280 023a 0B       		.uleb128 0xb
 2281 023b 3B       		.uleb128 0x3b
 2282 023c 0B       		.uleb128 0xb
 2283 023d 49       		.uleb128 0x49
 2284 023e 13       		.uleb128 0x13
 2285 023f 3F       		.uleb128 0x3f
 2286 0240 19       		.uleb128 0x19
 2287 0241 02       		.uleb128 0x2
 2288 0242 18       		.uleb128 0x18
 2289 0243 00       		.byte	0
 2290 0244 00       		.byte	0
 2291 0245 2D       		.uleb128 0x2d
 2292 0246 34       		.uleb128 0x34
 2293 0247 00       		.byte	0
 2294 0248 03       		.uleb128 0x3
 2295 0249 08       		.uleb128 0x8
 2296 024a 3A       		.uleb128 0x3a
 2297 024b 0B       		.uleb128 0xb
 2298 024c 3B       		.uleb128 0x3b
 2299 024d 0B       		.uleb128 0xb
 2300 024e 49       		.uleb128 0x49
 2301 024f 13       		.uleb128 0x13
 2302 0250 3F       		.uleb128 0x3f
 2303 0251 19       		.uleb128 0x19
 2304 0252 3C       		.uleb128 0x3c
 2305 0253 19       		.uleb128 0x19
 2306 0254 00       		.byte	0
 2307 0255 00       		.byte	0
 2308 0256 2E       		.uleb128 0x2e
 2309 0257 2E       		.uleb128 0x2e
 2310 0258 00       		.byte	0
 2311 0259 3F       		.uleb128 0x3f
 2312 025a 19       		.uleb128 0x19
 2313 025b 03       		.uleb128 0x3
 2314 025c 0E       		.uleb128 0xe
 2315 025d 3A       		.uleb128 0x3a
 2316 025e 0B       		.uleb128 0xb
 2317 025f 3B       		.uleb128 0x3b
 2318 0260 0B       		.uleb128 0xb
 2319 0261 27       		.uleb128 0x27
 2320 0262 19       		.uleb128 0x19
 2321 0263 49       		.uleb128 0x49
 2322 0264 13       		.uleb128 0x13
 2323 0265 3C       		.uleb128 0x3c
 2324 0266 19       		.uleb128 0x19
 2325 0267 00       		.byte	0
 2326 0268 00       		.byte	0
 2327 0269 2F       		.uleb128 0x2f
 2328 026a 2E       		.uleb128 0x2e
 2329 026b 01       		.byte	0x1
 2330 026c 3F       		.uleb128 0x3f
 2331 026d 19       		.uleb128 0x19
 2332 026e 03       		.uleb128 0x3
 2333 026f 0E       		.uleb128 0xe
 2334 0270 3A       		.uleb128 0x3a
ARM GAS  /tmp/ccnI9Qb6.s 			page 66


 2335 0271 0B       		.uleb128 0xb
 2336 0272 3B       		.uleb128 0x3b
 2337 0273 0B       		.uleb128 0xb
 2338 0274 27       		.uleb128 0x27
 2339 0275 19       		.uleb128 0x19
 2340 0276 3C       		.uleb128 0x3c
 2341 0277 19       		.uleb128 0x19
 2342 0278 01       		.uleb128 0x1
 2343 0279 13       		.uleb128 0x13
 2344 027a 00       		.byte	0
 2345 027b 00       		.byte	0
 2346 027c 30       		.uleb128 0x30
 2347 027d 2E       		.uleb128 0x2e
 2348 027e 00       		.byte	0
 2349 027f 3F       		.uleb128 0x3f
 2350 0280 19       		.uleb128 0x19
 2351 0281 03       		.uleb128 0x3
 2352 0282 0E       		.uleb128 0xe
 2353 0283 3A       		.uleb128 0x3a
 2354 0284 0B       		.uleb128 0xb
 2355 0285 3B       		.uleb128 0x3b
 2356 0286 0B       		.uleb128 0xb
 2357 0287 27       		.uleb128 0x27
 2358 0288 19       		.uleb128 0x19
 2359 0289 3C       		.uleb128 0x3c
 2360 028a 19       		.uleb128 0x19
 2361 028b 00       		.byte	0
 2362 028c 00       		.byte	0
 2363 028d 31       		.uleb128 0x31
 2364 028e 2E       		.uleb128 0x2e
 2365 028f 01       		.byte	0x1
 2366 0290 3F       		.uleb128 0x3f
 2367 0291 19       		.uleb128 0x19
 2368 0292 03       		.uleb128 0x3
 2369 0293 0E       		.uleb128 0xe
 2370 0294 3A       		.uleb128 0x3a
 2371 0295 0B       		.uleb128 0xb
 2372 0296 3B       		.uleb128 0x3b
 2373 0297 0B       		.uleb128 0xb
 2374 0298 27       		.uleb128 0x27
 2375 0299 19       		.uleb128 0x19
 2376 029a 49       		.uleb128 0x49
 2377 029b 13       		.uleb128 0x13
 2378 029c 3C       		.uleb128 0x3c
 2379 029d 19       		.uleb128 0x19
 2380 029e 01       		.uleb128 0x1
 2381 029f 13       		.uleb128 0x13
 2382 02a0 00       		.byte	0
 2383 02a1 00       		.byte	0
 2384 02a2 32       		.uleb128 0x32
 2385 02a3 2E       		.uleb128 0x2e
 2386 02a4 01       		.byte	0x1
 2387 02a5 3F       		.uleb128 0x3f
 2388 02a6 19       		.uleb128 0x19
 2389 02a7 03       		.uleb128 0x3
 2390 02a8 0E       		.uleb128 0xe
 2391 02a9 3A       		.uleb128 0x3a
ARM GAS  /tmp/ccnI9Qb6.s 			page 67


 2392 02aa 0B       		.uleb128 0xb
 2393 02ab 3B       		.uleb128 0x3b
 2394 02ac 0B       		.uleb128 0xb
 2395 02ad 27       		.uleb128 0x27
 2396 02ae 19       		.uleb128 0x19
 2397 02af 49       		.uleb128 0x49
 2398 02b0 13       		.uleb128 0x13
 2399 02b1 3C       		.uleb128 0x3c
 2400 02b2 19       		.uleb128 0x19
 2401 02b3 00       		.byte	0
 2402 02b4 00       		.byte	0
 2403 02b5 00       		.byte	0
 2404              		.section	.debug_loc,"",%progbits
 2405              	.Ldebug_loc0:
 2406              	.LLST0:
 2407 0000 4E000000 		.4byte	.LVL3
 2408 0004 55000000 		.4byte	.LVL5-1
 2409 0008 0100     		.2byte	0x1
 2410 000a 50       		.byte	0x50
 2411 000b 00000000 		.4byte	0
 2412 000f 00000000 		.4byte	0
 2413              	.LLST1:
 2414 0013 46000000 		.4byte	.LVL1
 2415 0017 4A000000 		.4byte	.LVL2
 2416 001b 0200     		.2byte	0x2
 2417 001d 30       		.byte	0x30
 2418 001e 9F       		.byte	0x9f
 2419 001f 4A000000 		.4byte	.LVL2
 2420 0023 5C000000 		.4byte	.LVL6
 2421 0027 0500     		.2byte	0x5
 2422 0029 34       		.byte	0x34
 2423 002a 74       		.byte	0x74
 2424 002b 00       		.sleb128 0
 2425 002c 1C       		.byte	0x1c
 2426 002d 9F       		.byte	0x9f
 2427 002e 5C000000 		.4byte	.LVL6
 2428 0032 5E000000 		.4byte	.LVL7
 2429 0036 0500     		.2byte	0x5
 2430 0038 35       		.byte	0x35
 2431 0039 74       		.byte	0x74
 2432 003a 00       		.sleb128 0
 2433 003b 1C       		.byte	0x1c
 2434 003c 9F       		.byte	0x9f
 2435 003d 5E000000 		.4byte	.LVL7
 2436 0041 7A000000 		.4byte	.LVL9
 2437 0045 0500     		.2byte	0x5
 2438 0047 34       		.byte	0x34
 2439 0048 74       		.byte	0x74
 2440 0049 00       		.sleb128 0
 2441 004a 1C       		.byte	0x1c
 2442 004b 9F       		.byte	0x9f
 2443 004c 00000000 		.4byte	0
 2444 0050 00000000 		.4byte	0
 2445              	.LLST2:
 2446 0054 00000000 		.4byte	.LVL11
 2447 0058 09000000 		.4byte	.LVL12-1
 2448 005c 0100     		.2byte	0x1
ARM GAS  /tmp/ccnI9Qb6.s 			page 68


 2449 005e 50       		.byte	0x50
 2450 005f 09000000 		.4byte	.LVL12-1
 2451 0063 22000000 		.4byte	.LVL15
 2452 0067 0100     		.2byte	0x1
 2453 0069 54       		.byte	0x54
 2454 006a 22000000 		.4byte	.LVL15
 2455 006e 25000000 		.4byte	.LVL16-1
 2456 0072 0100     		.2byte	0x1
 2457 0074 50       		.byte	0x50
 2458 0075 25000000 		.4byte	.LVL16-1
 2459 0079 26000000 		.4byte	.LFE219
 2460 007d 0400     		.2byte	0x4
 2461 007f F3       		.byte	0xf3
 2462 0080 01       		.uleb128 0x1
 2463 0081 50       		.byte	0x50
 2464 0082 9F       		.byte	0x9f
 2465 0083 00000000 		.4byte	0
 2466 0087 00000000 		.4byte	0
 2467              		.section	.debug_aranges,"",%progbits
 2468 0000 24000000 		.4byte	0x24
 2469 0004 0200     		.2byte	0x2
 2470 0006 00000000 		.4byte	.Ldebug_info0
 2471 000a 04       		.byte	0x4
 2472 000b 00       		.byte	0
 2473 000c 0000     		.2byte	0
 2474 000e 0000     		.2byte	0
 2475 0010 00000000 		.4byte	.LFB220
 2476 0014 7E000000 		.4byte	.LFE220-.LFB220
 2477 0018 00000000 		.4byte	.LFB219
 2478 001c 26000000 		.4byte	.LFE219-.LFB219
 2479 0020 00000000 		.4byte	0
 2480 0024 00000000 		.4byte	0
 2481              		.section	.debug_ranges,"",%progbits
 2482              	.Ldebug_ranges0:
 2483 0000 4A000000 		.4byte	.LBB17
 2484 0004 4E000000 		.4byte	.LBE17
 2485 0008 50000000 		.4byte	.LBB18
 2486 000c 74000000 		.4byte	.LBE18
 2487 0010 7A000000 		.4byte	.LBB19
 2488 0014 7E000000 		.4byte	.LBE19
 2489 0018 00000000 		.4byte	0
 2490 001c 00000000 		.4byte	0
 2491 0020 00000000 		.4byte	.LFB220
 2492 0024 7E000000 		.4byte	.LFE220
 2493 0028 00000000 		.4byte	.LFB219
 2494 002c 26000000 		.4byte	.LFE219
 2495 0030 00000000 		.4byte	0
 2496 0034 00000000 		.4byte	0
 2497              		.section	.debug_line,"",%progbits
 2498              	.Ldebug_line0:
 2499 0000 A2020000 		.section	.debug_str,"MS",%progbits,1
 2499      02003C02 
 2499      00000201 
 2499      FB0E0D00 
 2499      01010101 
 2500              	.LASF83:
 2501 0000 7466756E 		.ascii	"tfunc_t\000"
ARM GAS  /tmp/ccnI9Qb6.s 			page 69


 2501      635F7400 
 2502              	.LASF47:
 2503 0008 72656164 		.ascii	"ready_list_t\000"
 2503      795F6C69 
 2503      73745F74 
 2503      00
 2504              	.LASF2:
 2505 0015 73697A65 		.ascii	"size_t\000"
 2505      5F7400
 2506              	.LASF53:
 2507 001c 64656C74 		.ascii	"delta\000"
 2507      6100
 2508              	.LASF71:
 2509 0022 7264796D 		.ascii	"rdymsg\000"
 2509      736700
 2510              	.LASF13:
 2511 0029 75696E74 		.ascii	"uint64_t\000"
 2511      36345F74 
 2511      00
 2512              	.LASF46:
 2513 0032 70726576 		.ascii	"prev\000"
 2513      00
 2514              	.LASF70:
 2515 0037 706F7274 		.ascii	"port_intctx\000"
 2515      5F696E74 
 2515      63747800 
 2516              	.LASF58:
 2517 0043 73797374 		.ascii	"system_debug_t\000"
 2517      656D5F64 
 2517      65627567 
 2517      5F7400
 2518              	.LASF94:
 2519 0052 6D73675F 		.ascii	"msg_thread1\000"
 2519      74687265 
 2519      61643100 
 2520              	.LASF14:
 2521 005e 6C6F6E67 		.ascii	"long long unsigned int\000"
 2521      206C6F6E 
 2521      6720756E 
 2521      7369676E 
 2521      65642069 
 2522              	.LASF72:
 2523 0075 65786974 		.ascii	"exitcode\000"
 2523      636F6465 
 2523      00
 2524              	.LASF65:
 2525 007e 6D61696E 		.ascii	"mainthread\000"
 2525      74687265 
 2525      616400
 2526              	.LASF75:
 2527 0089 73656E74 		.ascii	"sentmsg\000"
 2527      6D736700 
 2528              	.LASF55:
 2529 0091 76697274 		.ascii	"virtual_timers_list_t\000"
 2529      75616C5F 
 2529      74696D65 
 2529      72735F6C 
ARM GAS  /tmp/ccnI9Qb6.s 			page 70


 2529      6973745F 
 2530              	.LASF96:
 2531 00a7 49544D5F 		.ascii	"ITM_RxBuffer\000"
 2531      52784275 
 2531      66666572 
 2531      00
 2532              	.LASF43:
 2533 00b4 6E657874 		.ascii	"next\000"
 2533      00
 2534              	.LASF45:
 2535 00b9 63685F74 		.ascii	"ch_threads_queue\000"
 2535      68726561 
 2535      64735F71 
 2535      75657565 
 2535      00
 2536              	.LASF12:
 2537 00ca 6C6F6E67 		.ascii	"long long int\000"
 2537      206C6F6E 
 2537      6720696E 
 2537      7400
 2538              	.LASF1:
 2539 00d8 7369676E 		.ascii	"signed char\000"
 2539      65642063 
 2539      68617200 
 2540              	.LASF95:
 2541 00e4 74657374 		.ascii	"test_007_001\000"
 2541      5F303037 
 2541      5F303031 
 2541      00
 2542              	.LASF101:
 2543 00f1 74657374 		.ascii	"test_emit_token\000"
 2543      5F656D69 
 2543      745F746F 
 2543      6B656E00 
 2544              	.LASF64:
 2545 0101 76746C69 		.ascii	"vtlist\000"
 2545      737400
 2546              	.LASF34:
 2547 0108 6D736771 		.ascii	"msgqueue\000"
 2547      75657565 
 2547      00
 2548              	.LASF30:
 2549 0111 73746174 		.ascii	"state\000"
 2549      6500
 2550              	.LASF9:
 2551 0117 6C6F6E67 		.ascii	"long int\000"
 2551      20696E74 
 2551      00
 2552              	.LASF104:
 2553 0120 63684D73 		.ascii	"chMsgSend\000"
 2553      6753656E 
 2553      6400
 2554              	.LASF16:
 2555 012a 74737461 		.ascii	"tstate_t\000"
 2555      74655F74 
 2555      00
 2556              	.LASF54:
ARM GAS  /tmp/ccnI9Qb6.s 			page 71


 2557 0133 66756E63 		.ascii	"func\000"
 2557      00
 2558              	.LASF6:
 2559 0138 75696E74 		.ascii	"uint16_t\000"
 2559      31365F74 
 2559      00
 2560              	.LASF67:
 2561 0141 72656761 		.ascii	"regarm_t\000"
 2561      726D5F74 
 2561      00
 2562              	.LASF33:
 2563 014a 77616974 		.ascii	"waiting\000"
 2563      696E6700 
 2564              	.LASF84:
 2565 0152 6D757465 		.ascii	"mutex_t\000"
 2565      785F7400 
 2566              	.LASF21:
 2567 015a 636E745F 		.ascii	"cnt_t\000"
 2567      7400
 2568              	.LASF0:
 2569 0160 756E7369 		.ascii	"unsigned int\000"
 2569      676E6564 
 2569      20696E74 
 2569      00
 2570              	.LASF76:
 2571 016d 77747365 		.ascii	"wtsemp\000"
 2571      6D7000
 2572              	.LASF74:
 2573 0174 77747472 		.ascii	"wttrp\000"
 2573      7000
 2574              	.LASF87:
 2575 017a 74656172 		.ascii	"teardown\000"
 2575      646F776E 
 2575      00
 2576              	.LASF108:
 2577 0183 63684D73 		.ascii	"chMsgGet\000"
 2577      67476574 
 2577      00
 2578              	.LASF28:
 2579 018c 6E616D65 		.ascii	"name\000"
 2579      00
 2580              	.LASF24:
 2581 0191 71756575 		.ascii	"queue\000"
 2581      6500
 2582              	.LASF38:
 2583 0197 6D706F6F 		.ascii	"mpool\000"
 2583      6C00
 2584              	.LASF7:
 2585 019d 73686F72 		.ascii	"short unsigned int\000"
 2585      7420756E 
 2585      7369676E 
 2585      65642069 
 2585      6E7400
 2586              	.LASF41:
 2587 01b0 63685F74 		.ascii	"ch_thread\000"
 2587      68726561 
 2587      6400
ARM GAS  /tmp/ccnI9Qb6.s 			page 72


 2588              	.LASF19:
 2589 01ba 6D73675F 		.ascii	"msg_t\000"
 2589      7400
 2590              	.LASF35:
 2591 01c0 6570656E 		.ascii	"epending\000"
 2591      64696E67 
 2591      00
 2592              	.LASF61:
 2593 01c9 63685F73 		.ascii	"ch_system_t\000"
 2593      79737465 
 2593      6D5F7400 
 2594              	.LASF15:
 2595 01d5 746D6F64 		.ascii	"tmode_t\000"
 2595      655F7400 
 2596              	.LASF48:
 2597 01dd 63685F72 		.ascii	"ch_ready_list\000"
 2597      65616479 
 2597      5F6C6973 
 2597      7400
 2598              	.LASF20:
 2599 01eb 6576656E 		.ascii	"eventmask_t\000"
 2599      746D6173 
 2599      6B5F7400 
 2600              	.LASF107:
 2601 01f7 2F686F6D 		.ascii	"/home/julian/MEGA/semestre_ix/Crasby/ChibiOS_17.6.2"
 2601      652F6A75 
 2601      6C69616E 
 2601      2F4D4547 
 2601      412F7365 
 2602 022a 2F64656D 		.ascii	"/demos/STM32/STM32_MPU6050lib-master\000"
 2602      6F732F53 
 2602      544D3332 
 2602      2F53544D 
 2602      33325F4D 
 2603              	.LASF68:
 2604 024f 73746B61 		.ascii	"stkalign_t\000"
 2604      6C69676E 
 2604      5F7400
 2605              	.LASF89:
 2606 025a 74657374 		.ascii	"testcase_t\000"
 2606      63617365 
 2606      5F7400
 2607              	.LASF103:
 2608 0265 63685468 		.ascii	"chThdCreateStatic\000"
 2608      64437265 
 2608      61746553 
 2608      74617469 
 2608      6300
 2609              	.LASF37:
 2610 0277 7265616C 		.ascii	"realprio\000"
 2610      7072696F 
 2610      00
 2611              	.LASF66:
 2612 0280 73697A65 		.ascii	"sizetype\000"
 2612      74797065 
 2612      00
 2613              	.LASF39:
ARM GAS  /tmp/ccnI9Qb6.s 			page 73


 2614 0289 74687265 		.ascii	"thread_reference_t\000"
 2614      61645F72 
 2614      65666572 
 2614      656E6365 
 2614      5F7400
 2615              	.LASF56:
 2616 029c 63685F76 		.ascii	"ch_virtual_timers_list\000"
 2616      69727475 
 2616      616C5F74 
 2616      696D6572 
 2616      735F6C69 
 2617              	.LASF97:
 2618 02b3 74657374 		.ascii	"test_step\000"
 2618      5F737465 
 2618      7000
 2619              	.LASF110:
 2620 02bd 74657374 		.ascii	"test_wait_threads\000"
 2620      5F776169 
 2620      745F7468 
 2620      72656164 
 2620      7300
 2621              	.LASF69:
 2622 02cf 706F7274 		.ascii	"port_context\000"
 2622      5F636F6E 
 2622      74657874 
 2622      00
 2623              	.LASF91:
 2624 02dc 63685468 		.ascii	"chThdGetPriorityX\000"
 2624      64476574 
 2624      5072696F 
 2624      72697479 
 2624      5800
 2625              	.LASF86:
 2626 02ee 73657475 		.ascii	"setup\000"
 2626      7000
 2627              	.LASF102:
 2628 02f4 5F746573 		.ascii	"_test_assert_sequence\000"
 2628      745F6173 
 2628      73657274 
 2628      5F736571 
 2628      75656E63 
 2629              	.LASF25:
 2630 030a 7072696F 		.ascii	"prio\000"
 2630      00
 2631              	.LASF49:
 2632 030f 63757272 		.ascii	"current\000"
 2632      656E7400 
 2633              	.LASF17:
 2634 0317 74726566 		.ascii	"trefs_t\000"
 2634      735F7400 
 2635              	.LASF32:
 2636 031f 72656673 		.ascii	"refs\000"
 2636      00
 2637              	.LASF51:
 2638 0324 76697274 		.ascii	"virtual_timer_t\000"
 2638      75616C5F 
 2638      74696D65 
ARM GAS  /tmp/ccnI9Qb6.s 			page 74


 2638      725F7400 
 2639              	.LASF105:
 2640 0334 474E5520 		.ascii	"GNU C 4.8.1 -mcpu=cortex-m3 -mno-thumb-interwork -m"
 2640      4320342E 
 2640      382E3120 
 2640      2D6D6370 
 2640      753D636F 
 2641 0367 7468756D 		.ascii	"thumb -ggdb -O2 -fomit-frame-pointer -falign-functi"
 2641      62202D67 
 2641      67646220 
 2641      2D4F3220 
 2641      2D666F6D 
 2642 039a 6F6E733D 		.ascii	"ons=16 -ffunction-sections -fdata-sections -fno-com"
 2642      3136202D 
 2642      6666756E 
 2642      6374696F 
 2642      6E2D7365 
 2643 03cd 6D6F6E20 		.ascii	"mon -flto\000"
 2643      2D666C74 
 2643      6F00
 2644              	.LASF18:
 2645 03d7 74707269 		.ascii	"tprio_t\000"
 2645      6F5F7400 
 2646              	.LASF59:
 2647 03df 63685F73 		.ascii	"ch_system_debug\000"
 2647      79737465 
 2647      6D5F6465 
 2647      62756700 
 2648              	.LASF85:
 2649 03ef 5F426F6F 		.ascii	"_Bool\000"
 2649      6C00
 2650              	.LASF8:
 2651 03f5 696E7433 		.ascii	"int32_t\000"
 2651      325F7400 
 2652              	.LASF4:
 2653 03fd 756E7369 		.ascii	"unsigned char\000"
 2653      676E6564 
 2653      20636861 
 2653      7200
 2654              	.LASF88:
 2655 040b 65786563 		.ascii	"execute\000"
 2655      75746500 
 2656              	.LASF5:
 2657 0413 73686F72 		.ascii	"short int\000"
 2657      7420696E 
 2657      7400
 2658              	.LASF57:
 2659 041d 6C617374 		.ascii	"lasttime\000"
 2659      74696D65 
 2659      00
 2660              	.LASF99:
 2661 0426 74687265 		.ascii	"threads\000"
 2661      61647300 
 2662              	.LASF78:
 2663 042e 65776D61 		.ascii	"ewmask\000"
 2663      736B00
 2664              	.LASF62:
ARM GAS  /tmp/ccnI9Qb6.s 			page 75


 2665 0435 63685F73 		.ascii	"ch_system\000"
 2665      79737465 
 2665      6D00
 2666              	.LASF52:
 2667 043f 63685F76 		.ascii	"ch_virtual_timer\000"
 2667      69727475 
 2667      616C5F74 
 2667      696D6572 
 2667      00
 2668              	.LASF100:
 2669 0450 63684D73 		.ascii	"chMsgRelease\000"
 2669      6752656C 
 2669      65617365 
 2669      00
 2670              	.LASF79:
 2671 045d 63685F73 		.ascii	"ch_semaphore\000"
 2671      656D6170 
 2671      686F7265 
 2671      00
 2672              	.LASF10:
 2673 046a 75696E74 		.ascii	"uint32_t\000"
 2673      33325F74 
 2673      00
 2674              	.LASF77:
 2675 0473 77746D74 		.ascii	"wtmtxp\000"
 2675      787000
 2676              	.LASF42:
 2677 047a 63685F74 		.ascii	"ch_threads_list\000"
 2677      68726561 
 2677      64735F6C 
 2677      69737400 
 2678              	.LASF81:
 2679 048a 6F776E65 		.ascii	"owner\000"
 2679      7200
 2680              	.LASF11:
 2681 0490 6C6F6E67 		.ascii	"long unsigned int\000"
 2681      20756E73 
 2681      69676E65 
 2681      6420696E 
 2681      7400
 2682              	.LASF29:
 2683 04a2 77616261 		.ascii	"wabase\000"
 2683      736500
 2684              	.LASF82:
 2685 04a9 63686172 		.ascii	"char\000"
 2685      00
 2686              	.LASF27:
 2687 04ae 6F6C6465 		.ascii	"older\000"
 2687      7200
 2688              	.LASF23:
 2689 04b4 74687265 		.ascii	"thread_t\000"
 2689      61645F74 
 2689      00
 2690              	.LASF22:
 2691 04bd 73797374 		.ascii	"systime_t\000"
 2691      696D655F 
 2691      7400
ARM GAS  /tmp/ccnI9Qb6.s 			page 76


 2692              	.LASF50:
 2693 04c7 76746675 		.ascii	"vtfunc_t\000"
 2693      6E635F74 
 2693      00
 2694              	.LASF60:
 2695 04d0 70616E69 		.ascii	"panic_msg\000"
 2695      635F6D73 
 2695      6700
 2696              	.LASF26:
 2697 04da 6E657765 		.ascii	"newer\000"
 2697      7200
 2698              	.LASF109:
 2699 04e0 63684D73 		.ascii	"chMsgWait\000"
 2699      67576169 
 2699      7400
 2700              	.LASF106:
 2701 04ea 2E2E2F2E 		.ascii	"../../../test/rt/source/test/test_sequence_007.c\000"
 2701      2E2F2E2E 
 2701      2F746573 
 2701      742F7274 
 2701      2F736F75 
 2702              	.LASF44:
 2703 051b 74687265 		.ascii	"threads_queue_t\000"
 2703      6164735F 
 2703      71756575 
 2703      655F7400 
 2704              	.LASF80:
 2705 052b 63685F6D 		.ascii	"ch_mutex\000"
 2705      75746578 
 2705      00
 2706              	.LASF63:
 2707 0534 726C6973 		.ascii	"rlist\000"
 2707      7400
 2708              	.LASF90:
 2709 053a 63685468 		.ascii	"chThdGetSelfX\000"
 2709      64476574 
 2709      53656C66 
 2709      5800
 2710              	.LASF3:
 2711 0548 75696E74 		.ascii	"uint8_t\000"
 2711      385F7400 
 2712              	.LASF31:
 2713 0550 666C6167 		.ascii	"flags\000"
 2713      7300
 2714              	.LASF98:
 2715 0556 74657374 		.ascii	"test_sequence_007\000"
 2715      5F736571 
 2715      75656E63 
 2715      655F3030 
 2715      3700
 2716              	.LASF73:
 2717 0568 77746F62 		.ascii	"wtobjp\000"
 2717      6A7000
 2718              	.LASF92:
 2719 056f 5F5F6675 		.ascii	"__func__.5677\000"
 2719      6E635F5F 
 2719      2E353637 
ARM GAS  /tmp/ccnI9Qb6.s 			page 77


 2719      3700
 2720              	.LASF40:
 2721 057d 74687265 		.ascii	"threads_list_t\000"
 2721      6164735F 
 2721      6C697374 
 2721      5F7400
 2722              	.LASF93:
 2723 058c 74657374 		.ascii	"test_007_001_execute\000"
 2723      5F303037 
 2723      5F303031 
 2723      5F657865 
 2723      63757465 
 2724              	.LASF36:
 2725 05a1 6D74786C 		.ascii	"mtxlist\000"
 2725      69737400 
 2726              		.comm	__gnu_lto_v1,1,1
 2727              		.ident	"GCC: (Sourcery CodeBench Lite 2013.11-24) 4.8.1"
ARM GAS  /tmp/ccnI9Qb6.s 			page 78


DEFINED SYMBOLS
                            *ABS*:00000000 test_sequence_007.c
     /tmp/ccnI9Qb6.s:408    .text.test_007_001_execute:00000000 $t
     /tmp/ccnI9Qb6.s:413    .text.test_007_001_execute:00000000 test_007_001_execute
     /tmp/ccnI9Qb6.s:524    .text.msg_thread1:00000000 msg_thread1
     /tmp/ccnI9Qb6.s:583    .rodata.str1.4:00000000 .LC0
     /tmp/ccnI9Qb6.s:586    .rodata.str1.4:00000008 .LC1
     /tmp/ccnI9Qb6.s:519    .text.msg_thread1:00000000 $t
     /tmp/ccnI9Qb6.s:578    .rodata.test_sequence_007:00000000 test_sequence_007
     /tmp/ccnI9Qb6.s:566    .rodata.test_007_001:00000000 $d
     /tmp/ccnI9Qb6.s:569    .rodata.test_007_001:00000000 test_007_001
     /tmp/ccnI9Qb6.s:575    .rodata.test_sequence_007:00000000 $d
     /tmp/ccnI9Qb6.s:582    .rodata.str1.4:00000000 $d
                            *COM*:00000001 __gnu_lto_v1
                     .debug_frame:00000010 $d

UNDEFINED SYMBOLS
ch
wa
test_step
chThdCreateStatic
threads
chMsgWait
chMsgRelease
test_emit_token
test_wait_threads
_test_assert_sequence
chMsgSend
