ARM GAS  /tmp/ccmg7hDC.s 			page 1


   1              		.syntax unified
   2              		.cpu cortex-m3
   3              		.fpu softvfp
   4              		.eabi_attribute 20, 1
   5              		.eabi_attribute 21, 1
   6              		.eabi_attribute 23, 3
   7              		.eabi_attribute 24, 1
   8              		.eabi_attribute 25, 1
   9              		.eabi_attribute 26, 1
  10              		.eabi_attribute 30, 2
  11              		.eabi_attribute 34, 1
  12              		.eabi_attribute 18, 4
  13              		.thumb
  14              		.file	"chdynamic.c"
  15              		.text
  16              	.Ltext0:
  17              		.section	.gnu.lto_.jmpfuncs.b127f07dcf100da3,"",%progbits
  18 0000 789C6362 		.ascii	"x\234cb`b\300\006\"\2404\023\203=\023\003#c\007S\004"
  18      6062C006 
  18      22A03413 
  18      833D1303 
  18      23630753 
  19 0015 63262303 		.ascii	"c&#\003#\003\230f\004J\000133\220.cd\000R\214e\014\020"
  19      23039866 
  19      044A0031 
  19      3333902E 
  19      63640052 
  20 002d 29260E20 		.ascii	")&\016 G\036I\013\023\212\026F\250\026\006\000f\372"
  20      471E490B 
  20      138A1646 
  20      A8160600 
  20      66FA
  21 003f 0732     		.ascii	"\0072"
  22              		.text
  23              		.section	.gnu.lto_.inline.b127f07dcf100da3,"",%progbits
  24 0000 789C6362 		.ascii	"x\234cb`b\300\006\302\2414\023\203\204\224\021#\003"
  24      6062C006 
  24      C2A13413 
  24      83849411 
  24      2303
  25 0012 93C48A2D 		.ascii	"\223\304\212-\214\014l\013\344\301\252\231y\200\022"
  25      8C0C6C0B 
  25      E4C1AA99 
  25      798012
  26 0021 13FCC034 		.ascii	"\023\374\3004#\003+\037Pd\202\037\220\317\010Q+}\355"
  26      23032B1F 
  26      5064821F 
  26      90CF0851 
  26      2B7DED
  27 0034 142303FB 		.ascii	"\024#\003\373-5,j\301$\220\007\000\372L\012\354"
  27      2D352C6A 
  27      C1249007 
  27      00FA4C0A 
  27      EC
  28              		.text
  29              		.section	.gnu.lto_.pureconst.b127f07dcf100da3,"",%progbits
  30 0000 789C6362 		.ascii	"x\234cb`b`e\200\000&\006+F+\000\001\206\000\201"
ARM GAS  /tmp/ccmg7hDC.s 			page 2


  30      60626065 
  30      80002606 
  30      2B462B00 
  30      01860081 
  31              		.text
  32              		.section	.gnu.lto_chThdCreateFromHeap.b127f07dcf100da3,"",%progbits
  33 0000 789C8D54 		.ascii	"x\234\215T_H\034G\030\377\276\231]\357\232\323\250m"
  33      5F481C47 
  33      18FFBE99 
  33      5DEF9AD3 
  33      A86D
  34 0012 6CFE10F4 		.ascii	"l\376\020\364\020\204\2246nK\013ym\361I\202/1B\233\027"
  34      10849436 
  34      6E4B0B79 
  34      6DF14982 
  34      2F31429B 
  35 0027 59C74317 		.ascii	"Y\307C\027r\236\334^\022%\204LO+\226\226\"B\310\037"
  35      729EDC5E 
  35      1225844C 
  35      4F2B9696 
  35      2242C81F 
  36 003b 09890413 		.ascii	"\011\211\004\023\222\006,)m\365\241d\363\0071&\032\322"
  36      92062C29 
  36      6DF5A164 
  36      F3073126 
  36      1AD2
  37 004d A7F621F4 		.ascii	"\247\366!\364\300\207\246\025\032\202\205\206$\324~"
  37      C087A615 
  37      1A828586 
  37      24D47E
  38 005c B3B3BB9E 		.ascii	"\263\263\273\236\307Q\273z3;3\277\337|\277\375}\337"
  38      C751BB7A 
  38      333B33BF 
  38      DF7CBFFD 
  38      7DDF
  39 006e 0C0306A5 		.ascii	"\014\003\006\245\317\373\364\0331\001\026\251G\023\220"
  39      CFFBF41B 
  39      310116A9 
  39      471390
  40 007d 8D2D017C 		.ascii	"\215-\001|\032g\314X\340 \267\360\271\005\000Y\311\321"
  40      1A67CC58 
  40      E020B7F0 
  40      B9050059 
  40      C9D1
  41 008f D0F306A2 		.ascii	"\320\363\006\242z\001\204\223\214\033x\362\023T\233"
  41      7A018493 
  41      8C1B78F2 
  41      13549B
  42 009e F0469894 		.ascii	"\360F\230\224r\2740\265\362\004\317Jo\370\242|\265\266"
  42      72BC30B5 
  42      F204CF4A 
  42      6FF8A27C 
  42      B5B6
  43 00b0 86E82005 		.ascii	"\206\350 \005lD\020\010\037\323\000\223~\307\214\215"
  43      6C441008 
  43      1FD30093 
  43      7EC78C8D 
ARM GAS  /tmp/ccmg7hDC.s 			page 3


  44 00c0 0A34D77B 		.ascii	"\0124\327{<\367\345Ny1?&\377!\252\203\234A\323\377a"
  44      3CF7E54E 
  44      79313F26 
  44      FF21AA83 
  44      9C41D3FF 
  45 00d5 7A63DECB 		.ascii	"zc\336\313\271\323X\3044\030\274\265\316\364t\317vl"
  45      B9D358C4 
  45      3418BCB5 
  45      CEF474CF 
  45      766C
  46 00e7 A44E33AF 		.ascii	"\244N3\257\260\266\366\340\273\231\345\025\254\335\215"
  46      B0B6F6E0 
  46      BB99E515 
  46      ACDD8D
  47 00f6 40520D4C 		.ascii	"@R\015L#\230\324`\014l\274\204\215\020\247\001K\320"
  47      2398D460 
  47      0C6CBC84 
  47      8D10A701 
  47      4BD0
  48 0108 9A59456F 		.ascii	"\232YEo\274\232\032\243\226\032\263\216\000\223\004"
  48      BC9A1AA3 
  48      961AB38E 
  48      009304
  49 0117 A0C78461 		.ascii	"\240\307\204a)\307\222z\254i6N\371k\302\367\346 \265"
  49      29C7927A 
  49      AC69364E 
  49      F96BC2F7 
  49      E620B5
  50 012a CAB20E64 		.ascii	"\312\262\016d\252\347\017a\2440\263\2146^!\273{0v\034"
  50      AAE70F61 
  50      A430B38C 
  50      365E21BB 
  50      7B30761C 
  51 013e 5EC85159 		.ascii	"^\310QY\343`\205@\237@\223F\017\232Ju,N\301\343\000"
  51      E3608540 
  51      9F409346 
  51      0F9A4A75 
  51      2C4EC1E3 
  52 0153 F78069BC 		.ascii	"\367\200i\274\016@,\200y\270\373\333\255\325\021\036"
  52      0E402C80 
  52      79B8FBDB 
  52      ADD5111E 
  53 0163 6DA408BC 		.ascii	"m\244\010\274\370\033;hH\351\343\213\220\277?\363\364"
  53      F81B3B68 
  53      48E9E38B 
  53      90BF3FF3 
  53      F4
  54 0174 79B0C5DB 		.ascii	"y\260\305\333pMJ\025\3575\255\263K\007\245\035\342\252"
  54      704D4A15 
  54      EF35ADB3 
  54      4B07A51D 
  54      E2AA
  55 0186 0AF2AD25 		.ascii	"\012\362\255%03\204\205\342b\0126\364\305\320\245\257"
  55      30338485 
  55      E2620A36 
  55      F4C5D0A5 
  55      AF
ARM GAS  /tmp/ccmg7hDC.s 			page 4


  56 0197 CC307682 		.ascii	"\3140v\202fI\262\317\277W&T\264\007\013\366H\370\320"
  56      6649B2CF 
  56      BF572654 
  56      B4070BF6 
  56      48F8D0
  57 01aa FD25B02D 		.ascii	"\375%\260-!\214\007\260\252\262\260D\0103\002XuY\030"
  57      218C07B0 
  57      AAB2B044 
  57      08330258 
  57      755918
  58 01bd 0F616600 		.ascii	"\017af\000\253UF\346\343a\305\025f\257.\336\302\361"
  58      AB5546E6 
  58      E361C515 
  58      66AF2EDE 
  58      C2F1
  59 01cf 21392F87 		.ascii	"!9/\207=\252\234\006\007+\031\034\332\254\350\324\\"
  59      3DAA9C06 
  59      072B191C 
  59      DAACE8D4 
  59      5C
  60 01e0 65925E96 		.ascii	"e\222^\226 \377l~\350\362\256\240\002\302R\360V\177"
  60      20FF6C7E 
  60      E8F2AEA0 
  60      02C252F0 
  60      567F
  61 01f2 9AE07B6C 		.ascii	"\232\340{l\234\366k \230\373\372\324\363\304\356h\364"
  61      9CF66B20 
  61      98FBFAD4 
  61      F3C4EE68 
  61      F4
  62 0203 F99FE4A5 		.ascii	"\371\237\344\245V+\310\022A\337+\364\307 \375\335\240"
  62      562BC812 
  62      41DF2BF4 
  62      C720FDDD 
  62      A0
  63 0214 21F9C4F5 		.ascii	"!\371\304\365a\255\207;x^\236\371\320Qf\024E__\237\013"
  63      61AD873B 
  63      785E9EF9 
  63      D0516614 
  63      455F5F9F 
  64 0229 D6B76A7D 		.ascii	"\326\267j}\017a\270\360\370NT_uQ}U\213\300\0115C\317"
  64      0F61B8F0 
  64      F84E545F 
  64      75517D55 
  64      8BC00935 
  65 023f 09076BB4 		.ascii	"\011\007k\264E\032K\245\246\035\362*\302b\233\364\213"
  65      451A4BA5 
  65      A61DF22A 
  65      C2629BF4 
  65      8B
  66 0250 ADCEB777 		.ascii	"\255\316\267w\346\347\277\237`\261\3052\341\340\353"
  66      E6E7BF9F 
  66      60B1C532 
  66      E1E0EB
  67 025f 13708E14 		.ascii	"\023p\216\024\275A \245L+\350\302\212\310\251m\350K"
  67      BD4120A5 
  67      4C2BE8C2 
ARM GAS  /tmp/ccmg7hDC.s 			page 5


  67      8AC8A96D 
  67      E84B
  68 0271 FAACF0EB 		.ascii	"\372\254\360\353r,\010\003\221\242:\021 \003\372\233"
  68      722C0803 
  68      91A23A11 
  68      2003FA9B 
  69 0281 4AC3F6D2 		.ascii	"J\303\366\322,\375\276T\232%\033\277\361m\3334M\360"
  69      2CFDBE54 
  69      9A251BBF 
  69      F16DDB34 
  69      4DF0
  70 0293 5F69FAE3 		.ascii	"_i\372\343\274J\323\315\215i\272PU\037\235\351\365|"
  70      BC4AD3CD 
  70      8D69BA50 
  70      551F9DE9 
  70      F57C
  71 02a5 FD5594AF 		.ascii	"\375U\224\257\030\370G;^&e6~O/Q\3440E6\316b}\361\261"
  71      18F8473B 
  71      5E266536 
  71      7E4F2F51 
  71      E4304536 
  72 02be 34FC8B60 		.ascii	"4\374\213`\021n\257D\307Z\245\341\003\370V\216\252\013"
  72      116EAF44 
  72      C75AA5E1 
  72      03F8568E 
  72      AA0B
  73 02d0 8C408FE8 		.ascii	"\214@\217\350\256U\276\370\226\376\002\030\270\313\256"
  73      AE55BEF8 
  73      96FE0218 
  73      B8CBAE
  74 02df FFB08DCC 		.ascii	"\377\260\215\314\342\327\177\254T7\013\252\215T\214"
  74      E2D77FAC 
  74      54370BAA 
  74      8D548C
  75 02ee 86E6664B 		.ascii	"\206\346fK\377g\\+\233\263\334\254\260Do\367`\237\235"
  75      FF675C2B 
  75      9BB3DCAC 
  75      B0446FF7 
  75      609F9D
  76 0301 7644B300 		.ascii	"vD\263\000\226\353\347\307\334~\226\353\336[\214\024"
  76      96EBE7C7 
  76      DC7E96EB 
  76      DE5B8C14 
  77 0311 99743AD3 		.ascii	"\231t:\323g\365g\2629\327\372\350@[K\333\000\321D&\233"
  77      67F567B2 
  77      39D7FAE8 
  77      405B4BDB 
  77      00D14426 
  78 0326 EA3CBA2F 		.ascii	"\352<\272/\335\334\013\346Q\373\360\221\324{e8\251\201"
  78      DDDC0BE6 
  78      51FBF091 
  78      D47B6538 
  78      A981
  79 0338 9CD5D2D6 		.ascii	"\234\325\322\326\336\332n9}\342\360\221\356\224%\322"
  79      DEDA6E39 
  79      7DE2F091 
  79      EE9425D2 
ARM GAS  /tmp/ccmg7hDC.s 			page 6


  80 0348 AEE376F6 		.ascii	"\256\343v\366\010A\274R=\021\246\327\035ti\275\246\255"
  80      0841BC52 
  80      3D11A6D7 
  80      1D7469BD 
  80      A6AD
  81 035a FD40B2CB 		.ascii	"\375@\262\313vS\375Y\347\235d\323\273\300\262\020K\247"
  81      7653FD59 
  81      E79D64D3 
  81      BBC0B210 
  81      4BA7
  82 036c D299EC20 		.ascii	"\322\231\354 \374\013\033\373\201\356"
  82      FC0B1BFB 
  82      81EE
  83              		.text
  84              		.section	.gnu.lto_chThdCreateFromMemoryPool.b127f07dcf100da3,"",%progbits
  85 0000 789C8D54 		.ascii	"x\234\215T[hTG\030\376\377\231\263\2731\2334\211\032"
  85      5B685447 
  85      18FEFF99 
  85      B3BB319B 
  85      34891A
  86 0013 ABD2C625 		.ascii	"\253\322\306% \324\2529\212\202\257\026\237D\362b\024"
  86      20D4AA39 
  86      8A82AF16 
  86      9F44F262 
  86      14
  87 0024 DABEC8C9 		.ascii	"\332\276\310\311d1\007<\331\260g\275\004\021\307M\004"
  87      6431073C 
  87      D9B067BD 
  87      0411C74D 
  87      04
  88 0035 6F0F4110 		.ascii	"o\017A\020o\210\006Q\321J\245\351CS\332\207\343\225"
  88      6F880651 
  88      D14AA5E9 
  88      4353DA87 
  88      E395
  89 0047 24BA1185 		.ascii	"$\272\021\205\242\021\204}\0115-\024\252>x\303\370\317"
  89      A211847D 
  89      09352D14 
  89      AA3E78C3 
  89      F8CF
  90 0059 9C8B9B75 		.ascii	"\234\213\233uQO\2623gf\276o\376o\276\377?\303\200A\371"
  90      514FB233 
  90      6766BE6F 
  90      FE6FBEFF 
  90      3FC38041 
  91 006e B3827E4F 		.ascii	"\263\202~Oc\000\005\3521\006\310\372\307\000\366T1f"
  91      630005EA 
  91      3106C8FA 
  91      C700F654 
  91      3166
  92 0080 8C7290D5 		.ascii	"\214r\220\325\374\326(\200\254\341h\370\363\006\242"
  92      FCD62880 
  92      ACE168F8 
  92      F306A2
  93 008f 7A0184DD 		.ascii	"z\001\204\335\214\033\270\373\007T\233\360f\030\220"
  93      8C1BB8FB 
  93      07549BF0 
ARM GAS  /tmp/ccmg7hDC.s 			page 7


  93      661890
  94 009e F27071E2 		.ascii	"\362pq\342\322$\036\227^\337\031\371fj\012\321F\012"
  94      D2241E97 
  94      5EDF19F9 
  94      666A0AD1 
  94      460A
  95 00b0 D88C2010 		.ascii	"\330\214 \020\276\247\001\246t\307\214\351\012|\256"
  95      BEA701A6 
  95      74C78CE9 
  95      0A7CAE
  96 00bf 373E7A68 		.ascii	"7>zh\236<\223\357\227o\211j#g\260\360s\230^\277\367"
  96      9E3C93EF 
  96      976F896A 
  96      2367B0F0 
  96      73985EBF 
  97 00d4 7AF42896 		.ascii	"z\364(\2260\015\006\213\3363=\277gs\247S\2570\25785"
  97      300D068B 
  97      DE333DBF 
  97      6773A753 
  97      AF30AF38 
  98 00e9 75F9AF27 		.ascii	"u\371\257'\207\356\340\317\354k\004\322j\240\203\020"
  98      87EEE0CF 
  98      EC6B04D2 
  98      6AA08310 
  99 00f9 070BCF62 		.ascii	"\007\013\317b3$h\200\3254\035KR\023\257\245!\253\243"
  99      33246880 
  99      D5341D4B 
  99      5213AFA5 
  99      21ABA3
 100 010c 86375063 		.ascii	"\2067Pc4\022j\200P\364\304\240O\312\376\224?\366\271"
 100      34126A80 
 100      50F4C4A0 
 100      4FCAFE94 
 100      3FF6B9
 101 011f 0EC62C3C 		.ascii	"\016\306,<\247\227\205\366g\003\265\312\266\215\310"
 101      A79785F6 
 101      6703B5CA 
 101      B68DC8
 102 012e 54CFEF42 		.ascii	"T\317\357B_qh\002-\274@\226o\306\370Nx%\367\311z\033"
 102      5F716802 
 102      2DBC4096 
 102      6FC6F84E 
 102      7825F7C9 
 103 0144 13023581 		.ascii	"\023\0025\201&\015\033\253\000F\200\371(\177g\302\002"
 103      260D1BAB 
 103      004680F9 
 103      287F67C2 
 103      02
 104 0155 0CC38DBF 		.ascii	"\014\303\215\277\257>;\300#\272: /=\335F\032R\342x\001"
 104      AF3E3BC0 
 104      23BA3A20 
 104      2F3DDD46 
 104      1A52E278 
 105 016a F2B787AE 		.ascii	"\362\267\207\256\274\014\266X\014\227\244TQf\370\352"
 105      BC0CB658 
 105      0C97A454 
 105      5166F8EA 
ARM GAS  /tmp/ccmg7hDC.s 			page 8


 106 017a DAFD50B4 		.ascii	"\332\375P\264CB\345?\277\266\014\026\017a\241\244\270"
 106      4342E53F 
 106      BFB60C16 
 106      0F61A1A4 
 106      B8
 107 018b 863D3A36 		.ascii	"\206=:68n\204\261\253\027\303\2676V\237\204\023{\210"
 107      386E84B1 
 107      AB17C3B7 
 107      36569F84 
 107      137B88
 108 019e 749A8424 		.ascii	"t\232\204$I\272\022T\243I\355\030\226\\\001z\017\366"
 108      49BA1254 
 108      A349ED18 
 108      965C017A 
 108      0FF6
 109 01b0 CE097984 		.ascii	"\316\011y\204\212\023[o8RAb\024\233\007\261\223\032"
 109      8A135B6F 
 109      38524162 
 109      149B07B1 
 109      931A
 110 01c2 BAAE0C56 		.ascii	"\272\256\014V\033\302\214\000V[\021\366E\010\213\005"
 110      1BC28C00 
 110      565B11F6 
 110      45088B05 
 111 01d2 B0BA8A30 		.ascii	"\260\272\2120\036\302\342\001\254A% _\025\326h\361\367"
 111      1EC2E201 
 111      AC412520 
 111      5F15D668 
 111      F1F7
 112 01e4 8B85AB78 		.ascii	"\213\205\253x\270W\016\313>\217jm\201\215u\014~\374"
 112      B8570ECB 
 112      3E8F6A6D 
 112      818D750C 
 112      7EFC
 113 01f6 5499AAB9 		.ascii	"T\231\252\271\272\024\275\214A\376\377\341\336\363\363"
 113      BA14BD8C 
 113      41FEFFE1 
 113      DEF3F3
 114 0205 8392096B 		.ascii	"\203\222\011k\307{v\377$\377\306\302_t\305\004s?\035"
 114      C77B76FF 
 114      24FFC6C2 
 114      5F74C504 
 114      733F1D
 115 0218 7991FC2A 		.ascii	"y\221\374*\032\355\377\217l\364\325\012rT\220-\302?"
 115      1AEDFF8F 
 115      6CF4D50A 
 115      7254902D 
 115      C23F
 116 022a 33D2DF20 		.ascii	"3\322\337 \015i\235\373\237w\023\\\307S\362\330j\033"
 116      0D699DFB 
 116      9F77135C 
 116      C753F2D8 
 116      6A1B
 117 023c EBA7457F 		.ascii	"\353\247E\177\277~+Xo\360\365\251j||3\252\306\306\250"
 117      BF7E2B58 
 117      6FF0F5A9 
 117      6A7C7C33 
ARM GAS  /tmp/ccmg7hDC.s 			page 9


 117      AAC6C6A8 
 118 0250 1A678AC0 		.ascii	"\032g\212\30005C\317.\033g\371\026\371X\3720fk\207\274"
 118      303543CF 
 118      2E1B67F9 
 118      16F958FA 
 118      30666B87 
 119 0265 7858A403 		.ascii	"xX\244\003\272H\033\265\275C\017\177\233\304R\213e\322"
 119      BA481BB5 
 119      BD430F7F 
 119      9BC4528B 
 119      65D2
 120 0277 C6462A15 		.ascii	"\306F*\025R4\207@J\031\004U\222\210\234\372\222\351"
 120      52348740 
 120      4A190455 
 120      92889CFA 
 120      92E9
 121 0289 62C9DF7E 		.ascii	"b\311\337~Q\201\315+\263\253\302oF\035fo\361\311D\""
 121      5181CD2B 
 121      B3ABC26F 
 121      461D666F 
 121      F1C94422 
 122 029d 1008D159 		.ascii	"\020\010\321Y\346\212(\253\232:O\251\237_\236\337\311"
 122      E68A28AB 
 122      9A3A4FA9 
 122      9F5F9EDF 
 122      C9
 123 02ae B1F2FC5A 		.ascii	"\261\362\374Z8\250\015\377d\202\341c\011\376\347\224"
 123      38A80DFF 
 123      6482E163 
 123      09FEE794 
 124 02be 4AF0F5E9 		.ascii	"J\360\365\351\011>]\333\024]\037\321\364\310\363\222"
 124      093E5DDB 
 124      145D1FD1 
 124      F4C8F392 
 125 02ce 4C6B5704 		.ascii	"LkW\004\035\357\303d[8D/Q\3440\271\026\376\201M\245"
 125      1DEFC364 
 125      5B38442F 
 125      51E430B9 
 125      16FE814D 
 126 02e3 1781A12F 		.ascii	"\027\201\241/\234\002\\\3737\272HT\002W\302\257r\237"
 126      9C025CFB 
 126      37BA4854 
 126      0257C2AF 
 126      729F
 127 02f5 BA2C0974 		.ascii	"\272,\011t\217\356u\345\213\266s\0340p\226]~0\233\314"
 127      8FEE75E5 
 127      8BB6731C 
 127      3070965D 
 127      7E309BCC 
 128 0309 E27F3EAE 		.ascii	"\342\177>\256Q7\030\252\215T\214\005--\246\377\237q"
 128      513718AA 
 128      8D548C05 
 128      2D2DA6FF 
 128      9F71
 129 031b CD6CCE74 		.ascii	"\315l\316t\263\302\024\235\035=]\226c\213\026\001,\327"
 129      B3C2149D 
 129      1D3D5D96 
ARM GAS  /tmp/ccmg7hDC.s 			page 10


 129      638B1601 
 129      2CD7
 130 032d CDB7BBDD 		.ascii	"\315\267\273\335,\327\261\264\024)2\216\223\3512\273"
 130      2CD7B1B4 
 130      1429328E 
 130      93E932BB 
 131 033d 33D99C6B 		.ascii	"3\331\234k~\267\276uM\353\016\242\211L6\275i\333*\247"
 131      7EB7BE75 
 131      4DEB0EA2 
 131      894C36BD 
 131      69DB2AA7 
 132 0351 A51362DB 		.ascii	"\245\023b\333\254-[\323\313+p\322;r\346\232\326\266"
 132      AC2D5BD3 
 132      CB2B70D2 
 132      3B72E69A 
 132      D6B6
 133 0363 B56DA6DD 		.ascii	"\265m\246\335%\266l\355H\233\302qmw\323f!\210W\256'"
 133      25B66CED 
 133      489BC271 
 133      6D77D366 
 133      218857AE 
 134 0378 C274BA3D 		.ascii	"\302t\272=.\255\327\267\266\255O\265[n\272;k/I-\\\006"
 134      2EADD7B7 
 134      B6AD4FB5 
 134      5B6EBA3B 
 134      6B2F492D 
 135 038e 2C0B0927 		.ascii	",\013\011'\355d\262=\360\016\241+\232_"
 135      ED64B23D 
 135      F00EA12B 
 135      9A5F
 136              		.text
 137              		.section	.gnu.lto_.symbol_nodes.b127f07dcf100da3,"",%progbits
 138 0000 789C45CD 		.ascii	"x\234E\315\273\015\2000\014\004\320;;\254\301\252\216"
 138      BB0D8030 
 138      0C04D03B 
 138      3BACC1AA 
 138      8E
 139 0011 940244C5 		.ascii	"\224\002D\305\0044Y\203\237\030\200\031\220\230\003"
 139      04345983 
 139      9F188019 
 139      909803
 140 0020 44F888B8 		.ascii	"D\370\210\2709\275\273\302\002A\215\357\244\247\001"
 140      39BDBBC2 
 140      02418DEF 
 140      A4A701
 141 002f ED0A9875 		.ascii	"\355\012\230u5e\2401\2233M^zON4\315\032i.k\241\025\277"
 141      3565A031 
 141      93334D5E 
 141      7A4F4E34 
 141      CD1A692E 
 142 0047 140E613B 		.ascii	"\024\016a;S*Bu\224\232^\356w\262x\373\264\304\307\202"
 142      532A4275 
 142      949A5EEE 
 142      77B278FB 
 142      B4C4C782 
 143 005b D81C252E 		.ascii	"\330\034%.\024((\275"
 143      142828BD 
ARM GAS  /tmp/ccmg7hDC.s 			page 11


 144              		.text
 145              		.section	.gnu.lto_.refs.b127f07dcf100da3,"",%progbits
 146 0000 789C6362 		.ascii	"x\234cb`b`d\200\002\000\000F\000\006"
 146      60626064 
 146      80020000 
 146      460006
 147              		.text
 148              		.section	.gnu.lto_.decls.b127f07dcf100da3,"",%progbits
 149 0000 789CAD1B 		.ascii	"x\234\255\033}p\024\325\375\275\335\273$G\002R\235:"
 149      7D7014D5 
 149      FDBDDDBB 
 149      24470252 
 149      9D3A
 150 0012 A11F636C 		.ascii	"\241\037clm\247ej\002j+\355L\253\224Zp\246t\034\251"
 150      6DA7656A 
 150      026A2BED 
 150      4CAB945A 
 150      70A6741C 
 151 0027 63673AD3 		.ascii	"cg:\323\353rY\222+\271\217\336m\010\364\037\227\210"
 151      EB725992 
 151      2BB98FDE 
 151      6D08F41F 
 151      9788
 152 0039 7C892524 		.ascii	"|\211%$\002\306\002\006\201\012\242X@E\013\225\303J"
 152      02C60206 
 152      810AA258 
 152      40450B95 
 152      C34A
 153 004b 02C142C2 		.ascii	"\002\301B\302W\214)\020\320\240\005AR\012)5\230\376"
 153      578C2910 
 153      D0A00541 
 153      520A2935 
 153      98FE
 154 005d DE6F77EF 		.ascii	"\336ow\357v\337\355\356\355\205\356\344\275\375z\357"
 154      76DFEDEE 
 154      ED85EEE4 
 154      BDFD7AEF 
 155 006d F7FDF5DE 		.ascii	"\367\375\365\336^\004\"\220\022\201\220!8\026\336K\310"
 155      5E042290 
 155      12819021 
 155      3816DE4B 
 155      C8
 156 007e 73058488 		.ascii	"s\005\204\210\204\220\037\021\355L\241\301#\342'\332"
 156      84901F11 
 156      ED4CA1C1 
 156      23E227DA 
 157 008e C1AED742 		.ascii	"\301\256\327B[\001/vBKA;\012\355}J\262\0166\256\024"
 157      5B012F76 
 157      424B413B 
 157      0AED7D4A 
 157      B20E36AE 
 158 00a3 DA3A68A3 		.ascii	"\332:h\243\240\225@\273\017Z+\214=\017\347\223T\203"
 158      A09540BB 
 158      0F5A2B8C 
 158      3D0FE793 
 158      5483
 159 00b5 7B0CCE1F 		.ascii	"{\014\316\037\302\371\015h\363\030\\8\237\202\363ih"
ARM GAS  /tmp/ccmg7hDC.s 			page 12


 159      C2F90D68 
 159      F3185C38 
 159      9F82F369 
 159      68
 160 00c6 1FB077D0 		.ascii	"\037\260w\320\366@\033\204\347\353u\232\372\250F\313"
 160      F6401B84 
 160      E7EB759A 
 160      FAA846CB 
 161 00d6 2E3817C2 		.ascii	".8\027\302y?\234\333\241\275\013\355 \264C\320:\241"
 161      793F9CDB 
 161      A1BD0BED 
 161      20B443D0 
 161      3AA1
 162 00e8 7D06EF02 		.ascii	"}\006\357\002:-\214\316\263\320\316A\273\240\323\316"
 162      3A2D8CCE 
 162      B3D0CE41 
 162      BBA0D3CE 
 163 00f8 78B80AED 		.ascii	"x\270\012\355\232\016o\011\234\377\000m)\264\006h\313"
 163      9A0E6F09 
 163      9CFF006D 
 163      29B40668 
 163      CB
 164 0109 A03571BC 		.ascii	"\2405q\2741\336\277\354\300\027\343\207\3616\010\327"
 164      31DEBFEC 
 164      C017E387 
 164      F13608D7 
 165 0119 3D3A5FBF 		.ascii	"=:_\277\202\363\263\320\232\351\360y\014\230x\334\340"
 165      82F3B3D0 
 165      9AE9F079 
 165      0C9878DC 
 165      E0
 166 012a C0E7547D 		.ascii	"\300\347T}\334\012]\037\271x}\025\316\257C\333\301\350"
 166      DC0A5D1F 
 166      B9787D15 
 166      CEAF43DB 
 166      C1E8
 167 013c 82F626B4 		.ascii	"\202\366&\264\353\034\257\267\2215jKo\357\336s\357\321"
 167      EB1CAFB7 
 167      91356A4B 
 167      6FEFDE73 
 167      EFD1
 168 014e 6635354F 		.ascii	"f55O\035\032z\214\334J\226\253p\264\314WU\252\024\223"
 168      1D1A7A8C 
 168      DC4A96AB 
 168      70B4CC57 
 168      55AA1493 
 169 0162 C5AA5ACF 		.ascii	"\305\252Z\317n\246\354\033u3Y\306\336\224\355\003\261"
 169      6EA6EC1B 
 169      753359C6 
 169      DE94ED03 
 169      B1
 170 0173 FC924A74 		.ascii	"\374\222JtT\200\264\370\360\252$@~\002\340\276A\326"
 170      5480B4F8 
 170      F0AA2440 
 170      7E02E0BE 
 170      41D6
 171 0185 AB6A43EF 		.ascii	"\253jC\357\362\353GDU-\222\350zz3\030\340dJ\306\222"
ARM GAS  /tmp/ccmg7hDC.s 			page 13


 171      F2EB4744 
 171      552D92E8 
 171      7A7A3318 
 171      E0644AC6 
 172 019a 4D30B101 		.ascii	"M0\261\001@\215\265\261$\222\023\260@\036\245D\242\033"
 172      408DB5B1 
 172      249213B0 
 172      401EA544 
 172      A21B
 173 01ac 019E445F 		.ascii	"\001\236D_\240c5Ljo\323\202\023\365t.\020\252\275#\372"
 173      A063354C 
 173      6A6FD382 
 173      13F5742E 
 173      10AABD23 
 174 01c1 5B9BE376 		.ascii	"[\233\343v\322\002\023R\003\355\253\250\332\3626\265"
 174      D2021352 
 174      03EDABA8 
 174      DAF236B5 
 175 01d1 C178BF81 		.ascii	"\301x\277\201\260\310\304\311\332\247\036DN^BN\352)"
 175      B0C8C4C9 
 175      DAA71E44 
 175      4E5E424E 
 175      EA29
 176 01e3 B560D0A1 		.ascii	"\265`\320\241\264\334\357\004F \2158\345\225,\302\333"
 176      B4DCEF04 
 176      46208D38 
 176      E5952CC2 
 176      DB
 177 01f4 0E1984BF 		.ascii	"\016\031\204\277\342\201\360\372T\347\342\325c\030\341"
 177      E281F0FA 
 177      54E7E2D5 
 177      6318E1
 178 0203 125D478B 		.ascii	"\022]G\213\001\356\2724\\\035o\231\201\327G\210q\251"
 178      01EEBA34 
 178      5C1D6F99 
 178      81D74788 
 178      71A9
 179 0215 1DFA002B 		.ascii	"\035\372\000+\274\303\355%\015\222\001lc\336\300\312"
 179      BCC3ED25 
 179      0D92016C 
 179      63DEC0CA 
 180 0225 EC48D50E 		.ascii	"\354H\325\0163\267\022\335J\277\001\3756z;\364\257B"
 180      33B712DD 
 180      4ABF01FD 
 180      367A3BF4 
 180      AF42
 181 0237 9F3E04F2 		.ascii	"\237>\004\36225tj'\272\334,\\k_\205\"\011\220\205\031"
 181      3235746A 
 181      27BADC2C 
 181      5C6B5F85 
 181      22099085 
 182 024c 1B25B62C 		.ascii	"\033%\266,\350\352\354z\362\235N\3728J\375\015\230&"
 182      E8EAEC7A 
 182      F29D4EFA 
 182      384AFD0D 
 182      9826
 183 025e 904F3885 		.ascii	"\220O8\205z\007\325\275\364h?\255GP;\021\324>\301\012"
ARM GAS  /tmp/ccmg7hDC.s 			page 14


 183      7A07D5BD 
 183      F4683FAD 
 183      47503B11 
 183      D43EC10A 
 184 0272 4AA28501 		.ascii	"J\242\205\001b:\360\336\030\300\340\341k\375\202\305"
 184      623AF0DE 
 184      18C0E0E1 
 184      6BFD82C5 
 185 0282 E79B48BE 		.ascii	"\347\233H\276\303\005\322)p\"\264S\\\221\223\010\231"
 185      C305D229 
 185      7022B453 
 185      5C919308 
 185      99
 186 0293 199E6CA4 		.ascii	"\031\236l\244M\217\253\373\306\031\246\\\340\304\267"
 186      4D8FABFB 
 186      C619A65C 
 186      E0C4B7
 187 02a2 408E23B2 		.ascii	"@\216#\262\024o\312+\273\3365L9\345\311\224_k_\211z"
 187      146FCA2B 
 187      BBDE354C 
 187      39E5C994 
 187      5F6B5F89 
 188 02b7 CB195B04 		.ascii	"\313\031[\004\003\377\035\210\377)\221\341\337\313\343"
 188      03FF1D88 
 188      FF2991E1 
 188      DFCBE3
 189 02c6 BFFCFE3F 		.ascii	"\277\374\376?\236\320\361\357\365\204\377\315\256\247"
 189      9ED0F1EF 
 189      F584FFCD 
 189      AEA7
 190 02d4 B3F14BF4 		.ascii	"\263\361K\364G_t\323\367\312\256\263\375:\226\375\350"
 190      475F74D3 
 190      F7CAAEB3 
 190      FD3A96FD 
 190      E8
 191 02e5 336D22AF 		.ascii	"3m\"\257\357\373\212\255\012\204{\323\000\201t\244\351"
 191      EFFB8AAD 
 191      0A847BD3 
 191      008174A4 
 191      E9
 192 02f6 1F96CB02 		.ascii	"\037\226\313\002\243\027\227\323F\246,\203\206#yC,\263"
 192      A31797D3 
 192      46A62C83 
 192      86237943 
 192      2CB3
 193 0308 48625717 		.ascii	"HbW\027\006\001\015\330q/\300\034m\251>\365\226\031"
 193      06010DD8 
 193      712FC01C 
 193      6DA93EF5 
 193      9619
 194 031a 5877DEC0 		.ascii	"Xw\336\300\254\224u\230\201\375\303\013\260\321\316"
 194      AC947598 
 194      81FDC30B 
 194      B0D1CE
 195 0329 941D3603 		.ascii	"\224\0356\003;\22570+eG\315\300\316x\001V\352L\331q"
 195      3B953730 
 195      2B6547CD 
ARM GAS  /tmp/ccmg7hDC.s 			page 15


 195      C0CE7801 
 195      56EA4CD9 
 196 033e 33B0B379 		.ascii	"3\260\263y\003\263R\366\236\031\3309/\300\312l(K\037"
 196      03B352F6 
 196      9E19D839 
 196      2FC0CA6C 
 196      284B1F
 197 0351 76F39859 		.ascii	"v\363\230Y\277C\323v.\220\013\242\021\023\362\264i\222"
 197      BF43D376 
 197      2E900BA2 
 197      1113F2B4 
 197      6992
 198 0363 817149CC 		.ascii	"\201qI\3147\210Y\370\206 v\352y-\210\031\371\354\337"
 198      378859F8 
 198      862076EA 
 198      792D8819 
 198      F9ECDF
 199 0376 5E20BA18 		.ascii	"^ \272\030L\303\001Sr\374o\336\300\254jY\303\200Yb\215"
 199      4CC30153 
 199      72FC6FDE 
 199      C0AC6A59 
 199      C3805962 
 200 038b 9E657A37 		.ascii	"\236ez7\244J\237\311\204\273\"\003\026\253\220\264\330"
 200      A44A9FC9 
 200      84BB2203 
 200      16AB90B4 
 200      D8
 201 039c 06059390 		.ascii	"\006\005\223\220\036\254\226\226\332\217\225\350YL\262"
 201      1EAC9696 
 201      DA8F95E8 
 201      594CB2
 202 03ab 1FD1409A 		.ascii	"\037\321@\232\012\355\332\270\032\242L\316\252\317\256"
 202      0AEDDAB8 
 202      1AA24CCE 
 202      AACFAE
 203 03ba F64200EE 		.ascii	"\366B\000\356S\235,\341C\263%<\341\363 &\027W\350p\022"
 203      539D2CE1 
 203      43B3253C 
 203      E1F32026 
 203      1757E870 
 204 03cf 536ABEBA 		.ascii	"Sj\276\272\220\316\335\372\025\327Bme\327\305\265z:"
 204      90CEDDFA 
 204      15D7426D 
 204      65D7C5B5 
 204      7A3A
 205 03e1 FE04D3F1 		.ascii	"\376\004\323\361b\237mf\367\004\254{\351\340\036\275"
 205      629F6D66 
 205      F704AC7B 
 205      E9E01EBD 
 206 03f1 4CF81481 		.ascii	"L\370\024\201-\367\361\261>\300\345\366\2005Y\007\002"
 206      2DF7F1B1 
 206      3EC0E5F6 
 206      80355907 
 206      02
 207 0402 998B21E3 		.ascii	"\231\213!\343\260J\337\363\034'\351\2377K\177M\336\322"
 207      B04ADFF3 
 207      1C27E99F 
ARM GAS  /tmp/ccmg7hDC.s 			page 16


 207      374B7F4D 
 207      DED2
 208 0414 E77DE86A 		.ascii	"\347}\350j#\275\\\257>3\316do\256\306\011\325\324\201"
 208      23BD5CAF 
 208      3E33CE64 
 208      6FAEC609 
 208      D5D481
 209 0427 B77E88C5 		.ascii	"\267~\210\305\361\277QH\033\354%\356\001P\367\322\227"
 209      F1BF5148 
 209      1BEC25EE 
 209      0150F7D2 
 209      97
 210 0438 2B10D000 		.ascii	"+\020\320\000\002\332\222%m\312I\233Z%\2276X\335^\363"
 210      02DA9225 
 210      6DCA499B 
 210      5A259736 
 210      58DD5EF3 
 211 044c 192B90D7 		.ascii	"\031+\220\327y\321YHt\211\224i\321\015\346/\272'u\321"
 211      79D15948 
 211      74899469 
 211      D10DE62F 
 211      BA2775D1 
 212 0460 0D22C7BB 		.ascii	"\015\"\307\273\2628\036\310\223e\201\274\2237\033EV"
 212      B2381EC8 
 212      936581BC 
 212      93371B45 
 212      56
 213 0471 36160C0D 		.ascii	"6\026\014\015\203\215\335\032\033s\005\306F\373\377"
 213      838DDD1A 
 213      1B7305C6 
 213      46FBFF
 214 0480 818DC379 		.ascii	"\201\215\303y\2631\332\304\006.\254\236\326\222\301"
 214      B331DAC4 
 214      062EAC9E 
 214      D692C1
 215 048f 2DA4D1BD 		.ascii	"-\244\321\275\242e\364\314\027n\261T\223\251c\007i\231"
 215      A265F4CC 
 215      176EB154 
 215      93A96307 
 215      6999
 216 04a1 F638F762 		.ascii	"\3668\367b\362\362A\323\002D\365\264\0009\220^\200,"
 216      F2F241D3 
 216      0244F5B4 
 216      0039905E 
 216      802C
 217 04b3 429175D9 		.ascii	"B\221u\3319\215'P\335\207\016u\352\021o\011\202:\221"
 217      398D2750 
 217      DD870E75 
 217      EA116F09 
 217      823A91
 218 04c6 25FD024E 		.ascii	"%\375\002N\370\005V\341\303-\303\365\037\2143\217\351"
 218      F80556E1 
 218      C32DC3F5 
 218      1F8C338F 
 218      E9
 219 04d7 4FD84D21 		.ascii	"O\330M!\031\366<\201\364!\031L\200\303\251r\331\222"
 219      19F63C81 
ARM GAS  /tmp/ccmg7hDC.s 			page 17


 219      F421194C 
 219      80C3A972 
 219      D992
 220 04e9 FEC32623 		.ascii	"\376\303&#\233k2\372\344\206 \326\247\236[j,\235\357"
 220      9B6B32FA 
 220      E48620D6 
 220      A79E5B6A 
 220      2C9DEF
 221 04fc 63F9FCCA 		.ascii	"c\371\374\312\015\202\333u\210OT\334Bb\275C\0246\366"
 221      0D82DB75 
 221      884F54DC 
 221      4262BD43 
 221      1436F6
 222 050f 14B62EF9 		.ascii	"\024\266.\371\016:\315\012\201\2213\230\245\266u\224"
 222      0E3ACD0A 
 222      81913398 
 222      A5B67594 
 223 051f 5B48B007 		.ascii	"[H\260\007\246!N\266\274\\0%\204\245\376\033TC\333\025"
 223      A6214EB6 
 223      BC5C3025 
 223      84A5FE1B 
 223      5443DB15 
 224 0533 4E0DCB6F 		.ascii	"N\015\313o\010\",\327u5\344Z\366\375\306\200U\202\214"
 224      08222CD7 
 224      7535E45A 
 224      F6FDC680 
 224      55828C
 225 0546 AC46B46B 		.ascii	"\254F\264k\004n\325\367\332\371\336\371\272\371\263"
 225      046ED5F7 
 225      DAF9DEF9 
 225      BAF9B3
 226 0555 77B99DB5 		.ascii	"w\271\235\265\247/\2406\226h;9\022}\235\012:T\273: "
 226      A72FA036 
 226      96683B39 
 226      127D9D0A 
 226      3A54BB3A 
 227 056a A7785227 		.ascii	"\247xR'\345}\343\362q\373V\303\355\327i\221\322\317"
 227      E57DE3F2 
 227      71FB56C3 
 227      EDD76991 
 227      D2CF
 228 057c 2B9DF9B0 		.ascii	"+\235\371\260E\351y9]GZH^Kh\376p2\252\325f\243:zc&\000"
 228      45E97939 
 228      5D475A48 
 228      5E4B68FE 
 228      7032AAD5 
 229 0597 46D5BA5E 		.ascii	"F\325\272^3\252\\F\240Rse-\220\036\304\374\"o\005\315"
 229      33AA5C46 
 229      A0527365 
 229      2D901EC4 
 229      FC226F05 
 230 05ac 9FEE5BA0 		.ascii	"\237\356[\240\257\312_\364d\005Wl\254\340\305aZ\001"
 230      AFCA5FF4 
 230      6405576C 
 230      ACE0C561 
 230      5A01
 231 05be 98F43FF7 		.ascii	"\230\364?\367S\004\247\255\024\346\025P+\270<W\320\203"
ARM GAS  /tmp/ccmg7hDC.s 			page 18


 231      5304A7AD 
 231      14E61550 
 231      2BB83C57 
 231      D083
 232 05d0 72BE82D1 		.ascii	"r\276\202\321\354+\325\335\307\222\3266\201\355Q..\340"
 232      EC2BD5DD 
 232      C792D636 
 232      81ED512E 
 232      2EE0
 233 05e2 4D4B938C 		.ascii	"MK\223\214\311\2642b\004A\010l\351\360\262\300\366\347"
 233      C9B43262 
 233      0441086C 
 233      E9F0B2C0 
 233      F6E7
 234 05f4 B660FF67 		.ascii	"\266`\377g\301\264K\347d\026[3f!\321\355\274\030\275"
 234      C1B44BE7 
 234      64165B33 
 234      6621D1ED 
 234      BC18BD
 235 0607 2EE072A2 		.ascii	".\340r\242\331d\266\276\306\202\033\263\276\306\266"
 235      D964B6BE 
 235      C6821BB3 
 235      BEC6B6
 236 0616 833EB6CB 		.ascii	"\203>\266\313-\346\261ax`\257\341\270;\320q\233\263"
 236      2DE6B161 
 236      7860AFE1 
 236      B83BD071 
 236      9BB3
 237 0628 A4BB932F 		.ascii	"\244\273\223/q\274\354\333m\030.+\351C /\025x(\371\313"
 237      71BCECDB 
 237      6D182E2B 
 237      E943202F 
 237      157828F9 
 238 063d 6CA49E4E 		.ascii	"l\244\236N\264\307\237\366\270\367gd\256\276%S0s\375"
 238      B4C79FF6 
 238      B8F76764 
 238      AEBE2553 
 238      3073FD
 239 0650 152D6D0B 		.ascii	"\025-m\013'\013\017[\210\177\305))\336\215\233\026d"
 239      270B0F5B 
 239      887FC529 
 239      29DE8D9B 
 239      1664
 240 0662 B6103DB8 		.ascii	"\266\020=\270q}j\273e7\334\260\300\224\273\005\272\312"
 240      717D6ABB 
 240      6537DCB0 
 240      C094BB05 
 240      BACA
 241 0674 D3A2C294 		.ascii	"\323\242\302\224\311A\336F\007\371\233\331)\004\362"
 241      C941DE46 
 241      07F99BD9 
 241      2904F2
 242 0683 772FB2FF 		.ascii	"w/\262\377\226\223)B\030:\254}\2060>,\034\343\341\331"
 242      96932942 
 242      183AAC7D 
 242      86303E2C 
 242      1CE3E1D9 
ARM GAS  /tmp/ccmg7hDC.s 			page 19


 243 0697 05220B3C 		.ascii	"\005\"\013<\263.\353S\015Gp\303B\263\321\223^\210\033"
 243      B32EEB53 
 243      0D4770C3 
 243      42B3D193 
 243      5E881B
 244 06aa E70CECB9 		.ascii	"\347\014\354\271&C\270\233\260B\371\310\013\274\011"
 244      2643B89B 
 244      B042F9C8 
 244      0BBC09
 245 06b9 4ECCD6A7 		.ascii	"N\314\326\247v\034Y\245\303\3236\335?\315\033\236\225"
 245      761C59A5 
 245      C3D336DD 
 245      3FCD1B9E 
 245      95
 246 06ca BE634D96 		.ascii	"\276cM\226z\356?^\300\335\357Y\367\231oL\020\322p_e"
 246      7AEE3F5E 
 246      C0DDEF59 
 246      F7996F4C 
 246      10D2705F 
 247 06df 337EBCD8 		.ascii	"3~\274\330\201\375n\354Oa\177\032\373\017\260?\207\375"
 247      81FD6EEC 
 247      4F617F1A 
 247      FB0FB03F 
 247      87FD
 248 06f1 65EC3FC3 		.ascii	"e\354?\303^\305`\372\004\366\273\260\337\213}\033\366"
 248      5EC560FA 
 248      04F6BBB0 
 248      DF8B7D1B 
 248      F6
 249 0702 FBB13F80 		.ascii	"\373\261?\200\375\337\275\004\\\2175\340\363\364V\274"
 249      FDDFBD04 
 249      5C8F35E0 
 249      F3F456BC 
 250 0712 12413070 		.ascii	"\022A0p\330f\223\205\037dv\025\324\364\036;\223\261"
 250      D8669385 
 250      1F647615 
 250      D4F41E3B 
 250      93B1
 251 0724 EEE7D707 		.ascii	"\356\347\327\007Rcv\251\352h\211v\242\243o*\264ut\027"
 251      526376A9 
 251      EA688976 
 251      A2A36F2A 
 251      B4757417 
 252 0738 4002D981 		.ascii	"@\002\331\201s\216r\236\236jZP\242\372\264\347\271\275"
 252      738E729E 
 252      9E6A5A50 
 252      A2FAB4E7 
 252      B9BD
 253 074a 7C79DBAA 		.ascii	"|y\333\252\354\212\321\362y\022M\300I\026\335\202E\026"
 253      EC8AD1F2 
 253      79124DC0 
 253      4916DD82 
 253      4516
 254 075c DEA3FECA 		.ascii	"\336\243\376\312\317{\177\360\012\362\337\203\016\265"
 254      CF7B7FF0 
 254      0AF2DF83 
 254      0EB5
ARM GAS  /tmp/ccmg7hDC.s 			page 20


 255 076a A1880FFA 		.ascii	"\241\210\017\372~.\346\373\2551\337\037\310\\\3501_"
 255      7E2EE6FB 
 255      AD31DF1F 
 255      C85CE831 
 255      5F
 256 077b 27C2989A 		.ascii	"'\302\230\232\276\355\321\352>\211>\"\272\332\200N\332"
 256      BEEDD1EA 
 256      3E893E22 
 256      BADA804E 
 256      DA
 257 078c 9BEB4E8F 		.ascii	"\233\353N\217\331\204\244\275\207\276\371>G\032\267"
 257      D984A4BD 
 257      87BEF93E 
 257      471AB7
 258 079b 14612270 		.ascii	"\024a\"p\022\317\031\241\330A\003Y\357\004\362q\221"
 258      12CF19A1 
 258      D8410359 
 258      EF04F271 
 258      91
 259 07ac A1CEE12D 		.ascii	"\241\316\341-'\256\017\364~\345\315WUu\353o\364ey\252"
 259      27AE0FF4 
 259      7EE5CD57 
 259      5575EB6F 
 259      F46579AA 
 260 07c0 C06C3D96 		.ascii	"\300l=\226p\247\0275;[\277\312L\245\017\222"
 260      70A71735 
 260      3B5BBFCA 
 260      4CA50F92 
 261 07d0 A440FA39 		.ascii	"\244@\3729>sC\021\310\020\316\3718k\205\337*\226i\217"
 261      3E734311 
 261      C810CEF9 
 261      386B85DF 
 261      2A96698F 
 262 07e4 735B60D7 		.ascii	"s[`\327\374\245_R[\226\224\032\273\212O\006\014\220"
 262      FCA55F52 
 262      5B96941A 
 262      BB8A4F06 
 262      0C90
 263 07f6 C35B369C 		.ascii	"\303[6\234j\035\001\365b\316\317\306\214\260\213\274"
 263      6A1D01F5 
 263      62CECFC6 
 263      8CB08BBC 
 264 0806 EB74B7B2 		.ascii	"\353t\267\262\"\357\242'\317\351\231o\263\326\322d\351"
 264      22EFA227 
 264      CFE9996F 
 264      B3D6D264 
 264      E9
 265 0817 640EFDD9 		.ascii	"d\016\375\331\025\335\305a\252\273>u\242\325\010\371"
 265      15DDC561 
 265      AABB3E75 
 265      A2D508F9 
 266 0827 9A072D43 		.ascii	"\232\007-C\271\345\003\257\214cL +oP\366\003\336e\177"
 266      B9E503AF 
 266      8C634C20 
 266      2B6F50F6 
 266      03DE657F 
 267 083b 95977D3F 		.ascii	"\225\227}?\312\376\252'\331_\236o\244\247\016t\321U"
ARM GAS  /tmp/ccmg7hDC.s 			page 21


 267      CAFEAA27 
 267      D95F9E6F 
 267      A4A70E74 
 267      D155
 268 084d 48F7D561 		.ascii	"H\367\325a\313\362\012'\313\265y\303\313\226\345\237"
 268      CBF20A27 
 268      CBB579C3 
 268      CB96E59F 
 269 085d 862B4BBB 		.ascii	"\206+K\273\303\354c\220\011\261^:\217\231\355\002\366"
 269      C3EC6390 
 269      09B15E3A 
 269      8F99ED02 
 269      F6
 270 086e 57ACB5D3 		.ascii	"W\254\265\323\346\000\027J\354p;\177\263N\255\232\314"
 270      E600174A 
 270      EC703B7F 
 270      B34EAD9A 
 270      CC
 271 087f 4A1D6DB1 		.ascii	"J\035m\261\263\215\207e]\036\231.\2751r\324T\370\035"
 271      B38D8765 
 271      5D1E992E 
 271      BD3172D4 
 271      54F81D
 272 0892 4746BA90 		.ascii	"GF\272\220\205\017\261\377\334K\242\356\310\370\021"
 272      850FB1FF 
 272      DC4BA2EE 
 272      C8F811
 273 08a1 1FE4D3F7 		.ascii	"\037\344\323\367\372\207\223\364\375\033\324\374\336"
 273      FA8793F4 
 273      FD1BD4FC 
 273      DE
 274 08ae 2DDD397C 		.ascii	"-\3359|\244f@\236\020o\265b\305\357\317\336\322\312"
 274      A466409E 
 274      106FB562 
 274      C5EFCFDE 
 274      D2CA
 275 08c0 89CD7B4A 		.ascii	"\211\315{J7bZ\231'bZ\011\270\246\025\206\312\211\214"
 275      37625A99 
 275      27625A09 
 275      B8A61586 
 275      CA898C
 276 08d3 45A2735A 		.ascii	"E\242sZ\311~g&\226piP g82\356 \353T\265\261w\357\271"
 276      C97E6726 
 276      96706950 
 276      20673832 
 276      EE20EB54 
 277 08ec 4B7E58C8 		.ascii	"K~X\310\371\014\017\273\212\303\326\322\333l\211\322"
 277      F90C0FBB 
 277      8AC3D6D2 
 277      DB6C89D2 
 278 08fc 55A2CD55 		.ascii	"U\242\315U\257\311S4}@\235&\010\256\323Pk\332\264TW"
 278      AFC95334 
 278      7D409D26 
 278      08AED350 
 278      6BDAB454 
 279 0911 EBCBE084 		.ascii	"\353\313\340\204\202\246:\211\376\223\272OE\005\353"
 279      82A63A89 
ARM GAS  /tmp/ccmg7hDC.s 			page 22


 279      FE93BA4F 
 279      4505EB
 280 0920 182F338C 		.ascii	"\030/3\214o\340\306\367[9\246\241\035\350\030\273[_"
 280      6FE0C6F7 
 280      5B39A6A1 
 280      1DE818BB 
 280      5B5F
 281 0932 D0306A1A 		.ascii	"\3200j\032\031\314\301#\033e`<\3020bm<\224c\226&\365"
 281      19CCC123 
 281      1B65603C 
 281      C230626D 
 281      3C946396 
 282 0948 6F920D58 		.ascii	"o\222\015XW\267>5f1\303\250m@:\317\323\265\371\244("
 282      57B73E35 
 282      6631C3A8 
 282      6D403ACF 
 282      D3B5F9A4 
 283 095d 98D5ABFD 		.ascii	"\230\325\253\375\226\014\177X4\267wh\3506\316r\031P"
 283      960C7F58 
 283      34B77768 
 283      E836CE72 
 283      1950
 284 096f 279B5929 		.ascii	"'\233Y)\346\256Z\235v\010\215\232m[\177\251\266P\177"
 284      E6AE5A9D 
 284      76088D9A 
 284      6D5B7FA9 
 284      B6507F
 285 0982 56C4C830 		.ascii	"V\304\3100\302\276fu\002\203{]\"\027\366\227\265b\265"
 285      C2BE6675 
 285      02837B5D 
 285      2217F697 
 285      B562B5
 286 0995 CA9EE78E 		.ascii	"\312\236\347\216\373Mv9\327\303\2328\205\224\256\345"
 286      FB4D7639 
 286      D7C39A38 
 286      8594AEE5 
 287 09a5 71F74B65 		.ascii	"q\367Ke\332S\017\031\307\330\206j\0213\213a6u\270\213"
 287      DA530F19 
 287      C7D8866A 
 287      11338B61 
 287      3675B88B 
 288 09b9 61273D31 		.ascii	"a'=1\370i\365khV\347\217\306\250\356\271\274\366.\312"
 288      F869F56B 
 288      6856E78F 
 288      C6A8EEB9 
 288      BCF62ECA 
 289 09cd 211F7865 		.ascii	"!\037xe\026x\317\264\362\373\362\336\227\012\233\370"
 289      1678CFB4 
 289      F2FBF2DE 
 289      970A9BF8 
 290 09dd D8C948E2 		.ascii	"\330\311H\342Jv\357%\372\265R\255D\337\210\236\373\336"
 290      4A76EF25 
 290      FAB552AD 
 290      44DF889E 
 290      FBDE
 291 09ef 08D758BA 		.ascii	"\010\327X\272\311%\226nq\211\245\334;X\210\012\036\364"
 291      C925966E 
ARM GAS  /tmp/ccmg7hDC.s 			page 23


 291      7189A5DC 
 291      3B58880A 
 291      1EF4
 292 0a01 E1BA076C 		.ascii	"\341\272\007l\201\237q\006\211\256\021Y*|NdIp\003\366"
 292      819F7106 
 292      89AE1159 
 292      2A7C4E64 
 292      497003F6 
 293 0a15 2F881E52 		.ascii	"/\210\036Ra\263\230\235\012\335S\237\036\307r\345\205"
 293      61B3989D 
 293      0ADD539F 
 293      1EC772E5 
 293      85
 294 0a26 BE11B679 		.ascii	"\276\021\266ya\303\213\247\013\264\274\320\214\222\037"
 294      61C38BA7 
 294      0BB4BCD0 
 294      8C921F
 295 0a35 C2612B44 		.ascii	"\302a+D\247\350\327l\212\231\315`=\324\032\336\235'"
 295      A7E8D76C 
 295      8A99CD60 
 295      3DD41ADE 
 295      9D27
 296 0a47 9AC27BEA 		.ascii	"\232\302{\352X\373\026-N\233C\274\363TS\210W\007X\234"
 296      58FB162D 
 296      4E9B43BC 
 296      F3545388 
 296      5707589C 
 297 0a5b 9E877A6C 		.ascii	"\236\207zl\024\335\247\231\303\373\0375R1\275?\235c"
 297      14DDA799 
 297      C3FB1F35 
 297      5231BD3F 
 297      9D63
 298 0a6d 9E25C01F 		.ascii	"\236%\300\037i\347\002\274\323<]\177\333\263\003|o\003"
 298      69E702BC 
 298      D33C5D7F 
 298      DBB3037C 
 298      6F03
 299 0a7f FB40B780 		.ascii	"\373@\267\200.{\274e\237z\211\255l\275\027(\273x'cd"
 299      2E7BBC65 
 299      9F7A89AD 
 299      6CBD1728 
 299      BB782763 
 300 0a94 A46F16D9 		.ascii	"\244o\026\331,\204\005R_l\325\264A\332n[\322Nl\276\366"
 300      2C840552 
 300      5F6CD5B4 
 300      41DA6E5B 
 300      D24E6CBE 
 301 0aa9 C3D5DBD4 		.ascii	"\303\325\333\324y\213\324\317\207\036\243y$\240=\271"
 301      798BD4CF 
 301      871EA379 
 301      24A03DB9 
 302 0ab9 1310C418 		.ascii	"\023\020\304\030j\012\342\251t\241\311~U\241/Y\257\303"
 302      6A0AE2A9 
 302      74A1C97E 
 302      55A12F59 
 302      AFC3
 303 0acb 32C126D1 		.ascii	"2\301&\321X\307Jt/\270S\316al`\033\237\024\376\250%"
ARM GAS  /tmp/ccmg7hDC.s 			page 24


 303      58C74A74 
 303      2FB853CE 
 303      616C601B 
 303      9F14FEA8 
 304 0ae0 A4364F69 		.ascii	"\2446Oia\373\374\225z\2005[u\333\260\003\366_Zq\223"
 304      61FBFC95 
 304      7A80355B 
 304      75DBB003 
 304      F65F5A71 
 305 0af5 F13C7EEB 		.ascii	"\361<~\353X\212\212\311\007X\231\005\330a3\260\345^"
 305      588A8AC9 
 305      07589905 
 305      D86133B0 
 305      E55E
 306 0b07 80B97C38 		.ascii	"\200\271|8\351i]a\332a4\2340\037xV\342\376\245\021\247"
 306      E9695D61 
 306      DA61349C 
 306      301F7856 
 306      E2FEA511 
 307 0b1c 555ECF7A 		.ascii	"U^\317z!\316\345\307d\237\245\325`\362\330|\300\225"
 307      21CEE5C7 
 307      649FA5D5 
 307      60F2D87C 
 307      C095
 308 0b2e 71EA35A2 		.ascii	"q\3525\242\362>\214\312\3731\036\267c\377.\366\007\261"
 308      F23E8CCA 
 308      FB311EB7 
 308      63FF2EF6 
 308      07B1
 309 0b40 3F847DA7 		.ascii	"?\204}\2479N\013\244\205s'\303\224L\26036G\362\203\356"
 309      394E0BA4 
 309      857327C3 
 309      944CB033 
 309      3647F283 
 310 0b55 E45B7F33 		.ascii	"\344[\1773\027\015\026\347~\325\301\271\217\330:\367"
 310      170D16E7 
 310      7ED5C1B9 
 310      8FD83AF7 
 311 0b65 F581D4B7 		.ascii	"\365\201\324\267\232\235\234\333%\267\037\343\303\016"
 311      9A9D9CDB 
 311      25B71FE3 
 311      C30E
 312 0b73 5B0E382E 		.ascii	"[\0168.\315lr\275@\332\035\010\355\266%t\305\266\323"
 312      CD6C72BD 
 312      40DA1D08 
 312      EDB62574 
 312      C5B6D3
 313 0b86 639BD5B7 		.ascii	"c\233\325\267m\376\233\302\225\316\036\236\316f\261"
 313      6DFE9BC2 
 313      95CE1E9E 
 313      CE66B1
 314 0b95 9827E484 		.ascii	"\230'\344\204\003!'\254\204p%\3061\227\022\343dF;_ "
 314      032127AC 
 314      847025C6 
 314      319712E3 
 314      64463B5F 
 315 0baa 0DDAD6C8 		.ascii	"\015\332\326\3103\243\264\337\376\351sF\033s\004}\316"
ARM GAS  /tmp/ccmg7hDC.s 			page 25


 315      33A3B4DF 
 315      FEE97346 
 315      1B73047D 
 315      CE
 316 0bbb 29F10B78 		.ascii	")\361\013xe\371\000\216#\234\260\364\212\231\337\027"
 316      65F9008E 
 316      239CB0F4 
 316      8A99DF17 
 317 0bcb 96043217 		.ascii	"\226\0042\027\324\212\272\214\303<\301\030W\250\303"
 317      D48ABA8C 
 317      C33CC118 
 317      57A8C3
 318 0bda 399D37E6 		.ascii	"9\2357\3463\016\230\013\354E\265\307ET\037dD\305\315"
 318      330E980B 
 318      EC45B5C7 
 318      45541F64 
 318      44C5CD
 319 0bed 6A75F066 		.ascii	"ju\360f\254\025\034g\355r\301\325\227\231\305\254*u"
 319      AC151C67 
 319      ED72C1D5 
 319      9799C5AC 
 319      2A75
 320 0bff A977FBEE 		.ascii	"\251w\373\356\376_\277\264MU\321\374\347\316\343\035"
 320      FE5FBFB4 
 320      4D55D1FC 
 320      E7CEE31D 
 321 0c0f C025EF7E 		.ascii	"\300%\357~\244\033V\306\226\004\262\250\2047$\254\021"
 321      A41B56C6 
 321      9604B2A8 
 321      843724AC 
 321      11
 322 0c20 E0D8A88A 		.ascii	"\340\330\250\212\010\215\215?\013\365\201\305\316>\316"
 322      088D8D3F 
 322      0BF581C5 
 322      CE3ECE
 323 0c2f 367820ED 		.ascii	"6x \355_\317\036\033c\374\373\320\355\032>\2014y\302"
 323      5FCF1E1B 
 323      63FCFBD0 
 323      ED1A3E81 
 323      3479C2
 324 0c42 708EC770 		.ascii	"p\216\307p\336\026\303gg\372\247\\\3130\177\273w\346"
 324      DE16C367 
 324      67FAA75C 
 324      CB307FBB 
 324      77E6
 325 0c54 2FF25EB5 		.ascii	"/\362^\265\0233\204\305\253\016YH\305\221\340j%\272"
 325      133384C5 
 325      AB0E5948 
 325      C591E06A 
 325      25BA
 326 0c66 71EA5557 		.ascii	"q\352UW\247Vui\377\354q\036g\\p,\273\364\217\302:\307"
 326      A7567569 
 326      FFEC711E 
 326      675C702C 
 326      BBF48FC2 
 327 0c7c 97E73E54 		.ascii	"\227\347>T\232\346\370\002\317\361%[\216\267\357\356"
 327      9AE6F802 
ARM GAS  /tmp/ccmg7hDC.s 			page 26


 327      CFF1255B 
 327      8EB7EFEE 
 328 0c8c AC36ABDB 		.ascii	"\2546\253\333\020k\277'\261^\345\221\0148(\356B\266"
 328      106BBF27 
 328      B15EE591 
 328      0C3828EE 
 328      42B6
 329 0c9e E2AE7BC2 		.ascii	"\342\256{\302p\215\307\360_\327\020\324\343b\353\203"
 329      708DC7F0 
 329      5FD710D4 
 329      E362EB83 
 330 0cae 195BFF1A 		.ascii	"\031[\377\032Y\253vt\364\356\335\334L\027\366\252\015"
 330      59AB7674 
 330      F4EEDDDC 
 330      4C17F6AA 
 330      0D
 331 0cbf C0FB1035 		.ascii	"\300\373\0205\307\206\276Ll\350HWK_\302\251\016!\204"
 331      C786BE4C 
 331      6CE84857 
 331      4B5FC2A9 
 331      0E2184
 332 0cd2 1F26D1A1 		.ascii	"\037&\321\241\274c\210\352\263\217!c,\0020F1\357\032"
 332      BC6388EA 
 332      B38F2163 
 332      2C023046 
 332      31EF1A
 333 0ce5 C92D3C78 		.ascii	"\311-<x*\004\3228\222\352\363F\260\213\333\312\313+"
 333      2A04D238 
 333      92EAF346 
 333      B08BDBCA 
 333      CB2B
 334 0cf7 B4BF58B2 		.ascii	"\264\277X\262\"\241T$\023\241\212Pu\345\234\250\024"
 334      22A15424 
 334      13A18A50 
 334      75E59CA8 
 334      14
 335 0d08 0987CA43 		.ascii	"\011\207\312C\344\016\356}8\032\252\251\255\224aLrN"
 335      E40EEE7D 
 335      381AAAA9 
 335      AD94614C 
 335      724E
 336 0d1a 52991397 		.ascii	"R\231\023\227\223\345\325\244H\251N\310ReP)\230\374"
 336      93E5D5A4 
 336      48A94EC8 
 336      52655029 
 336      98FC
 337 0d2c F347CA26 		.ascii	"\363G\312&\221@\250:\250=*s\236\016X`\352M\332\270d"
 337      9140A83A 
 337      A83D2A73 
 337      9E0E5860 
 337      EA4DDAB8 
 338 0d41 F077B572 		.ascii	"\360w\265r\255\034TF\247\247\352\217|Qy\266\342\213"
 338      AD1C5446 
 338      A7A7EA8F 
 338      7C5179B6 
 338      E28B
 339 0d53 27E4597E 		.ascii	"'\344Y~\274\237`\206\030\212E\"\261hE<\226P\222\025"
ARM GAS  /tmp/ccmg7hDC.s 			page 27


 339      BC9F6086 
 339      188A4522 
 339      B168453C 
 339      96509215 
 340 0d67 131F9E3A 		.ascii	"\023\037\236:i\352l\366,\036\256\221\023\311\212\311"
 340      69EA6CF6 
 340      2C1EAE91 
 340      13C98AC9 
 341 0d77 93260122 		.ascii	"\223&\001\"\203\310B%\236\010\307\202\312\264\212\352"
 341      83C84225 
 341      9E08C782 
 341      CAB48AEA 
 342 0d87 5844AEF8 		.ascii	"XD\256\370mmMX\212VL}`\362\304\212\244\034\221\223J"
 342      6D6D4D58 
 342      8A564C7D 
 342      60F2C48A 
 342      A41C9193 
 343 0d9c 420E8667 		.ascii	"B\016\206gW<\020\231.O\017W\002p)\021\271\363\256q\343"
 343      573C1099 
 343      2E4F0F57 
 343      02702911 
 343      B9F3AE71 
 344 0db1 EF2E1F3F 		.ascii	"\357.\037?\036\257\243\261\250|\247,M\017\247\271H*"
 344      1EAFA3B1 
 344      A87CA72C 
 344      4D0FA7B9 
 344      482A
 345 0dc3 95E1A8C2 		.ascii	"\225\341\250\302\004P\013\347\273\357\0122B\303\261"
 345      04500BE7 
 345      BBEF0A32 
 345      42C3B1
 346 0dd2 12464F30 		.ascii	"\022FO0\024\213*@\372\267s\322[\035\212%d\000R\214\323"
 346      148B2A40 
 346      FAB773D2 
 346      5B1D8A25 
 346      6400528C 
 347 0de7 00504899 		.ascii	"\000PH\231}\247\267Y\301Y\367F\030\372\204\\\005\024"
 347      7DA7B759 
 347      C159F746 
 347      18FA845C 
 347      0514
 348 0df9 06152171 		.ascii	"\006\025!q\217\220\370\256\220\370\236\220\270WHL\020"
 348      8F90F8AE 
 348      90F89E90 
 348      B857484C 
 348      10
 349 0e0a 12DF1713 		.ascii	"\022\337\027\023\343\307A\033/\324$\204d\\\004\320\376"
 349      E3C7411B 
 349      2FD42484 
 349      645C04D0 
 349      FE
 350 0e1b A85C2727 		.ascii	"\250\\''\374\261\232J9\341\013UK\011\037\350Z\036\221"
 350      FCB19A4A 
 350      39E10B55 
 350      4B091FE8 
 350      5A1E91
 351 0e2e 54664A35 		.ascii	"TfJ5\341\252hPAf\276w\017h\263N\232.%\345\"%\251H\012"
ARM GAS  /tmp/ccmg7hDC.s 			page 28


 351      E1AA6850 
 351      4166BE77 
 351      0F68B34E 
 351      9A2E25E5 
 352 0e47 E8A690BD 		.ascii	"\350\246\220\275\230\020T\374x_\250Db\225\360\324?\243"
 352      981054FC 
 352      785FA844 
 352      6295F0D4 
 352      3FA3
 353 0e59 46AA4A16 		.ascii	"F\252J\026\202\370f$A\000\354\344\217$\253`\270.\223"
 353      82F86624 
 353      4100ECE4 
 353      8F24AB60 
 353      B82E93
 354 0e6c 8244E51C 		.ascii	"\202D\345\034xP$\317\016+!\230RP\247\304\246\3776~\263"
 354      785024CF 
 354      0E2B2198 
 354      5250A7C4 
 354      A6FF367E 
 355 0e81 6E343041 		.ascii	"n40AN\310\321\020\003U\247(\211xaR\216*0\241\004L\001"
 355      4EC8D110 
 355      0355A728 
 355      89786152 
 355      8E2A30A1 
 356 0e98 3423C5AB 		.ascii	"4#\305\253\201S\336NM\206$3\021\370CQ%\250\210\320\003"
 356      8153DE4E 
 356      4D862433 
 356      11F84351 
 356      25A888D0 
 357 0ead 7878142F 		.ascii	"xx\024/\202\331\221Z\320\200\363\314\2102\233\315\214"
 357      82D9915A 
 357      D080F3CC 
 357      88329BCD 
 357      8C
 358 0ebe D545E544 		.ascii	"\325E\345D!\216e<+\3608^,\317bDH\311\231\360H\256c\027"
 358      218E653C 
 358      2BF0385E 
 358      2CCF6244 
 358      48C999F0 
 359 0ed6 B4769461 		.ascii	"\264v\224a\2305\341$ \273\311d\252\354Ia\235\024V\302"
 359      9835E124 
 359      20BBC964 
 359      AAEC4961 
 359      9D1456C2 
 360 0eea D1AA22A0 		.ascii	"\321\252\"\240\035M\265H\216\313Q\260\220\252B\000\311"
 360      1D4DB548 
 360      8ECB51B0 
 360      90AA4200 
 360      C9
 361 0efb 46809EA4 		.ascii	"F\200\236\244\032f!\376H<\026\253\031k\243\344X\262"
 361      1A6621FE 
 361      483C16AB 
 361      196BA3E4 
 361      58B2
 362 0f0d 263CDD44 		.ascii	"&<\335Dc\265,\305\201\310\221\0219\022K\314\011\262"
 362      63B52CC5 
 362      81C89111 
ARM GAS  /tmp/ccmg7hDC.s 			page 29


 362      39124BCC 
 362      09B2
 363 0f1f DBA0526C 		.ascii	"\333\240Rl\272\223\206c\316\014GU(\304\231\365=\345"
 363      BA938663 
 363      CE0C4755 
 363      28C499F5 
 363      3DE5
 364 0f31 13CAC79B 		.ascii	"\023\312\307\233\215\273R\236\001\270\013\222\341\337"
 364      8DBB529E 
 364      01B80B92 
 364      E1DF
 365 0f3f 8372EC4C 		.ascii	"\203r\354L\222\247\026\350\322\215\231\021\\%+3j\243"
 365      92A716E8 
 365      D28D9911 
 365      5C252B33 
 365      6AA3
 366 0f51 213081A2 		.ascii	"!0\201\242x\"6+\014\0067\022\031\200\016\256\201\017"
 366      7822362B 
 366      0C063712 
 366      19800EAE 
 366      810F
 367 0f63 D39D1FAD 		.ascii	"\323\235\037\255\317\037\227\252\344\244oFB\226}\354"
 367      CF1F97AA 
 367      E4A46F46 
 367      42967DEC 
 368 0f73 A58FE1F6 		.ascii	"\245\217\341\366\325&\345\312\002m\230\010\242\374\272"
 368      D526E5CA 
 368      026D9808 
 368      A2FCBA
 369 0f82 A3467575 		.ascii	"\243Fuu\240\2673\324A\345\226P\365/\252+'\301cE\376"
 369      A0B733D4 
 369      41E59650 
 369      F52FAA2B 
 369      27C16345 
 370 0f97 69221699 		.ascii	"i\"\026\231\002@\375\014r"
 370      0240FD0C 
 370      72
 371 0fa0 5C88CF10 		.ascii	"\\\210\317\020\245DU\2717\266\230\276\222&E\260{`\000"
 371      A54455B9 
 371      37B698BE 
 371      922645B0 
 371      7B6000
 372 0fb3 4F1A65C5 		.ascii	"O\032e\305`\324rH\0112\212K2\334\007\2251\034\011S\021"
 372      60D47248 
 372      09328A4B 
 372      32DC0795 
 372      311C0953 
 373 0fc8 C2433053 		.ascii	"\302C0S\210\304\301\310\247\205\252\037\225f\312\265"
 373      88C4C1C8 
 373      A785AA1F 
 373      9566CAB5 
 374 0fd8 F169FE3A 		.ascii	"\361i\376:\346o\276:\260\032?\233\033\277E\367\221J"
 374      E66FBE3A 
 374      B01A3F9B 
 374      1BBF45F7 
 374      914A
 375 0fea 39194A84 		.ascii	"9\031J\204\343J\014\204\366E\023\270i\265Ifbr\345\203"
ARM GAS  /tmp/ccmg7hDC.s 			page 30


 375      E34A0C84 
 375      F64513B8 
 375      69B54966 
 375      6272E583 
 376 0ffe 3787     		.ascii	"7\207"
 377 1000 AA196B13 		.ascii	"\252\031k\023kjb\241\211L\222req\250\232!\301G.\356"
 377      6B6A62A1 
 377      894C9272 
 377      6571A89A 
 377      21C1472E 
 378 1015 3387B105 		.ascii	"3\207\261\005\021{\332\234\344\317b\241\231\001\214"
 378      117BDA9C 
 378      E4CF62A1 
 378      99018C
 379 1024 423065E6 		.ascii	"B0e\346x\033\311@@\253\2304u\332\203\3232\020\"\311"
 379      781BC940 
 379      40AB9834 
 379      75DA83D3 
 379      321022C9 
 380 1038 703208C6 		.ascii	"p2\010\306\304\204\023\004\207U\202?\2368\355\201\207"
 380      C4841304 
 380      8755823F 
 380      9E38ED81 
 380      87
 381 1049 1E7E70A4 		.ascii	"\036~p\244TS'\315IBD\253\011Ge\377,\251\246V.F<\217"
 381      545327CD 
 381      494244AB 
 381      094765FF 
 381      2CA9A656 
 382 1061 44197C2D 		.ascii	"D\031|-\336\325\342uQ0\210\302\012\2164.\312\277\373"
 382      DED5E275 
 382      513088C2 
 382      0A8E342E 
 382      CABFFB
 383 1074 FDBBEEFE 		.ascii	"\375\273\356\376\037\366<\227\265"
 383      1FF63C97 
 383      B5
 384              		.text
 385              		.section	.gnu.lto_.symtab.b127f07dcf100da3,"",%progbits
 386 0000 63685468 		.ascii	"chThdCreateFromHeap\000\000\000\000\000\000\000\000"
 386      64437265 
 386      61746546 
 386      726F6D48 
 386      65617000 
 387 001b 00000000 		.ascii	"\000\000\000\000\241\000\000\000chThdCreateFromMemo"
 387      A1000000 
 387      63685468 
 387      64437265 
 387      61746546 
 388 0036 7279506F 		.ascii	"ryPool\000\000\000\000\000\000\000\000\000\000\000\000"
 388      6F6C0000 
 388      00000000 
 388      00000000 
 388      0000
 389 0048 96010000 		.ascii	"\226\001\000\000chSchWakeupS\000\000\002\000\000\000"
 389      63685363 
 389      6857616B 
ARM GAS  /tmp/ccmg7hDC.s 			page 31


 389      65757053 
 389      00000200 
 390 005e 00000000 		.ascii	"\000\000\000\000\000\000\273\001\000\000chThdCreate"
 390      0000BB01 
 390      00006368 
 390      54686443 
 390      72656174 
 391 0073 53757370 		.ascii	"SuspendedI\000\000\002\000\000\000\000\000\000\000\000"
 391      656E6465 
 391      64490000 
 391      02000000 
 391      00000000 
 392 0088 00C00100 		.ascii	"\000\300\001\000\000chHeapAllocAligned\000\000\002\000"
 392      00636848 
 392      65617041 
 392      6C6C6F63 
 392      416C6967 
 393 00a3 00000000 		.ascii	"\000\000\000\000\000\000\000\000\324\001\000\000chP"
 393      00000000 
 393      D4010000 
 393      636850
 394 00b2 6F6F6C41 		.ascii	"oolAlloc\000\000\002\000\000\000\000\000\000\000\000"
 394      6C6C6F63 
 394      00000200 
 394      00000000 
 394      000000
 395 00c5 00DA0100 		.ascii	"\000\332\001\000\000"
 395      00
 396              		.text
 397              		.section	.gnu.lto_.opts,"",%progbits
 398 0000 272D6D63 		.ascii	"'-mcpu=cortex-m3' '-mno-thumb-interwork' '-mthumb' "
 398      70753D63 
 398      6F727465 
 398      782D6D33 
 398      2720272D 
 399 0033 272D6767 		.ascii	"'-ggdb' '-O2' '-fomit-frame-pointer' '-falign-funct"
 399      64622720 
 399      272D4F32 
 399      2720272D 
 399      666F6D69 
 400 0066 696F6E73 		.ascii	"ions=16' '-ffunction-sections' '-fdata-sections' '-"
 400      3D313627 
 400      20272D66 
 400      66756E63 
 400      74696F6E 
 401 0099 666E6F2D 		.ascii	"fno-common' '-flto'\000"
 401      636F6D6D 
 401      6F6E2720 
 401      272D666C 
 401      746F2700 
 402              		.text
 403              		.cfi_sections	.debug_frame
 404              		.section	.text.chThdCreateFromHeap,"ax",%progbits
 405              		.align	2
 406              		.p2align 4,,15
 407              		.global	chThdCreateFromHeap
 408              		.thumb
ARM GAS  /tmp/ccmg7hDC.s 			page 32


 409              		.thumb_func
 410              		.type	chThdCreateFromHeap, %function
 411              	chThdCreateFromHeap:
 412              	.LFB188:
 413              		.file 1 "../../../os/rt/src/chdynamic.c"
 414              		.loc 1 84 0
 415              		.cfi_startproc
 416              		@ args = 8, pretend = 0, frame = 24
 417              		@ frame_needed = 0, uses_anonymous_args = 0
 418              	.LVL0:
 419 0000 70B5     		push	{r4, r5, r6, lr}
 420              		.cfi_def_cfa_offset 16
 421              		.cfi_offset 4, -16
 422              		.cfi_offset 5, -12
 423              		.cfi_offset 6, -8
 424              		.cfi_offset 14, -4
 425 0002 1446     		mov	r4, r2
 426 0004 86B0     		sub	sp, sp, #24
 427              		.cfi_def_cfa_offset 40
 428              		.loc 1 88 0
 429 0006 0822     		movs	r2, #8
 430              	.LVL1:
 431              		.loc 1 84 0
 432 0008 1E46     		mov	r6, r3
 433 000a 0D46     		mov	r5, r1
 434              		.loc 1 88 0
 435 000c FFF7FEFF 		bl	chHeapAllocAligned
 436              	.LVL2:
 437              		.loc 1 89 0
 438 0010 C8B1     		cbz	r0, .L2
 439              		.loc 1 93 0
 440 0012 0A9B     		ldr	r3, [sp, #40]
 441              		.loc 1 96 0
 442 0014 0544     		add	r5, r5, r0
 443              	.LVL3:
 444              		.loc 1 93 0
 445 0016 0493     		str	r3, [sp, #16]
 446 0018 0B9B     		ldr	r3, [sp, #44]
 447 001a 0295     		str	r5, [sp, #8]
 448 001c 0593     		str	r3, [sp, #20]
 449              	.LVL4:
 450 001e 0094     		str	r4, [sp]
 451 0020 0190     		str	r0, [sp, #4]
 452 0022 0396     		str	r6, [sp, #12]
 453              	.LBB34:
 454              	.LBB35:
 455              	.LBB36:
 456              	.LBB37:
 457              		.file 2 "../../../os/common/ext/CMSIS/include/cmsis_gcc.h"
 458              		.loc 2 264 0
 459 0024 2023     		movs	r3, #32
 460              	@ 264 "../../../os/common/ext/CMSIS/include/cmsis_gcc.h" 1
 461 0026 83F31188 		MSR basepri, r3
 462              	@ 0 "" 2
 463              		.thumb
 464              	.LBE37:
 465              	.LBE36:
ARM GAS  /tmp/ccmg7hDC.s 			page 33


 466              	.LBE35:
 467              	.LBE34:
 468              		.loc 1 109 0
 469 002a 6846     		mov	r0, sp
 470              	.LVL5:
 471 002c FFF7FEFF 		bl	chThdCreateSuspendedI
 472              	.LVL6:
 473              		.loc 1 110 0
 474 0030 0123     		movs	r3, #1
 475 0032 80F82130 		strb	r3, [r0, #33]
 476              		.loc 1 111 0
 477 0036 0021     		movs	r1, #0
 478              		.loc 1 109 0
 479 0038 0446     		mov	r4, r0
 480              	.LVL7:
 481              		.loc 1 111 0
 482 003a FFF7FEFF 		bl	chSchWakeupS
 483              	.LVL8:
 484              	.LBB38:
 485              	.LBB39:
 486              	.LBB40:
 487              	.LBB41:
 488              	.LBB42:
 489              		.loc 2 264 0
 490 003e 0023     		movs	r3, #0
 491              	@ 264 "../../../os/common/ext/CMSIS/include/cmsis_gcc.h" 1
 492 0040 83F31188 		MSR basepri, r3
 493              	@ 0 "" 2
 494              		.thumb
 495              	.LBE42:
 496              	.LBE41:
 497              	.LBE40:
 498              	.LBE39:
 499              	.LBE38:
 500              		.loc 1 114 0
 501 0044 2046     		mov	r0, r4
 502              	.LVL9:
 503              	.L2:
 504              		.loc 1 115 0
 505 0046 06B0     		add	sp, sp, #24
 506              		@ sp needed
 507 0048 70BD     		pop	{r4, r5, r6, pc}
 508              		.cfi_endproc
 509              	.LFE188:
 510              		.size	chThdCreateFromHeap, .-chThdCreateFromHeap
 511 004a 00BFAFF3 		.section	.text.chThdCreateFromMemoryPool,"ax",%progbits
 511      0080
 512              		.align	2
 513              		.p2align 4,,15
 514              		.global	chThdCreateFromMemoryPool
 515              		.thumb
 516              		.thumb_func
 517              		.type	chThdCreateFromMemoryPool, %function
 518              	chThdCreateFromMemoryPool:
 519              	.LFB189:
 520              		.loc 1 146 0
 521              		.cfi_startproc
ARM GAS  /tmp/ccmg7hDC.s 			page 34


 522              		@ args = 4, pretend = 0, frame = 24
 523              		@ frame_needed = 0, uses_anonymous_args = 0
 524              	.LVL10:
 525 0000 F0B5     		push	{r4, r5, r6, r7, lr}
 526              		.cfi_def_cfa_offset 20
 527              		.cfi_offset 4, -20
 528              		.cfi_offset 5, -16
 529              		.cfi_offset 6, -12
 530              		.cfi_offset 7, -8
 531              		.cfi_offset 14, -4
 532 0002 87B0     		sub	sp, sp, #28
 533              		.cfi_def_cfa_offset 48
 534              		.loc 1 146 0
 535 0004 0F46     		mov	r7, r1
 536 0006 1646     		mov	r6, r2
 537 0008 1C46     		mov	r4, r3
 538 000a 0546     		mov	r5, r0
 539              		.loc 1 152 0
 540 000c FFF7FEFF 		bl	chPoolAlloc
 541              	.LVL11:
 542              		.loc 1 153 0
 543 0010 D0B1     		cbz	r0, .L6
 544              		.loc 1 160 0
 545 0012 6B68     		ldr	r3, [r5, #4]
 546              		.loc 1 157 0
 547 0014 0C9A     		ldr	r2, [sp, #48]
 548              		.loc 1 160 0
 549 0016 0344     		add	r3, r3, r0
 550              		.loc 1 157 0
 551 0018 0293     		str	r3, [sp, #8]
 552 001a 0097     		str	r7, [sp]
 553 001c 0190     		str	r0, [sp, #4]
 554 001e 0396     		str	r6, [sp, #12]
 555 0020 0494     		str	r4, [sp, #16]
 556 0022 0592     		str	r2, [sp, #20]
 557              	.LVL12:
 558              	.LBB43:
 559              	.LBB44:
 560              	.LBB45:
 561              	.LBB46:
 562              		.loc 2 264 0
 563 0024 2023     		movs	r3, #32
 564              	@ 264 "../../../os/common/ext/CMSIS/include/cmsis_gcc.h" 1
 565 0026 83F31188 		MSR basepri, r3
 566              	@ 0 "" 2
 567              		.thumb
 568              	.LBE46:
 569              	.LBE45:
 570              	.LBE44:
 571              	.LBE43:
 572              		.loc 1 173 0
 573 002a 6846     		mov	r0, sp
 574              	.LVL13:
 575 002c FFF7FEFF 		bl	chThdCreateSuspendedI
 576              	.LVL14:
 577              		.loc 1 174 0
 578 0030 0223     		movs	r3, #2
ARM GAS  /tmp/ccmg7hDC.s 			page 35


 579 0032 80F82130 		strb	r3, [r0, #33]
 580              		.loc 1 175 0
 581 0036 0564     		str	r5, [r0, #64]
 582              		.loc 1 176 0
 583 0038 0021     		movs	r1, #0
 584              		.loc 1 173 0
 585 003a 0446     		mov	r4, r0
 586              	.LVL15:
 587              		.loc 1 176 0
 588 003c FFF7FEFF 		bl	chSchWakeupS
 589              	.LVL16:
 590              	.LBB47:
 591              	.LBB48:
 592              	.LBB49:
 593              	.LBB50:
 594              	.LBB51:
 595              		.loc 2 264 0
 596 0040 0023     		movs	r3, #0
 597              	@ 264 "../../../os/common/ext/CMSIS/include/cmsis_gcc.h" 1
 598 0042 83F31188 		MSR basepri, r3
 599              	@ 0 "" 2
 600              		.thumb
 601              	.LBE51:
 602              	.LBE50:
 603              	.LBE49:
 604              	.LBE48:
 605              	.LBE47:
 606              		.loc 1 179 0
 607 0046 2046     		mov	r0, r4
 608              	.LVL17:
 609              	.L6:
 610              		.loc 1 180 0
 611 0048 07B0     		add	sp, sp, #28
 612              		@ sp needed
 613 004a F0BD     		pop	{r4, r5, r6, r7, pc}
 614              		.cfi_endproc
 615              	.LFE189:
 616              		.size	chThdCreateFromMemoryPool, .-chThdCreateFromMemoryPool
 617 004c AFF30080 		.text
 618              	.Letext0:
 619              		.file 3 "/home/julian/MEGA/semestre_ix/Embebidos/arm-2013.11/lib/gcc/arm-none-eabi/4.8.1/include/s
 620              		.file 4 "/home/julian/MEGA/semestre_ix/Embebidos/arm-2013.11/arm-none-eabi/include/stdint.h"
 621              		.file 5 "../../../os/common/ports/ARMCMx/compilers/GCC/chtypes.h"
 622              		.file 6 "../../../os/rt/include/chsystypes.h"
 623              		.file 7 "../../../os/rt/include/chschd.h"
 624              		.file 8 "../../../os/common/ports/ARMCMx/chcore.h"
 625              		.file 9 "../../../os/common/ports/ARMCMx/chcore_v7m.h"
 626              		.file 10 "../../../os/rt/include/chsem.h"
 627              		.file 11 "../../../os/rt/include/chmtx.h"
 628              		.file 12 "../../../os/rt/include/chthreads.h"
 629              		.file 13 "../../../os/common/oslib/include/chmemcore.h"
 630              		.file 14 "../../../os/common/oslib/include/chheap.h"
 631              		.file 15 "../../../os/common/oslib/include/chmempools.h"
 632              		.file 16 "../../../os/rt/include/chsys.h"
 633              		.file 17 "../../../os/common/ext/CMSIS/include/core_cm3.h"
 634              		.section	.debug_info,"",%progbits
 635              	.Ldebug_info0:
ARM GAS  /tmp/ccmg7hDC.s 			page 36


 636 0000 4F0B0000 		.4byte	0xb4f
 637 0004 0400     		.2byte	0x4
 638 0006 00000000 		.4byte	.Ldebug_abbrev0
 639 000a 04       		.byte	0x4
 640 000b 01       		.uleb128 0x1
 641 000c 60020000 		.4byte	.LASF119
 642 0010 01       		.byte	0x1
 643 0011 83030000 		.4byte	.LASF120
 644 0015 81000000 		.4byte	.LASF121
 645 0019 00000000 		.4byte	.Ldebug_ranges0+0
 646 001d 00000000 		.4byte	0
 647 0021 00000000 		.4byte	.Ldebug_line0
 648 0025 02       		.uleb128 0x2
 649 0026 04       		.byte	0x4
 650 0027 05       		.byte	0x5
 651 0028 696E7400 		.ascii	"int\000"
 652 002c 03       		.uleb128 0x3
 653 002d 32020000 		.4byte	.LASF2
 654 0031 03       		.byte	0x3
 655 0032 D4       		.byte	0xd4
 656 0033 37000000 		.4byte	0x37
 657 0037 04       		.uleb128 0x4
 658 0038 04       		.byte	0x4
 659 0039 07       		.byte	0x7
 660 003a 56000000 		.4byte	.LASF0
 661 003e 04       		.uleb128 0x4
 662 003f 01       		.byte	0x1
 663 0040 06       		.byte	0x6
 664 0041 A2050000 		.4byte	.LASF1
 665 0045 03       		.uleb128 0x3
 666 0046 62030000 		.4byte	.LASF3
 667 004a 04       		.byte	0x4
 668 004b 2A       		.byte	0x2a
 669 004c 50000000 		.4byte	0x50
 670 0050 04       		.uleb128 0x4
 671 0051 01       		.byte	0x1
 672 0052 08       		.byte	0x8
 673 0053 39050000 		.4byte	.LASF4
 674 0057 04       		.uleb128 0x4
 675 0058 02       		.byte	0x2
 676 0059 05       		.byte	0x5
 677 005a 43040000 		.4byte	.LASF5
 678 005e 03       		.uleb128 0x3
 679 005f 27040000 		.4byte	.LASF6
 680 0063 04       		.byte	0x4
 681 0064 36       		.byte	0x36
 682 0065 69000000 		.4byte	0x69
 683 0069 04       		.uleb128 0x4
 684 006a 02       		.byte	0x2
 685 006b 07       		.byte	0x7
 686 006c B4050000 		.4byte	.LASF7
 687 0070 03       		.uleb128 0x3
 688 0071 08050000 		.4byte	.LASF8
 689 0075 04       		.byte	0x4
 690 0076 4F       		.byte	0x4f
 691 0077 7B000000 		.4byte	0x7b
 692 007b 04       		.uleb128 0x4
ARM GAS  /tmp/ccmg7hDC.s 			page 37


 693 007c 04       		.byte	0x4
 694 007d 05       		.byte	0x5
 695 007e 59040000 		.4byte	.LASF9
 696 0082 03       		.uleb128 0x3
 697 0083 47010000 		.4byte	.LASF10
 698 0087 04       		.byte	0x4
 699 0088 50       		.byte	0x50
 700 0089 8D000000 		.4byte	0x8d
 701 008d 04       		.uleb128 0x4
 702 008e 04       		.byte	0x4
 703 008f 07       		.byte	0x7
 704 0090 E3040000 		.4byte	.LASF11
 705 0094 04       		.uleb128 0x4
 706 0095 08       		.byte	0x8
 707 0096 05       		.byte	0x5
 708 0097 B6030000 		.4byte	.LASF12
 709 009b 03       		.uleb128 0x3
 710 009c A5040000 		.4byte	.LASF13
 711 00a0 04       		.byte	0x4
 712 00a1 78       		.byte	0x78
 713 00a2 A6000000 		.4byte	0xa6
 714 00a6 04       		.uleb128 0x4
 715 00a7 08       		.byte	0x8
 716 00a8 07       		.byte	0x7
 717 00a9 A6010000 		.4byte	.LASF14
 718 00ad 03       		.uleb128 0x3
 719 00ae 14040000 		.4byte	.LASF15
 720 00b2 05       		.byte	0x5
 721 00b3 3C       		.byte	0x3c
 722 00b4 45000000 		.4byte	0x45
 723 00b8 03       		.uleb128 0x3
 724 00b9 59030000 		.4byte	.LASF16
 725 00bd 05       		.byte	0x5
 726 00be 3D       		.byte	0x3d
 727 00bf 45000000 		.4byte	0x45
 728 00c3 03       		.uleb128 0x3
 729 00c4 DB040000 		.4byte	.LASF17
 730 00c8 05       		.byte	0x5
 731 00c9 3E       		.byte	0x3e
 732 00ca 45000000 		.4byte	0x45
 733 00ce 03       		.uleb128 0x3
 734 00cf 85010000 		.4byte	.LASF18
 735 00d3 05       		.byte	0x5
 736 00d4 40       		.byte	0x40
 737 00d5 82000000 		.4byte	0x82
 738 00d9 03       		.uleb128 0x3
 739 00da C4030000 		.4byte	.LASF19
 740 00de 05       		.byte	0x5
 741 00df 41       		.byte	0x41
 742 00e0 70000000 		.4byte	0x70
 743 00e4 03       		.uleb128 0x3
 744 00e5 58010000 		.4byte	.LASF20
 745 00e9 05       		.byte	0x5
 746 00ea 43       		.byte	0x43
 747 00eb 82000000 		.4byte	0x82
 748 00ef 03       		.uleb128 0x3
 749 00f0 BD010000 		.4byte	.LASF21
ARM GAS  /tmp/ccmg7hDC.s 			page 38


 750 00f4 05       		.byte	0x5
 751 00f5 45       		.byte	0x45
 752 00f6 70000000 		.4byte	0x70
 753 00fa 03       		.uleb128 0x3
 754 00fb 3A000000 		.4byte	.LASF22
 755 00ff 06       		.byte	0x6
 756 0100 35       		.byte	0x35
 757 0101 5E000000 		.4byte	0x5e
 758 0105 03       		.uleb128 0x3
 759 0106 1D020000 		.4byte	.LASF23
 760 010a 06       		.byte	0x6
 761 010b 3F       		.byte	0x3f
 762 010c 10010000 		.4byte	0x110
 763 0110 05       		.uleb128 0x5
 764 0111 73030000 		.4byte	.LASF41
 765 0115 44       		.byte	0x44
 766 0116 07       		.byte	0x7
 767 0117 9A       		.byte	0x9a
 768 0118 EE010000 		.4byte	0x1ee
 769 011c 06       		.uleb128 0x6
 770 011d 02050000 		.4byte	.LASF24
 771 0121 07       		.byte	0x7
 772 0122 9B       		.byte	0x9b
 773 0123 23020000 		.4byte	0x223
 774 0127 00       		.byte	0
 775 0128 06       		.uleb128 0x6
 776 0129 0D030000 		.4byte	.LASF25
 777 012d 07       		.byte	0x7
 778 012e 9C       		.byte	0x9c
 779 012f CE000000 		.4byte	0xce
 780 0133 08       		.byte	0x8
 781 0134 07       		.uleb128 0x7
 782 0135 63747800 		.ascii	"ctx\000"
 783 0139 07       		.byte	0x7
 784 013a 9D       		.byte	0x9d
 785 013b 0F040000 		.4byte	0x40f
 786 013f 0C       		.byte	0xc
 787 0140 06       		.uleb128 0x6
 788 0141 33050000 		.4byte	.LASF26
 789 0145 07       		.byte	0x7
 790 0146 9F       		.byte	0x9f
 791 0147 F9010000 		.4byte	0x1f9
 792 014b 10       		.byte	0x10
 793 014c 06       		.uleb128 0x6
 794 014d FA050000 		.4byte	.LASF27
 795 0151 07       		.byte	0x7
 796 0152 A0       		.byte	0xa0
 797 0153 F9010000 		.4byte	0x1f9
 798 0157 14       		.byte	0x14
 799 0158 06       		.uleb128 0x6
 800 0159 CD040000 		.4byte	.LASF28
 801 015d 07       		.byte	0x7
 802 015e A7       		.byte	0xa7
 803 015f 74050000 		.4byte	0x574
 804 0163 18       		.byte	0x18
 805 0164 06       		.uleb128 0x6
 806 0165 2A030000 		.4byte	.LASF29
ARM GAS  /tmp/ccmg7hDC.s 			page 39


 807 0169 07       		.byte	0x7
 808 016a B0       		.byte	0xb0
 809 016b 86050000 		.4byte	0x586
 810 016f 1C       		.byte	0x1c
 811 0170 06       		.uleb128 0x6
 812 0171 78050000 		.4byte	.LASF30
 813 0175 07       		.byte	0x7
 814 0176 B5       		.byte	0xb5
 815 0177 B8000000 		.4byte	0xb8
 816 017b 20       		.byte	0x20
 817 017c 06       		.uleb128 0x6
 818 017d 34000000 		.4byte	.LASF31
 819 0181 07       		.byte	0x7
 820 0182 B9       		.byte	0xb9
 821 0183 AD000000 		.4byte	0xad
 822 0187 21       		.byte	0x21
 823 0188 06       		.uleb128 0x6
 824 0189 77000000 		.4byte	.LASF32
 825 018d 07       		.byte	0x7
 826 018e BE       		.byte	0xbe
 827 018f C3000000 		.4byte	0xc3
 828 0193 22       		.byte	0x22
 829 0194 08       		.uleb128 0x8
 830 0195 7500     		.ascii	"u\000"
 831 0197 07       		.byte	0x7
 832 0198 0F01     		.2byte	0x10f
 833 019a A9040000 		.4byte	0x4a9
 834 019e 24       		.byte	0x24
 835 019f 09       		.uleb128 0x9
 836 01a0 47050000 		.4byte	.LASF33
 837 01a4 07       		.byte	0x7
 838 01a5 1401     		.2byte	0x114
 839 01a7 FF010000 		.4byte	0x1ff
 840 01ab 28       		.byte	0x28
 841 01ac 09       		.uleb128 0x9
 842 01ad 6A030000 		.4byte	.LASF34
 843 01b1 07       		.byte	0x7
 844 01b2 1A01     		.2byte	0x11a
 845 01b4 23020000 		.4byte	0x223
 846 01b8 2C       		.byte	0x2c
 847 01b9 09       		.uleb128 0x9
 848 01ba 4D000000 		.4byte	.LASF35
 849 01be 07       		.byte	0x7
 850 01bf 2001     		.2byte	0x120
 851 01c1 E4000000 		.4byte	0xe4
 852 01c5 34       		.byte	0x34
 853 01c6 09       		.uleb128 0x9
 854 01c7 F9010000 		.4byte	.LASF36
 855 01cb 07       		.byte	0x7
 856 01cc 2701     		.2byte	0x127
 857 01ce 6E050000 		.4byte	0x56e
 858 01d2 38       		.byte	0x38
 859 01d3 09       		.uleb128 0x9
 860 01d4 44000000 		.4byte	.LASF37
 861 01d8 07       		.byte	0x7
 862 01d9 2B01     		.2byte	0x12b
 863 01db CE000000 		.4byte	0xce
ARM GAS  /tmp/ccmg7hDC.s 			page 40


 864 01df 3C       		.byte	0x3c
 865 01e0 09       		.uleb128 0x9
 866 01e1 17060000 		.4byte	.LASF38
 867 01e5 07       		.byte	0x7
 868 01e6 3201     		.2byte	0x132
 869 01e8 D6020000 		.4byte	0x2d6
 870 01ec 40       		.byte	0x40
 871 01ed 00       		.byte	0
 872 01ee 03       		.uleb128 0x3
 873 01ef 17030000 		.4byte	.LASF39
 874 01f3 06       		.byte	0x6
 875 01f4 44       		.byte	0x44
 876 01f5 F9010000 		.4byte	0x1f9
 877 01f9 0A       		.uleb128 0xa
 878 01fa 04       		.byte	0x4
 879 01fb 05010000 		.4byte	0x105
 880 01ff 03       		.uleb128 0x3
 881 0200 68000000 		.4byte	.LASF40
 882 0204 06       		.byte	0x6
 883 0205 49       		.byte	0x49
 884 0206 0A020000 		.4byte	0x20a
 885 020a 05       		.uleb128 0x5
 886 020b 00000000 		.4byte	.LASF42
 887 020f 04       		.byte	0x4
 888 0210 07       		.byte	0x7
 889 0211 88       		.byte	0x88
 890 0212 23020000 		.4byte	0x223
 891 0216 06       		.uleb128 0x6
 892 0217 63000000 		.4byte	.LASF43
 893 021b 07       		.byte	0x7
 894 021c 89       		.byte	0x89
 895 021d F9010000 		.4byte	0x1f9
 896 0221 00       		.byte	0
 897 0222 00       		.byte	0
 898 0223 03       		.uleb128 0x3
 899 0224 E3010000 		.4byte	.LASF44
 900 0228 06       		.byte	0x6
 901 0229 50       		.byte	0x50
 902 022a 2E020000 		.4byte	0x22e
 903 022e 05       		.uleb128 0x5
 904 022f 1D010000 		.4byte	.LASF45
 905 0233 08       		.byte	0x8
 906 0234 07       		.byte	0x7
 907 0235 8F       		.byte	0x8f
 908 0236 53020000 		.4byte	0x253
 909 023a 06       		.uleb128 0x6
 910 023b 63000000 		.4byte	.LASF43
 911 023f 07       		.byte	0x7
 912 0240 90       		.byte	0x90
 913 0241 F9010000 		.4byte	0x1f9
 914 0245 00       		.byte	0
 915 0246 06       		.uleb128 0x6
 916 0247 18010000 		.4byte	.LASF46
 917 024b 07       		.byte	0x7
 918 024c 91       		.byte	0x91
 919 024d F9010000 		.4byte	0x1f9
 920 0251 04       		.byte	0x4
ARM GAS  /tmp/ccmg7hDC.s 			page 41


 921 0252 00       		.byte	0
 922 0253 03       		.uleb128 0x3
 923 0254 F5040000 		.4byte	.LASF47
 924 0258 06       		.byte	0x6
 925 0259 57       		.byte	0x57
 926 025a 5E020000 		.4byte	0x25e
 927 025e 0B       		.uleb128 0xb
 928 025f FE000000 		.4byte	.LASF48
 929 0263 1C       		.byte	0x1c
 930 0264 07       		.byte	0x7
 931 0265 6A01     		.2byte	0x16a
 932 0267 BA020000 		.4byte	0x2ba
 933 026b 09       		.uleb128 0x9
 934 026c 02050000 		.4byte	.LASF24
 935 0270 07       		.byte	0x7
 936 0271 6B01     		.2byte	0x16b
 937 0273 23020000 		.4byte	0x223
 938 0277 00       		.byte	0
 939 0278 09       		.uleb128 0x9
 940 0279 0D030000 		.4byte	.LASF25
 941 027d 07       		.byte	0x7
 942 027e 6C01     		.2byte	0x16c
 943 0280 CE000000 		.4byte	0xce
 944 0284 08       		.byte	0x8
 945 0285 08       		.uleb128 0x8
 946 0286 63747800 		.ascii	"ctx\000"
 947 028a 07       		.byte	0x7
 948 028b 6E01     		.2byte	0x16e
 949 028d 0F040000 		.4byte	0x40f
 950 0291 0C       		.byte	0xc
 951 0292 09       		.uleb128 0x9
 952 0293 33050000 		.4byte	.LASF26
 953 0297 07       		.byte	0x7
 954 0298 7101     		.2byte	0x171
 955 029a F9010000 		.4byte	0x1f9
 956 029e 10       		.byte	0x10
 957 029f 09       		.uleb128 0x9
 958 02a0 FA050000 		.4byte	.LASF27
 959 02a4 07       		.byte	0x7
 960 02a5 7201     		.2byte	0x172
 961 02a7 F9010000 		.4byte	0x1f9
 962 02ab 14       		.byte	0x14
 963 02ac 09       		.uleb128 0x9
 964 02ad D2050000 		.4byte	.LASF49
 965 02b1 07       		.byte	0x7
 966 02b2 7501     		.2byte	0x175
 967 02b4 F9010000 		.4byte	0x1f9
 968 02b8 18       		.byte	0x18
 969 02b9 00       		.byte	0
 970 02ba 03       		.uleb128 0x3
 971 02bb 2E010000 		.4byte	.LASF50
 972 02bf 06       		.byte	0x6
 973 02c0 5C       		.byte	0x5c
 974 02c1 C5020000 		.4byte	0x2c5
 975 02c5 0A       		.uleb128 0xa
 976 02c6 04       		.byte	0x4
 977 02c7 CB020000 		.4byte	0x2cb
ARM GAS  /tmp/ccmg7hDC.s 			page 42


 978 02cb 0C       		.uleb128 0xc
 979 02cc D6020000 		.4byte	0x2d6
 980 02d0 0D       		.uleb128 0xd
 981 02d1 D6020000 		.4byte	0x2d6
 982 02d5 00       		.byte	0
 983 02d6 0E       		.uleb128 0xe
 984 02d7 04       		.byte	0x4
 985 02d8 03       		.uleb128 0x3
 986 02d9 CA030000 		.4byte	.LASF51
 987 02dd 06       		.byte	0x6
 988 02de 61       		.byte	0x61
 989 02df E3020000 		.4byte	0x2e3
 990 02e3 0B       		.uleb128 0xb
 991 02e4 8D010000 		.4byte	.LASF52
 992 02e8 14       		.byte	0x14
 993 02e9 07       		.byte	0x7
 994 02ea 4501     		.2byte	0x145
 995 02ec 32030000 		.4byte	0x332
 996 02f0 09       		.uleb128 0x9
 997 02f1 63000000 		.4byte	.LASF43
 998 02f5 07       		.byte	0x7
 999 02f6 4601     		.2byte	0x146
 1000 02f8 8C050000 		.4byte	0x58c
 1001 02fc 00       		.byte	0
 1002 02fd 09       		.uleb128 0x9
 1003 02fe 18010000 		.4byte	.LASF46
 1004 0302 07       		.byte	0x7
 1005 0303 4701     		.2byte	0x147
 1006 0305 8C050000 		.4byte	0x58c
 1007 0309 04       		.byte	0x4
 1008 030a 09       		.uleb128 0x9
 1009 030b AE050000 		.4byte	.LASF53
 1010 030f 07       		.byte	0x7
 1011 0310 4801     		.2byte	0x148
 1012 0312 FA000000 		.4byte	0xfa
 1013 0316 08       		.byte	0x8
 1014 0317 09       		.uleb128 0x9
 1015 0318 0C010000 		.4byte	.LASF54
 1016 031c 07       		.byte	0x7
 1017 031d 4901     		.2byte	0x149
 1018 031f BA020000 		.4byte	0x2ba
 1019 0323 0C       		.byte	0xc
 1020 0324 08       		.uleb128 0x8
 1021 0325 70617200 		.ascii	"par\000"
 1022 0329 07       		.byte	0x7
 1023 032a 4B01     		.2byte	0x14b
 1024 032c D6020000 		.4byte	0x2d6
 1025 0330 10       		.byte	0x10
 1026 0331 00       		.byte	0
 1027 0332 03       		.uleb128 0x3
 1028 0333 55050000 		.4byte	.LASF55
 1029 0337 06       		.byte	0x6
 1030 0338 66       		.byte	0x66
 1031 0339 3D030000 		.4byte	0x33d
 1032 033d 0B       		.uleb128 0xb
 1033 033e 01020000 		.4byte	.LASF56
 1034 0342 0C       		.byte	0xc
ARM GAS  /tmp/ccmg7hDC.s 			page 43


 1035 0343 07       		.byte	0x7
 1036 0344 5501     		.2byte	0x155
 1037 0346 7F030000 		.4byte	0x37f
 1038 034a 09       		.uleb128 0x9
 1039 034b 63000000 		.4byte	.LASF43
 1040 034f 07       		.byte	0x7
 1041 0350 5601     		.2byte	0x156
 1042 0352 8C050000 		.4byte	0x58c
 1043 0356 00       		.byte	0
 1044 0357 09       		.uleb128 0x9
 1045 0358 18010000 		.4byte	.LASF46
 1046 035c 07       		.byte	0x7
 1047 035d 5801     		.2byte	0x158
 1048 035f 8C050000 		.4byte	0x58c
 1049 0363 04       		.byte	0x4
 1050 0364 09       		.uleb128 0x9
 1051 0365 AE050000 		.4byte	.LASF53
 1052 0369 07       		.byte	0x7
 1053 036a 5A01     		.2byte	0x15a
 1054 036c FA000000 		.4byte	0xfa
 1055 0370 08       		.byte	0x8
 1056 0371 09       		.uleb128 0x9
 1057 0372 9C040000 		.4byte	.LASF57
 1058 0376 07       		.byte	0x7
 1059 0377 6201     		.2byte	0x162
 1060 0379 FA000000 		.4byte	0xfa
 1061 037d 0A       		.byte	0xa
 1062 037e 00       		.byte	0
 1063 037f 03       		.uleb128 0x3
 1064 0380 A2030000 		.4byte	.LASF58
 1065 0384 06       		.byte	0x6
 1066 0385 6B       		.byte	0x6b
 1067 0386 8A030000 		.4byte	0x38a
 1068 038a 0B       		.uleb128 0xb
 1069 038b 37010000 		.4byte	.LASF59
 1070 038f 04       		.byte	0x4
 1071 0390 07       		.byte	0x7
 1072 0391 7C01     		.2byte	0x17c
 1073 0393 A5030000 		.4byte	0x3a5
 1074 0397 09       		.uleb128 0x9
 1075 0398 0A040000 		.4byte	.LASF60
 1076 039c 07       		.byte	0x7
 1077 039d 8401     		.2byte	0x184
 1078 039f 92050000 		.4byte	0x592
 1079 03a3 00       		.byte	0
 1080 03a4 00       		.byte	0
 1081 03a5 03       		.uleb128 0x3
 1082 03a6 8A050000 		.4byte	.LASF61
 1083 03aa 06       		.byte	0x6
 1084 03ab 70       		.byte	0x70
 1085 03ac B0030000 		.4byte	0x3b0
 1086 03b0 0B       		.uleb128 0xb
 1087 03b1 7B040000 		.4byte	.LASF62
 1088 03b5 70       		.byte	0x70
 1089 03b6 07       		.byte	0x7
 1090 03b7 9C01     		.2byte	0x19c
 1091 03b9 F2030000 		.4byte	0x3f2
ARM GAS  /tmp/ccmg7hDC.s 			page 44


 1092 03bd 09       		.uleb128 0x9
 1093 03be AE040000 		.4byte	.LASF63
 1094 03c2 07       		.byte	0x7
 1095 03c3 A001     		.2byte	0x1a0
 1096 03c5 53020000 		.4byte	0x253
 1097 03c9 00       		.byte	0
 1098 03ca 09       		.uleb128 0x9
 1099 03cb EA000000 		.4byte	.LASF64
 1100 03cf 07       		.byte	0x7
 1101 03d0 A401     		.2byte	0x1a4
 1102 03d2 32030000 		.4byte	0x332
 1103 03d6 1C       		.byte	0x1c
 1104 03d7 08       		.uleb128 0x8
 1105 03d8 64626700 		.ascii	"dbg\000"
 1106 03dc 07       		.byte	0x7
 1107 03dd A801     		.2byte	0x1a8
 1108 03df 7F030000 		.4byte	0x37f
 1109 03e3 28       		.byte	0x28
 1110 03e4 09       		.uleb128 0x9
 1111 03e5 1C040000 		.4byte	.LASF65
 1112 03e9 07       		.byte	0x7
 1113 03ea AC01     		.2byte	0x1ac
 1114 03ec 05010000 		.4byte	0x105
 1115 03f0 2C       		.byte	0x2c
 1116 03f1 00       		.byte	0
 1117 03f2 04       		.uleb128 0x4
 1118 03f3 04       		.byte	0x4
 1119 03f4 07       		.byte	0x7
 1120 03f5 D2040000 		.4byte	.LASF66
 1121 03f9 03       		.uleb128 0x3
 1122 03fa 2B000000 		.4byte	.LASF67
 1123 03fe 08       		.byte	0x8
 1124 03ff 65       		.byte	0x65
 1125 0400 D6020000 		.4byte	0x2d6
 1126 0404 03       		.uleb128 0x3
 1127 0405 C7050000 		.4byte	.LASF68
 1128 0409 08       		.byte	0x8
 1129 040a 6D       		.byte	0x6d
 1130 040b 9B000000 		.4byte	0x9b
 1131 040f 05       		.uleb128 0x5
 1132 0410 F1000000 		.4byte	.LASF69
 1133 0414 04       		.byte	0x4
 1134 0415 08       		.byte	0x8
 1135 0416 89       		.byte	0x89
 1136 0417 27040000 		.4byte	0x427
 1137 041b 07       		.uleb128 0x7
 1138 041c 737000   		.ascii	"sp\000"
 1139 041f 08       		.byte	0x8
 1140 0420 8A       		.byte	0x8a
 1141 0421 A3040000 		.4byte	0x4a3
 1142 0425 00       		.byte	0
 1143 0426 00       		.byte	0
 1144 0427 0B       		.uleb128 0xb
 1145 0428 62040000 		.4byte	.LASF70
 1146 042c 24       		.byte	0x24
 1147 042d 09       		.byte	0x9
 1148 042e 5901     		.2byte	0x159
ARM GAS  /tmp/ccmg7hDC.s 			page 45


 1149 0430 A3040000 		.4byte	0x4a3
 1150 0434 08       		.uleb128 0x8
 1151 0435 723400   		.ascii	"r4\000"
 1152 0438 09       		.byte	0x9
 1153 0439 6C01     		.2byte	0x16c
 1154 043b F9030000 		.4byte	0x3f9
 1155 043f 00       		.byte	0
 1156 0440 08       		.uleb128 0x8
 1157 0441 723500   		.ascii	"r5\000"
 1158 0444 09       		.byte	0x9
 1159 0445 6D01     		.2byte	0x16d
 1160 0447 F9030000 		.4byte	0x3f9
 1161 044b 04       		.byte	0x4
 1162 044c 08       		.uleb128 0x8
 1163 044d 723600   		.ascii	"r6\000"
 1164 0450 09       		.byte	0x9
 1165 0451 6E01     		.2byte	0x16e
 1166 0453 F9030000 		.4byte	0x3f9
 1167 0457 08       		.byte	0x8
 1168 0458 08       		.uleb128 0x8
 1169 0459 723700   		.ascii	"r7\000"
 1170 045c 09       		.byte	0x9
 1171 045d 6F01     		.2byte	0x16f
 1172 045f F9030000 		.4byte	0x3f9
 1173 0463 0C       		.byte	0xc
 1174 0464 08       		.uleb128 0x8
 1175 0465 723800   		.ascii	"r8\000"
 1176 0468 09       		.byte	0x9
 1177 0469 7001     		.2byte	0x170
 1178 046b F9030000 		.4byte	0x3f9
 1179 046f 10       		.byte	0x10
 1180 0470 08       		.uleb128 0x8
 1181 0471 723900   		.ascii	"r9\000"
 1182 0474 09       		.byte	0x9
 1183 0475 7101     		.2byte	0x171
 1184 0477 F9030000 		.4byte	0x3f9
 1185 047b 14       		.byte	0x14
 1186 047c 08       		.uleb128 0x8
 1187 047d 72313000 		.ascii	"r10\000"
 1188 0481 09       		.byte	0x9
 1189 0482 7201     		.2byte	0x172
 1190 0484 F9030000 		.4byte	0x3f9
 1191 0488 18       		.byte	0x18
 1192 0489 08       		.uleb128 0x8
 1193 048a 72313100 		.ascii	"r11\000"
 1194 048e 09       		.byte	0x9
 1195 048f 7301     		.2byte	0x173
 1196 0491 F9030000 		.4byte	0x3f9
 1197 0495 1C       		.byte	0x1c
 1198 0496 08       		.uleb128 0x8
 1199 0497 6C7200   		.ascii	"lr\000"
 1200 049a 09       		.byte	0x9
 1201 049b 7401     		.2byte	0x174
 1202 049d F9030000 		.4byte	0x3f9
 1203 04a1 20       		.byte	0x20
 1204 04a2 00       		.byte	0
 1205 04a3 0A       		.uleb128 0xa
ARM GAS  /tmp/ccmg7hDC.s 			page 46


 1206 04a4 04       		.byte	0x4
 1207 04a5 27040000 		.4byte	0x427
 1208 04a9 0F       		.uleb128 0xf
 1209 04aa 04       		.byte	0x4
 1210 04ab 07       		.byte	0x7
 1211 04ac D2       		.byte	0xd2
 1212 04ad 0C050000 		.4byte	0x50c
 1213 04b1 10       		.uleb128 0x10
 1214 04b2 39020000 		.4byte	.LASF71
 1215 04b6 07       		.byte	0x7
 1216 04b7 D9       		.byte	0xd9
 1217 04b8 D9000000 		.4byte	0xd9
 1218 04bc 10       		.uleb128 0x10
 1219 04bd 00060000 		.4byte	.LASF72
 1220 04c1 07       		.byte	0x7
 1221 04c2 E0       		.byte	0xe0
 1222 04c3 D9000000 		.4byte	0xd9
 1223 04c7 10       		.uleb128 0x10
 1224 04c8 D9000000 		.4byte	.LASF73
 1225 04cc 07       		.byte	0x7
 1226 04cd E7       		.byte	0xe7
 1227 04ce D6020000 		.4byte	0x2d6
 1228 04d2 10       		.uleb128 0x10
 1229 04d3 96050000 		.4byte	.LASF74
 1230 04d7 07       		.byte	0x7
 1231 04d8 EE       		.byte	0xee
 1232 04d9 0C050000 		.4byte	0x50c
 1233 04dd 10       		.uleb128 0x10
 1234 04de 50010000 		.4byte	.LASF75
 1235 04e2 07       		.byte	0x7
 1236 04e3 F3       		.byte	0xf3
 1237 04e4 D9000000 		.4byte	0xd9
 1238 04e8 10       		.uleb128 0x10
 1239 04e9 10050000 		.4byte	.LASF76
 1240 04ed 07       		.byte	0x7
 1241 04ee FC       		.byte	0xfc
 1242 04ef 37050000 		.4byte	0x537
 1243 04f3 11       		.uleb128 0x11
 1244 04f4 10000000 		.4byte	.LASF77
 1245 04f8 07       		.byte	0x7
 1246 04f9 0501     		.2byte	0x105
 1247 04fb 6E050000 		.4byte	0x56e
 1248 04ff 11       		.uleb128 0x11
 1249 0500 11010000 		.4byte	.LASF78
 1250 0504 07       		.byte	0x7
 1251 0505 0D01     		.2byte	0x10d
 1252 0507 E4000000 		.4byte	0xe4
 1253 050b 00       		.byte	0
 1254 050c 0A       		.uleb128 0xa
 1255 050d 04       		.byte	0x4
 1256 050e EE010000 		.4byte	0x1ee
 1257 0512 05       		.uleb128 0x5
 1258 0513 78010000 		.4byte	.LASF79
 1259 0517 0C       		.byte	0xc
 1260 0518 0A       		.byte	0xa
 1261 0519 34       		.byte	0x34
 1262 051a 37050000 		.4byte	0x537
ARM GAS  /tmp/ccmg7hDC.s 			page 47


 1263 051e 06       		.uleb128 0x6
 1264 051f 02050000 		.4byte	.LASF24
 1265 0523 0A       		.byte	0xa
 1266 0524 35       		.byte	0x35
 1267 0525 23020000 		.4byte	0x223
 1268 0529 00       		.byte	0
 1269 052a 07       		.uleb128 0x7
 1270 052b 636E7400 		.ascii	"cnt\000"
 1271 052f 0A       		.byte	0xa
 1272 0530 37       		.byte	0x37
 1273 0531 EF000000 		.4byte	0xef
 1274 0535 08       		.byte	0x8
 1275 0536 00       		.byte	0
 1276 0537 0A       		.uleb128 0xa
 1277 0538 04       		.byte	0x4
 1278 0539 12050000 		.4byte	0x512
 1279 053d 05       		.uleb128 0x5
 1280 053e 52020000 		.4byte	.LASF80
 1281 0542 10       		.byte	0x10
 1282 0543 0B       		.byte	0xb
 1283 0544 39       		.byte	0x39
 1284 0545 6E050000 		.4byte	0x56e
 1285 0549 06       		.uleb128 0x6
 1286 054a 02050000 		.4byte	.LASF24
 1287 054e 0B       		.byte	0xb
 1288 054f 3A       		.byte	0x3a
 1289 0550 23020000 		.4byte	0x223
 1290 0554 00       		.byte	0
 1291 0555 06       		.uleb128 0x6
 1292 0556 DD010000 		.4byte	.LASF81
 1293 055a 0B       		.byte	0xb
 1294 055b 3C       		.byte	0x3c
 1295 055c F9010000 		.4byte	0x1f9
 1296 0560 08       		.byte	0x8
 1297 0561 06       		.uleb128 0x6
 1298 0562 63000000 		.4byte	.LASF43
 1299 0566 0B       		.byte	0xb
 1300 0567 3E       		.byte	0x3e
 1301 0568 09060000 		.4byte	0x609
 1302 056c 0C       		.byte	0xc
 1303 056d 00       		.byte	0
 1304 056e 0A       		.uleb128 0xa
 1305 056f 04       		.byte	0x4
 1306 0570 3D050000 		.4byte	0x53d
 1307 0574 0A       		.uleb128 0xa
 1308 0575 04       		.byte	0x4
 1309 0576 7A050000 		.4byte	0x57a
 1310 057a 12       		.uleb128 0x12
 1311 057b 7F050000 		.4byte	0x57f
 1312 057f 04       		.uleb128 0x4
 1313 0580 01       		.byte	0x1
 1314 0581 08       		.byte	0x8
 1315 0582 12030000 		.4byte	.LASF82
 1316 0586 0A       		.uleb128 0xa
 1317 0587 04       		.byte	0x4
 1318 0588 04040000 		.4byte	0x404
 1319 058c 0A       		.uleb128 0xa
ARM GAS  /tmp/ccmg7hDC.s 			page 48


 1320 058d 04       		.byte	0x4
 1321 058e D8020000 		.4byte	0x2d8
 1322 0592 13       		.uleb128 0x13
 1323 0593 74050000 		.4byte	0x574
 1324 0597 03       		.uleb128 0x3
 1325 0598 9E010000 		.4byte	.LASF83
 1326 059c 0C       		.byte	0xc
 1327 059d 40       		.byte	0x40
 1328 059e C5020000 		.4byte	0x2c5
 1329 05a2 14       		.uleb128 0x14
 1330 05a3 18       		.byte	0x18
 1331 05a4 0C       		.byte	0xc
 1332 05a5 45       		.byte	0x45
 1333 05a6 F3050000 		.4byte	0x5f3
 1334 05aa 06       		.uleb128 0x6
 1335 05ab CD040000 		.4byte	.LASF28
 1336 05af 0C       		.byte	0xc
 1337 05b0 49       		.byte	0x49
 1338 05b1 74050000 		.4byte	0x574
 1339 05b5 00       		.byte	0
 1340 05b6 06       		.uleb128 0x6
 1341 05b7 25000000 		.4byte	.LASF84
 1342 05bb 0C       		.byte	0xc
 1343 05bc 4D       		.byte	0x4d
 1344 05bd 86050000 		.4byte	0x586
 1345 05c1 04       		.byte	0x4
 1346 05c2 06       		.uleb128 0x6
 1347 05c3 B1030000 		.4byte	.LASF85
 1348 05c7 0C       		.byte	0xc
 1349 05c8 51       		.byte	0x51
 1350 05c9 86050000 		.4byte	0x586
 1351 05cd 08       		.byte	0x8
 1352 05ce 06       		.uleb128 0x6
 1353 05cf 0D030000 		.4byte	.LASF25
 1354 05d3 0C       		.byte	0xc
 1355 05d4 55       		.byte	0x55
 1356 05d5 CE000000 		.4byte	0xce
 1357 05d9 0C       		.byte	0xc
 1358 05da 06       		.uleb128 0x6
 1359 05db 4F050000 		.4byte	.LASF86
 1360 05df 0C       		.byte	0xc
 1361 05e0 59       		.byte	0x59
 1362 05e1 97050000 		.4byte	0x597
 1363 05e5 10       		.byte	0x10
 1364 05e6 07       		.uleb128 0x7
 1365 05e7 61726700 		.ascii	"arg\000"
 1366 05eb 0C       		.byte	0xc
 1367 05ec 5D       		.byte	0x5d
 1368 05ed D6020000 		.4byte	0x2d6
 1369 05f1 14       		.byte	0x14
 1370 05f2 00       		.byte	0
 1371 05f3 03       		.uleb128 0x3
 1372 05f4 64010000 		.4byte	.LASF87
 1373 05f8 0C       		.byte	0xc
 1374 05f9 5E       		.byte	0x5e
 1375 05fa A2050000 		.4byte	0x5a2
 1376 05fe 03       		.uleb128 0x3
ARM GAS  /tmp/ccmg7hDC.s 			page 49


 1377 05ff 2B050000 		.4byte	.LASF88
 1378 0603 0B       		.byte	0xb
 1379 0604 34       		.byte	0x34
 1380 0605 3D050000 		.4byte	0x53d
 1381 0609 0A       		.uleb128 0xa
 1382 060a 04       		.byte	0x4
 1383 060b FE050000 		.4byte	0x5fe
 1384 060f 04       		.uleb128 0x4
 1385 0610 01       		.byte	0x1
 1386 0611 02       		.byte	0x2
 1387 0612 4C020000 		.4byte	.LASF89
 1388 0616 03       		.uleb128 0x3
 1389 0617 C0040000 		.4byte	.LASF90
 1390 061b 0D       		.byte	0xd
 1391 061c 47       		.byte	0x47
 1392 061d 21060000 		.4byte	0x621
 1393 0621 0A       		.uleb128 0xa
 1394 0622 04       		.byte	0x4
 1395 0623 27060000 		.4byte	0x627
 1396 0627 15       		.uleb128 0x15
 1397 0628 D6020000 		.4byte	0x2d6
 1398 062c 3B060000 		.4byte	0x63b
 1399 0630 0D       		.uleb128 0xd
 1400 0631 2C000000 		.4byte	0x2c
 1401 0635 0D       		.uleb128 0xd
 1402 0636 37000000 		.4byte	0x37
 1403 063a 00       		.byte	0
 1404 063b 03       		.uleb128 0x3
 1405 063c E6050000 		.4byte	.LASF91
 1406 0640 0D       		.byte	0xd
 1407 0641 4C       		.byte	0x4c
 1408 0642 46060000 		.4byte	0x646
 1409 0646 0A       		.uleb128 0xa
 1410 0647 04       		.byte	0x4
 1411 0648 4C060000 		.4byte	0x64c
 1412 064c 15       		.uleb128 0x15
 1413 064d D6020000 		.4byte	0x2d6
 1414 0651 65060000 		.4byte	0x665
 1415 0655 0D       		.uleb128 0xd
 1416 0656 2C000000 		.4byte	0x2c
 1417 065a 0D       		.uleb128 0xd
 1418 065b 37000000 		.4byte	0x37
 1419 065f 0D       		.uleb128 0xd
 1420 0660 2C000000 		.4byte	0x2c
 1421 0664 00       		.byte	0
 1422 0665 03       		.uleb128 0x3
 1423 0666 E6030000 		.4byte	.LASF92
 1424 066a 0E       		.byte	0xe
 1425 066b 48       		.byte	0x48
 1426 066c 70060000 		.4byte	0x670
 1427 0670 05       		.uleb128 0x5
 1428 0671 4D040000 		.4byte	.LASF93
 1429 0675 20       		.byte	0x20
 1430 0676 0E       		.byte	0xe
 1431 0677 61       		.byte	0x61
 1432 0678 A1060000 		.4byte	0x6a1
 1433 067c 06       		.uleb128 0x6
ARM GAS  /tmp/ccmg7hDC.s 			page 50


 1434 067d 93040000 		.4byte	.LASF94
 1435 0681 0E       		.byte	0xe
 1436 0682 62       		.byte	0x62
 1437 0683 3B060000 		.4byte	0x63b
 1438 0687 00       		.byte	0
 1439 0688 06       		.uleb128 0x6
 1440 0689 DF030000 		.4byte	.LASF95
 1441 068d 0E       		.byte	0xe
 1442 068e 64       		.byte	0x64
 1443 068f A1060000 		.4byte	0x6a1
 1444 0693 08       		.byte	0x8
 1445 0694 07       		.uleb128 0x7
 1446 0695 6D747800 		.ascii	"mtx\000"
 1447 0699 0E       		.byte	0xe
 1448 069a 66       		.byte	0x66
 1449 069b FE050000 		.4byte	0x5fe
 1450 069f 10       		.byte	0x10
 1451 06a0 00       		.byte	0
 1452 06a1 03       		.uleb128 0x3
 1453 06a2 09060000 		.4byte	.LASF96
 1454 06a6 0E       		.byte	0xe
 1455 06a7 4D       		.byte	0x4d
 1456 06a8 AC060000 		.4byte	0x6ac
 1457 06ac 16       		.uleb128 0x16
 1458 06ad 26020000 		.4byte	.LASF122
 1459 06b1 08       		.byte	0x8
 1460 06b2 0E       		.byte	0xe
 1461 06b3 52       		.byte	0x52
 1462 06b4 DA060000 		.4byte	0x6da
 1463 06b8 10       		.uleb128 0x10
 1464 06b9 F4050000 		.4byte	.LASF97
 1465 06bd 0E       		.byte	0xe
 1466 06be 53       		.byte	0x53
 1467 06bf 04040000 		.4byte	0x404
 1468 06c3 10       		.uleb128 0x10
 1469 06c4 5B020000 		.4byte	.LASF98
 1470 06c8 0E       		.byte	0xe
 1471 06c9 57       		.byte	0x57
 1472 06ca DA060000 		.4byte	0x6da
 1473 06ce 10       		.uleb128 0x10
 1474 06cf 18020000 		.4byte	.LASF99
 1475 06d3 0E       		.byte	0xe
 1476 06d4 5B       		.byte	0x5b
 1477 06d5 01070000 		.4byte	0x701
 1478 06d9 00       		.byte	0
 1479 06da 14       		.uleb128 0x14
 1480 06db 08       		.byte	0x8
 1481 06dc 0E       		.byte	0xe
 1482 06dd 54       		.byte	0x54
 1483 06de FB060000 		.4byte	0x6fb
 1484 06e2 06       		.uleb128 0x6
 1485 06e3 63000000 		.4byte	.LASF43
 1486 06e7 0E       		.byte	0xe
 1487 06e8 55       		.byte	0x55
 1488 06e9 FB060000 		.4byte	0x6fb
 1489 06ed 00       		.byte	0
 1490 06ee 06       		.uleb128 0x6
ARM GAS  /tmp/ccmg7hDC.s 			page 51


 1491 06ef 7D030000 		.4byte	.LASF100
 1492 06f3 0E       		.byte	0xe
 1493 06f4 56       		.byte	0x56
 1494 06f5 2C000000 		.4byte	0x2c
 1495 06f9 04       		.byte	0x4
 1496 06fa 00       		.byte	0
 1497 06fb 0A       		.uleb128 0xa
 1498 06fc 04       		.byte	0x4
 1499 06fd A1060000 		.4byte	0x6a1
 1500 0701 14       		.uleb128 0x14
 1501 0702 08       		.byte	0x8
 1502 0703 0E       		.byte	0xe
 1503 0704 58       		.byte	0x58
 1504 0705 22070000 		.4byte	0x722
 1505 0709 06       		.uleb128 0x6
 1506 070a 7C000000 		.4byte	.LASF101
 1507 070e 0E       		.byte	0xe
 1508 070f 59       		.byte	0x59
 1509 0710 22070000 		.4byte	0x722
 1510 0714 00       		.byte	0
 1511 0715 06       		.uleb128 0x6
 1512 0716 DA030000 		.4byte	.LASF102
 1513 071a 0E       		.byte	0xe
 1514 071b 5A       		.byte	0x5a
 1515 071c 2C000000 		.4byte	0x2c
 1516 0720 04       		.byte	0x4
 1517 0721 00       		.byte	0
 1518 0722 0A       		.uleb128 0xa
 1519 0723 04       		.byte	0x4
 1520 0724 65060000 		.4byte	0x665
 1521 0728 05       		.uleb128 0x5
 1522 0729 7E050000 		.4byte	.LASF103
 1523 072d 04       		.byte	0x4
 1524 072e 0F       		.byte	0xf
 1525 072f 38       		.byte	0x38
 1526 0730 41070000 		.4byte	0x741
 1527 0734 06       		.uleb128 0x6
 1528 0735 63000000 		.4byte	.LASF43
 1529 0739 0F       		.byte	0xf
 1530 073a 39       		.byte	0x39
 1531 073b 41070000 		.4byte	0x741
 1532 073f 00       		.byte	0
 1533 0740 00       		.byte	0
 1534 0741 0A       		.uleb128 0xa
 1535 0742 04       		.byte	0x4
 1536 0743 28070000 		.4byte	0x728
 1537 0747 14       		.uleb128 0x14
 1538 0748 0C       		.byte	0xc
 1539 0749 0F       		.byte	0xf
 1540 074a 40       		.byte	0x40
 1541 074b 74070000 		.4byte	0x774
 1542 074f 06       		.uleb128 0x6
 1543 0750 63000000 		.4byte	.LASF43
 1544 0754 0F       		.byte	0xf
 1545 0755 41       		.byte	0x41
 1546 0756 41070000 		.4byte	0x741
 1547 075a 00       		.byte	0
ARM GAS  /tmp/ccmg7hDC.s 			page 52


 1548 075b 06       		.uleb128 0x6
 1549 075c 40020000 		.4byte	.LASF104
 1550 0760 0F       		.byte	0xf
 1551 0761 42       		.byte	0x42
 1552 0762 2C000000 		.4byte	0x2c
 1553 0766 04       		.byte	0x4
 1554 0767 06       		.uleb128 0x6
 1555 0768 93040000 		.4byte	.LASF94
 1556 076c 0F       		.byte	0xf
 1557 076d 44       		.byte	0x44
 1558 076e 16060000 		.4byte	0x616
 1559 0772 08       		.byte	0x8
 1560 0773 00       		.byte	0
 1561 0774 03       		.uleb128 0x3
 1562 0775 17000000 		.4byte	.LASF105
 1563 0779 0F       		.byte	0xf
 1564 077a 46       		.byte	0x46
 1565 077b 47070000 		.4byte	0x747
 1566 077f 17       		.uleb128 0x17
 1567 0780 85040000 		.4byte	.LASF109
 1568 0784 02       		.byte	0x2
 1569 0785 0601     		.2byte	0x106
 1570 0787 03       		.byte	0x3
 1571 0788 99070000 		.4byte	0x799
 1572 078c 18       		.uleb128 0x18
 1573 078d F3010000 		.4byte	.LASF123
 1574 0791 02       		.byte	0x2
 1575 0792 0601     		.2byte	0x106
 1576 0794 82000000 		.4byte	0x82
 1577 0798 00       		.byte	0
 1578 0799 19       		.uleb128 0x19
 1579 079a E0000000 		.4byte	.LASF106
 1580 079e 09       		.byte	0x9
 1581 079f 5202     		.2byte	0x252
 1582 07a1 03       		.byte	0x3
 1583 07a2 19       		.uleb128 0x19
 1584 07a3 DA050000 		.4byte	.LASF107
 1585 07a7 09       		.byte	0x9
 1586 07a8 6A02     		.2byte	0x26a
 1587 07aa 03       		.byte	0x3
 1588 07ab 19       		.uleb128 0x19
 1589 07ac 03030000 		.4byte	.LASF108
 1590 07b0 10       		.byte	0x10
 1591 07b1 7601     		.2byte	0x176
 1592 07b3 03       		.byte	0x3
 1593 07b4 17       		.uleb128 0x17
 1594 07b5 D1010000 		.4byte	.LASF110
 1595 07b9 10       		.byte	0x10
 1596 07ba 8201     		.2byte	0x182
 1597 07bc 03       		.byte	0x3
 1598 07bd CF070000 		.4byte	0x7cf
 1599 07c1 1A       		.uleb128 0x1a
 1600 07c2 4B030000 		.4byte	.LASF124
 1601 07c6 DF070000 		.4byte	0x7df
 1602 07ca D1010000 		.4byte	.LASF110
 1603 07ce 00       		.byte	0
 1604 07cf 1B       		.uleb128 0x1b
ARM GAS  /tmp/ccmg7hDC.s 			page 53


 1605 07d0 7F050000 		.4byte	0x57f
 1606 07d4 DF070000 		.4byte	0x7df
 1607 07d8 1C       		.uleb128 0x1c
 1608 07d9 F2030000 		.4byte	0x3f2
 1609 07dd 0B       		.byte	0xb
 1610 07de 00       		.byte	0
 1611 07df 12       		.uleb128 0x12
 1612 07e0 CF070000 		.4byte	0x7cf
 1613 07e4 1D       		.uleb128 0x1d
 1614 07e5 17050000 		.4byte	.LASF112
 1615 07e9 01       		.byte	0x1
 1616 07ea 52       		.byte	0x52
 1617 07eb F9010000 		.4byte	0x1f9
 1618 07ef 00000000 		.4byte	.LFB188
 1619 07f3 4A000000 		.4byte	.LFE188-.LFB188
 1620 07f7 01       		.uleb128 0x1
 1621 07f8 9C       		.byte	0x9c
 1622 07f9 55090000 		.4byte	0x955
 1623 07fd 1E       		.uleb128 0x1e
 1624 07fe 9C050000 		.4byte	.LASF111
 1625 0802 01       		.byte	0x1
 1626 0803 52       		.byte	0x52
 1627 0804 22070000 		.4byte	0x722
 1628 0808 00000000 		.4byte	.LLST0
 1629 080c 1E       		.uleb128 0x1e
 1630 080d DA030000 		.4byte	.LASF102
 1631 0811 01       		.byte	0x1
 1632 0812 52       		.byte	0x52
 1633 0813 2C000000 		.4byte	0x2c
 1634 0817 21000000 		.4byte	.LLST1
 1635 081b 1E       		.uleb128 0x1e
 1636 081c CD040000 		.4byte	.LASF28
 1637 0820 01       		.byte	0x1
 1638 0821 53       		.byte	0x53
 1639 0822 74050000 		.4byte	0x574
 1640 0826 4D000000 		.4byte	.LLST2
 1641 082a 1E       		.uleb128 0x1e
 1642 082b 0D030000 		.4byte	.LASF25
 1643 082f 01       		.byte	0x1
 1644 0830 53       		.byte	0x53
 1645 0831 CE000000 		.4byte	0xce
 1646 0835 79000000 		.4byte	.LLST3
 1647 0839 1F       		.uleb128 0x1f
 1648 083a 706600   		.ascii	"pf\000"
 1649 083d 01       		.byte	0x1
 1650 083e 54       		.byte	0x54
 1651 083f 97050000 		.4byte	0x597
 1652 0843 02       		.uleb128 0x2
 1653 0844 91       		.byte	0x91
 1654 0845 00       		.sleb128 0
 1655 0846 1F       		.uleb128 0x1f
 1656 0847 61726700 		.ascii	"arg\000"
 1657 084b 01       		.byte	0x1
 1658 084c 54       		.byte	0x54
 1659 084d D6020000 		.4byte	0x2d6
 1660 0851 02       		.uleb128 0x2
 1661 0852 91       		.byte	0x91
ARM GAS  /tmp/ccmg7hDC.s 			page 54


 1662 0853 04       		.sleb128 4
 1663 0854 20       		.uleb128 0x20
 1664 0855 747000   		.ascii	"tp\000"
 1665 0858 01       		.byte	0x1
 1666 0859 55       		.byte	0x55
 1667 085a F9010000 		.4byte	0x1f9
 1668 085e 97000000 		.4byte	.LLST4
 1669 0862 20       		.uleb128 0x20
 1670 0863 77737000 		.ascii	"wsp\000"
 1671 0867 01       		.byte	0x1
 1672 0868 56       		.byte	0x56
 1673 0869 D6020000 		.4byte	0x2d6
 1674 086d B5000000 		.4byte	.LLST5
 1675 0871 21       		.uleb128 0x21
 1676 0872 746400   		.ascii	"td\000"
 1677 0875 01       		.byte	0x1
 1678 0876 5D       		.byte	0x5d
 1679 0877 F3050000 		.4byte	0x5f3
 1680 087b 02       		.uleb128 0x2
 1681 087c 91       		.byte	0x91
 1682 087d 58       		.sleb128 -40
 1683 087e 22       		.uleb128 0x22
 1684 087f AB070000 		.4byte	0x7ab
 1685 0883 24000000 		.4byte	.LBB34
 1686 0887 06000000 		.4byte	.LBE34-.LBB34
 1687 088b 01       		.byte	0x1
 1688 088c 6C       		.byte	0x6c
 1689 088d BD080000 		.4byte	0x8bd
 1690 0891 23       		.uleb128 0x23
 1691 0892 99070000 		.4byte	0x799
 1692 0896 24000000 		.4byte	.LBB35
 1693 089a 06000000 		.4byte	.LBE35-.LBB35
 1694 089e 10       		.byte	0x10
 1695 089f 7801     		.2byte	0x178
 1696 08a1 23       		.uleb128 0x23
 1697 08a2 7F070000 		.4byte	0x77f
 1698 08a6 24000000 		.4byte	.LBB36
 1699 08aa 06000000 		.4byte	.LBE36-.LBB36
 1700 08ae 09       		.byte	0x9
 1701 08af 5A02     		.2byte	0x25a
 1702 08b1 24       		.uleb128 0x24
 1703 08b2 8C070000 		.4byte	0x78c
 1704 08b6 D4000000 		.4byte	.LLST6
 1705 08ba 00       		.byte	0
 1706 08bb 00       		.byte	0
 1707 08bc 00       		.byte	0
 1708 08bd 22       		.uleb128 0x22
 1709 08be B4070000 		.4byte	0x7b4
 1710 08c2 3E000000 		.4byte	.LBB38
 1711 08c6 06000000 		.4byte	.LBE38-.LBB38
 1712 08ca 01       		.byte	0x1
 1713 08cb 70       		.byte	0x70
 1714 08cc 0B090000 		.4byte	0x90b
 1715 08d0 25       		.uleb128 0x25
 1716 08d1 3E000000 		.4byte	.LBB39
 1717 08d5 06000000 		.4byte	.LBE39-.LBB39
 1718 08d9 26       		.uleb128 0x26
ARM GAS  /tmp/ccmg7hDC.s 			page 55


 1719 08da C1070000 		.4byte	0x7c1
 1720 08de 23       		.uleb128 0x23
 1721 08df A2070000 		.4byte	0x7a2
 1722 08e3 3E000000 		.4byte	.LBB40
 1723 08e7 06000000 		.4byte	.LBE40-.LBB40
 1724 08eb 10       		.byte	0x10
 1725 08ec 8F01     		.2byte	0x18f
 1726 08ee 23       		.uleb128 0x23
 1727 08ef 7F070000 		.4byte	0x77f
 1728 08f3 3E000000 		.4byte	.LBB41
 1729 08f7 06000000 		.4byte	.LBE41-.LBB41
 1730 08fb 09       		.byte	0x9
 1731 08fc 6D02     		.2byte	0x26d
 1732 08fe 24       		.uleb128 0x24
 1733 08ff 8C070000 		.4byte	0x78c
 1734 0903 E9000000 		.4byte	.LLST7
 1735 0907 00       		.byte	0
 1736 0908 00       		.byte	0
 1737 0909 00       		.byte	0
 1738 090a 00       		.byte	0
 1739 090b 27       		.uleb128 0x27
 1740 090c 10000000 		.4byte	.LVL2
 1741 0910 EB0A0000 		.4byte	0xaeb
 1742 0914 2B090000 		.4byte	0x92b
 1743 0918 28       		.uleb128 0x28
 1744 0919 01       		.uleb128 0x1
 1745 091a 52       		.byte	0x52
 1746 091b 01       		.uleb128 0x1
 1747 091c 38       		.byte	0x38
 1748 091d 28       		.uleb128 0x28
 1749 091e 01       		.uleb128 0x1
 1750 091f 51       		.byte	0x51
 1751 0920 02       		.uleb128 0x2
 1752 0921 75       		.byte	0x75
 1753 0922 00       		.sleb128 0
 1754 0923 28       		.uleb128 0x28
 1755 0924 01       		.uleb128 0x1
 1756 0925 50       		.byte	0x50
 1757 0926 03       		.uleb128 0x3
 1758 0927 F3       		.byte	0xf3
 1759 0928 01       		.uleb128 0x1
 1760 0929 50       		.byte	0x50
 1761 092a 00       		.byte	0
 1762 092b 27       		.uleb128 0x27
 1763 092c 30000000 		.4byte	.LVL6
 1764 0930 0A0B0000 		.4byte	0xb0a
 1765 0934 3F090000 		.4byte	0x93f
 1766 0938 28       		.uleb128 0x28
 1767 0939 01       		.uleb128 0x1
 1768 093a 50       		.byte	0x50
 1769 093b 02       		.uleb128 0x2
 1770 093c 7D       		.byte	0x7d
 1771 093d 00       		.sleb128 0
 1772 093e 00       		.byte	0
 1773 093f 29       		.uleb128 0x29
 1774 0940 3E000000 		.4byte	.LVL8
 1775 0944 2A0B0000 		.4byte	0xb2a
ARM GAS  /tmp/ccmg7hDC.s 			page 56


 1776 0948 28       		.uleb128 0x28
 1777 0949 01       		.uleb128 0x1
 1778 094a 51       		.byte	0x51
 1779 094b 01       		.uleb128 0x1
 1780 094c 30       		.byte	0x30
 1781 094d 28       		.uleb128 0x28
 1782 094e 01       		.uleb128 0x1
 1783 094f 50       		.byte	0x50
 1784 0950 02       		.uleb128 0x2
 1785 0951 74       		.byte	0x74
 1786 0952 00       		.sleb128 0
 1787 0953 00       		.byte	0
 1788 0954 00       		.byte	0
 1789 0955 1D       		.uleb128 0x1d
 1790 0956 31030000 		.4byte	.LASF113
 1791 095a 01       		.byte	0x1
 1792 095b 91       		.byte	0x91
 1793 095c F9010000 		.4byte	0x1f9
 1794 0960 00000000 		.4byte	.LFB189
 1795 0964 4C000000 		.4byte	.LFE189-.LFB189
 1796 0968 01       		.uleb128 0x1
 1797 0969 9C       		.byte	0x9c
 1798 096a B40A0000 		.4byte	0xab4
 1799 096e 2A       		.uleb128 0x2a
 1800 096f 6D7000   		.ascii	"mp\000"
 1801 0972 01       		.byte	0x1
 1802 0973 91       		.byte	0x91
 1803 0974 B40A0000 		.4byte	0xab4
 1804 0978 FD000000 		.4byte	.LLST8
 1805 097c 1E       		.uleb128 0x1e
 1806 097d CD040000 		.4byte	.LASF28
 1807 0981 01       		.byte	0x1
 1808 0982 91       		.byte	0x91
 1809 0983 74050000 		.4byte	0x574
 1810 0987 1B010000 		.4byte	.LLST9
 1811 098b 1E       		.uleb128 0x1e
 1812 098c 0D030000 		.4byte	.LASF25
 1813 0990 01       		.byte	0x1
 1814 0991 92       		.byte	0x92
 1815 0992 CE000000 		.4byte	0xce
 1816 0996 39010000 		.4byte	.LLST10
 1817 099a 2A       		.uleb128 0x2a
 1818 099b 706600   		.ascii	"pf\000"
 1819 099e 01       		.byte	0x1
 1820 099f 92       		.byte	0x92
 1821 09a0 97050000 		.4byte	0x597
 1822 09a4 57010000 		.4byte	.LLST11
 1823 09a8 1F       		.uleb128 0x1f
 1824 09a9 61726700 		.ascii	"arg\000"
 1825 09ad 01       		.byte	0x1
 1826 09ae 92       		.byte	0x92
 1827 09af D6020000 		.4byte	0x2d6
 1828 09b3 02       		.uleb128 0x2
 1829 09b4 91       		.byte	0x91
 1830 09b5 00       		.sleb128 0
 1831 09b6 20       		.uleb128 0x20
 1832 09b7 747000   		.ascii	"tp\000"
ARM GAS  /tmp/ccmg7hDC.s 			page 57


 1833 09ba 01       		.byte	0x1
 1834 09bb 93       		.byte	0x93
 1835 09bc F9010000 		.4byte	0x1f9
 1836 09c0 83010000 		.4byte	.LLST12
 1837 09c4 20       		.uleb128 0x20
 1838 09c5 77737000 		.ascii	"wsp\000"
 1839 09c9 01       		.byte	0x1
 1840 09ca 94       		.byte	0x94
 1841 09cb D6020000 		.4byte	0x2d6
 1842 09cf A1010000 		.4byte	.LLST13
 1843 09d3 2B       		.uleb128 0x2b
 1844 09d4 C3010000 		.4byte	.LASF125
 1845 09d8 CA0A0000 		.4byte	0xaca
 1846 09dc 21       		.uleb128 0x21
 1847 09dd 746400   		.ascii	"td\000"
 1848 09e0 01       		.byte	0x1
 1849 09e1 9D       		.byte	0x9d
 1850 09e2 F3050000 		.4byte	0x5f3
 1851 09e6 02       		.uleb128 0x2
 1852 09e7 91       		.byte	0x91
 1853 09e8 50       		.sleb128 -48
 1854 09e9 22       		.uleb128 0x22
 1855 09ea AB070000 		.4byte	0x7ab
 1856 09ee 24000000 		.4byte	.LBB43
 1857 09f2 06000000 		.4byte	.LBE43-.LBB43
 1858 09f6 01       		.byte	0x1
 1859 09f7 AC       		.byte	0xac
 1860 09f8 280A0000 		.4byte	0xa28
 1861 09fc 23       		.uleb128 0x23
 1862 09fd 99070000 		.4byte	0x799
 1863 0a01 24000000 		.4byte	.LBB44
 1864 0a05 06000000 		.4byte	.LBE44-.LBB44
 1865 0a09 10       		.byte	0x10
 1866 0a0a 7801     		.2byte	0x178
 1867 0a0c 23       		.uleb128 0x23
 1868 0a0d 7F070000 		.4byte	0x77f
 1869 0a11 24000000 		.4byte	.LBB45
 1870 0a15 06000000 		.4byte	.LBE45-.LBB45
 1871 0a19 09       		.byte	0x9
 1872 0a1a 5A02     		.2byte	0x25a
 1873 0a1c 24       		.uleb128 0x24
 1874 0a1d 8C070000 		.4byte	0x78c
 1875 0a21 C0010000 		.4byte	.LLST14
 1876 0a25 00       		.byte	0
 1877 0a26 00       		.byte	0
 1878 0a27 00       		.byte	0
 1879 0a28 22       		.uleb128 0x22
 1880 0a29 B4070000 		.4byte	0x7b4
 1881 0a2d 40000000 		.4byte	.LBB47
 1882 0a31 06000000 		.4byte	.LBE47-.LBB47
 1883 0a35 01       		.byte	0x1
 1884 0a36 B1       		.byte	0xb1
 1885 0a37 760A0000 		.4byte	0xa76
 1886 0a3b 25       		.uleb128 0x25
 1887 0a3c 40000000 		.4byte	.LBB48
 1888 0a40 06000000 		.4byte	.LBE48-.LBB48
 1889 0a44 26       		.uleb128 0x26
ARM GAS  /tmp/ccmg7hDC.s 			page 58


 1890 0a45 C1070000 		.4byte	0x7c1
 1891 0a49 23       		.uleb128 0x23
 1892 0a4a A2070000 		.4byte	0x7a2
 1893 0a4e 40000000 		.4byte	.LBB49
 1894 0a52 06000000 		.4byte	.LBE49-.LBB49
 1895 0a56 10       		.byte	0x10
 1896 0a57 8F01     		.2byte	0x18f
 1897 0a59 23       		.uleb128 0x23
 1898 0a5a 7F070000 		.4byte	0x77f
 1899 0a5e 40000000 		.4byte	.LBB50
 1900 0a62 06000000 		.4byte	.LBE50-.LBB50
 1901 0a66 09       		.byte	0x9
 1902 0a67 6D02     		.2byte	0x26d
 1903 0a69 24       		.uleb128 0x24
 1904 0a6a 8C070000 		.4byte	0x78c
 1905 0a6e D5010000 		.4byte	.LLST15
 1906 0a72 00       		.byte	0
 1907 0a73 00       		.byte	0
 1908 0a74 00       		.byte	0
 1909 0a75 00       		.byte	0
 1910 0a76 27       		.uleb128 0x27
 1911 0a77 10000000 		.4byte	.LVL11
 1912 0a7b 410B0000 		.4byte	0xb41
 1913 0a7f 8A0A0000 		.4byte	0xa8a
 1914 0a83 28       		.uleb128 0x28
 1915 0a84 01       		.uleb128 0x1
 1916 0a85 50       		.byte	0x50
 1917 0a86 02       		.uleb128 0x2
 1918 0a87 75       		.byte	0x75
 1919 0a88 00       		.sleb128 0
 1920 0a89 00       		.byte	0
 1921 0a8a 27       		.uleb128 0x27
 1922 0a8b 30000000 		.4byte	.LVL14
 1923 0a8f 0A0B0000 		.4byte	0xb0a
 1924 0a93 9E0A0000 		.4byte	0xa9e
 1925 0a97 28       		.uleb128 0x28
 1926 0a98 01       		.uleb128 0x1
 1927 0a99 50       		.byte	0x50
 1928 0a9a 02       		.uleb128 0x2
 1929 0a9b 7D       		.byte	0x7d
 1930 0a9c 00       		.sleb128 0
 1931 0a9d 00       		.byte	0
 1932 0a9e 29       		.uleb128 0x29
 1933 0a9f 40000000 		.4byte	.LVL16
 1934 0aa3 2A0B0000 		.4byte	0xb2a
 1935 0aa7 28       		.uleb128 0x28
 1936 0aa8 01       		.uleb128 0x1
 1937 0aa9 51       		.byte	0x51
 1938 0aaa 01       		.uleb128 0x1
 1939 0aab 30       		.byte	0x30
 1940 0aac 28       		.uleb128 0x28
 1941 0aad 01       		.uleb128 0x1
 1942 0aae 50       		.byte	0x50
 1943 0aaf 02       		.uleb128 0x2
 1944 0ab0 74       		.byte	0x74
 1945 0ab1 00       		.sleb128 0
 1946 0ab2 00       		.byte	0
ARM GAS  /tmp/ccmg7hDC.s 			page 59


 1947 0ab3 00       		.byte	0
 1948 0ab4 0A       		.uleb128 0xa
 1949 0ab5 04       		.byte	0x4
 1950 0ab6 74070000 		.4byte	0x774
 1951 0aba 1B       		.uleb128 0x1b
 1952 0abb 7F050000 		.4byte	0x57f
 1953 0abf CA0A0000 		.4byte	0xaca
 1954 0ac3 1C       		.uleb128 0x1c
 1955 0ac4 F2030000 		.4byte	0x3f2
 1956 0ac8 19       		.byte	0x19
 1957 0ac9 00       		.byte	0
 1958 0aca 12       		.uleb128 0x12
 1959 0acb BA0A0000 		.4byte	0xaba
 1960 0acf 2C       		.uleb128 0x2c
 1961 0ad0 6E040000 		.4byte	.LASF114
 1962 0ad4 11       		.byte	0x11
 1963 0ad5 9606     		.2byte	0x696
 1964 0ad7 DB0A0000 		.4byte	0xadb
 1965 0adb 13       		.uleb128 0x13
 1966 0adc 70000000 		.4byte	0x70
 1967 0ae0 2D       		.uleb128 0x2d
 1968 0ae1 636800   		.ascii	"ch\000"
 1969 0ae4 07       		.byte	0x7
 1970 0ae5 D201     		.2byte	0x1d2
 1971 0ae7 A5030000 		.4byte	0x3a5
 1972 0aeb 2E       		.uleb128 0x2e
 1973 0aec 30040000 		.4byte	.LASF115
 1974 0af0 0E       		.byte	0xe
 1975 0af1 80       		.byte	0x80
 1976 0af2 D6020000 		.4byte	0x2d6
 1977 0af6 0A0B0000 		.4byte	0xb0a
 1978 0afa 0D       		.uleb128 0xd
 1979 0afb 22070000 		.4byte	0x722
 1980 0aff 0D       		.uleb128 0xd
 1981 0b00 2C000000 		.4byte	0x2c
 1982 0b04 0D       		.uleb128 0xd
 1983 0b05 37000000 		.4byte	0x37
 1984 0b09 00       		.byte	0
 1985 0b0a 2E       		.uleb128 0x2e
 1986 0b0b F4030000 		.4byte	.LASF116
 1987 0b0f 0C       		.byte	0xc
 1988 0b10 EF       		.byte	0xef
 1989 0b11 F9010000 		.4byte	0x1f9
 1990 0b15 1F0B0000 		.4byte	0xb1f
 1991 0b19 0D       		.uleb128 0xd
 1992 0b1a 1F0B0000 		.4byte	0xb1f
 1993 0b1e 00       		.byte	0
 1994 0b1f 0A       		.uleb128 0xa
 1995 0b20 04       		.byte	0x4
 1996 0b21 250B0000 		.4byte	0xb25
 1997 0b25 12       		.uleb128 0x12
 1998 0b26 F3050000 		.4byte	0x5f3
 1999 0b2a 2F       		.uleb128 0x2f
 2000 0b2b 6B050000 		.4byte	.LASF117
 2001 0b2f 07       		.byte	0x7
 2002 0b30 E001     		.2byte	0x1e0
 2003 0b32 410B0000 		.4byte	0xb41
ARM GAS  /tmp/ccmg7hDC.s 			page 60


 2004 0b36 0D       		.uleb128 0xd
 2005 0b37 F9010000 		.4byte	0x1f9
 2006 0b3b 0D       		.uleb128 0xd
 2007 0b3c D9000000 		.4byte	0xd9
 2008 0b40 00       		.byte	0
 2009 0b41 30       		.uleb128 0x30
 2010 0b42 B4040000 		.4byte	.LASF118
 2011 0b46 0F       		.byte	0xf
 2012 0b47 94       		.byte	0x94
 2013 0b48 D6020000 		.4byte	0x2d6
 2014 0b4c 0D       		.uleb128 0xd
 2015 0b4d B40A0000 		.4byte	0xab4
 2016 0b51 00       		.byte	0
 2017 0b52 00       		.byte	0
 2018              		.section	.debug_abbrev,"",%progbits
 2019              	.Ldebug_abbrev0:
 2020 0000 01       		.uleb128 0x1
 2021 0001 11       		.uleb128 0x11
 2022 0002 01       		.byte	0x1
 2023 0003 25       		.uleb128 0x25
 2024 0004 0E       		.uleb128 0xe
 2025 0005 13       		.uleb128 0x13
 2026 0006 0B       		.uleb128 0xb
 2027 0007 03       		.uleb128 0x3
 2028 0008 0E       		.uleb128 0xe
 2029 0009 1B       		.uleb128 0x1b
 2030 000a 0E       		.uleb128 0xe
 2031 000b 55       		.uleb128 0x55
 2032 000c 17       		.uleb128 0x17
 2033 000d 11       		.uleb128 0x11
 2034 000e 01       		.uleb128 0x1
 2035 000f 10       		.uleb128 0x10
 2036 0010 17       		.uleb128 0x17
 2037 0011 00       		.byte	0
 2038 0012 00       		.byte	0
 2039 0013 02       		.uleb128 0x2
 2040 0014 24       		.uleb128 0x24
 2041 0015 00       		.byte	0
 2042 0016 0B       		.uleb128 0xb
 2043 0017 0B       		.uleb128 0xb
 2044 0018 3E       		.uleb128 0x3e
 2045 0019 0B       		.uleb128 0xb
 2046 001a 03       		.uleb128 0x3
 2047 001b 08       		.uleb128 0x8
 2048 001c 00       		.byte	0
 2049 001d 00       		.byte	0
 2050 001e 03       		.uleb128 0x3
 2051 001f 16       		.uleb128 0x16
 2052 0020 00       		.byte	0
 2053 0021 03       		.uleb128 0x3
 2054 0022 0E       		.uleb128 0xe
 2055 0023 3A       		.uleb128 0x3a
 2056 0024 0B       		.uleb128 0xb
 2057 0025 3B       		.uleb128 0x3b
 2058 0026 0B       		.uleb128 0xb
 2059 0027 49       		.uleb128 0x49
 2060 0028 13       		.uleb128 0x13
ARM GAS  /tmp/ccmg7hDC.s 			page 61


 2061 0029 00       		.byte	0
 2062 002a 00       		.byte	0
 2063 002b 04       		.uleb128 0x4
 2064 002c 24       		.uleb128 0x24
 2065 002d 00       		.byte	0
 2066 002e 0B       		.uleb128 0xb
 2067 002f 0B       		.uleb128 0xb
 2068 0030 3E       		.uleb128 0x3e
 2069 0031 0B       		.uleb128 0xb
 2070 0032 03       		.uleb128 0x3
 2071 0033 0E       		.uleb128 0xe
 2072 0034 00       		.byte	0
 2073 0035 00       		.byte	0
 2074 0036 05       		.uleb128 0x5
 2075 0037 13       		.uleb128 0x13
 2076 0038 01       		.byte	0x1
 2077 0039 03       		.uleb128 0x3
 2078 003a 0E       		.uleb128 0xe
 2079 003b 0B       		.uleb128 0xb
 2080 003c 0B       		.uleb128 0xb
 2081 003d 3A       		.uleb128 0x3a
 2082 003e 0B       		.uleb128 0xb
 2083 003f 3B       		.uleb128 0x3b
 2084 0040 0B       		.uleb128 0xb
 2085 0041 01       		.uleb128 0x1
 2086 0042 13       		.uleb128 0x13
 2087 0043 00       		.byte	0
 2088 0044 00       		.byte	0
 2089 0045 06       		.uleb128 0x6
 2090 0046 0D       		.uleb128 0xd
 2091 0047 00       		.byte	0
 2092 0048 03       		.uleb128 0x3
 2093 0049 0E       		.uleb128 0xe
 2094 004a 3A       		.uleb128 0x3a
 2095 004b 0B       		.uleb128 0xb
 2096 004c 3B       		.uleb128 0x3b
 2097 004d 0B       		.uleb128 0xb
 2098 004e 49       		.uleb128 0x49
 2099 004f 13       		.uleb128 0x13
 2100 0050 38       		.uleb128 0x38
 2101 0051 0B       		.uleb128 0xb
 2102 0052 00       		.byte	0
 2103 0053 00       		.byte	0
 2104 0054 07       		.uleb128 0x7
 2105 0055 0D       		.uleb128 0xd
 2106 0056 00       		.byte	0
 2107 0057 03       		.uleb128 0x3
 2108 0058 08       		.uleb128 0x8
 2109 0059 3A       		.uleb128 0x3a
 2110 005a 0B       		.uleb128 0xb
 2111 005b 3B       		.uleb128 0x3b
 2112 005c 0B       		.uleb128 0xb
 2113 005d 49       		.uleb128 0x49
 2114 005e 13       		.uleb128 0x13
 2115 005f 38       		.uleb128 0x38
 2116 0060 0B       		.uleb128 0xb
 2117 0061 00       		.byte	0
ARM GAS  /tmp/ccmg7hDC.s 			page 62


 2118 0062 00       		.byte	0
 2119 0063 08       		.uleb128 0x8
 2120 0064 0D       		.uleb128 0xd
 2121 0065 00       		.byte	0
 2122 0066 03       		.uleb128 0x3
 2123 0067 08       		.uleb128 0x8
 2124 0068 3A       		.uleb128 0x3a
 2125 0069 0B       		.uleb128 0xb
 2126 006a 3B       		.uleb128 0x3b
 2127 006b 05       		.uleb128 0x5
 2128 006c 49       		.uleb128 0x49
 2129 006d 13       		.uleb128 0x13
 2130 006e 38       		.uleb128 0x38
 2131 006f 0B       		.uleb128 0xb
 2132 0070 00       		.byte	0
 2133 0071 00       		.byte	0
 2134 0072 09       		.uleb128 0x9
 2135 0073 0D       		.uleb128 0xd
 2136 0074 00       		.byte	0
 2137 0075 03       		.uleb128 0x3
 2138 0076 0E       		.uleb128 0xe
 2139 0077 3A       		.uleb128 0x3a
 2140 0078 0B       		.uleb128 0xb
 2141 0079 3B       		.uleb128 0x3b
 2142 007a 05       		.uleb128 0x5
 2143 007b 49       		.uleb128 0x49
 2144 007c 13       		.uleb128 0x13
 2145 007d 38       		.uleb128 0x38
 2146 007e 0B       		.uleb128 0xb
 2147 007f 00       		.byte	0
 2148 0080 00       		.byte	0
 2149 0081 0A       		.uleb128 0xa
 2150 0082 0F       		.uleb128 0xf
 2151 0083 00       		.byte	0
 2152 0084 0B       		.uleb128 0xb
 2153 0085 0B       		.uleb128 0xb
 2154 0086 49       		.uleb128 0x49
 2155 0087 13       		.uleb128 0x13
 2156 0088 00       		.byte	0
 2157 0089 00       		.byte	0
 2158 008a 0B       		.uleb128 0xb
 2159 008b 13       		.uleb128 0x13
 2160 008c 01       		.byte	0x1
 2161 008d 03       		.uleb128 0x3
 2162 008e 0E       		.uleb128 0xe
 2163 008f 0B       		.uleb128 0xb
 2164 0090 0B       		.uleb128 0xb
 2165 0091 3A       		.uleb128 0x3a
 2166 0092 0B       		.uleb128 0xb
 2167 0093 3B       		.uleb128 0x3b
 2168 0094 05       		.uleb128 0x5
 2169 0095 01       		.uleb128 0x1
 2170 0096 13       		.uleb128 0x13
 2171 0097 00       		.byte	0
 2172 0098 00       		.byte	0
 2173 0099 0C       		.uleb128 0xc
 2174 009a 15       		.uleb128 0x15
ARM GAS  /tmp/ccmg7hDC.s 			page 63


 2175 009b 01       		.byte	0x1
 2176 009c 27       		.uleb128 0x27
 2177 009d 19       		.uleb128 0x19
 2178 009e 01       		.uleb128 0x1
 2179 009f 13       		.uleb128 0x13
 2180 00a0 00       		.byte	0
 2181 00a1 00       		.byte	0
 2182 00a2 0D       		.uleb128 0xd
 2183 00a3 05       		.uleb128 0x5
 2184 00a4 00       		.byte	0
 2185 00a5 49       		.uleb128 0x49
 2186 00a6 13       		.uleb128 0x13
 2187 00a7 00       		.byte	0
 2188 00a8 00       		.byte	0
 2189 00a9 0E       		.uleb128 0xe
 2190 00aa 0F       		.uleb128 0xf
 2191 00ab 00       		.byte	0
 2192 00ac 0B       		.uleb128 0xb
 2193 00ad 0B       		.uleb128 0xb
 2194 00ae 00       		.byte	0
 2195 00af 00       		.byte	0
 2196 00b0 0F       		.uleb128 0xf
 2197 00b1 17       		.uleb128 0x17
 2198 00b2 01       		.byte	0x1
 2199 00b3 0B       		.uleb128 0xb
 2200 00b4 0B       		.uleb128 0xb
 2201 00b5 3A       		.uleb128 0x3a
 2202 00b6 0B       		.uleb128 0xb
 2203 00b7 3B       		.uleb128 0x3b
 2204 00b8 0B       		.uleb128 0xb
 2205 00b9 01       		.uleb128 0x1
 2206 00ba 13       		.uleb128 0x13
 2207 00bb 00       		.byte	0
 2208 00bc 00       		.byte	0
 2209 00bd 10       		.uleb128 0x10
 2210 00be 0D       		.uleb128 0xd
 2211 00bf 00       		.byte	0
 2212 00c0 03       		.uleb128 0x3
 2213 00c1 0E       		.uleb128 0xe
 2214 00c2 3A       		.uleb128 0x3a
 2215 00c3 0B       		.uleb128 0xb
 2216 00c4 3B       		.uleb128 0x3b
 2217 00c5 0B       		.uleb128 0xb
 2218 00c6 49       		.uleb128 0x49
 2219 00c7 13       		.uleb128 0x13
 2220 00c8 00       		.byte	0
 2221 00c9 00       		.byte	0
 2222 00ca 11       		.uleb128 0x11
 2223 00cb 0D       		.uleb128 0xd
 2224 00cc 00       		.byte	0
 2225 00cd 03       		.uleb128 0x3
 2226 00ce 0E       		.uleb128 0xe
 2227 00cf 3A       		.uleb128 0x3a
 2228 00d0 0B       		.uleb128 0xb
 2229 00d1 3B       		.uleb128 0x3b
 2230 00d2 05       		.uleb128 0x5
 2231 00d3 49       		.uleb128 0x49
ARM GAS  /tmp/ccmg7hDC.s 			page 64


 2232 00d4 13       		.uleb128 0x13
 2233 00d5 00       		.byte	0
 2234 00d6 00       		.byte	0
 2235 00d7 12       		.uleb128 0x12
 2236 00d8 26       		.uleb128 0x26
 2237 00d9 00       		.byte	0
 2238 00da 49       		.uleb128 0x49
 2239 00db 13       		.uleb128 0x13
 2240 00dc 00       		.byte	0
 2241 00dd 00       		.byte	0
 2242 00de 13       		.uleb128 0x13
 2243 00df 35       		.uleb128 0x35
 2244 00e0 00       		.byte	0
 2245 00e1 49       		.uleb128 0x49
 2246 00e2 13       		.uleb128 0x13
 2247 00e3 00       		.byte	0
 2248 00e4 00       		.byte	0
 2249 00e5 14       		.uleb128 0x14
 2250 00e6 13       		.uleb128 0x13
 2251 00e7 01       		.byte	0x1
 2252 00e8 0B       		.uleb128 0xb
 2253 00e9 0B       		.uleb128 0xb
 2254 00ea 3A       		.uleb128 0x3a
 2255 00eb 0B       		.uleb128 0xb
 2256 00ec 3B       		.uleb128 0x3b
 2257 00ed 0B       		.uleb128 0xb
 2258 00ee 01       		.uleb128 0x1
 2259 00ef 13       		.uleb128 0x13
 2260 00f0 00       		.byte	0
 2261 00f1 00       		.byte	0
 2262 00f2 15       		.uleb128 0x15
 2263 00f3 15       		.uleb128 0x15
 2264 00f4 01       		.byte	0x1
 2265 00f5 27       		.uleb128 0x27
 2266 00f6 19       		.uleb128 0x19
 2267 00f7 49       		.uleb128 0x49
 2268 00f8 13       		.uleb128 0x13
 2269 00f9 01       		.uleb128 0x1
 2270 00fa 13       		.uleb128 0x13
 2271 00fb 00       		.byte	0
 2272 00fc 00       		.byte	0
 2273 00fd 16       		.uleb128 0x16
 2274 00fe 17       		.uleb128 0x17
 2275 00ff 01       		.byte	0x1
 2276 0100 03       		.uleb128 0x3
 2277 0101 0E       		.uleb128 0xe
 2278 0102 0B       		.uleb128 0xb
 2279 0103 0B       		.uleb128 0xb
 2280 0104 3A       		.uleb128 0x3a
 2281 0105 0B       		.uleb128 0xb
 2282 0106 3B       		.uleb128 0x3b
 2283 0107 0B       		.uleb128 0xb
 2284 0108 01       		.uleb128 0x1
 2285 0109 13       		.uleb128 0x13
 2286 010a 00       		.byte	0
 2287 010b 00       		.byte	0
 2288 010c 17       		.uleb128 0x17
ARM GAS  /tmp/ccmg7hDC.s 			page 65


 2289 010d 2E       		.uleb128 0x2e
 2290 010e 01       		.byte	0x1
 2291 010f 03       		.uleb128 0x3
 2292 0110 0E       		.uleb128 0xe
 2293 0111 3A       		.uleb128 0x3a
 2294 0112 0B       		.uleb128 0xb
 2295 0113 3B       		.uleb128 0x3b
 2296 0114 05       		.uleb128 0x5
 2297 0115 27       		.uleb128 0x27
 2298 0116 19       		.uleb128 0x19
 2299 0117 20       		.uleb128 0x20
 2300 0118 0B       		.uleb128 0xb
 2301 0119 01       		.uleb128 0x1
 2302 011a 13       		.uleb128 0x13
 2303 011b 00       		.byte	0
 2304 011c 00       		.byte	0
 2305 011d 18       		.uleb128 0x18
 2306 011e 05       		.uleb128 0x5
 2307 011f 00       		.byte	0
 2308 0120 03       		.uleb128 0x3
 2309 0121 0E       		.uleb128 0xe
 2310 0122 3A       		.uleb128 0x3a
 2311 0123 0B       		.uleb128 0xb
 2312 0124 3B       		.uleb128 0x3b
 2313 0125 05       		.uleb128 0x5
 2314 0126 49       		.uleb128 0x49
 2315 0127 13       		.uleb128 0x13
 2316 0128 00       		.byte	0
 2317 0129 00       		.byte	0
 2318 012a 19       		.uleb128 0x19
 2319 012b 2E       		.uleb128 0x2e
 2320 012c 00       		.byte	0
 2321 012d 03       		.uleb128 0x3
 2322 012e 0E       		.uleb128 0xe
 2323 012f 3A       		.uleb128 0x3a
 2324 0130 0B       		.uleb128 0xb
 2325 0131 3B       		.uleb128 0x3b
 2326 0132 05       		.uleb128 0x5
 2327 0133 27       		.uleb128 0x27
 2328 0134 19       		.uleb128 0x19
 2329 0135 20       		.uleb128 0x20
 2330 0136 0B       		.uleb128 0xb
 2331 0137 00       		.byte	0
 2332 0138 00       		.byte	0
 2333 0139 1A       		.uleb128 0x1a
 2334 013a 34       		.uleb128 0x34
 2335 013b 00       		.byte	0
 2336 013c 03       		.uleb128 0x3
 2337 013d 0E       		.uleb128 0xe
 2338 013e 49       		.uleb128 0x49
 2339 013f 13       		.uleb128 0x13
 2340 0140 34       		.uleb128 0x34
 2341 0141 19       		.uleb128 0x19
 2342 0142 1C       		.uleb128 0x1c
 2343 0143 0E       		.uleb128 0xe
 2344 0144 00       		.byte	0
 2345 0145 00       		.byte	0
ARM GAS  /tmp/ccmg7hDC.s 			page 66


 2346 0146 1B       		.uleb128 0x1b
 2347 0147 01       		.uleb128 0x1
 2348 0148 01       		.byte	0x1
 2349 0149 49       		.uleb128 0x49
 2350 014a 13       		.uleb128 0x13
 2351 014b 01       		.uleb128 0x1
 2352 014c 13       		.uleb128 0x13
 2353 014d 00       		.byte	0
 2354 014e 00       		.byte	0
 2355 014f 1C       		.uleb128 0x1c
 2356 0150 21       		.uleb128 0x21
 2357 0151 00       		.byte	0
 2358 0152 49       		.uleb128 0x49
 2359 0153 13       		.uleb128 0x13
 2360 0154 2F       		.uleb128 0x2f
 2361 0155 0B       		.uleb128 0xb
 2362 0156 00       		.byte	0
 2363 0157 00       		.byte	0
 2364 0158 1D       		.uleb128 0x1d
 2365 0159 2E       		.uleb128 0x2e
 2366 015a 01       		.byte	0x1
 2367 015b 3F       		.uleb128 0x3f
 2368 015c 19       		.uleb128 0x19
 2369 015d 03       		.uleb128 0x3
 2370 015e 0E       		.uleb128 0xe
 2371 015f 3A       		.uleb128 0x3a
 2372 0160 0B       		.uleb128 0xb
 2373 0161 3B       		.uleb128 0x3b
 2374 0162 0B       		.uleb128 0xb
 2375 0163 27       		.uleb128 0x27
 2376 0164 19       		.uleb128 0x19
 2377 0165 49       		.uleb128 0x49
 2378 0166 13       		.uleb128 0x13
 2379 0167 11       		.uleb128 0x11
 2380 0168 01       		.uleb128 0x1
 2381 0169 12       		.uleb128 0x12
 2382 016a 06       		.uleb128 0x6
 2383 016b 40       		.uleb128 0x40
 2384 016c 18       		.uleb128 0x18
 2385 016d 9742     		.uleb128 0x2117
 2386 016f 19       		.uleb128 0x19
 2387 0170 01       		.uleb128 0x1
 2388 0171 13       		.uleb128 0x13
 2389 0172 00       		.byte	0
 2390 0173 00       		.byte	0
 2391 0174 1E       		.uleb128 0x1e
 2392 0175 05       		.uleb128 0x5
 2393 0176 00       		.byte	0
 2394 0177 03       		.uleb128 0x3
 2395 0178 0E       		.uleb128 0xe
 2396 0179 3A       		.uleb128 0x3a
 2397 017a 0B       		.uleb128 0xb
 2398 017b 3B       		.uleb128 0x3b
 2399 017c 0B       		.uleb128 0xb
 2400 017d 49       		.uleb128 0x49
 2401 017e 13       		.uleb128 0x13
 2402 017f 02       		.uleb128 0x2
ARM GAS  /tmp/ccmg7hDC.s 			page 67


 2403 0180 17       		.uleb128 0x17
 2404 0181 00       		.byte	0
 2405 0182 00       		.byte	0
 2406 0183 1F       		.uleb128 0x1f
 2407 0184 05       		.uleb128 0x5
 2408 0185 00       		.byte	0
 2409 0186 03       		.uleb128 0x3
 2410 0187 08       		.uleb128 0x8
 2411 0188 3A       		.uleb128 0x3a
 2412 0189 0B       		.uleb128 0xb
 2413 018a 3B       		.uleb128 0x3b
 2414 018b 0B       		.uleb128 0xb
 2415 018c 49       		.uleb128 0x49
 2416 018d 13       		.uleb128 0x13
 2417 018e 02       		.uleb128 0x2
 2418 018f 18       		.uleb128 0x18
 2419 0190 00       		.byte	0
 2420 0191 00       		.byte	0
 2421 0192 20       		.uleb128 0x20
 2422 0193 34       		.uleb128 0x34
 2423 0194 00       		.byte	0
 2424 0195 03       		.uleb128 0x3
 2425 0196 08       		.uleb128 0x8
 2426 0197 3A       		.uleb128 0x3a
 2427 0198 0B       		.uleb128 0xb
 2428 0199 3B       		.uleb128 0x3b
 2429 019a 0B       		.uleb128 0xb
 2430 019b 49       		.uleb128 0x49
 2431 019c 13       		.uleb128 0x13
 2432 019d 02       		.uleb128 0x2
 2433 019e 17       		.uleb128 0x17
 2434 019f 00       		.byte	0
 2435 01a0 00       		.byte	0
 2436 01a1 21       		.uleb128 0x21
 2437 01a2 34       		.uleb128 0x34
 2438 01a3 00       		.byte	0
 2439 01a4 03       		.uleb128 0x3
 2440 01a5 08       		.uleb128 0x8
 2441 01a6 3A       		.uleb128 0x3a
 2442 01a7 0B       		.uleb128 0xb
 2443 01a8 3B       		.uleb128 0x3b
 2444 01a9 0B       		.uleb128 0xb
 2445 01aa 49       		.uleb128 0x49
 2446 01ab 13       		.uleb128 0x13
 2447 01ac 02       		.uleb128 0x2
 2448 01ad 18       		.uleb128 0x18
 2449 01ae 00       		.byte	0
 2450 01af 00       		.byte	0
 2451 01b0 22       		.uleb128 0x22
 2452 01b1 1D       		.uleb128 0x1d
 2453 01b2 01       		.byte	0x1
 2454 01b3 31       		.uleb128 0x31
 2455 01b4 13       		.uleb128 0x13
 2456 01b5 11       		.uleb128 0x11
 2457 01b6 01       		.uleb128 0x1
 2458 01b7 12       		.uleb128 0x12
 2459 01b8 06       		.uleb128 0x6
ARM GAS  /tmp/ccmg7hDC.s 			page 68


 2460 01b9 58       		.uleb128 0x58
 2461 01ba 0B       		.uleb128 0xb
 2462 01bb 59       		.uleb128 0x59
 2463 01bc 0B       		.uleb128 0xb
 2464 01bd 01       		.uleb128 0x1
 2465 01be 13       		.uleb128 0x13
 2466 01bf 00       		.byte	0
 2467 01c0 00       		.byte	0
 2468 01c1 23       		.uleb128 0x23
 2469 01c2 1D       		.uleb128 0x1d
 2470 01c3 01       		.byte	0x1
 2471 01c4 31       		.uleb128 0x31
 2472 01c5 13       		.uleb128 0x13
 2473 01c6 11       		.uleb128 0x11
 2474 01c7 01       		.uleb128 0x1
 2475 01c8 12       		.uleb128 0x12
 2476 01c9 06       		.uleb128 0x6
 2477 01ca 58       		.uleb128 0x58
 2478 01cb 0B       		.uleb128 0xb
 2479 01cc 59       		.uleb128 0x59
 2480 01cd 05       		.uleb128 0x5
 2481 01ce 00       		.byte	0
 2482 01cf 00       		.byte	0
 2483 01d0 24       		.uleb128 0x24
 2484 01d1 05       		.uleb128 0x5
 2485 01d2 00       		.byte	0
 2486 01d3 31       		.uleb128 0x31
 2487 01d4 13       		.uleb128 0x13
 2488 01d5 02       		.uleb128 0x2
 2489 01d6 17       		.uleb128 0x17
 2490 01d7 00       		.byte	0
 2491 01d8 00       		.byte	0
 2492 01d9 25       		.uleb128 0x25
 2493 01da 0B       		.uleb128 0xb
 2494 01db 01       		.byte	0x1
 2495 01dc 11       		.uleb128 0x11
 2496 01dd 01       		.uleb128 0x1
 2497 01de 12       		.uleb128 0x12
 2498 01df 06       		.uleb128 0x6
 2499 01e0 00       		.byte	0
 2500 01e1 00       		.byte	0
 2501 01e2 26       		.uleb128 0x26
 2502 01e3 34       		.uleb128 0x34
 2503 01e4 00       		.byte	0
 2504 01e5 31       		.uleb128 0x31
 2505 01e6 13       		.uleb128 0x13
 2506 01e7 00       		.byte	0
 2507 01e8 00       		.byte	0
 2508 01e9 27       		.uleb128 0x27
 2509 01ea 898201   		.uleb128 0x4109
 2510 01ed 01       		.byte	0x1
 2511 01ee 11       		.uleb128 0x11
 2512 01ef 01       		.uleb128 0x1
 2513 01f0 31       		.uleb128 0x31
 2514 01f1 13       		.uleb128 0x13
 2515 01f2 01       		.uleb128 0x1
 2516 01f3 13       		.uleb128 0x13
ARM GAS  /tmp/ccmg7hDC.s 			page 69


 2517 01f4 00       		.byte	0
 2518 01f5 00       		.byte	0
 2519 01f6 28       		.uleb128 0x28
 2520 01f7 8A8201   		.uleb128 0x410a
 2521 01fa 00       		.byte	0
 2522 01fb 02       		.uleb128 0x2
 2523 01fc 18       		.uleb128 0x18
 2524 01fd 9142     		.uleb128 0x2111
 2525 01ff 18       		.uleb128 0x18
 2526 0200 00       		.byte	0
 2527 0201 00       		.byte	0
 2528 0202 29       		.uleb128 0x29
 2529 0203 898201   		.uleb128 0x4109
 2530 0206 01       		.byte	0x1
 2531 0207 11       		.uleb128 0x11
 2532 0208 01       		.uleb128 0x1
 2533 0209 31       		.uleb128 0x31
 2534 020a 13       		.uleb128 0x13
 2535 020b 00       		.byte	0
 2536 020c 00       		.byte	0
 2537 020d 2A       		.uleb128 0x2a
 2538 020e 05       		.uleb128 0x5
 2539 020f 00       		.byte	0
 2540 0210 03       		.uleb128 0x3
 2541 0211 08       		.uleb128 0x8
 2542 0212 3A       		.uleb128 0x3a
 2543 0213 0B       		.uleb128 0xb
 2544 0214 3B       		.uleb128 0x3b
 2545 0215 0B       		.uleb128 0xb
 2546 0216 49       		.uleb128 0x49
 2547 0217 13       		.uleb128 0x13
 2548 0218 02       		.uleb128 0x2
 2549 0219 17       		.uleb128 0x17
 2550 021a 00       		.byte	0
 2551 021b 00       		.byte	0
 2552 021c 2B       		.uleb128 0x2b
 2553 021d 34       		.uleb128 0x34
 2554 021e 00       		.byte	0
 2555 021f 03       		.uleb128 0x3
 2556 0220 0E       		.uleb128 0xe
 2557 0221 49       		.uleb128 0x49
 2558 0222 13       		.uleb128 0x13
 2559 0223 34       		.uleb128 0x34
 2560 0224 19       		.uleb128 0x19
 2561 0225 00       		.byte	0
 2562 0226 00       		.byte	0
 2563 0227 2C       		.uleb128 0x2c
 2564 0228 34       		.uleb128 0x34
 2565 0229 00       		.byte	0
 2566 022a 03       		.uleb128 0x3
 2567 022b 0E       		.uleb128 0xe
 2568 022c 3A       		.uleb128 0x3a
 2569 022d 0B       		.uleb128 0xb
 2570 022e 3B       		.uleb128 0x3b
 2571 022f 05       		.uleb128 0x5
 2572 0230 49       		.uleb128 0x49
 2573 0231 13       		.uleb128 0x13
ARM GAS  /tmp/ccmg7hDC.s 			page 70


 2574 0232 3F       		.uleb128 0x3f
 2575 0233 19       		.uleb128 0x19
 2576 0234 3C       		.uleb128 0x3c
 2577 0235 19       		.uleb128 0x19
 2578 0236 00       		.byte	0
 2579 0237 00       		.byte	0
 2580 0238 2D       		.uleb128 0x2d
 2581 0239 34       		.uleb128 0x34
 2582 023a 00       		.byte	0
 2583 023b 03       		.uleb128 0x3
 2584 023c 08       		.uleb128 0x8
 2585 023d 3A       		.uleb128 0x3a
 2586 023e 0B       		.uleb128 0xb
 2587 023f 3B       		.uleb128 0x3b
 2588 0240 05       		.uleb128 0x5
 2589 0241 49       		.uleb128 0x49
 2590 0242 13       		.uleb128 0x13
 2591 0243 3F       		.uleb128 0x3f
 2592 0244 19       		.uleb128 0x19
 2593 0245 3C       		.uleb128 0x3c
 2594 0246 19       		.uleb128 0x19
 2595 0247 00       		.byte	0
 2596 0248 00       		.byte	0
 2597 0249 2E       		.uleb128 0x2e
 2598 024a 2E       		.uleb128 0x2e
 2599 024b 01       		.byte	0x1
 2600 024c 3F       		.uleb128 0x3f
 2601 024d 19       		.uleb128 0x19
 2602 024e 03       		.uleb128 0x3
 2603 024f 0E       		.uleb128 0xe
 2604 0250 3A       		.uleb128 0x3a
 2605 0251 0B       		.uleb128 0xb
 2606 0252 3B       		.uleb128 0x3b
 2607 0253 0B       		.uleb128 0xb
 2608 0254 27       		.uleb128 0x27
 2609 0255 19       		.uleb128 0x19
 2610 0256 49       		.uleb128 0x49
 2611 0257 13       		.uleb128 0x13
 2612 0258 3C       		.uleb128 0x3c
 2613 0259 19       		.uleb128 0x19
 2614 025a 01       		.uleb128 0x1
 2615 025b 13       		.uleb128 0x13
 2616 025c 00       		.byte	0
 2617 025d 00       		.byte	0
 2618 025e 2F       		.uleb128 0x2f
 2619 025f 2E       		.uleb128 0x2e
 2620 0260 01       		.byte	0x1
 2621 0261 3F       		.uleb128 0x3f
 2622 0262 19       		.uleb128 0x19
 2623 0263 03       		.uleb128 0x3
 2624 0264 0E       		.uleb128 0xe
 2625 0265 3A       		.uleb128 0x3a
 2626 0266 0B       		.uleb128 0xb
 2627 0267 3B       		.uleb128 0x3b
 2628 0268 05       		.uleb128 0x5
 2629 0269 27       		.uleb128 0x27
 2630 026a 19       		.uleb128 0x19
ARM GAS  /tmp/ccmg7hDC.s 			page 71


 2631 026b 3C       		.uleb128 0x3c
 2632 026c 19       		.uleb128 0x19
 2633 026d 01       		.uleb128 0x1
 2634 026e 13       		.uleb128 0x13
 2635 026f 00       		.byte	0
 2636 0270 00       		.byte	0
 2637 0271 30       		.uleb128 0x30
 2638 0272 2E       		.uleb128 0x2e
 2639 0273 01       		.byte	0x1
 2640 0274 3F       		.uleb128 0x3f
 2641 0275 19       		.uleb128 0x19
 2642 0276 03       		.uleb128 0x3
 2643 0277 0E       		.uleb128 0xe
 2644 0278 3A       		.uleb128 0x3a
 2645 0279 0B       		.uleb128 0xb
 2646 027a 3B       		.uleb128 0x3b
 2647 027b 0B       		.uleb128 0xb
 2648 027c 27       		.uleb128 0x27
 2649 027d 19       		.uleb128 0x19
 2650 027e 49       		.uleb128 0x49
 2651 027f 13       		.uleb128 0x13
 2652 0280 3C       		.uleb128 0x3c
 2653 0281 19       		.uleb128 0x19
 2654 0282 00       		.byte	0
 2655 0283 00       		.byte	0
 2656 0284 00       		.byte	0
 2657              		.section	.debug_loc,"",%progbits
 2658              	.Ldebug_loc0:
 2659              	.LLST0:
 2660 0000 00000000 		.4byte	.LVL0
 2661 0004 0F000000 		.4byte	.LVL2-1
 2662 0008 0100     		.2byte	0x1
 2663 000a 50       		.byte	0x50
 2664 000b 0F000000 		.4byte	.LVL2-1
 2665 000f 4A000000 		.4byte	.LFE188
 2666 0013 0400     		.2byte	0x4
 2667 0015 F3       		.byte	0xf3
 2668 0016 01       		.uleb128 0x1
 2669 0017 50       		.byte	0x50
 2670 0018 9F       		.byte	0x9f
 2671 0019 00000000 		.4byte	0
 2672 001d 00000000 		.4byte	0
 2673              	.LLST1:
 2674 0021 00000000 		.4byte	.LVL0
 2675 0025 0F000000 		.4byte	.LVL2-1
 2676 0029 0100     		.2byte	0x1
 2677 002b 51       		.byte	0x51
 2678 002c 0F000000 		.4byte	.LVL2-1
 2679 0030 16000000 		.4byte	.LVL3
 2680 0034 0100     		.2byte	0x1
 2681 0036 55       		.byte	0x55
 2682 0037 16000000 		.4byte	.LVL3
 2683 003b 4A000000 		.4byte	.LFE188
 2684 003f 0400     		.2byte	0x4
 2685 0041 F3       		.byte	0xf3
 2686 0042 01       		.uleb128 0x1
 2687 0043 51       		.byte	0x51
ARM GAS  /tmp/ccmg7hDC.s 			page 72


 2688 0044 9F       		.byte	0x9f
 2689 0045 00000000 		.4byte	0
 2690 0049 00000000 		.4byte	0
 2691              	.LLST2:
 2692 004d 00000000 		.4byte	.LVL0
 2693 0051 08000000 		.4byte	.LVL1
 2694 0055 0100     		.2byte	0x1
 2695 0057 52       		.byte	0x52
 2696 0058 08000000 		.4byte	.LVL1
 2697 005c 3A000000 		.4byte	.LVL7
 2698 0060 0100     		.2byte	0x1
 2699 0062 54       		.byte	0x54
 2700 0063 3A000000 		.4byte	.LVL7
 2701 0067 4A000000 		.4byte	.LFE188
 2702 006b 0400     		.2byte	0x4
 2703 006d F3       		.byte	0xf3
 2704 006e 01       		.uleb128 0x1
 2705 006f 52       		.byte	0x52
 2706 0070 9F       		.byte	0x9f
 2707 0071 00000000 		.4byte	0
 2708 0075 00000000 		.4byte	0
 2709              	.LLST3:
 2710 0079 00000000 		.4byte	.LVL0
 2711 007d 0F000000 		.4byte	.LVL2-1
 2712 0081 0100     		.2byte	0x1
 2713 0083 53       		.byte	0x53
 2714 0084 0F000000 		.4byte	.LVL2-1
 2715 0088 4A000000 		.4byte	.LFE188
 2716 008c 0100     		.2byte	0x1
 2717 008e 56       		.byte	0x56
 2718 008f 00000000 		.4byte	0
 2719 0093 00000000 		.4byte	0
 2720              	.LLST4:
 2721 0097 3A000000 		.4byte	.LVL7
 2722 009b 3D000000 		.4byte	.LVL8-1
 2723 009f 0100     		.2byte	0x1
 2724 00a1 50       		.byte	0x50
 2725 00a2 3D000000 		.4byte	.LVL8-1
 2726 00a6 46000000 		.4byte	.LVL9
 2727 00aa 0100     		.2byte	0x1
 2728 00ac 54       		.byte	0x54
 2729 00ad 00000000 		.4byte	0
 2730 00b1 00000000 		.4byte	0
 2731              	.LLST5:
 2732 00b5 10000000 		.4byte	.LVL2
 2733 00b9 2C000000 		.4byte	.LVL5
 2734 00bd 0100     		.2byte	0x1
 2735 00bf 50       		.byte	0x50
 2736 00c0 2C000000 		.4byte	.LVL5
 2737 00c4 2F000000 		.4byte	.LVL6-1
 2738 00c8 0200     		.2byte	0x2
 2739 00ca 91       		.byte	0x91
 2740 00cb 5C       		.sleb128 -36
 2741 00cc 00000000 		.4byte	0
 2742 00d0 00000000 		.4byte	0
 2743              	.LLST6:
 2744 00d4 1E000000 		.4byte	.LVL4
ARM GAS  /tmp/ccmg7hDC.s 			page 73


 2745 00d8 46000000 		.4byte	.LVL9
 2746 00dc 0300     		.2byte	0x3
 2747 00de 08       		.byte	0x8
 2748 00df 20       		.byte	0x20
 2749 00e0 9F       		.byte	0x9f
 2750 00e1 00000000 		.4byte	0
 2751 00e5 00000000 		.4byte	0
 2752              	.LLST7:
 2753 00e9 3E000000 		.4byte	.LVL8
 2754 00ed 46000000 		.4byte	.LVL9
 2755 00f1 0200     		.2byte	0x2
 2756 00f3 30       		.byte	0x30
 2757 00f4 9F       		.byte	0x9f
 2758 00f5 00000000 		.4byte	0
 2759 00f9 00000000 		.4byte	0
 2760              	.LLST8:
 2761 00fd 00000000 		.4byte	.LVL10
 2762 0101 0F000000 		.4byte	.LVL11-1
 2763 0105 0100     		.2byte	0x1
 2764 0107 50       		.byte	0x50
 2765 0108 0F000000 		.4byte	.LVL11-1
 2766 010c 4C000000 		.4byte	.LFE189
 2767 0110 0100     		.2byte	0x1
 2768 0112 55       		.byte	0x55
 2769 0113 00000000 		.4byte	0
 2770 0117 00000000 		.4byte	0
 2771              	.LLST9:
 2772 011b 00000000 		.4byte	.LVL10
 2773 011f 0F000000 		.4byte	.LVL11-1
 2774 0123 0100     		.2byte	0x1
 2775 0125 51       		.byte	0x51
 2776 0126 0F000000 		.4byte	.LVL11-1
 2777 012a 4C000000 		.4byte	.LFE189
 2778 012e 0100     		.2byte	0x1
 2779 0130 57       		.byte	0x57
 2780 0131 00000000 		.4byte	0
 2781 0135 00000000 		.4byte	0
 2782              	.LLST10:
 2783 0139 00000000 		.4byte	.LVL10
 2784 013d 0F000000 		.4byte	.LVL11-1
 2785 0141 0100     		.2byte	0x1
 2786 0143 52       		.byte	0x52
 2787 0144 0F000000 		.4byte	.LVL11-1
 2788 0148 4C000000 		.4byte	.LFE189
 2789 014c 0100     		.2byte	0x1
 2790 014e 56       		.byte	0x56
 2791 014f 00000000 		.4byte	0
 2792 0153 00000000 		.4byte	0
 2793              	.LLST11:
 2794 0157 00000000 		.4byte	.LVL10
 2795 015b 0F000000 		.4byte	.LVL11-1
 2796 015f 0100     		.2byte	0x1
 2797 0161 53       		.byte	0x53
 2798 0162 0F000000 		.4byte	.LVL11-1
 2799 0166 3C000000 		.4byte	.LVL15
 2800 016a 0100     		.2byte	0x1
 2801 016c 54       		.byte	0x54
ARM GAS  /tmp/ccmg7hDC.s 			page 74


 2802 016d 3C000000 		.4byte	.LVL15
 2803 0171 4C000000 		.4byte	.LFE189
 2804 0175 0400     		.2byte	0x4
 2805 0177 F3       		.byte	0xf3
 2806 0178 01       		.uleb128 0x1
 2807 0179 53       		.byte	0x53
 2808 017a 9F       		.byte	0x9f
 2809 017b 00000000 		.4byte	0
 2810 017f 00000000 		.4byte	0
 2811              	.LLST12:
 2812 0183 3C000000 		.4byte	.LVL15
 2813 0187 3F000000 		.4byte	.LVL16-1
 2814 018b 0100     		.2byte	0x1
 2815 018d 50       		.byte	0x50
 2816 018e 3F000000 		.4byte	.LVL16-1
 2817 0192 48000000 		.4byte	.LVL17
 2818 0196 0100     		.2byte	0x1
 2819 0198 54       		.byte	0x54
 2820 0199 00000000 		.4byte	0
 2821 019d 00000000 		.4byte	0
 2822              	.LLST13:
 2823 01a1 10000000 		.4byte	.LVL11
 2824 01a5 2C000000 		.4byte	.LVL13
 2825 01a9 0100     		.2byte	0x1
 2826 01ab 50       		.byte	0x50
 2827 01ac 2C000000 		.4byte	.LVL13
 2828 01b0 2F000000 		.4byte	.LVL14-1
 2829 01b4 0200     		.2byte	0x2
 2830 01b6 91       		.byte	0x91
 2831 01b7 54       		.sleb128 -44
 2832 01b8 00000000 		.4byte	0
 2833 01bc 00000000 		.4byte	0
 2834              	.LLST14:
 2835 01c0 24000000 		.4byte	.LVL12
 2836 01c4 48000000 		.4byte	.LVL17
 2837 01c8 0300     		.2byte	0x3
 2838 01ca 08       		.byte	0x8
 2839 01cb 20       		.byte	0x20
 2840 01cc 9F       		.byte	0x9f
 2841 01cd 00000000 		.4byte	0
 2842 01d1 00000000 		.4byte	0
 2843              	.LLST15:
 2844 01d5 40000000 		.4byte	.LVL16
 2845 01d9 48000000 		.4byte	.LVL17
 2846 01dd 0200     		.2byte	0x2
 2847 01df 30       		.byte	0x30
 2848 01e0 9F       		.byte	0x9f
 2849 01e1 00000000 		.4byte	0
 2850 01e5 00000000 		.4byte	0
 2851              		.section	.debug_aranges,"",%progbits
 2852 0000 24000000 		.4byte	0x24
 2853 0004 0200     		.2byte	0x2
 2854 0006 00000000 		.4byte	.Ldebug_info0
 2855 000a 04       		.byte	0x4
 2856 000b 00       		.byte	0
 2857 000c 0000     		.2byte	0
 2858 000e 0000     		.2byte	0
ARM GAS  /tmp/ccmg7hDC.s 			page 75


 2859 0010 00000000 		.4byte	.LFB188
 2860 0014 4A000000 		.4byte	.LFE188-.LFB188
 2861 0018 00000000 		.4byte	.LFB189
 2862 001c 4C000000 		.4byte	.LFE189-.LFB189
 2863 0020 00000000 		.4byte	0
 2864 0024 00000000 		.4byte	0
 2865              		.section	.debug_ranges,"",%progbits
 2866              	.Ldebug_ranges0:
 2867 0000 00000000 		.4byte	.LFB188
 2868 0004 4A000000 		.4byte	.LFE188
 2869 0008 00000000 		.4byte	.LFB189
 2870 000c 4C000000 		.4byte	.LFE189
 2871 0010 00000000 		.4byte	0
 2872 0014 00000000 		.4byte	0
 2873              		.section	.debug_line,"",%progbits
 2874              	.Ldebug_line0:
 2875 0000 C6020000 		.section	.debug_str,"MS",%progbits,1
 2875      02005702 
 2875      00000201 
 2875      FB0E0D00 
 2875      01010101 
 2876              	.LASF42:
 2877 0000 63685F74 		.ascii	"ch_threads_list\000"
 2877      68726561 
 2877      64735F6C 
 2877      69737400 
 2878              	.LASF77:
 2879 0010 77746D74 		.ascii	"wtmtxp\000"
 2879      787000
 2880              	.LASF105:
 2881 0017 6D656D6F 		.ascii	"memory_pool_t\000"
 2881      72795F70 
 2881      6F6F6C5F 
 2881      7400
 2882              	.LASF84:
 2883 0025 77626173 		.ascii	"wbase\000"
 2883      6500
 2884              	.LASF67:
 2885 002b 72656761 		.ascii	"regarm_t\000"
 2885      726D5F74 
 2885      00
 2886              	.LASF31:
 2887 0034 666C6167 		.ascii	"flags\000"
 2887      7300
 2888              	.LASF22:
 2889 003a 73797374 		.ascii	"systime_t\000"
 2889      696D655F 
 2889      7400
 2890              	.LASF37:
 2891 0044 7265616C 		.ascii	"realprio\000"
 2891      7072696F 
 2891      00
 2892              	.LASF35:
 2893 004d 6570656E 		.ascii	"epending\000"
 2893      64696E67 
 2893      00
 2894              	.LASF0:
ARM GAS  /tmp/ccmg7hDC.s 			page 76


 2895 0056 756E7369 		.ascii	"unsigned int\000"
 2895      676E6564 
 2895      20696E74 
 2895      00
 2896              	.LASF43:
 2897 0063 6E657874 		.ascii	"next\000"
 2897      00
 2898              	.LASF40:
 2899 0068 74687265 		.ascii	"threads_list_t\000"
 2899      6164735F 
 2899      6C697374 
 2899      5F7400
 2900              	.LASF32:
 2901 0077 72656673 		.ascii	"refs\000"
 2901      00
 2902              	.LASF101:
 2903 007c 68656170 		.ascii	"heap\000"
 2903      00
 2904              	.LASF121:
 2905 0081 2F686F6D 		.ascii	"/home/julian/MEGA/semestre_ix/Crasby/ChibiOS_17.6.2"
 2905      652F6A75 
 2905      6C69616E 
 2905      2F4D4547 
 2905      412F7365 
 2906 00b4 2F64656D 		.ascii	"/demos/STM32/RT3-STM32F100-DISCOVERY\000"
 2906      6F732F53 
 2906      544D3332 
 2906      2F525433 
 2906      2D53544D 
 2907              	.LASF73:
 2908 00d9 77746F62 		.ascii	"wtobjp\000"
 2908      6A7000
 2909              	.LASF106:
 2910 00e0 706F7274 		.ascii	"port_lock\000"
 2910      5F6C6F63 
 2910      6B00
 2911              	.LASF64:
 2912 00ea 76746C69 		.ascii	"vtlist\000"
 2912      737400
 2913              	.LASF69:
 2914 00f1 706F7274 		.ascii	"port_context\000"
 2914      5F636F6E 
 2914      74657874 
 2914      00
 2915              	.LASF48:
 2916 00fe 63685F72 		.ascii	"ch_ready_list\000"
 2916      65616479 
 2916      5F6C6973 
 2916      7400
 2917              	.LASF54:
 2918 010c 66756E63 		.ascii	"func\000"
 2918      00
 2919              	.LASF78:
 2920 0111 65776D61 		.ascii	"ewmask\000"
 2920      736B00
 2921              	.LASF46:
 2922 0118 70726576 		.ascii	"prev\000"
ARM GAS  /tmp/ccmg7hDC.s 			page 77


 2922      00
 2923              	.LASF45:
 2924 011d 63685F74 		.ascii	"ch_threads_queue\000"
 2924      68726561 
 2924      64735F71 
 2924      75657565 
 2924      00
 2925              	.LASF50:
 2926 012e 76746675 		.ascii	"vtfunc_t\000"
 2926      6E635F74 
 2926      00
 2927              	.LASF59:
 2928 0137 63685F73 		.ascii	"ch_system_debug\000"
 2928      79737465 
 2928      6D5F6465 
 2928      62756700 
 2929              	.LASF10:
 2930 0147 75696E74 		.ascii	"uint32_t\000"
 2930      33325F74 
 2930      00
 2931              	.LASF75:
 2932 0150 73656E74 		.ascii	"sentmsg\000"
 2932      6D736700 
 2933              	.LASF20:
 2934 0158 6576656E 		.ascii	"eventmask_t\000"
 2934      746D6173 
 2934      6B5F7400 
 2935              	.LASF87:
 2936 0164 74687265 		.ascii	"thread_descriptor_t\000"
 2936      61645F64 
 2936      65736372 
 2936      6970746F 
 2936      725F7400 
 2937              	.LASF79:
 2938 0178 63685F73 		.ascii	"ch_semaphore\000"
 2938      656D6170 
 2938      686F7265 
 2938      00
 2939              	.LASF18:
 2940 0185 74707269 		.ascii	"tprio_t\000"
 2940      6F5F7400 
 2941              	.LASF52:
 2942 018d 63685F76 		.ascii	"ch_virtual_timer\000"
 2942      69727475 
 2942      616C5F74 
 2942      696D6572 
 2942      00
 2943              	.LASF83:
 2944 019e 7466756E 		.ascii	"tfunc_t\000"
 2944      635F7400 
 2945              	.LASF14:
 2946 01a6 6C6F6E67 		.ascii	"long long unsigned int\000"
 2946      206C6F6E 
 2946      6720756E 
 2946      7369676E 
 2946      65642069 
 2947              	.LASF21:
ARM GAS  /tmp/ccmg7hDC.s 			page 78


 2948 01bd 636E745F 		.ascii	"cnt_t\000"
 2948      7400
 2949              	.LASF125:
 2950 01c3 5F5F6675 		.ascii	"__func__.5923\000"
 2950      6E635F5F 
 2950      2E353932 
 2950      3300
 2951              	.LASF110:
 2952 01d1 63685379 		.ascii	"chSysUnlock\000"
 2952      73556E6C 
 2952      6F636B00 
 2953              	.LASF81:
 2954 01dd 6F776E65 		.ascii	"owner\000"
 2954      7200
 2955              	.LASF44:
 2956 01e3 74687265 		.ascii	"threads_queue_t\000"
 2956      6164735F 
 2956      71756575 
 2956      655F7400 
 2957              	.LASF123:
 2958 01f3 76616C75 		.ascii	"value\000"
 2958      6500
 2959              	.LASF36:
 2960 01f9 6D74786C 		.ascii	"mtxlist\000"
 2960      69737400 
 2961              	.LASF56:
 2962 0201 63685F76 		.ascii	"ch_virtual_timers_list\000"
 2962      69727475 
 2962      616C5F74 
 2962      696D6572 
 2962      735F6C69 
 2963              	.LASF99:
 2964 0218 75736564 		.ascii	"used\000"
 2964      00
 2965              	.LASF23:
 2966 021d 74687265 		.ascii	"thread_t\000"
 2966      61645F74 
 2966      00
 2967              	.LASF122:
 2968 0226 68656170 		.ascii	"heap_header\000"
 2968      5F686561 
 2968      64657200 
 2969              	.LASF2:
 2970 0232 73697A65 		.ascii	"size_t\000"
 2970      5F7400
 2971              	.LASF71:
 2972 0239 7264796D 		.ascii	"rdymsg\000"
 2972      736700
 2973              	.LASF104:
 2974 0240 6F626A65 		.ascii	"object_size\000"
 2974      63745F73 
 2974      697A6500 
 2975              	.LASF89:
 2976 024c 5F426F6F 		.ascii	"_Bool\000"
 2976      6C00
 2977              	.LASF80:
 2978 0252 63685F6D 		.ascii	"ch_mutex\000"
ARM GAS  /tmp/ccmg7hDC.s 			page 79


 2978      75746578 
 2978      00
 2979              	.LASF98:
 2980 025b 66726565 		.ascii	"free\000"
 2980      00
 2981              	.LASF119:
 2982 0260 474E5520 		.ascii	"GNU C 4.8.1 -mcpu=cortex-m3 -mno-thumb-interwork -m"
 2982      4320342E 
 2982      382E3120 
 2982      2D6D6370 
 2982      753D636F 
 2983 0293 7468756D 		.ascii	"thumb -ggdb -O2 -fomit-frame-pointer -falign-functi"
 2983      62202D67 
 2983      67646220 
 2983      2D4F3220 
 2983      2D666F6D 
 2984 02c6 6F6E733D 		.ascii	"ons=16 -ffunction-sections -fdata-sections -fno-com"
 2984      3136202D 
 2984      6666756E 
 2984      6374696F 
 2984      6E2D7365 
 2985 02f9 6D6F6E20 		.ascii	"mon -flto\000"
 2985      2D666C74 
 2985      6F00
 2986              	.LASF108:
 2987 0303 63685379 		.ascii	"chSysLock\000"
 2987      734C6F63 
 2987      6B00
 2988              	.LASF25:
 2989 030d 7072696F 		.ascii	"prio\000"
 2989      00
 2990              	.LASF82:
 2991 0312 63686172 		.ascii	"char\000"
 2991      00
 2992              	.LASF39:
 2993 0317 74687265 		.ascii	"thread_reference_t\000"
 2993      61645F72 
 2993      65666572 
 2993      656E6365 
 2993      5F7400
 2994              	.LASF29:
 2995 032a 77616261 		.ascii	"wabase\000"
 2995      736500
 2996              	.LASF113:
 2997 0331 63685468 		.ascii	"chThdCreateFromMemoryPool\000"
 2997      64437265 
 2997      61746546 
 2997      726F6D4D 
 2997      656D6F72 
 2998              	.LASF124:
 2999 034b 5F5F6675 		.ascii	"__func__.5178\000"
 2999      6E635F5F 
 2999      2E353137 
 2999      3800
 3000              	.LASF16:
 3001 0359 74737461 		.ascii	"tstate_t\000"
 3001      74655F74 
ARM GAS  /tmp/ccmg7hDC.s 			page 80


 3001      00
 3002              	.LASF3:
 3003 0362 75696E74 		.ascii	"uint8_t\000"
 3003      385F7400 
 3004              	.LASF34:
 3005 036a 6D736771 		.ascii	"msgqueue\000"
 3005      75657565 
 3005      00
 3006              	.LASF41:
 3007 0373 63685F74 		.ascii	"ch_thread\000"
 3007      68726561 
 3007      6400
 3008              	.LASF100:
 3009 037d 70616765 		.ascii	"pages\000"
 3009      7300
 3010              	.LASF120:
 3011 0383 2E2E2F2E 		.ascii	"../../../os/rt/src/chdynamic.c\000"
 3011      2E2F2E2E 
 3011      2F6F732F 
 3011      72742F73 
 3011      72632F63 
 3012              	.LASF58:
 3013 03a2 73797374 		.ascii	"system_debug_t\000"
 3013      656D5F64 
 3013      65627567 
 3013      5F7400
 3014              	.LASF85:
 3015 03b1 77656E64 		.ascii	"wend\000"
 3015      00
 3016              	.LASF12:
 3017 03b6 6C6F6E67 		.ascii	"long long int\000"
 3017      206C6F6E 
 3017      6720696E 
 3017      7400
 3018              	.LASF19:
 3019 03c4 6D73675F 		.ascii	"msg_t\000"
 3019      7400
 3020              	.LASF51:
 3021 03ca 76697274 		.ascii	"virtual_timer_t\000"
 3021      75616C5F 
 3021      74696D65 
 3021      725F7400 
 3022              	.LASF102:
 3023 03da 73697A65 		.ascii	"size\000"
 3023      00
 3024              	.LASF95:
 3025 03df 68656164 		.ascii	"header\000"
 3025      657200
 3026              	.LASF92:
 3027 03e6 6D656D6F 		.ascii	"memory_heap_t\000"
 3027      72795F68 
 3027      6561705F 
 3027      7400
 3028              	.LASF116:
 3029 03f4 63685468 		.ascii	"chThdCreateSuspendedI\000"
 3029      64437265 
 3029      61746553 
ARM GAS  /tmp/ccmg7hDC.s 			page 81


 3029      75737065 
 3029      6E646564 
 3030              	.LASF60:
 3031 040a 70616E69 		.ascii	"panic_msg\000"
 3031      635F6D73 
 3031      6700
 3032              	.LASF15:
 3033 0414 746D6F64 		.ascii	"tmode_t\000"
 3033      655F7400 
 3034              	.LASF65:
 3035 041c 6D61696E 		.ascii	"mainthread\000"
 3035      74687265 
 3035      616400
 3036              	.LASF6:
 3037 0427 75696E74 		.ascii	"uint16_t\000"
 3037      31365F74 
 3037      00
 3038              	.LASF115:
 3039 0430 63684865 		.ascii	"chHeapAllocAligned\000"
 3039      6170416C 
 3039      6C6F6341 
 3039      6C69676E 
 3039      656400
 3040              	.LASF5:
 3041 0443 73686F72 		.ascii	"short int\000"
 3041      7420696E 
 3041      7400
 3042              	.LASF93:
 3043 044d 6D656D6F 		.ascii	"memory_heap\000"
 3043      72795F68 
 3043      65617000 
 3044              	.LASF9:
 3045 0459 6C6F6E67 		.ascii	"long int\000"
 3045      20696E74 
 3045      00
 3046              	.LASF70:
 3047 0462 706F7274 		.ascii	"port_intctx\000"
 3047      5F696E74 
 3047      63747800 
 3048              	.LASF114:
 3049 046e 49544D5F 		.ascii	"ITM_RxBuffer\000"
 3049      52784275 
 3049      66666572 
 3049      00
 3050              	.LASF62:
 3051 047b 63685F73 		.ascii	"ch_system\000"
 3051      79737465 
 3051      6D00
 3052              	.LASF109:
 3053 0485 5F5F7365 		.ascii	"__set_BASEPRI\000"
 3053      745F4241 
 3053      53455052 
 3053      4900
 3054              	.LASF94:
 3055 0493 70726F76 		.ascii	"provider\000"
 3055      69646572 
 3055      00
ARM GAS  /tmp/ccmg7hDC.s 			page 82


 3056              	.LASF57:
 3057 049c 6C617374 		.ascii	"lasttime\000"
 3057      74696D65 
 3057      00
 3058              	.LASF13:
 3059 04a5 75696E74 		.ascii	"uint64_t\000"
 3059      36345F74 
 3059      00
 3060              	.LASF63:
 3061 04ae 726C6973 		.ascii	"rlist\000"
 3061      7400
 3062              	.LASF118:
 3063 04b4 6368506F 		.ascii	"chPoolAlloc\000"
 3063      6F6C416C 
 3063      6C6F6300 
 3064              	.LASF90:
 3065 04c0 6D656D67 		.ascii	"memgetfunc_t\000"
 3065      65746675 
 3065      6E635F74 
 3065      00
 3066              	.LASF28:
 3067 04cd 6E616D65 		.ascii	"name\000"
 3067      00
 3068              	.LASF66:
 3069 04d2 73697A65 		.ascii	"sizetype\000"
 3069      74797065 
 3069      00
 3070              	.LASF17:
 3071 04db 74726566 		.ascii	"trefs_t\000"
 3071      735F7400 
 3072              	.LASF11:
 3073 04e3 6C6F6E67 		.ascii	"long unsigned int\000"
 3073      20756E73 
 3073      69676E65 
 3073      6420696E 
 3073      7400
 3074              	.LASF47:
 3075 04f5 72656164 		.ascii	"ready_list_t\000"
 3075      795F6C69 
 3075      73745F74 
 3075      00
 3076              	.LASF24:
 3077 0502 71756575 		.ascii	"queue\000"
 3077      6500
 3078              	.LASF8:
 3079 0508 696E7433 		.ascii	"int32_t\000"
 3079      325F7400 
 3080              	.LASF76:
 3081 0510 77747365 		.ascii	"wtsemp\000"
 3081      6D7000
 3082              	.LASF112:
 3083 0517 63685468 		.ascii	"chThdCreateFromHeap\000"
 3083      64437265 
 3083      61746546 
 3083      726F6D48 
 3083      65617000 
 3084              	.LASF88:
ARM GAS  /tmp/ccmg7hDC.s 			page 83


 3085 052b 6D757465 		.ascii	"mutex_t\000"
 3085      785F7400 
 3086              	.LASF26:
 3087 0533 6E657765 		.ascii	"newer\000"
 3087      7200
 3088              	.LASF4:
 3089 0539 756E7369 		.ascii	"unsigned char\000"
 3089      676E6564 
 3089      20636861 
 3089      7200
 3090              	.LASF33:
 3091 0547 77616974 		.ascii	"waiting\000"
 3091      696E6700 
 3092              	.LASF86:
 3093 054f 66756E63 		.ascii	"funcp\000"
 3093      7000
 3094              	.LASF55:
 3095 0555 76697274 		.ascii	"virtual_timers_list_t\000"
 3095      75616C5F 
 3095      74696D65 
 3095      72735F6C 
 3095      6973745F 
 3096              	.LASF117:
 3097 056b 63685363 		.ascii	"chSchWakeupS\000"
 3097      6857616B 
 3097      65757053 
 3097      00
 3098              	.LASF30:
 3099 0578 73746174 		.ascii	"state\000"
 3099      6500
 3100              	.LASF103:
 3101 057e 706F6F6C 		.ascii	"pool_header\000"
 3101      5F686561 
 3101      64657200 
 3102              	.LASF61:
 3103 058a 63685F73 		.ascii	"ch_system_t\000"
 3103      79737465 
 3103      6D5F7400 
 3104              	.LASF74:
 3105 0596 77747472 		.ascii	"wttrp\000"
 3105      7000
 3106              	.LASF111:
 3107 059c 68656170 		.ascii	"heapp\000"
 3107      7000
 3108              	.LASF1:
 3109 05a2 7369676E 		.ascii	"signed char\000"
 3109      65642063 
 3109      68617200 
 3110              	.LASF53:
 3111 05ae 64656C74 		.ascii	"delta\000"
 3111      6100
 3112              	.LASF7:
 3113 05b4 73686F72 		.ascii	"short unsigned int\000"
 3113      7420756E 
 3113      7369676E 
 3113      65642069 
 3113      6E7400
ARM GAS  /tmp/ccmg7hDC.s 			page 84


 3114              	.LASF68:
 3115 05c7 73746B61 		.ascii	"stkalign_t\000"
 3115      6C69676E 
 3115      5F7400
 3116              	.LASF49:
 3117 05d2 63757272 		.ascii	"current\000"
 3117      656E7400 
 3118              	.LASF107:
 3119 05da 706F7274 		.ascii	"port_unlock\000"
 3119      5F756E6C 
 3119      6F636B00 
 3120              	.LASF91:
 3121 05e6 6D656D67 		.ascii	"memgetfunc2_t\000"
 3121      65746675 
 3121      6E63325F 
 3121      7400
 3122              	.LASF97:
 3123 05f4 616C6967 		.ascii	"align\000"
 3123      6E00
 3124              	.LASF27:
 3125 05fa 6F6C6465 		.ascii	"older\000"
 3125      7200
 3126              	.LASF72:
 3127 0600 65786974 		.ascii	"exitcode\000"
 3127      636F6465 
 3127      00
 3128              	.LASF96:
 3129 0609 68656170 		.ascii	"heap_header_t\000"
 3129      5F686561 
 3129      6465725F 
 3129      7400
 3130              	.LASF38:
 3131 0617 6D706F6F 		.ascii	"mpool\000"
 3131      6C00
 3132              		.comm	__gnu_lto_v1,1,1
 3133              		.ident	"GCC: (Sourcery CodeBench Lite 2013.11-24) 4.8.1"
ARM GAS  /tmp/ccmg7hDC.s 			page 85


DEFINED SYMBOLS
                            *ABS*:00000000 chdynamic.c
     /tmp/ccmg7hDC.s:405    .text.chThdCreateFromHeap:00000000 $t
     /tmp/ccmg7hDC.s:411    .text.chThdCreateFromHeap:00000000 chThdCreateFromHeap
     /tmp/ccmg7hDC.s:512    .text.chThdCreateFromMemoryPool:00000000 $t
     /tmp/ccmg7hDC.s:518    .text.chThdCreateFromMemoryPool:00000000 chThdCreateFromMemoryPool
                            *COM*:00000001 __gnu_lto_v1
                     .debug_frame:00000010 $d

UNDEFINED SYMBOLS
chHeapAllocAligned
chThdCreateSuspendedI
chSchWakeupS
chPoolAlloc
