ARM GAS  /tmp/ccmg7hDC.s 			page 1


   1              		.syntax unified
   2              		.cpu cortex-m3
   3              		.fpu softvfp
   4              		.eabi_attribute 20, 1
   5              		.eabi_attribute 21, 1
   6              		.eabi_attribute 23, 3
   7              		.eabi_attribute 24, 1
   8              		.eabi_attribute 25, 1
   9              		.eabi_attribute 26, 1
  10              		.eabi_attribute 30, 2
  11              		.eabi_attribute 34, 1
  12              		.eabi_attribute 18, 4
  13              		.thumb
  14              		.file	"chdynamic.c"
  15              		.text
  16              	.Ltext0:
  17              		.section	.gnu.lto_.jmpfuncs.b127f07dcf100da3,"",%progbits
  18 0000 789C6362 		.ascii	"x\234cb`b\300\006\"\2404\023\203=\023\003#c\007S\004"
  18      6062C006 
  18      22A03413 
  18      833D1303 
  18      23630753 
  19 0015 63262303 		.ascii	"c&#\003#\003\230f\004J\000133\220.cd\000R\214e\014\020"
  19      23039866 
  19      044A0031 
  19      3333902E 
  19      63640052 
  20 002d 29260E20 		.ascii	")&\016 G\036I\013\023\212\026F\250\026\006\000f\372"
  20      471E490B 
  20      138A1646 
  20      A8160600 
  20      66FA
  21 003f 0732     		.ascii	"\0072"
  22              		.text
  23              		.section	.gnu.lto_.inline.b127f07dcf100da3,"",%progbits
  24 0000 789C6362 		.ascii	"x\234cb`b\300\006\302\2414\023\203\204\224\021#\003"
  24      6062C006 
  24      C2A13413 
  24      83849411 
  24      2303
  25 0012 93C48A2D 		.ascii	"\223\304\212-\214\014l\013\344\301\252\231y\200\022"
  25      8C0C6C0B 
  25      E4C1AA99 
  25      798012
  26 0021 13FCC034 		.ascii	"\023\374\3004#\003+\037Pd\202\037\220\317\010Q+}\355"
  26      23032B1F 
  26      5064821F 
  26      90CF0851 
  26      2B7DED
  27 0034 142303FB 		.ascii	"\024#\003\373-5,j\301$\220\007\000\372L\012\354"
  27      2D352C6A 
  27      C1249007 
  27      00FA4C0A 
  27      EC
  28              		.text
  29              		.section	.gnu.lto_.pureconst.b127f07dcf100da3,"",%progbits
  30 0000 789C6362 		.ascii	"x\234cb`b`e\200\000&\006+F+\000\001\206\000\201"
ARM GAS  /tmp/ccmg7hDC.s 			page 2


  30      60626065 
  30      80002606 
  30      2B462B00 
  30      01860081 
  31              		.text
  32              		.section	.gnu.lto_chThdCreateFromHeap.b127f07dcf100da3,"",%progbits
  33 0000 789C8D54 		.ascii	"x\234\215T_H\034G\030\377\276\231]\357\232\323\250m"
  33      5F481C47 
  33      18FFBE99 
  33      5DEF9AD3 
  33      A86D
  34 0012 6CFE10F4 		.ascii	"l\376\020\364\020\204\2246nK\013ym\361I\202/1B\233\027"
  34      10849436 
  34      6E4B0B79 
  34      6DF14982 
  34      2F31429B 
  35 0027 59C74317 		.ascii	"Y\307C\027r\236\334^\022%\204LO+\226\226\"B\310\037"
  35      729EDC5E 
  35      1225844C 
  35      4F2B9696 
  35      2242C81F 
  36 003b 09890413 		.ascii	"\011\211\004\023\222\006,)m\365\241d\363\0071&\032\322"
  36      92062C29 
  36      6DF5A164 
  36      F3073126 
  36      1AD2
  37 004d A7F621F4 		.ascii	"\247\366!\364\300\207\246\025\032\202\205\206$\324~"
  37      C087A615 
  37      1A828586 
  37      24D47E
  38 005c B3B3BB9E 		.ascii	"\263\263\273\236\307Q\273z3;3\277\337|\277\375}\337"
  38      C751BB7A 
  38      333B33BF 
  38      DF7CBFFD 
  38      7DDF
  39 006e 0C0306A5 		.ascii	"\014\003\006\245\317\373\364\0331\001\026\251G\023\220"
  39      CFFBF41B 
  39      310116A9 
  39      471390
  40 007d 8D2D017C 		.ascii	"\215-\001|\032g\314X\340 \267\360\271\005\000Y\311\321"
  40      1A67CC58 
  40      E020B7F0 
  40      B9050059 
  40      C9D1
  41 008f D0F306A2 		.ascii	"\320\363\006\242z\001\204\223\214\033x\362\023T\233"
  41      7A018493 
  41      8C1B78F2 
  41      13549B
  42 009e F0469894 		.ascii	"\360F\230\224r\2740\265\362\004\317Jo\370\242|\265\266"
  42      72BC30B5 
  42      F204CF4A 
  42      6FF8A27C 
  42      B5B6
  43 00b0 86E82005 		.ascii	"\206\350 \005lD\020\010\037\323\000\223~\307\214\215"
  43      6C441008 
  43      1FD30093 
  43      7EC78C8D 
ARM GAS  /tmp/ccmg7hDC.s 			page 3


  44 00c0 0A34D77B 		.ascii	"\0124\327{<\367\345Ny1?&\377!\252\203\234A\323\377a"
  44      3CF7E54E 
  44      79313F26 
  44      FF21AA83 
  44      9C41D3FF 
  45 00d5 7A63DECB 		.ascii	"zc\336\313\271\323X\3044\030\274\265\316\364t\317vl"
  45      B9D358C4 
  45      3418BCB5 
  45      CEF474CF 
  45      766C
  46 00e7 A44E33AF 		.ascii	"\244N3\257\260\266\366\340\273\231\345\025\254\335\215"
  46      B0B6F6E0 
  46      BB99E515 
  46      ACDD8D
  47 00f6 40520D4C 		.ascii	"@R\015L#\230\324`\014l\274\204\215\020\247\001K\320"
  47      2398D460 
  47      0C6CBC84 
  47      8D10A701 
  47      4BD0
  48 0108 9A59456F 		.ascii	"\232YEo\274\232\032\243\226\032\263\216\000\223\004"
  48      BC9A1AA3 
  48      961AB38E 
  48      009304
  49 0117 A0C78461 		.ascii	"\240\307\204a)\307\222z\254i6N\371k\302\367\346 \265"
  49      29C7927A 
  49      AC69364E 
  49      F96BC2F7 
  49      E620B5
  50 012a CAB20E64 		.ascii	"\312\262\016d\252\347\017a\2440\263\2146^!\273{0v\034"
  50      AAE70F61 
  50      A430B38C 
  50      365E21BB 
  50      7B30761C 
  51 013e 5EC85159 		.ascii	"^\310QY\343`\205@\237@\223F\017\232Ju,N\301\343\000"
  51      E3608540 
  51      9F409346 
  51      0F9A4A75 
  51      2C4EC1E3 
  52 0153 F78069BC 		.ascii	"\367\200i\274\016@,\200y\270\373\333\255\325\021\036"
  52      0E402C80 
  52      79B8FBDB 
  52      ADD5111E 
  53 0163 6DA408BC 		.ascii	"m\244\010\274\370\033;hH\351\343\213\220\277?\363\364"
  53      F81B3B68 
  53      48E9E38B 
  53      90BF3FF3 
  53      F4
  54 0174 79B0C5DB 		.ascii	"y\260\305\333pMJ\025\3575\255\263K\007\245\035\342\252"
  54      704D4A15 
  54      EF35ADB3 
  54      4B07A51D 
  54      E2AA
  55 0186 0AF2AD25 		.ascii	"\012\362\255%03\204\205\342b\0126\364\305\320\245\257"
  55      30338485 
  55      E2620A36 
  55      F4C5D0A5 
  55      AF
ARM GAS  /tmp/ccmg7hDC.s 			page 4


  56 0197 CC307682 		.ascii	"\3140v\202fI\262\317\277W&T\264\007\013\366H\370\320"
  56      6649B2CF 
  56      BF572654 
  56      B4070BF6 
  56      48F8D0
  57 01aa FD25B02D 		.ascii	"\375%\260-!\214\007\260\252\262\260D\0103\002XuY\030"
  57      218C07B0 
  57      AAB2B044 
  57      08330258 
  57      755918
  58 01bd 0F616600 		.ascii	"\017af\000\253UF\346\343a\305\025f\257.\336\302\361"
  58      AB5546E6 
  58      E361C515 
  58      66AF2EDE 
  58      C2F1
  59 01cf 21392F87 		.ascii	"!9/\207=\252\234\006\007+\031\034\332\254\350\324\\"
  59      3DAA9C06 
  59      072B191C 
  59      DAACE8D4 
  59      5C
  60 01e0 65925E96 		.ascii	"e\222^\226 \377l~\350\362\256\240\002\302R\360V\177"
  60      20FF6C7E 
  60      E8F2AEA0 
  60      02C252F0 
  60      567F
  61 01f2 9AE07B6C 		.ascii	"\232\340{l\234\366k \230\373\372\324\363\304\356h\364"
  61      9CF66B20 
  61      98FBFAD4 
  61      F3C4EE68 
  61      F4
  62 0203 F99FE4A5 		.ascii	"\371\237\344\245V+\310\022A\337+\364\307 \375\335\240"
  62      562BC812 
  62      41DF2BF4 
  62      C720FDDD 
  62      A0
  63 0214 21F9C4F5 		.ascii	"!\371\304\365a\255\207;x^\236\371\320Qf\024E__\237\013"
  63      61AD873B 
  63      785E9EF9 
  63      D0516614 
  63      455F5F9F 
  64 0229 D6B76A7D 		.ascii	"\326\267j}\017a\270\360\370NT_uQ}U\213\300\0115C\317"
  64      0F61B8F0 
  64      F84E545F 
  64      75517D55 
  64      8BC00935 
  65 023f 09076BB4 		.ascii	"\011\007k\264E\032K\245\246\035\362*\302b\233\364\213"
  65      451A4BA5 
  65      A61DF22A 
  65      C2629BF4 
  65      8B
  66 0250 ADCEB777 		.ascii	"\255\316\267w\346\347\277\237`\261\3052\341\340\353"
  66      E6E7BF9F 
  66      60B1C532 
  66      E1E0EB
  67 025f 13708E14 		.ascii	"\023p\216\024\275A \245L+\350\302\212\310\251m\350K"
  67      BD4120A5 
  67      4C2BE8C2 
ARM GAS  /tmp/ccmg7hDC.s 			page 5


  67      8AC8A96D 
  67      E84B
  68 0271 FAACF0EB 		.ascii	"\372\254\360\353r,\010\003\221\242:\021 \003\372\233"
  68      722C0803 
  68      91A23A11 
  68      2003FA9B 
  69 0281 4AC3F6D2 		.ascii	"J\303\366\322,\375\276T\232%\033\277\361m\3334M\360"
  69      2CFDBE54 
  69      9A251BBF 
  69      F16DDB34 
  69      4DF0
  70 0293 5F69FAE3 		.ascii	"_i\372\343\274J\323\315\215i\272PU\037\235\351\365|"
  70      BC4AD3CD 
  70      8D69BA50 
  70      551F9DE9 
  70      F57C
  71 02a5 FD5594AF 		.ascii	"\375U\224\257\030\370G;^&e6~O/Q\3440E6\316b}\361\261"
  71      18F8473B 
  71      5E266536 
  71      7E4F2F51 
  71      E4304536 
  72 02be 34FC8B60 		.ascii	"4\374\213`\021n\257D\307Z\245\341\003\370V\216\252\013"
  72      116EAF44 
  72      C75AA5E1 
  72      03F8568E 
  72      AA0B
  73 02d0 8C408FE8 		.ascii	"\214@\217\350\256U\276\370\226\376\002\030\270\313\256"
  73      AE55BEF8 
  73      96FE0218 
  73      B8CBAE
  74 02df FFB08DCC 		.ascii	"\377\260\215\314\342\327\177\254T7\013\252\215T\214"
  74      E2D77FAC 
  74      54370BAA 
  74      8D548C
  75 02ee 86E6664B 		.ascii	"\206\346fK\377g\\+\233\263\334\254\260Do\367`\237\235"
  75      FF675C2B 
  75      9BB3DCAC 
  75      B0446FF7 
  75      609F9D
  76 0301 7644B300 		.ascii	"vD\263\000\226\353\347\307\334~\226\353\336[\214\024"
  76      96EBE7C7 
  76      DC7E96EB 
  76      DE5B8C14 
  77 0311 99743AD3 		.ascii	"\231t:\323g\365g\2629\327\372\350@[K\333\000\321D&\233"
  77      67F567B2 
  77      39D7FAE8 
  77      405B4BDB 
  77      00D14426 
  78 0326 EA3CBA2F 		.ascii	"\352<\272/\335\334\013\346Q\373\360\221\324{e8\251\201"
  78      DDDC0BE6 
  78      51FBF091 
  78      D47B6538 
  78      A981
  79 0338 9CD5D2D6 		.ascii	"\234\325\322\326\336\332n9}\342\360\221\356\224%\322"
  79      DEDA6E39 
  79      7DE2F091 
  79      EE9425D2 
ARM GAS  /tmp/ccmg7hDC.s 			page 6


  80 0348 AEE376F6 		.ascii	"\256\343v\366\010A\274R=\021\246\327\035ti\275\246\255"
  80      0841BC52 
  80      3D11A6D7 
  80      1D7469BD 
  80      A6AD
  81 035a FD40B2CB 		.ascii	"\375@\262\313vS\375Y\347\235d\323\273\300\262\020K\247"
  81      7653FD59 
  81      E79D64D3 
  81      BBC0B210 
  81      4BA7
  82 036c D299EC20 		.ascii	"\322\231\354 \374\013\033\373\201\356"
  82      FC0B1BFB 
  82      81EE
  83              		.text
  84              		.section	.gnu.lto_chThdCreateFromMemoryPool.b127f07dcf100da3,"",%progbits
  85 0000 789C8D54 		.ascii	"x\234\215T[hTG\030\376\377\231\263\2731\2334\211\032"
  85      5B685447 
  85      18FEFF99 
  85      B3BB319B 
  85      34891A
  86 0013 ABD2C625 		.ascii	"\253\322\306% \324\2529\212\202\257\026\237D\362b\024"
  86      20D4AA39 
  86      8A82AF16 
  86      9F44F262 
  86      14
  87 0024 DABEC8C9 		.ascii	"\332\276\310\311d1\007<\331\260g\275\004\021\307M\004"
  87      6431073C 
  87      D9B067BD 
  87      0411C74D 
  87      04
  88 0035 6F0F4110 		.ascii	"o\017A\020o\210\006Q\321J\245\351CS\332\207\343\225"
  88      6F880651 
  88      D14AA5E9 
  88      4353DA87 
  88      E395
  89 0047 24BA1185 		.ascii	"$\272\021\205\242\021\204}\0115-\024\252>x\303\370\317"
  89      A211847D 
  89      09352D14 
  89      AA3E78C3 
  89      F8CF
  90 0059 9C8B9B75 		.ascii	"\234\213\233uQO\2623gf\276o\376o\276\377?\303\200A\371"
  90      514FB233 
  90      6766BE6F 
  90      FE6FBEFF 
  90      3FC38041 
  91 006e B3827E4F 		.ascii	"\263\202~Oc\000\005\3521\006\310\372\307\000\366T1f"
  91      630005EA 
  91      3106C8FA 
  91      C700F654 
  91      3166
  92 0080 8C7290D5 		.ascii	"\214r\220\325\374\326(\200\254\341h\370\363\006\242"
  92      FCD62880 
  92      ACE168F8 
  92      F306A2
  93 008f 7A0184DD 		.ascii	"z\001\204\335\214\033\270\373\007T\233\360f\030\220"
  93      8C1BB8FB 
  93      07549BF0 
ARM GAS  /tmp/ccmg7hDC.s 			page 7


  93      661890
  94 009e F27071E2 		.ascii	"\362pq\342\322$\036\227^\337\031\371fj\012\321F\012"
  94      D2241E97 
  94      5EDF19F9 
  94      666A0AD1 
  94      460A
  95 00b0 D88C2010 		.ascii	"\330\214 \020\276\247\001\246t\307\214\351\012|\256"
  95      BEA701A6 
  95      74C78CE9 
  95      0A7CAE
  96 00bf 373E7A68 		.ascii	"7>zh\236<\223\357\227o\211j#g\260\360s\230^\277\367"
  96      9E3C93EF 
  96      976F896A 
  96      2367B0F0 
  96      73985EBF 
  97 00d4 7AF42896 		.ascii	"z\364(\2260\015\006\213\3363=\277gs\247S\2570\25785"
  97      300D068B 
  97      DE333DBF 
  97      6773A753 
  97      AF30AF38 
  98 00e9 75F9AF27 		.ascii	"u\371\257'\207\356\340\317\354k\004\322j\240\203\020"
  98      87EEE0CF 
  98      EC6B04D2 
  98      6AA08310 
  99 00f9 070BCF62 		.ascii	"\007\013\317b3$h\200\3254\035KR\023\257\245!\253\243"
  99      33246880 
  99      D5341D4B 
  99      5213AFA5 
  99      21ABA3
 100 010c 86375063 		.ascii	"\2067Pc4\022j\200P\364\304\240O\312\376\224?\366\271"
 100      34126A80 
 100      50F4C4A0 
 100      4FCAFE94 
 100      3FF6B9
 101 011f 0EC62C3C 		.ascii	"\016\306,<\247\227\205\366g\003\265\312\266\215\310"
 101      A79785F6 
 101      6703B5CA 
 101      B68DC8
 102 012e 54CFEF42 		.ascii	"T\317\357B_qh\002-\274@\226o\306\370Nx%\367\311z\033"
 102      5F716802 
 102      2DBC4096 
 102      6FC6F84E 
 102      7825F7C9 
 103 0144 13023581 		.ascii	"\023\0025\201&\015\033\253\000F\200\371(\177g\302\002"
 103      260D1BAB 
 103      004680F9 
 103      287F67C2 
 103      02
 104 0155 0CC38DBF 		.ascii	"\014\303\215\277\257>;\300#\272: /=\335F\032R\342x\001"
 104      AF3E3BC0 
 104      23BA3A20 
 104      2F3DDD46 
 104      1A52E278 
 105 016a F2B787AE 		.ascii	"\362\267\207\256\274\014\266X\014\227\244TQf\370\352"
 105      BC0CB658 
 105      0C97A454 
 105      5166F8EA 
ARM GAS  /tmp/ccmg7hDC.s 			page 8


 106 017a DAFD50B4 		.ascii	"\332\375P\264CB\345?\277\266\014\026\017a\241\244\270"
 106      4342E53F 
 106      BFB60C16 
 106      0F61A1A4 
 106      B8
 107 018b 863D3A36 		.ascii	"\206=:68n\204\261\253\027\303\2676V\237\204\023{\210"
 107      386E84B1 
 107      AB17C3B7 
 107      36569F84 
 107      137B88
 108 019e 749A8424 		.ascii	"t\232\204$I\272\022T\243I\355\030\226\\\001z\017\366"
 108      49BA1254 
 108      A349ED18 
 108      965C017A 
 108      0FF6
 109 01b0 CE097984 		.ascii	"\316\011y\204\212\023[o8RAb\024\233\007\261\223\032"
 109      8A135B6F 
 109      38524162 
 109      149B07B1 
 109      931A
 110 01c2 BAAE0C56 		.ascii	"\272\256\014V\033\302\214\000V[\021\366E\010\213\005"
 110      1BC28C00 
 110      565B11F6 
 110      45088B05 
 111 01d2 B0BA8A30 		.ascii	"\260\272\2120\036\302\342\001\254A% _\025\326h\361\367"
 111      1EC2E201 
 111      AC412520 
 111      5F15D668 
 111      F1F7
 112 01e4 8B85AB78 		.ascii	"\213\205\253x\270W\016\313>\217jm\201\215u\014~\374"
 112      B8570ECB 
 112      3E8F6A6D 
 112      818D750C 
 112      7EFC
 113 01f6 5499AAB9 		.ascii	"T\231\252\271\272\024\275\214A\376\377\341\336\363\363"
 113      BA14BD8C 
 113      41FEFFE1 
 113      DEF3F3
 114 0205 8392096B 		.ascii	"\203\222\011k\307{v\377$\377\306\302_t\305\004s?\035"
 114      C77B76FF 
 114      24FFC6C2 
 114      5F74C504 
 114      733F1D
 115 0218 7991FC2A 		.ascii	"y\221\374*\032\355\377\217l\364\325\012rT\220-\302?"
 115      1AEDFF8F 
 115      6CF4D50A 
 115      7254902D 
 115      C23F
 116 022a 33D2DF20 		.ascii	"3\322\337 \015i\235\373\237w\023\\\307S\362\330j\033"
 116      0D699DFB 
 116      9F77135C 
 116      C753F2D8 
 116      6A1B
 117 023c EBA7457F 		.ascii	"\353\247E\177\277~+Xo\360\365\251j||3\252\306\306\250"
 117      BF7E2B58 
 117      6FF0F5A9 
 117      6A7C7C33 
ARM GAS  /tmp/ccmg7hDC.s 			page 9


 117      AAC6C6A8 
 118 0250 1A678AC0 		.ascii	"\032g\212\30005C\317.\033g\371\026\371X\3720fk\207\274"
 118      303543CF 
 118      2E1B67F9 
 118      16F958FA 
 118      30666B87 
 119 0265 7858A403 		.ascii	"xX\244\003\272H\033\265\275C\017\177\233\304R\213e\322"
 119      BA481BB5 
 119      BD430F7F 
 119      9BC4528B 
 119      65D2
 120 0277 C6462A15 		.ascii	"\306F*\025R4\207@J\031\004U\222\210\234\372\222\351"
 120      52348740 
 120      4A190455 
 120      92889CFA 
 120      92E9
 121 0289 62C9DF7E 		.ascii	"b\311\337~Q\201\315+\263\253\302oF\035fo\361\311D\""
 121      5181CD2B 
 121      B3ABC26F 
 121      461D666F 
 121      F1C94422 
 122 029d 1008D159 		.ascii	"\020\010\321Y\346\212(\253\232:O\251\237_\236\337\311"
 122      E68A28AB 
 122      9A3A4FA9 
 122      9F5F9EDF 
 122      C9
 123 02ae B1F2FC5A 		.ascii	"\261\362\374Z8\250\015\377d\202\341c\011\376\347\224"
 123      38A80DFF 
 123      6482E163 
 123      09FEE794 
 124 02be 4AF0F5E9 		.ascii	"J\360\365\351\011>]\333\024]\037\321\364\310\363\222"
 124      093E5DDB 
 124      145D1FD1 
 124      F4C8F392 
 125 02ce 4C6B5704 		.ascii	"LkW\004\035\357\303d[8D/Q\3440\271\026\376\201M\245"
 125      1DEFC364 
 125      5B38442F 
 125      51E430B9 
 125      16FE814D 
 126 02e3 1781A12F 		.ascii	"\027\201\241/\234\002\\\3737\272HT\002W\302\257r\237"
 126      9C025CFB 
 126      37BA4854 
 126      0257C2AF 
 126      729F
 127 02f5 BA2C0974 		.ascii	"\272,\011t\217\356u\345\213\266s\0340p\226]~0\233\314"
 127      8FEE75E5 
 127      8BB6731C 
 127      3070965D 
 127      7E309BCC 
 128 0309 E27F3EAE 		.ascii	"\342\177>\256Q7\030\252\215T\214\005--\246\377\237q"
 128      513718AA 
 128      8D548C05 
 128      2D2DA6FF 
 128      9F71
 129 031b CD6CCE74 		.ascii	"\315l\316t\263\302\024\235\035=]\226c\213\026\001,\327"
 129      B3C2149D 
 129      1D3D5D96 
ARM GAS  /tmp/ccmg7hDC.s 			page 10


 129      638B1601 
 129      2CD7
 130 032d CDB7BBDD 		.ascii	"\315\267\273\335,\327\261\264\024)2\216\223\3512\273"
 130      2CD7B1B4 
 130      1429328E 
 130      93E932BB 
 131 033d 33D99C6B 		.ascii	"3\331\234k~\267\276uM\353\016\242\211L6\275i\333*\247"
 131      7EB7BE75 
 131      4DEB0EA2 
 131      894C36BD 
 131      69DB2AA7 
 132 0351 A51362DB 		.ascii	"\245\023b\333\254-[\323\313+p\322;r\346\232\326\266"
 132      AC2D5BD3 
 132      CB2B70D2 
 132      3B72E69A 
 132      D6B6
 133 0363 B56DA6DD 		.ascii	"\265m\246\335%\266l\355H\233\302qmw\323f!\210W\256'"
 133      25B66CED 
 133      489BC271 
 133      6D77D366 
 133      218857AE 
 134 0378 C274BA3D 		.ascii	"\302t\272=.\255\327\267\266\255O\265[n\272;k/I-\\\006"
 134      2EADD7B7 
 134      B6AD4FB5 
 134      5B6EBA3B 
 134      6B2F492D 
 135 038e 2C0B0927 		.ascii	",\013\011'\355d\262=\360\016\241+\232_"
 135      ED64B23D 
 135      F00EA12B 
 135      9A5F
 136              		.text
 137              		.section	.gnu.lto_.symbol_nodes.b127f07dcf100da3,"",%progbits
 138 0000 789C45CD 		.ascii	"x\234E\315\273\015\2000\014\004\320;;\254\301\252\216"
 138      BB0D8030 
 138      0C04D03B 
 138      3BACC1AA 
 138      8E
 139 0011 940244C5 		.ascii	"\224\002D\305\0044Y\203\237\030\200\031\220\230\003"
 139      04345983 
 139      9F188019 
 139      909803
 140 0020 44F888B8 		.ascii	"D\370\210\2709\275\273\302\002A\215\357\244\247\001"
 140      39BDBBC2 
 140      02418DEF 
 140      A4A701
 141 002f ED0A9875 		.ascii	"\355\012\230u5e\2401\2233M^zON4\315\032i.k\241\025\277"
 141      3565A031 
 141      93334D5E 
 141      7A4F4E34 
 141      CD1A692E 
 142 0047 140E613B 		.ascii	"\024\016a;S*Bu\224\232^\356w\262x\373\264\304\307\202"
 142      532A4275 
 142      949A5EEE 
 142      77B278FB 
 142      B4C4C782 
 143 005b D81C252E 		.ascii	"\330\034%.\024((\275"
 143      142828BD 
ARM GAS  /tmp/ccmg7hDC.s 			page 11


 144              		.text
 145              		.section	.gnu.lto_.refs.b127f07dcf100da3,"",%progbits
 146 0000 789C6362 		.ascii	"x\234cb`b`d\200\002\000\000F\000\006"
 146      60626064 
 146      80020000 
 146      460006
 147              		.text
 148              		.section	.gnu.lto_.decls.b127f07dcf100da3,"",%progbits
 149 0000 789CAD1B 		.ascii	"x\234\255\033}p\024\325\375\275\335\273$G\002R\235:"
 149      7D7014D5 
 149      FDBDDDBB 
 149      24470252 
 149      9D3A
 150 0012 A11F636C 		.ascii	"\241\037clm\247ej\002j+\355L\253\224Zp\246t\034\251"
 150      6DA7656A 
 150      026A2BED 
 150      4CAB945A 
 150      70A6741C 
 151 0027 63673AD3 		.ascii	"cg:\323\353rY\222+\271\217\336m\010\364\037\227\210"
 151      EB725992 
 151      2BB98FDE 
 151      6D08F41F 
 151      9788
 152 0039 7C892524 		.ascii	"|\211%$\002\306\002\006\201\012\242X@E\013\225\303J"
 152      02C60206 
 152      810AA258 
 152      40450B95 
 152      C34A
 153 004b 02C142C2 		.ascii	"\002\301B\302W\214)\020\320\240\005AR\012)5\230\376"
 153      578C2910 
 153      D0A00541 
 153      520A2935 
 153      98FE
 154 005d DE6F77EF 		.ascii	"\336ow\357v\337\355\356\355\205\356\344\275\375z\357"
 154      76DFEDEE 
 154      ED85EEE4 
 154      BDFD7AEF 
 155 006d F7FDF5DE 		.ascii	"\367\375\365\336^\004\"\220\022\201\220!8\026\336K\310"
 155      5E042290 
 155      12819021 
 155      3816DE4B 
 155      C8
 156 007e 73058488 		.ascii	"s\005\204\210\204\220\037\021\355L\241\301#\342'\332"
 156      84901F11 
 156      ED4CA1C1 
 156      23E227DA 
 157 008e C1AED742 		.ascii	"\301\256\327B[\001/vBKA;\012\355}J\262\0166\256\024"
 157      5B012F76 
 157      424B413B 
 157      0AED7D4A 
 157      B20E36AE 
 158 00a3 DA3A68A3 		.ascii	"\332:h\243\240\225@\273\017Z+\214=\017\347\223T\203"
 158      A09540BB 
 158      0F5A2B8C 
 158      3D0FE793 
 158      5483
 159 00b5 7B0CCE1F 		.ascii	"{\014\316\037\302\371\015h\363\030\\8\237\202\363ih"
ARM GAS  /tmp/ccmg7hDC.s 			page 12


 159      C2F90D68 
 159      F3185C38 
 159      9F82F369 
 159      68
 160 00c6 1FB077D0 		.ascii	"\037\260w\320\366@\033\204\347\353u\232\372\250F\313"
 160      F6401B84 
 160      E7EB759A 
 160      FAA846CB 
 161 00d6 2E3817C2 		.ascii	".8\027\302y?\234\333\241\275\013\355 \264C\320:\241"
 161      793F9CDB 
 161      A1BD0BED 
 161      20B443D0 
 161      3AA1
 162 00e8 7D06EF02 		.ascii	"}\006\357\002:-\214\316\263\320\316A\273\240\323\316"
 162      3A2D8CCE 
 162      B3D0CE41 
 162      BBA0D3CE 
 163 00f8 78B80AED 		.ascii	"x\270\012\355\232\016o\011\234\377\000m)\264\006h\313"
 163      9A0E6F09 
 163      9CFF006D 
 163      29B40668 
 163      CB
 164 0109 A03571BC 		.ascii	"\2405q\2741\336\277\354\300\027\343\207\3616\010\327"
 164      31DEBFEC 
 164      C017E387 
 164      F13608D7 
 165 0119 3D3A5FBF 		.ascii	"=:_\277\202\363\263\320\232\351\360y\014\230x\334\340"
 165      82F3B3D0 
 165      9AE9F079 
 165      0C9878DC 
 165      E0
 166 012a C0E7547D 		.ascii	"\300\347T}\334\012]\037\271x}\025\316\257C\333\301\350"
 166      DC0A5D1F 
 166      B9787D15 
 166      CEAF43DB 
 166      C1E8
 167 013c 82F626B4 		.ascii	"\202\366&\264\353\034\257\267\2215jKo\357\336s\357\321"
 167      EB1CAFB7 
 167      91356A4B 
 167      6FEFDE73 
 167      EFD1
 168 014e 6635354F 		.ascii	"f55O\035\032z\214\334J\226\253p\264\314WU\252\024\223"
 168      1D1A7A8C 
 168      DC4A96AB 
 168      70B4CC57 
 168      55AA1493 
 169 0162 C5AA5ACF 		.ascii	"\305\252Z\317n\246\354\033u3Y\306\336\224\355\003\261"
 169      6EA6EC1B 
 169      753359C6 
 169      DE94ED03 
 169      B1
 170 0173 FC924A74 		.ascii	"\374\222JtT\200\264\370\360\252$@~\002\340\276A\326"
 170      5480B4F8 
 170      F0AA2440 
 170      7E02E0BE 
 170      41D6
 171 0185 AB6A43EF 		.ascii	"\253jC\357\362\353GDU-\222\350zz3\030\340dJ\306\222"
ARM GAS  /tmp/ccmg7hDC.s 			page 13


 171      F2EB4744 
 171      552D92E8 
 171      7A7A3318 
 171      E0644AC6 
 172 019a 4D30B101 		.ascii	"M0\261\001@\215\265\261$\222\023\260@\036\245D\242\033"
 172      408DB5B1 
 172      249213B0 
 172      401EA544 
 172      A21B
 173 01ac 019E445F 		.ascii	"\001\236D_\240c5Ljo\323\202\023\365t.\020\252\275#\372"
 173      A063354C 
 173      6A6FD382 
 173      13F5742E 
 173      10AABD23 
 174 01c1 5B9BE376 		.ascii	"[\233\343v\322\002\023R\003\355\253\250\332\3626\265"
 174      D2021352 
 174      03EDABA8 
 174      DAF236B5 
 175 01d1 C178BF81 		.ascii	"\301x\277\201\260\310\304\311\332\247\036DN^BN\352)"
 175      B0C8C4C9 
 175      DAA71E44 
 175      4E5E424E 
 175      EA29
 176 01e3 B560D0A1 		.ascii	"\265`\320\241\264\334\357\004F \2158\345\225,\302\333"
 176      B4DCEF04 
 176      46208D38 
 176      E5952CC2 
 176      DB
 177 01f4 0E1984BF 		.ascii	"\016\031\204\277\342\201\360\372T\347\342\325c\030\341"
 177      E281F0FA 
 177      54E7E2D5 
 177      6318E1
 178 0203 125D478B 		.ascii	"\022]G\213\001\356\2724\\\035o\231\201\327G\210q\251"
 178      01EEBA34 
 178      5C1D6F99 
 178      81D74788 
 178      71A9
 179 0215 1DFA002B 		.ascii	"\035\372\000+\274\303\355%\015\222\001lc\336\300\312"
 179      BCC3ED25 
 179      0D92016C 
 179      63DEC0CA 
 180 0225 EC48D50E 		.ascii	"\354H\325\0163\267\022\335J\277\001\3756z;\364\257B"
 180      33B712DD 
 180      4ABF01FD 
 180      367A3BF4 
 180      AF42
 181 0237 9F3E04F2 		.ascii	"\237>\004\36225tj'\272\334,\\k_\205\"\011\220\205\031"
 181      3235746A 
 181      27BADC2C 
 181      5C6B5F85 
 181      22099085 
 182 024c 1B25B62C 		.ascii	"\033%\266,\350\352\354z\362\235N\3728J\375\015\230&"
 182      E8EAEC7A 
 182      F29D4EFA 
 182      384AFD0D 
 182      9826
 183 025e 904F3885 		.ascii	"\220O8\205z\007\325\275\364h?\255GP;\021\324>\301\012"
ARM GAS  /tmp/ccmg7hDC.s 			page 14


 183      7A07D5BD 
 183      F4683FAD 
 183      47503B11 
 183      D43EC10A 
 184 0272 4AA28501 		.ascii	"J\242\205\001b:\360\336\030\300\340\341k\375\202\305"
 184      623AF0DE 
 184      18C0E0E1 
 184      6BFD82C5 
 185 0282 E79B48BE 		.ascii	"\347\233H\276\303\005\322)p\"\264S\\\221\223\010\231"
 185      C305D229 
 185      7022B453 
 185      5C919308 
 185      99
 186 0293 199E6CA4 		.ascii	"\031\236l\244M\217\253\373\306\031\246\\\340\304\267"
 186      4D8FABFB 
 186      C619A65C 
 186      E0C4B7
 187 02a2 408E23B2 		.ascii	"@\216#\262\024o\312+\273\3365L9\345\311\224_k_\211z"
 187      146FCA2B 
 187      BBDE354C 
 187      39E5C994 
 187      5F6B5F89 
 188 02b7 CB195B04 		.ascii	"\313\031[\004\003\377\035\210\377)\221\341\337\313\343"
 188      03FF1D88 
 188      FF2991E1 
 188      DFCBE3
 189 02c6 BFFCFE3F 		.ascii	"\277\374\376?\236\320\361\357\365\204\377\315\256\247"
 189      9ED0F1EF 
 189      F584FFCD 
 189      AEA7
 190 02d4 B3F14BF4 		.ascii	"\263\361K\364G_t\323\367\312\256\263\375:\226\375\350"
 190      475F74D3 
 190      F7CAAEB3 
 190      FD3A96FD 
 190      E8
 191 02e5 336D22AF 		.ascii	"3m\"\257\357\373\212\255\012\204{\323\000\201t\244\351"
 191      EFFB8AAD 
 191      0A847BD3 
 191      008174A4 
 191      E9
 192 02f6 1F96CB02 		.ascii	"\037\226\313\002\243\027\227\323F\246,\203\206#yC,\263"
 192      A31797D3 
 192      46A62C83 
 192      86237943 
 192      2CB3
 193 0308 48625717 		.ascii	"HbW\027\006\001\015\330q/\300\034m\251>\365\226\031"
 193      06010DD8 
 193      712FC01C 
 193      6DA93EF5 
 193      9619
 194 031a 5877DEC0 		.ascii	"Xw\336\300\254\224u\230\201\375\303\013\260\321\316"
 194      AC947598 
 194      81FDC30B 
 194      B0D1CE
 195 0329 941D3603 		.ascii	"\224\0356\003;\22570+eG\315\300\316x\001V\352L\331q"
 195      3B953730 
 195      2B6547CD 
ARM GAS  /tmp/ccmg7hDC.s 			page 15


 195      C0CE7801 
 195      56EA4CD9 
 196 033e 33B0B379 		.ascii	"3\260\263y\003\263R\366\236\031\3309/\300\312l(K\037"
 196      03B352F6 
 196      9E19D839 
 196      2FC0CA6C 
 196      284B1F
 197 0351 76F39859 		.ascii	"v\363\230Y\277C\323v.\220\013\242\021\023\362\264i\222"
 197      BF43D376 
 197      2E900BA2 
 197      1113F2B4 
 197      6992
 198 0363 817149CC 		.ascii	"\201qI\3147\210Y\370\206 v\352y-\210\031\371\354\337"
 198      378859F8 
 198      862076EA 
 198      792D8819 
 198      F9ECDF
 199 0376 5E20BA18 		.ascii	"^ \272\030L\303\001Sr\374o\336\300\254jY\303\200Yb\215"
 199      4CC30153 
 199      72FC6FDE 
 199      C0AC6A59 
 199      C3805962 
 200 038b 9E657A37 		.ascii	"\236ez7\244J\237\311\204\273\"\003\026\253\220\264\330"
 200      A44A9FC9 
 200      84BB2203 
 200      16AB90B4 
 200      D8
 201 039c 06059390 		.ascii	"\006\005\223\220\036\254\226\226\332\217\225\350YL\262"
 201      1EAC9696 
 201      DA8F95E8 
 201      594CB2
 202 03ab 1FD1409A 		.ascii	"\037\321@\232\012\355\332\270\032\242L\316\252\317\256"
 202      0AEDDAB8 
 202      1AA24CCE 
 202      AACFAE
 203 03ba F64200EE 		.ascii	"\366B\000\356S\235,\341C\263%<\341\363 &\027W\350p\022"
 203      539D2CE1 
 203      43B3253C 
 203      E1F32026 
 203      1757E870 
 204 03cf 536ABEBA 		.ascii	"Sj\276\272\220\316\335\372\025\327Bme\327\305\265z:"
 204      90CEDDFA 
 204      15D7426D 
 204      65D7C5B5 
 204      7A3A
 205 03e1 FE04D3F1 		.ascii	"\376\004\323\361b\237mf\367\004\254{\351\340\036\275"
 205      629F6D66 
 205      F704AC7B 
 205      E9E01EBD 
 206 03f1 4CF81481 		.ascii	"L\370\024\201-\367\361\261>\300\345\366\2005Y\007\002"
 206      2DF7F1B1 
 206      3EC0E5F6 
 206      80355907 
 206      02
 207 0402 998B21E3 		.ascii	"\231\213!\343\260J\337\363\034'\351\2377K\177M\336\322"
 207      B04ADFF3 
 207      1C27E99F 
ARM GAS  /tmp/ccmg7hDC.s 			page 16


 207      374B7F4D 
 207      DED2
 208 0414 E77DE86A 		.ascii	"\347}\350j#\275\\\257>3\316do\256\306\011\325\324\201"
 208      23BD5CAF 
 208      3E33CE64 
 208      6FAEC609 
 208      D5D481
 209 0427 B77E88C5 		.ascii	"\267~\210\305\361\277QH\033\354%\356\001P\367\322\227"
 209      F1BF5148 
 209      1BEC25EE 
 209      0150F7D2 
 209      97
 210 0438 2B10D000 		.ascii	"+\020\320\000\002\332\222%m\312I\233Z%\2276X\335^\363"
 210      02DA9225 
 210      6DCA499B 
 210      5A259736 
 210      58DD5EF3 
 211 044c 192B90D7 		.ascii	"\031+\220\327y\321YHt\211\224i\321\015\346/\272'u\321"
 211      79D15948 
 211      74899469 
 211      D10DE62F 
 211      BA2775D1 
 212 0460 0D22C7BB 		.ascii	"\015\"\307\273\2628\036\310\223e\201\274\2237\033EV"
 212      B2381EC8 
 212      936581BC 
 212      93371B45 
 212      56
 213 0471 36160C0D 		.ascii	"6\026\014\015\203\215\335\032\033s\005\306F\373\377"
 213      838DDD1A 
 213      1B7305C6 
 213      46FBFF
 214 0480 818DC379 		.ascii	"\201\215\303y\2631\332\304\006.\254\236\326\222\301"
 214      B331DAC4 
 214      062EAC9E 
 214      D692C1
 215 048f 2DA4D1BD 		.ascii	"-\244\321\275\242e\364\314\027n\261T\223\251c\007i\231"
 215      A265F4CC 
 215      176EB154 
 215      93A96307 
 215      6999
 216 04a1 F638F762 		.ascii	"\3668\367b\362\362A\323\002D\365\264\0009\220^\200,"
 216      F2F241D3 
 216      0244F5B4 
 216      0039905E 
 216      802C
 217 04b3 429175D9 		.ascii	"B\221u\3319\215'P\335\207\016u\352\021o\011\202:\221"
 217      398D2750 
 217      DD870E75 
 217      EA116F09 
 217      823A91
 218 04c6 25FD024E 		.ascii	"%\375\002N\370\005V\341\303-\303\365\037\2143\217\351"
 218      F80556E1 
 218      C32DC3F5 
 218      1F8C338F 
 218      E9
 219 04d7 4FD84D21 		.ascii	"O\330M!\031\366<\201\364!\031L\200\303\251r\331\222"
 219      19F63C81 
ARM GAS  /tmp/ccmg7hDC.s 			page 17


 219      F421194C 
 219      80C3A972 
 219      D992
 220 04e9 FEC32623 		.ascii	"\376\303&#\233k2\372\344\206 \326\247\236[j,\235\357"
 220      9B6B32FA 
 220      E48620D6 
 220      A79E5B6A 
 220      2C9DEF
 221 04fc 63F9FCCA 		.ascii	"c\371\374\312\015\202\333u\210OT\334Bb\275C\0246\366"
 221      0D82DB75 
 221      884F54DC 
 221      4262BD43 
 221      1436F6
 222 050f 14B62EF9 		.ascii	"\024\266.\371\016:\315\012\201\2213\230\245\266u\224"
 222      0E3ACD0A 
 222      81913398 
 222      A5B67594 
 223 051f 5B48B007 		.ascii	"[H\260\007\246!N\266\274\\0%\204\245\376\033TC\333\025"
 223      A6214EB6 
 223      BC5C3025 
 223      84A5FE1B 
 223      5443DB15 
 224 0533 4E0DCB6F 		.ascii	"N\015\313o\010\",\327u5\344Z\366\375\306\200U\202\214"
 224      08222CD7 
 224      7535E45A 
 224      F6FDC680 
 224      55828C
 225 0546 AC46B46B 		.ascii	"\254F\264k\004n\325\367\332\371\336\371\272\371\263"
 225      046ED5F7 
 225      DAF9DEF9 
 225      BAF9B3
 226 0555 77B99DB5 		.ascii	"w\271\235\265\247/\2406\226h;9\022}\235\012:T\273: "
 226      A72FA036 
 226      96683B39 
 226      127D9D0A 
 226      3A54BB3A 
 227 056a A7785227 		.ascii	"\247xR'\345}\343\362q\373V\303\355\327i\221\322\317"
 227      E57DE3F2 
 227      71FB56C3 
 227      EDD76991 
 227      D2CF
 228 057c 2B9DF9B0 		.ascii	"+\235\371\260E\351y9]GZH^Kh\376p2\252\325f\243:zc&\000"
 228      45E97939 
 228      5D475A48 
 228      5E4B68FE 
 228      7032AAD5 
 229 0597 46D5BA5E 		.ascii	"F\325\272^3\252\\F\240Rse-\220\036\304\374\"o\005\315"
 229      33AA5C46 
 229      A0527365 
 229      2D901EC4 
 229      FC226F05 
 230 05ac 9FEE5BA0 		.ascii	"\237\356[\240\257\312_\364d\005Wl\254\340\305aZ\001"
 230      AFCA5FF4 
 230      6405576C 
 230      ACE0C561 
 230      5A01
 231 05be 98F43FF7 		.ascii	"\230\364?\367S\004\247\255\024\346\025P+\270<W\320\203"
ARM GAS  /tmp/ccmg7hDC.s 			page 18


 231      5304A7AD 
 231      14E61550 
 231      2BB83C57 
 231      D083
 232 05d0 72BE82D1 		.ascii	"r\276\202\321\354+\325\335\307\222\3266\201\355Q..\340"
 232      EC2BD5DD 
 232      C792D636 
 232      81ED512E 
 232      2EE0
 233 05e2 4D4B938C 		.ascii	"MK\223\214\311\2642b\004A\010l\351\360\262\300\366\347"
 233      C9B43262 
 233      0441086C 
 233      E9F0B2C0 
 233      F6E7
 234 05f4 B660FF67 		.ascii	"\266`\377g\301\264K\347d\026[3f!\321\355\274\030\275"
 234      C1B44BE7 
 234      64165B33 
 234      6621D1ED 
 234      BC18BD
 235 0607 2EE072A2 		.ascii	".\340r\242\331d\266\276\306\202\033\263\276\306\266"
 235      D964B6BE 
 235      C6821BB3 
 235      BEC6B6
 236 0616 833EB6CB 		.ascii	"\203>\266\313-\346\261ax`\257\341\270;\320q\233\263"
 236      2DE6B161 
 236      7860AFE1 
 236      B83BD071 
 236      9BB3
 237 0628 A4BB932F 		.ascii	"\244\273\223/q\274\354\333m\030.+\351C /\025x(\371\313"
 237      71BCECDB 
 237      6D182E2B 
 237      E943202F 
 237      157828F9 
 238 063d 6CA49E4E 		.ascii	"l\244\236N\264\307\237\366\270\367gd\256\276%S0s\375"
 238      B4C79FF6 
 238      B8F76764 
 238      AEBE2553 
 238      3073FD
 239 0650 152D6D0B 		.ascii	"\025-m\013'\013\017[\210\177\305))\336\215\233\026d"
 239      270B0F5B 
 239      887FC529 
 239      29DE8D9B 
 239      1664
 240 0662 B6103DB8 		.ascii	"\266\020=\270q}j\273e7\334\260\300\224\273\005\272\312"
 240      717D6ABB 
 240      6537DCB0 
 240      C094BB05 
 240      BACA
 241 0674 D3A2C294 		.ascii	"\323\242\302\224\311A\336F\007\371\233\331)\004\362"
 241      C941DE46 
 241      07F99BD9 
 241      2904F2
 242 0683 772FB2FF 		.ascii	"w/\262\377\226\223)B\030:\254}\2060>,\034\343\341\331"
 242      96932942 
 242      183AAC7D 
 242      86303E2C 
 242      1CE3E1D9 
ARM GAS  /tmp/ccmg7hDC.s 			page 19


 243 0697 05220B3C 		.ascii	"\005\"\013<\263.\353S\015Gp\303B\263\321\223^\210\033"
 243      B32EEB53 
 243      0D4770C3 
 243      42B3D193 
 243      5E881B
 244 06aa E70CECB9 		.ascii	"\347\014\354\271&C\270\233\260B\371\310\013\274\011"
 244      2643B89B 
 244      B042F9C8 
 244      0BBC09
 245 06b9 4ECCD6A7 		.ascii	"N\314\326\247v\034Y\245\303\3236\335?\315\033\236\225"
 245      761C59A5 
 245      C3D336DD 
 245      3FCD1B9E 
 245      95
 246 06ca BE634D96 		.ascii	"\276cM\226z\356?^\300\335\357Y\367\231oL\020\322p_e"
 246      7AEE3F5E 
 246      C0DDEF59 
 246      F7996F4C 
 246      10D2705F 
 247 06df 337EBCD8 		.ascii	"3~\274\330\201\375n\354Oa\177\032\373\017\260?\207\375"
 247      81FD6EEC 
 247      4F617F1A 
 247      FB0FB03F 
 247      87FD
 248 06f1 65EC3FC3 		.ascii	"e\354?\303^\305`\372\004\366\273\260\337\213}\033\366"
 248      5EC560FA 
 248      04F6BBB0 
 248      DF8B7D1B 
 248      F6
 249 0702 FBB13F80 		.ascii	"\373\261?\200\375\337\275\004\\\2175\340\363\364V\274"
 249      FDDFBD04 
 249      5C8F35E0 
 249      F3F456BC 
 250 0712 12413070 		.ascii	"\022A0p\330f\223\205\037dv\025\324\364\036;\223\261"
 250      D8669385 
 250      1F647615 
 250      D4F41E3B 
 250      93B1
 251 0724 EEE7D707 		.ascii	"\356\347\327\007Rcv\251\352h\211v\242\243o*\264ut\027"
 251      526376A9 
 251      EA688976 
 251      A2A36F2A 
 251      B4757417 
 252 0738 4002D981 		.ascii	"@\002\331\201s\216r\236\236jZP\242\372\264\347\271\275"
 252      738E729E 
 252      9E6A5A50 
 252      A2FAB4E7 
 252      B9BD
 253 074a 7C79DBAA 		.ascii	"|y\333\252\354\212\321\362y\022M\300I\026\335\202E\026"
 253      EC8AD1F2 
 253      79124DC0 
 253      4916DD82 
 253      4516
 254 075c DEA3FECA 		.ascii	"\336\243\376\312\317{\177\360\012\362\337\203\016\265"
 254      CF7B7FF0 
 254      0AF2DF83 
 254      0EB5
ARM GAS  /tmp/ccmg7hDC.s 			page 20


 255 076a A1880FFA 		.ascii	"\241\210\017\372~.\346\373\2551\337\037\310\\\3501_"
 255      7E2EE6FB 
 255      AD31DF1F 
 255      C85CE831 
 255      5F
 256 077b 27C2989A 		.ascii	"'\302\230\232\276\355\321\352>\211>\"\272\332\200N\332"
 256      BEEDD1EA 
 256      3E893E22 
 256      BADA804E 
 256      DA
 257 078c 9BEB4E8F 		.ascii	"\233\353N\217\331\204\244\275\207\276\371>G\032\267"
 257      D984A4BD 
 257      87BEF93E 
 257      471AB7
 258 079b 14612270 		.ascii	"\024a\"p\022\317\031\241\330A\003Y\357\004\362q\221"
 258      12CF19A1 
 258      D8410359 
 258      EF04F271 
 258      91
 259 07ac A1CEE12D 		.ascii	"\241\316\341-'\256\017\364~\345\315WUu\353o\364ey\252"
 259      27AE0FF4 
 259      7EE5CD57 
 259      5575EB6F 
 259      F46579AA 
 260 07c0 C06C3D96 		.ascii	"\300l=\226p\247\0275;[\277\312L\245\017\222"
 260      70A71735 
 260      3B5BBFCA 
 260      4CA50F92 
 261 07d0 A440FA39 		.ascii	"\244@\3729>sC\021\310\020\316\3718k\205\337*\226i\217"
 261      3E734311 
 261      C810CEF9 
 261      386B85DF 
 261      2A96698F 
 262 07e4 735B60D7 		.ascii	"s[`\327\374\245_R[\226\224\032\273\212O\006\014\220"
 262      FCA55F52 
 262      5B96941A 
 262      BB8A4F06 
 262      0C90
 263 07f6 C35B369C 		.ascii	"\303[6\234j\035\001\365b\316\317\306\214\260\213\274"
 263      6A1D01F5 
 263      62CECFC6 
 263      8CB08BBC 
 264 0806 EB74B7B2 		.ascii	"\353t\267\262\"\357\242'\317\351\231o\263\326\322d\351"
 264      22EFA227 
 264      CFE9996F 
 264      B3D6D264 
 264      E9
 265 0817 640EFDD9 		.ascii	"d\016\375\331\025\335\305a\252\273>u\242\325\010\371"
 265      15DDC561 
 265      AABB3E75 
 265      A2D508F9 
 266 0827 9A072D43 		.ascii	"\232\007-C\271\345\003\257\214cL +oP\366\003\336e\177"
 266      B9E503AF 
 266      8C634C20 
 266      2B6F50F6 
 266      03DE657F 
 267 083b 95977D3F 		.ascii	"\225\227}?\312\376\252'\331_\236o\244\247\016t\321U"
ARM GAS  /tmp/ccmg7hDC.s 			page 21


 267      CAFEAA27 
 267      D95F9E6F 
 267      A4A70E74 
 267      D155
 268 084d 48F7D561 		.ascii	"H\367\325a\313\362\012'\313\265y\303\313\226\345\237"
 268      CBF20A27 
 268      CBB579C3 
 268      CB96E59F 
 269 085d 862B4BBB 		.ascii	"\206+K\273\303\354c\220\011\261^:\217\231\355\002\366"
 269      C3EC6390 
 269      09B15E3A 
 269      8F99ED02 
 269      F6
 270 086e 57ACB5D3 		.ascii	"W\254\265\323\346\000\027J\354p;\177\263N\255\232\314"
 270      E600174A 
 270      EC703B7F 
 270      B34EAD9A 
 270      CC
 271 087f 4A1D6DB1 		.ascii	"J\035m\261\263\215\207e]\036\231.\2751r\324T\370\035"
 271      B38D8765 
 271      5D1E992E 
 271      BD3172D4 
 271      54F81D
 272 0892 4746BA90 		.ascii	"GF\272\220\205\017\261\377\334K\242\356\310\370\021"
 272      850FB1FF 
 272      DC4BA2EE 
 272      C8F811
 273 08a1 1FE4D3F7 		.ascii	"\037\344\323\367\372\207\223\364\375\033\324\374\336"
 273      FA8793F4 
 273      FD1BD4FC 
 273      DE
 274 08ae 2DDD397C 		.ascii	"-\3359|\244f@\236\020o\265b\305\357\317\336\322\312"
 274      A466409E 
 274      106FB562 
 274      C5EFCFDE 
 274      D2CA
 275 08c0 89CD7B4A 		.ascii	"\211\315{J7bZ\231'bZ\011\270\246\025\206\312\211\214"
 275      37625A99 
 275      27625A09 
 275      B8A61586 
 275      CA898C
 276 08d3 45A2735A 		.ascii	"E\242sZ\311~g&\226piP g82\356 \353T\265\261w\357\271"
 276      C97E6726 
 276      96706950 
 276      20673832 
 276      EE20EB54 
 277 08ec 4B7E58C8 		.ascii	"K~X\310\371\014\017\273\212\303\326\322\333l\211\322"
 277      F90C0FBB 
 277      8AC3D6D2 
 277      DB6C89D2 
 278 08fc 55A2CD55 		.ascii	"U\242\315U\257\311S4}@\235&\010\256\323Pk\332\264TW"
 278      AFC95334 
 278      7D409D26 
 278      08AED350 
 278      6BDAB454 
 279 0911 EBCBE084 		.ascii	"\353\313\340\204\202\246:\211\376\223\272OE\005\353"
 279      82A63A89 
ARM GAS  /tmp/ccmg7hDC.s 			page 22


 279      FE93BA4F 
 279      4505EB
 280 0920 182F338C 		.ascii	"\030/3\214o\340\306\367[9\246\241\035\350\030\273[_"
 280      6FE0C6F7 
 280      5B39A6A1 
 280      1DE818BB 
 280      5B5F
 281 0932 D0306A1A 		.ascii	"\3200j\032\031\314\301#\033e`<\3020bm<\224c\226&\365"
 281      19CCC123 
 281      1B65603C 
 281      C230626D 
 281      3C946396 
 282 0948 6F920D58 		.ascii	"o\222\015XW\267>5f1\303\250m@:\317\323\265\371\244("
 282      57B73E35 
 282      6631C3A8 
 282      6D403ACF 
 282      D3B5F9A4 
 283 095d 98D5ABFD 		.ascii	"\230\325\253\375\226\014\177X4\267wh\3506\316r\031P"
 283      960C7F58 
 283      34B77768 
 283      E836CE72 
 283      1950
 284 096f 279B5929 		.ascii	"'\233Y)\346\256Z\235v\010\215\232m[\177\251\266P\177"
 284      E6AE5A9D 
 284      76088D9A 
 284      6D5B7FA9 
 284      B6507F
 285 0982 56C4C830 		.ascii	"V\304\3100\302\276fu\002\203{]\"\027\366\227\265b\265"
 285      C2BE6675 
 285      02837B5D 
 285      2217F697 
 285      B562B5
 286 0995 CA9EE78E 		.ascii	"\312\236\347\216\373Mv9\327\303\2328\205\224\256\345"
 286      FB4D7639 
 286      D7C39A38 
 286      8594AEE5 
 287 09a5 71F74B65 		.ascii	"q\367Ke\332S\017\031\307\330\206j\0213\213a6u\270\213"
 287      DA530F19 
 287      C7D8866A 
 287      11338B61 
 287      3675B88B 
 288 09b9 61273D31 		.ascii	"a'=1\370i\365khV\347\217\306\250\356\271\274\366.\312"
 288      F869F56B 
 288      6856E78F 
 288      C6A8EEB9 
 288      BCF62ECA 
 289 09cd 211F7865 		.ascii	"!\037xe\026x\317\264\362\373\362\336\227\012\233\370"
 289      1678CFB4 
 289      F2FBF2DE 
 289      970A9BF8 
 290 09dd D8C948E2 		.ascii	"\330\311H\342Jv\357%\372\265R\255D\337\210\236\373\336"
 290      4A76EF25 
 290      FAB552AD 
 290      44DF889E 
 290      FBDE
 291 09ef 08D758BA 		.ascii	"\010\327X\272\311%\226nq\211\245\334;X\210\012\036\364"
 291      C925966E 
ARM GAS  /tmp/ccmg7hDC.s 			page 23


 291      7189A5DC 
 291      3B58880A 
 291      1EF4
 292 0a01 E1BA076C 		.ascii	"\341\272\007l\201\237q\006\211\256\021Y*|NdIp\003\366"
 292      819F7106 
 292      89AE1159 
 292      2A7C4E64 
 292      497003F6 
 293 0a15 2F881E52 		.ascii	"/\210\036Ra\263\230\235\012\335S\237\036\307r\345\205"
 293      61B3989D 
 293      0ADD539F 
 293      1EC772E5 
 293      85
 294 0a26 BE11B679 		.ascii	"\276\021\266ya\303\213\247\013\264\274\320\214\222\037"
 294      61C38BA7 
 294      0BB4BCD0 
 294      8C921F
 295 0a35 C2612B44 		.ascii	"\302a+D\247\350\327l\212\231\315`=\324\032\336\235'"
 295      A7E8D76C 
 295      8A99CD60 
 295      3DD41ADE 
 295      9D27
 296 0a47 9AC27BEA 		.ascii	"\232\302{\352X\373\026-N\233C\274\363TS\210W\007X\234"
 296      58FB162D 
 296      4E9B43BC 
 296      F3545388 
 296      5707589C 
 297 0a5b 9E877A6C 		.ascii	"\236\207zl\024\335\247\231\303\373\0375R1\275?\235c"
 297      14DDA799 
 297      C3FB1F35 
 297      5231BD3F 
 297      9D63
 298 0a6d 9E25C01F 		.ascii	"\236%\300\037i\347\002\274\323<]\177\333\263\003|o\003"
 298      69E702BC 
 298      D33C5D7F 
 298      DBB3037C 
 298      6F03
 299 0a7f FB40B780 		.ascii	"\373@\267\200.{\274e\237z\211\255l\275\027(\273x'cd"
 299      2E7BBC65 
 299      9F7A89AD 
 299      6CBD1728 
 299      BB782763 
 300 0a94 A46F16D9 		.ascii	"\244o\026\331,\204\005R_l\325\264A\332n[\322Nl\276\366"
 300      2C840552 
 300      5F6CD5B4 
 300      41DA6E5B 
 300      D24E6CBE 
 301 0aa9 C3D5DBD4 		.ascii	"\303\325\333\324y\213\324\317\207\036\243y$\240=\271"
 301      798BD4CF 
 301      871EA379 
 301      24A03DB9 
 302 0ab9 1310C418 		.ascii	"\023\020\304\030j\012\342\251t\241\311~U\241/Y\257\303"
 302      6A0AE2A9 
 302      74A1C97E 
 302      55A12F59 
 302      AFC3
 303 0acb 32C126D1 		.ascii	"2\301&\321X\307Jt/\270S\316al`\033\237\024\376\250%"
ARM GAS  /tmp/ccmg7hDC.s 			page 24


 303      58C74A74 
 303      2FB853CE 
 303      616C601B 
 303      9F14FEA8 
 304 0ae0 A4364F69 		.ascii	"\2446Oia\373\374\225z\2005[u\333\260\003\366_Zq\223"
 304      61FBFC95 
 304      7A80355B 
 304      75DBB003 
 304      F65F5A71 
 305 0af5 F13C7EEB 		.ascii	"\361<~\353X\212\212\311\007X\231\005\330a3\260\345^"
 305      588A8AC9 
 305      07589905 
 305      D86133B0 
 305      E55E
 306 0b07 80B97C38 		.ascii	"\200\271|8\351i]a\332a4\2340\037xV\342\376\245\021\247"
 306      E9695D61 
 306      DA61349C 
 306      301F7856 
 306      E2FEA511 
 307 0b1c 555ECF7A 		.ascii	"U^\317z!\316\345\307d\237\245\325`\362\330|\300\225"
 307      21CEE5C7 
 307      649FA5D5 
 307      60F2D87C 
 307      C095
 308 0b2e 71EA35A2 		.ascii	"q\3525\242\362>\214\312\3731\036\267c\377.\366\007\261"
 308      F23E8CCA 
 308      FB311EB7 
 308      63FF2EF6 
 308      07B1
 309 0b40 3F847DA7 		.ascii	"?\204}\2479N\013\244\205s'\303\224L\26036G\362\203\356"
 309      394E0BA4 
 309      857327C3 
 309      944CB033 
 309      3647F283 
 310 0b55 E45B7F33 		.ascii	"\344[\1773\027\015\026\347~\325\301\271\217\330:\367"
 310      170D16E7 
 310      7ED5C1B9 
 310      8FD83AF7 
 311 0b65 F581D4B7 		.ascii	"\365\201\324\267\232\235\234\333%\267\037\343\303\016"
 311      9A9D9CDB 
 311      25B71FE3 
 311      C30E
 312 0b73 5B0E382E 		.ascii	"[\0168.\315lr\275@\332\035\010\355\266%t\305\266\323"
 312      CD6C72BD 
 312      40DA1D08 
 312      EDB62574 
 312      C5B6D3
 313 0b86 639BD5B7 		.ascii	"c\233\325\267m\376\233\302\225\316\036\236\316f\261"
 313      6DFE9BC2 
 313      95CE1E9E 
 313      CE66B1
 314 0b95 9827E484 		.ascii	"\230'\344\204\003!'\254\204p%\3061\227\022\343dF;_ "
 314      032127AC 
 314      847025C6 
 314      319712E3 
 314      64463B5F 
 315 0baa 0DDAD6C8 		.ascii	"\015\332\326\3103\243\264\337\376\351sF\033s\004}\316"
ARM GAS  /tmp/ccmg7hDC.s 			page 25


 315      33A3B4DF 
 315      FEE97346 
 315      1B73047D 
 315      CE
 316 0bbb 29F10B78 		.ascii	")\361\013xe\371\000\216#\234\260\364\212\231\337\027"
 316      65F9008E 
 316      239CB0F4 
 316      8A99DF17 
 317 0bcb 96043217 		.ascii	"\226\0042\027\324\212\272\214\303<\301\030W\250\303"
 317      D48ABA8C 
 317      C33CC118 
 317      57A8C3
 318 0bda 399D37E6 		.ascii	"9\2357\3463\016\230\013\354E\265\307ET\037dD\305\315"
 318      330E980B 
 318      EC45B5C7 
 318      45541F64 
 318      44C5CD
 319 0bed 6A75F066 		.ascii	"ju\360f\254\025\034g\355r\301\325\227\231\305\254*u"
 319      AC151C67 
 319      ED72C1D5 
 319      9799C5AC 
 319      2A75
 320 0bff A977FBEE 		.ascii	"\251w\373\356\376_\277\264MU\321\374\347\316\343\035"
 320      FE5FBFB4 
 320      4D55D1FC 
 320      E7CEE31D 
 321 0c0f C025EF7E 		.ascii	"\300%\357~\244\033V\306\226\004\262\250\2047$\254\021"
 321      A41B56C6 
 321      9604B2A8 
 321      843724AC 
 321      11
 322 0c20 E0D8A88A 		.ascii	"\340\330\250\212\010\215\215?\013\365\201\305\316>\316"
 322      088D8D3F 
 322      0BF581C5 
 322      CE3ECE
 323 0c2f 367820ED 		.ascii	"6x \355_\317\036\033c\374\373\320\355\032>\2014y\302"
 323      5FCF1E1B 
 323      63FCFBD0 
 323      ED1A3E81 
 323      3479C2
 324 0c42 708EC770 		.ascii	"p\216\307p\336\026\303gg\372\247\\\3130\177\273w\346"
 324      DE16C367 
 324      67FAA75C 
 324      CB307FBB 
 324      77E6
 325 0c54 2FF25EB5 		.ascii	"/\362^\265\0233\204\305\253\016YH\305\221\340j%\272"
 325      133384C5 
 325      AB0E5948 
 325      C591E06A 
 325      25BA
 326 0c66 71EA5557 		.ascii	"q\352UW\247Vui\377\354q\036g\\p,\273\364\217\302:\307"
 326      A7567569 
 326      FFEC711E 
 326      675C702C 
 326      BBF48FC2 
 327 0c7c 97E73E54 		.ascii	"\227\347>T\232\346\370\002\317\361%[\216\267\357\356"
 327      9AE6F802 
ARM GAS  /tmp/ccmg7hDC.s 			page 26


 327      CFF1255B 
 327      8EB7EFEE 
 328 0c8c AC36ABDB 		.ascii	"\2546\253\333\020k\277'\261^\345\221\0148(\356B\266"
 328      106BBF27 
 328      B15EE591 
 328      0C3828EE 
 328      42B6
 329 0c9e E2AE7BC2 		.ascii	"\342\256{\302p\215\307\360_\327\020\324\343b\353\203"
 329      708DC7F0 
 329      5FD710D4 
 329      E362EB83 
 330 0cae 195BFF1A 		.ascii	"\031[\377\032Y\253vt\364\356\335\334L\027\366\252\015"
 330      59AB7674 
 330      F4EEDDDC 
 330      4C17F6AA 
 330      0D
 331 0cbf C0FB1035 		.ascii	"\300\373\0205\307\206\276Ll\350HWK_\302\251\016!\204"
 331      C786BE4C 
 331      6CE84857 
 331      4B5FC2A9 
 331      0E2184
 332 0cd2 1F26D1A1 		.ascii	"\037&\321\241\274c\210\352\263\217!c,\0020F1\357\032"
 332      BC6388EA 
 332      B38F2163 
 332      2C023046 
 332      31EF1A
 333 0ce5 C92D3C78 		.ascii	"\311-<x*\004\3228\222\352\363F\260\213\333\312\313+"
 333      2A04D238 
 333      92EAF346 
 333      B08BDBCA 
 333      CB2B
 334 0cf7 B4BF58B2 		.ascii	"\264\277X\262\"\241T$\023\241\212Pu\345\234\250\024"
 334      22A15424 
 334      13A18A50 
 334      75E59CA8 
 334      14
 335 0d08 0987CA43 		.ascii	"\011\207\312C\344\016\356}8\032\252\251\255\224aLrN"
 335      E40EEE7D 
 335      381AAAA9 
 335      AD94614C 
 335      724E
 336 0d1a 52991397 		.ascii	"R\231\023\227\223\345\325\244H\251N\310ReP)\230\374"
 336      93E5D5A4 
 336      48A94EC8 
 336      52655029 
 336      98FC
 337 0d2c F347CA26 		.ascii	"\363G\312&\221@\250:\250=*s\236\016X`\352M\332\270d"
 337      9140A83A 
 337      A83D2A73 
 337      9E0E5860 
 337      EA4DDAB8 
 338 0d41 F077B572 		.ascii	"\360w\265r\255\034TF\247\247\352\217|Qy\266\342\213"
 338      AD1C5446 
 338      A7A7EA8F 
 338      7C5179B6 
 338      E28B
 339 0d53 27E4597E 		.ascii	"'\344Y~\274\237`\206\030\212E\"\261hE<\226P\222\025"
ARM GAS  /tmp/ccmg7hDC.s 			page 27


 339      BC9F6086 
 339      188A4522 
 339      B168453C 
 339      96509215 
 340 0d67 131F9E3A 		.ascii	"\023\037\236:i\352l\366,\036\256\221\023\311\212\311"
 340      69EA6CF6 
 340      2C1EAE91 
 340      13C98AC9 
 341 0d77 93260122 		.ascii	"\223&\001\"\203\310B%\236\010\307\202\312\264\212\352"
 341      83C84225 
 341      9E08C782 
 341      CAB48AEA 
 342 0d87 5844AEF8 		.ascii	"XD\256\370mmMX\212VL}`\362\304\212\244\034\221\223J"
 342      6D6D4D58 
 342      8A564C7D 
 342      60F2C48A 
 342      A41C9193 
 343 0d9c 420E8667 		.ascii	"B\016\206gW<\020\231.O\017W\002p)\021\271\363\256q\343"
 343      573C1099 
 343      2E4F0F57 
 343      02702911 
 343      B9F3AE71 
 344 0db1 EF2E1F3F 		.ascii	"\357.\037?\036\257\243\261\250|\247,M\017\247\271H*"
 344      1EAFA3B1 
 344      A87CA72C 
 344      4D0FA7B9 
 344      482A
 345 0dc3 95E1A8C2 		.ascii	"\225\341\250\302\004P\013\347\273\357\0122B\303\261"
 345      04500BE7 
 345      BBEF0A32 
 345      42C3B1
 346 0dd2 12464F30 		.ascii	"\022FO0\024\213*@\372\267s\322[\035\212%d\000R\214\323"
 346      148B2A40 
 346      FAB773D2 
 346      5B1D8A25 
 346      6400528C 
 347 0de7 00504899 		.ascii	"\000PH\231}\247\267Y\301Y\367F\030\372\204\\\005\024"
 347      7DA7B759 
 347      C159F746 
 347      18FA845C 
 347      0514
 348 0df9 06152171 		.ascii	"\006\025!q\217\220\370\256\220\370\236\220\270WHL\020"
 348      8F90F8AE 
 348      90F89E90 
 348      B857484C 
 348      10
 349 0e0a 12DF1713 		.ascii	"\022\337\027\023\343\307A\033/\324$\204d\\\004\320\376"
 349      E3C7411B 
 349      2FD42484 
 349      645C04D0 
 349      FE
 350 0e1b A85C2727 		.ascii	"\250\\''\374\261\232J9\341\013UK\011\037\350Z\036\221"
 350      FCB19A4A 
 350      39E10B55 
 350      4B091FE8 
 350      5A1E91
 351 0e2e 54664A35 		.ascii	"TfJ5\341\252hPAf\276w\017h\263N\232.%\345\"%\251H\012"
ARM GAS  /tmp/ccmg7hDC.s 			page 28


 351      E1AA6850 
 351      4166BE77 
 351      0F68B34E 
 351      9A2E25E5 
 352 0e47 E8A690BD 		.ascii	"\350\246\220\275\230\020T\374x_\250Db\225\360\324?\243"
 352      981054FC 
 352      785FA844 
 352      6295F0D4 
 352      3FA3
 353 0e59 46AA4A16 		.ascii	"F\252J\026\202\370f$A\000\354\344\217$\253`\270.\223"
 353      82F86624 
 353      4100ECE4 
 353      8F24AB60 
 353      B82E93
 354 0e6c 8244E51C 		.ascii	"\202D\345\034xP$\317\016+!\230RP\247\304\246\3776~\263"
 354      785024CF 
 354      0E2B2198 
 354      5250A7C4 
 354      A6FF367E 
 355 0e81 6E343041 		.ascii	"n40AN\310\321\020\003U\247(\211xaR\216*0\241\004L\001"
 355      4EC8D110 
 355      0355A728 
 355      89786152 
 355      8E2A30A1 
 356 0e98 3423C5AB 		.ascii	"4#\305\253\201S\336NM\206$3\021\370CQ%\250\210\320\003"
 356      8153DE4E 
 356      4D862433 
 356      11F84351 
 356      25A888D0 
 357 0ead 7878142F 		.ascii	"xx\024/\202\331\221Z\320\200\363\314\2102\233\315\214"
 357      82D9915A 
 357      D080F3CC 
 357      88329BCD 
 357      8C
 358 0ebe D545E544 		.ascii	"\325E\345D!\216e<+\3608^,\317bDH\311\231\360H\256c\027"
 358      218E653C 
 358      2BF0385E 
 358      2CCF6244 
 358      48C999F0 
 359 0ed6 B4769461 		.ascii	"\264v\224a\2305\341$ \273\311d\252\354Ia\235\024V\302"
 359      9835E124 
 359      20BBC964 
 359      AAEC4961 
 359      9D1456C2 
 360 0eea D1AA22A0 		.ascii	"\321\252\"\240\035M\265H\216\313Q\260\220\252B\000\311"
 360      1D4DB548 
 360      8ECB51B0 
 360      90AA4200 
 360      C9
 361 0efb 46809EA4 		.ascii	"F\200\236\244\032f!\376H<\026\253\031k\243\344X\262"
 361      1A6621FE 
 361      483C16AB 
 361      196BA3E4 
 361      58B2
 362 0f0d 263CDD44 		.ascii	"&<\335Dc\265,\305\201\310\221\0219\022K\314\011\262"
 362      63B52CC5 
 362      81C89111 
ARM GAS  /tmp/ccmg7hDC.s 			page 29


 362      39124BCC 
 362      09B2
 363 0f1f DBA0526C 		.ascii	"\333\240Rl\272\223\206c\316\014GU(\304\231\365=\345"
 363      BA938663 
 363      CE0C4755 
 363      28C499F5 
 363      3DE5
 364 0f31 13CAC79B 		.ascii	"\023\312\307\233\215\273R\236\001\270\013\222\341\337"
 364      8DBB529E 
 364      01B80B92 
 364      E1DF
 365 0f3f 8372EC4C 		.ascii	"\203r\354L\222\247\026\350\322\215\231\021\\%+3j\243"
 365      92A716E8 
 365      D28D9911 
 365      5C252B33 
 365      6AA3
 366 0f51 213081A2 		.ascii	"!0\201\242x\"6+\014\0067\022\031\200\016\256\201\017"
 366      7822362B 
 366      0C063712 
 366      19800EAE 
 366      810F
 367 0f63 D39D1FAD 		.ascii	"\323\235\037\255\317\037\227\252\344\244oFB\226}\354"
 367      CF1F97AA 
 367      E4A46F46 
 367      42967DEC 
 368 0f73 A58FE1F6 		.ascii	"\245\217\341\366\325&\345\312\002m\230\010\242\374\272"
 368      D526E5CA 
 368      026D9808 
 368      A2FCBA
 369 0f82 A3467575 		.ascii	"\243Fuu\240\2673\324A\345\226P\365/\252+'\301cE\376"
 369      A0B733D4 
 369      41E59650 
 369      F52FAA2B 
 369      27C16345 
 370 0f97 69221699 		.ascii	"i\"\026\231\002@\375\014r"
 370      0240FD0C 
 370      72
 371 0fa0 5C88CF10 		.ascii	"\\\210\317\020\245DU\2717\266\230\276\222&E\260{`\000"
 371      A54455B9 
 371      37B698BE 
 371      922645B0 
 371      7B6000
 372 0fb3 4F1A65C5 		.ascii	"O\032e\305`\324rH\0112\212K2\334\007\2251\034\011S\021"
 372      60D47248 
 372      09328A4B 
 372      32DC0795 
 372      311C0953 
 373 0fc8 C2433053 		.ascii	"\302C0S\210\304\301\310\247\205\252\037\225f\312\265"
 373      88C4C1C8 
 373      A785AA1F 
 373      9566CAB5 
 374 0fd8 F169FE3A 		.ascii	"\361i\376:\346o\276:\260\032?\233\033\277E\367\221J"
 374      E66FBE3A 
 374      B01A3F9B 
 374      1BBF45F7 
 374      914A
 375 0fea 39194A84 		.ascii	"9\031J\204\343J\014\204\366E\023\270i\265Ifbr\345\203"
ARM GAS  /tmp/ccmg7hDC.s 			page 30


 375      E34A0C84 
 375      F64513B8 
 375      69B54966 
 375      6272E583 
 376 0ffe 3787     		.ascii	"7\207"
 377 1000 AA196B13 		.ascii	"\252\031k\023kjb\241\211L\222req\250\232!\301G.\356"
 377      6B6A62A1 
 377      894C9272 
 377      6571A89A 
 377      21C1472E 
 378 1015 3387B105 		.ascii	"3\207\261\005\021{\332\234\344\317b\241\231\001\214"
 378      117BDA9C 
 378      E4CF62A1 
 378      99018C
 379 1024 423065E6 		.ascii	"B0e\346x\033\311@@\253\2304u\332\203\3232\020\"\311"
 379      781BC940 
 379      40AB9834 
 379      75DA83D3 
 379      321022C9 
 380 1038 703208C6 		.ascii	"p2\010\306\304\204\023\004\207U\202?\2368\355\201\207"
 380      C4841304 
 380      8755823F 
 380      9E38ED81 
 380      87
 381 1049 1E7E70A4 		.ascii	"\036~p\244TS'\315IBD\253\011Ge\377,\251\246V.F<\217"
 381      545327CD 
 381      494244AB 
 381      094765FF 
 381      2CA9A656 
 382 1061 44197C2D 		.ascii	"D\031|-\336\325\342uQ0\210\302\012\2164.\312\277\373"
 382      DED5E275 
 382      513088C2 
 382      0A8E342E 
 382      CABFFB
 383 1074 FDBBEEFE 		.ascii	"\375\273\356\376\037\366<\227\265"
 383      1FF63C97 
 383      B5
 384              		.text
 385              		.section	.gnu.lto_.symtab.b127f07dcf100da3,"",%progbits
 386 0000 63685468 		.ascii	"chThdCreateFromHeap\000\000\000\000\000\000\000\000"
 386      64437265 
 386      61746546 
 386      726F6D48 
 386      65617000 
 387 001b 00000000 		.ascii	"\000\000\000\000\241\000\000\000chThdCreateFromMemo"
 387      A1000000 
 387      63685468 
 387      64437265 
 387      61746546 
 388 0036 7279506F 		.ascii	"ryPool\000\000\000\000\000\000\000\000\000\000\000\000"
 388      6F6C0000 
 388      00000000 
 388      00000000 
 388      0000
 389 0048 96010000 		.ascii	"\226\001\000\000chSchWakeupS\000\000\002\000\000\000"
 389      63685363 
 389      6857616B 
ARM GAS  /tmp/ccmg7hDC.s 			page 31


 389      65757053 
 389      00000200 
 390 005e 00000000 		.ascii	"\000\000\000\000\000\000\273\001\000\000chThdCreate"
 390      0000BB01 
 390      00006368 
 390      54686443 
 390      72656174 
 391 0073 53757370 		.ascii	"SuspendedI\000\000\002\000\000\000\000\000\000\000\000"
 391      656E6465 
 391      64490000 
 391      02000000 
 391      00000000 
 392 0088 00C00100 		.ascii	"\000\300\001\000\000chHeapAllocAligned\000\000\002\000"
 392      00636848 
 392      65617041 
 392      6C6C6F63 
 392      416C6967 
 393 00a3 00000000 		.ascii	"\000\000\000\000\000\000\000\000\324\001\000\000chP"
 393      00000000 
 393      D4010000 
 393      636850
 394 00b2 6F6F6C41 		.ascii	"oolAlloc\000\000\002\000\000\000\000\000\000\000\000"
 394      6C6C6F63 
 394      00000200 
 394      00000000 
 394      000000
 395 00c5 00DA0100 		.ascii	"\000\332\001\000\000"
 395      00
 396              		.text
 397              		.section	.gnu.lto_.opts,"",%progbits
 398 0000 272D6D63 		.ascii	"'-mcpu=cortex-m3' '-mno-thumb-interwork' '-mthumb' "
 398      70753D63 
 398      6F727465 
 398      782D6D33 
 398      2720272D 
 399 0033 272D6767 		.ascii	"'-ggdb' '-O2' '-fomit-frame-pointer' '-falign-funct"
 399      64622720 
 399      272D4F32 
 399      2720272D 
 399      666F6D69 
 400 0066 696F6E73 		.ascii	"ions=16' '-ffunction-sections' '-fdata-sections' '-"
 400      3D313627 
 400      20272D66 
 400      66756E63 
 400      74696F6E 
 401 0099 666E6F2D 		.ascii	"fno-common' '-flto'\000"
 401      636F6D6D 
 401      6F6E2720 
 401      272D666C 
 401      746F2700 
 402              		.text
 403              		.cfi_sections	.debug_frame
 404              		.section	.text.chThdCreateFromHeap,"ax",%progbits
 405              		.align	2
 406              		.p2align 4,,15
 407              		.global	chThdCreateFromHeap
 408              		.thumb
ARM GAS  /tmp/ccmg7hDC.s 			page 32


 409              		.thumb_func
 410              		.type	chThdCreateFromHeap, %function
 411              	chThdCreateFromHeap:
 412              	.LFB188:
 413              		.file 1 "../../../os/rt/src/chdynamic.c"
 414              		.loc 1 84 0
 415              		.cfi_startproc
 416              		@ args = 8, pretend = 0, frame = 24
 417              		@ frame_needed = 0, uses_anonymous_args = 0
 418              	.LVL0:
 419 0000 70B5     		push	{r4, r5, r6, lr}
 420              		.cfi_def_cfa_offset 16
 421              		.cfi_offset 4, -16
 422              		.cfi_offset 5, -12
 423              		.cfi_offset 6, -8
 424              		.cfi_offset 14, -4
 425 0002 1446     		mov	r4, r2
 426 0004 86B0     		sub	sp, sp, #24
 427              		.cfi_def_cfa_offset 40
 428              		.loc 1 88 0
 429 0006 0822     		movs	r2, #8
 430              	.LVL1:
 431              		.loc 1 84 0
 432 0008 1E46     		mov	r6, r3
 433 000a 0D46     		mov	r5, r1
 434              		.loc 1 88 0
 435 000c FFF7FEFF 		bl	chHeapAllocAligned
 436              	.LVL2:
 437              		.loc 1 89 0
 438 0010 C8B1     		cbz	r0, .L2
 439              		.loc 1 93 0
 440 0012 0A9B     		ldr	r3, [sp, #40]
 441              		.loc 1 96 0
 442 0014 0544     		add	r5, r5, r0
 443              	.LVL3:
 444              		.loc 1 93 0
 445 0016 0493     		str	r3, [sp, #16]
 446 0018 0B9B     		ldr	r3, [sp, #44]
 447 001a 0295     		str	r5, [sp, #8]
 448 001c 0593     		str	r3, [sp, #20]
 449              	.LVL4:
 450 001e 0094     		str	r4, [sp]
 451 0020 0190     		str	r0, [sp, #4]
 452 0022 0396     		str	r6, [sp, #12]
 453              	.LBB34:
 454              	.LBB35:
 455              	.LBB36:
 456              	.LBB37:
 457              		.file 2 "../../../os/common/ext/CMSIS/include/cmsis_gcc.h"
 458              		.loc 2 264 0
 459 0024 2023     		movs	r3, #32
 460              	@ 264 "../../../os/common/ext/CMSIS/include/cmsis_gcc.h" 1
 461 0026 83F31188 		MSR basepri, r3
 462              	@ 0 "" 2
 463              		.thumb
 464              	.LBE37:
 465              	.LBE36:
ARM GAS  /tmp/ccmg7hDC.s 			page 33


 466              	.LBE35:
 467              	.LBE34:
 468              		.loc 1 109 0
 469 002a 6846     		mov	r0, sp
 470              	.LVL5:
 471 002c FFF7FEFF 		bl	chThdCreateSuspendedI
 472              	.LVL6:
 473              		.loc 1 110 0
 474 0030 0123     		movs	r3, #1
 475 0032 80F82130 		strb	r3, [r0, #33]
 476              		.loc 1 111 0
 477 0036 0021     		movs	r1, #0
 478              		.loc 1 109 0
 479 0038 0446     		mov	r4, r0
 480              	.LVL7:
 481              		.loc 1 111 0
 482 003a FFF7FEFF 		bl	chSchWakeupS
 483              	.LVL8:
 484              	.LBB38:
 485              	.LBB39:
 486              	.LBB40:
 487              	.LBB41:
 488              	.LBB42:
 489              		.loc 2 264 0
 490 003e 0023     		movs	r3, #0
 491              	@ 264 "../../../os/common/ext/CMSIS/include/cmsis_gcc.h" 1
 492 0040 83F31188 		MSR basepri, r3
 493              	@ 0 "" 2
 494              		.thumb
 495              	.LBE42:
 496              	.LBE41:
 497              	.LBE40:
 498              	.LBE39:
 499              	.LBE38:
 500              		.loc 1 114 0
 501 0044 2046     		mov	r0, r4
 502              	.LVL9:
 503              	.L2:
 504              		.loc 1 115 0
 505 0046 06B0     		add	sp, sp, #24
 506              		@ sp needed
 507 0048 70BD     		pop	{r4, r5, r6, pc}
 508              		.cfi_endproc
 509              	.LFE188:
 510              		.size	chThdCreateFromHeap, .-chThdCreateFromHeap
 511 004a 00BFAFF3 		.section	.text.chThdCreateFromMemoryPool,"ax",%progbits
 511      0080
 512              		.align	2
 513              		.p2align 4,,15
 514              		.global	chThdCreateFromMemoryPool
 515              		.thumb
 516              		.thumb_func
 517              		.type	chThdCreateFromMemoryPool, %function
 518              	chThdCreateFromMemoryPool:
 519              	.LFB189:
 520              		.loc 1 146 0
 521              		.cfi_startproc
ARM GAS  /tmp/ccmg7hDC.s 			page 34


 522              		@ args = 4, pretend = 0, frame = 24
 523              		@ frame_needed = 0, uses_anonymous_args = 0
 524              	.LVL10:
 525 0000 F0B5     		push	{r4, r5, r6, r7, lr}
 526              		.cfi_def_cfa_offset 20
 527              		.cfi_offset 4, -20
 528              		.cfi_offset 5, -16
 529              		.cfi_offset 6, -12
 530              		.cfi_offset 7, -8
 531              		.cfi_offset 14, -4
 532 0002 87B0     		sub	sp, sp, #28
 533              		.cfi_def_cfa_offset 48
 534              		.loc 1 146 0
 535 0004 0F46     		mov	r7, r1
 536 0006 1646     		mov	r6, r2
 537 0008 1C46     		mov	r4, r3
 538 000a 0546     		mov	r5, r0
 539              		.loc 1 152 0
 540 000c FFF7FEFF 		bl	chPoolAlloc
 541              	.LVL11:
 542              		.loc 1 153 0
 543 0010 D0B1     		cbz	r0, .L6
 544              		.loc 1 160 0
 545 0012 6B68     		ldr	r3, [r5, #4]
 546              		.loc 1 157 0
 547 0014 0C9A     		ldr	r2, [sp, #48]
 548              		.loc 1 160 0
 549 0016 0344     		add	r3, r3, r0
 550              		.loc 1 157 0
 551 0018 0293     		str	r3, [sp, #8]
 552 001a 0097     		str	r7, [sp]
 553 001c 0190     		str	r0, [sp, #4]
 554 001e 0396     		str	r6, [sp, #12]
 555 0020 0494     		str	r4, [sp, #16]
 556 0022 0592     		str	r2, [sp, #20]
 557              	.LVL12:
 558              	.LBB43:
 559              	.LBB44:
 560              	.LBB45:
 561              	.LBB46:
 562              		.loc 2 264 0
 563 0024 2023     		movs	r3, #32
 564              	@ 264 "../../../os/common/ext/CMSIS/include/cmsis_gcc.h" 1
 565 0026 83F31188 		MSR basepri, r3
 566              	@ 0 "" 2
 567              		.thumb
 568              	.LBE46:
 569              	.LBE45:
 570              	.LBE44:
 571              	.LBE43:
 572              		.loc 1 173 0
 573 002a 6846     		mov	r0, sp
 574              	.LVL13:
 575 002c FFF7FEFF 		bl	chThdCreateSuspendedI
 576              	.LVL14:
 577              		.loc 1 174 0
 578 0030 0223     		movs	r3, #2
ARM GAS  /tmp/ccmg7hDC.s 			page 35


 579 0032 80F82130 		strb	r3, [r0, #33]
 580              		.loc 1 175 0
 581 0036 0564     		str	r5, [r0, #64]
 582              		.loc 1 176 0
 583 0038 0021     		movs	r1, #0
 584              		.loc 1 173 0
 585 003a 0446     		mov	r4, r0
 586              	.LVL15:
 587              		.loc 1 176 0
 588 003c FFF7FEFF 		bl	chSchWakeupS
 589              	.LVL16:
 590              	.LBB47:
 591              	.LBB48:
 592              	.LBB49:
 593              	.LBB50:
 594              	.LBB51:
 595              		.loc 2 264 0
 596 0040 0023     		movs	r3, #0
 597              	@ 264 "../../../os/common/ext/CMSIS/include/cmsis_gcc.h" 1
 598 0042 83F31188 		MSR basepri, r3
 599              	@ 0 "" 2
 600              		.thumb
 601              	.LBE51:
 602              	.LBE50:
 603              	.LBE49:
 604              	.LBE48:
 605              	.LBE47:
 606              		.loc 1 179 0
 607 0046 2046     		mov	r0, r4
 608              	.LVL17:
 609              	.L6:
 610              		.loc 1 180 0
 611 0048 07B0     		add	sp, sp, #28
 612              		@ sp needed
 613 004a F0BD     		pop	{r4, r5, r6, r7, pc}
 614              		.cfi_endproc
 615              	.LFE189:
 616              		.size	chThdCreateFromMemoryPool, .-chThdCreateFromMemoryPool
 617 004c AFF30080 		.text
 618              	.Letext0:
 619              		.file 3 "/home/julian/MEGA/semestre_ix/Embebidos/arm-2013.11/lib/gcc/arm-none-eabi/4.8.1/include/s
 620              		.file 4 "/home/julian/MEGA/semestre_ix/Embebidos/arm-2013.11/arm-none-eabi/include/stdint.h"
 621              		.file 5 "../../../os/common/ports/ARMCMx/compilers/GCC/chtypes.h"
 622              		.file 6 "../../../os/rt/include/chsystypes.h"
 623              		.file 7 "../../../os/rt/include/chschd.h"
 624              		.file 8 "../../../os/common/ports/ARMCMx/chcore.h"
 625              		.file 9 "../../../os/common/ports/ARMCMx/chcore_v7m.h"
 626              		.file 10 "../../../os/rt/include/chsem.h"
 627              		.file 11 "../../../os/rt/include/chmtx.h"
 628              		.file 12 "../../../os/rt/include/chthreads.h"
 629              		.file 13 "../../../os/common/oslib/include/chmemcore.h"
 630              		.file 14 "../../../os/common/oslib/include/chheap.h"
 631              		.file 15 "../../../os/common/oslib/include/chmempools.h"
 632              		.file 16 "../../../os/rt/include/chsys.h"
 633              		.file 17 "../../../os/common/ext/CMSIS/include/core_cm3.h"