ARM GAS  /tmp/ccJH6cy9.s 			page 1


   1              		.syntax unified
   2              		.cpu cortex-m3
   3              		.fpu softvfp
   4              		.eabi_attribute 20, 1
   5              		.eabi_attribute 21, 1
   6              		.eabi_attribute 23, 3
   7              		.eabi_attribute 24, 1
   8              		.eabi_attribute 25, 1
   9              		.eabi_attribute 26, 1
  10              		.eabi_attribute 30, 2
  11              		.eabi_attribute 34, 1
  12              		.eabi_attribute 18, 4
  13              		.thumb
  14              		.file	"hal_st.c"
  15              		.text
  16              	.Ltext0:
  17              		.section	.gnu.lto_.jmpfuncs.6d8acf5fbf06f8a6,"",%progbits
  18 0000 789C6362 		.ascii	"x\234cb`b\300\006x\2414+\020322103\26200\000\000\002"
  18      6062C006 
  18      78A1342B 
  18      10333232 
  18      313033B2 
  19 0019 6D0023   		.ascii	"m\000#"
  20              		.text
  21              		.section	.gnu.lto_.inline.6d8acf5fbf06f8a6,"",%progbits
  22 0000 789C6362 		.ascii	"x\234cb`b\300\006\362\2414+\003\003\013\017#X\021\333"
  22      6062C006 
  22      F2A1342B 
  22      03030B0F 
  22      235811DB 
  23 0014 0279B05A 		.ascii	"\002y\260ZF.\020\301\300\306\312\310\010\244\030\030"
  23      462E10C1 
  23      C0C6CAC8 
  23      08A41818 
  24 0024 98D83EE8 		.ascii	"\230\330>\350\301%\231\030X\230\201\312\231.\360\303"
  24      C1259918 
  24      589881CA 
  24      992EF0C3 
  25 0034 85984142 		.ascii	"\205\230ABP\245\310\342,\230J\031\000\300\002\010{"
  25      50A5C8E2 
  25      2C984A19 
  25      00C00208 
  25      7B
  26              		.text
  27              		.section	.gnu.lto_.pureconst.6d8acf5fbf06f8a6,"",%progbits
  28 0000 789C6362 		.ascii	"x\234cb`b\340f\200\000V\006\011F)&)f)\026)\000\004\027"
  28      6062E066 
  28      80005606 
  28      09462926 
  28      29662916 
  29 0018 009F     		.ascii	"\000\237"
  30              		.text
  31              		.section	.gnu.lto_stInit.6d8acf5fbf06f8a6,"",%progbits
  32 0000 789C6362 		.ascii	"x\234cb`b@\007\222@\\\011\304\362@\314\310\314\300\310"
  32      60624007 
  32      92405C09 
  32      C4F240CC 
ARM GAS  /tmp/ccJH6cy9.s 			page 2


  32      C8CCC0C8 
  33 0014 34E11C03 		.ascii	"4\341\034\003C#\007\023##\210\301\300\310P\317\304X"
  33      43230713 
  33      232388C1 
  33      C0C850CF 
  33      C458
  34 0026 1FC90856 		.ascii	"\037\311\010V\273\236\351\300\203\377\377\327\375X\373"
  34      BB9EE9C0 
  34      83FFFFD7 
  34      FD58FB
  35 0035 B01EA894 		.ascii	"\260\036\250\224\201\201\225\241\245\241a\202\002\003"
  35      818195A1 
  35      A5A16182 
  35      0203
  36 0043 4332583E 		.ascii	"C2X>\004H\2024\20522\201h\346\363\014\315\017\376\331"
  36      04488234 
  36      85323281 
  36      68E6F30C 
  36      CD0FFED9 
  37 0057 24322E64 		.ascii	"$2.dd\005\312V3\374j\350h\020\310d\004\252\206\030\227"
  37      6405CA56 
  37      33FC6AE8 
  37      6810C864 
  37      04AA8618 
  38 006c 09A22F32 		.ascii	"\011\242/24>\370\317\004S\004\001!@\011\240\001 \307"
  38      343EF8CF 
  38      04530401 
  38      214009A0 
  38      0120C7
  39 007f CAEAE9E9 		.ascii	"\312\352\351\351CP~\261~Fb\216~qQ2\210\216/.\321Kf\000"
  39      43507EB1 
  39      7E46628E 
  39      7E715132 
  39      888E2F2E 
  40 0097 0032792A 		.ascii	"\0002y*\325"
  40      D5
  41              		.text
  42              		.section	.gnu.lto_stStartAlarm.6d8acf5fbf06f8a6,"",%progbits
  43 0000 789C9D51 		.ascii	"x\234\235Q?K\303@\024\177\357r\261\335\354\352 \224"
  43      3F4BC340 
  43      147FEF72 
  43      B1DDECEA 
  43      2094
  44 0012 AE6282F6 		.ascii	"\256b\202\366\003\270\270\010\355d\004;\225X\305\036"
  44      03B8B808 
  44      ED64043B 
  44      9558C51E 
  45 0022 B4549AE0 		.ascii	"\264T\232\340\332K)\035t)\235\244\272T\024A\305Nb\005"
  45      DA4B291D 
  45      74299DA4 
  45      BA541441 
  45      C54E6205 
  46 0036 876AA70E 		.ascii	"\207j\247\016\012E'A\020\334\245\337 \336]R\244]\004"
  46      0A452741 
  46      10DCA5DF 
  46      20DE5D52 
  46      A45D04
ARM GAS  /tmp/ccJH6cy9.s 			page 3


  47 0049 1FB9BCBB 		.ascii	"\037\271\274\273\367~\177\036w\004\010L\307\234X_\010"
  47      F77E7F1E 
  47      7704084C 
  47      C79C585F 
  47      08
  48 005a B029326A 		.ascii	"\260)2j\200\244\361\002\340E\011\242\334\000B\205`%"
  48      80A4F102 
  48      E04509A2 
  48      DC004285 
  48      6025
  49 006c 830ADB21 		.ascii	"\203\012\333!\275O\337\277\351\326/N\260E\004\246\210"
  49      BD4FDFBF 
  49      E9D62F4E 
  49      B04504A6 
  49      88
  50 007d 4081A9A6 		.ascii	"@\201\251\246\0165\316\033\361\"\212SNU,\361\227\032"
  50      0E35CE1B 
  50      F1228A53 
  50      4E552CF1 
  50      971A
  51 008f 1B4864D6 		.ascii	"\033Hd\326\006P\215\002$\240\315y\263w_\357#?\340\336"
  51      06508D02 
  51      24A0CD79 
  51      B3775FEF 
  51      233FE0DE 
  52 00a3 C8F76719 		.ascii	"\310\367g\031\012D\034%m\023\031\222\230J\332\324\254"
  52      0A441C25 
  52      6D131992 
  52      984ADAD4 
  52      AC
  53 00b4 BB0204CF 		.ascii	"\273\002\004\317P\375\356\337\275_\271\241\335\330\267"
  53      50FDEEDF 
  53      BD5FB9A1 
  53      DDD8B7
  54 00c3 77F836D4 		.ascii	"w\3706\324m<\305\204@\332\330F]\250a@\243!\363i\360"
  54      6D3CC584 
  54      40DAD846 
  54      5DA86140 
  54      A321F369 
  55 00d8 F0FA518D 		.ascii	"\360\372Q\215\330x&\272\213p\315k\036\3170\244\013p"
  55      D87826BA 
  55      8B70CD6B 
  55      1ECF30A4 
  55      0B70
  56 00ea 29B72B0C 		.ascii	")\267+\014\365chy\015\036c8#'\210p\021T\015\023Q#l\241"
  56      F5636879 
  56      0D1E6338 
  56      23278870 
  56      11540D13 
  57 0102 523F177C 		.ascii	"R?\027|U\215\006\223\205\025\341\244l\272G\235G-p\371"
  57      558D0693 
  57      8515E1A4 
  57      6CBA479D 
  57      472D70F9 
  58 0116 95A67F4A 		.ascii	"\225\246\177J\343\2044\225E)\326\375\227\030\231\024"
  58      E3843495 
  58      4529D6FD 
ARM GAS  /tmp/ccJH6cy9.s 			page 4


  58      97189914 
  59 0126 93573904 		.ascii	"\223W9\004o\324\274\245\301\345\214\303\022\266\342"
  59      6FD4BCA5 
  59      C1E58CC3 
  59      12B6E2
  60 0135 6D647FDE 		.ascii	"md\177\3360\314\340+9f\336.\230N9's\326q\215\034P\227"
  60      30CCE02B 
  60      3966DE2E 
  60      984E3927 
  60      73D6718D 
  61 014c 157792D3 		.ascii	"\025w\222\323\220\275R\331u\314u+\235\\6S\251U\323Z"
  61      90BD52D9 
  61      75CC752B 
  61      9D5C3653 
  61      A955D35A 
  62 0160 4BEF2F85 		.ascii	"K\357/\205\244l\241\260m\344\341\007\310\\\220\343"
  62      A46CA1B0 
  62      6DE4E107 
  62      C85C90E3 
  63              		.text
  64              		.section	.gnu.lto_stStopAlarm.6d8acf5fbf06f8a6,"",%progbits
  65 0000 789C6362 		.ascii	"x\234cb`b@\007\222@|\024\210\203\201\230\221\231\201"
  65      60624007 
  65      92407C14 
  65      88838198 
  65      919981
  66 0013 9169C239 		.ascii	"\221i\3029\006\206F\016&FF\020\203\201\221\241\236\211"
  66      0686460E 
  66      26464610 
  66      838191A1 
  66      9E89
  67 0025 B13E9211 		.ascii	"\261>\222\021\254v=\323\201\007\377\377\257\373\322"
  67      AC763DD3 
  67      8107FFFF 
  67      AFFBD2
  68 0034 36E70EE3 		.ascii	"6\347\016\343l&\026\240\010+CKC\303\004\005\006\206"
  68      6C2616A0 
  68      082B434B 
  68      43C30405 
  68      0686
  69 0046 64B08A10 		.ascii	"d\260\212\020 \011\322\026\312\310\004\242\231\3172"
  69      2009D216 
  69      CAC804A2 
  69      99CF32
  70 0055 1CDA31E7 		.ascii	"\034\3321\347\322\363G\254pu\020\306\201\356{\007Y\031"
  70      D2F347AC 
  70      707510C6 
  70      81EE7B07 
  70      5919
  71 0067 18121917 		.ascii	"\030\022\031\0272\262\002\265\202\365j3\254jhi|0q\357"
  71      32B202B5 
  71      82F56A33 
  71      AC6A6869 
  71      7C3071EF 
  72 007b 34F94C46 		.ascii	"4\371LF\206\331\014\263\032'4\010d22F0f225\000\001\013"
  72      86D90CB3 
  72      1A273408 
ARM GAS  /tmp/ccJH6cy9.s 			page 5


  72      64323246 
  72      30663232 
  73 0093 03980976 		.ascii	"\003\230\011vI\022HK\"\343b\240v\260(X\360\"C\343\207"
  73      4912484B 
  73      22E362A0 
  73      76B02858 
  73      F02243E3 
  74 00a8 4BDB5920 		.ascii	"K\333Y \246\302@\010\320t\240S@\332d\365\364\364!(\277"
  74      A6C24008 
  74      D074A053 
  74      40DA64F5 
  74      F4F42128 
  75 00bd 583F2331 		.ascii	"X?#1G\277\270(\031D\307\027\227\350%3\030\243\313\026"
  75      47BFB828 
  75      1944C717 
  75      97E82533 
  75      18A3CB16 
  76 00d1 E4179514 		.ascii	"\344\027\225\024\353\007\207\370\032\033\351\373\370"
  76      EB0787F8 
  76      1A1BE9FB 
  76      F8
  77 00de B8E88778 		.ascii	"\270\350\207x\372\226\031B\325\307\347\344\244\350e"
  77      FA961942 
  77      D5C7E7E4 
  77      A4E865
  78 00ed 30000080 		.ascii	"0\000\000\200\211PH"
  78      895048
  79              		.text
  80              		.section	.gnu.lto_stSetAlarm.6d8acf5fbf06f8a6,"",%progbits
  81 0000 789C5D50 		.ascii	"x\234]P\261N\002A\020\235\267\334\001\235\264\026&\204"
  81      B14E0241 
  81      109DB7DC 
  81      019DB416 
  81      2684
  82 0012 D67817E5 		.ascii	"\326x\027\345\003llH\240\362L\240\"'\032\271\004\202"
  82      036C6C48 
  82      A0F24CA0 
  82      22271AB9 
  82      0482
  83 0024 E12EB6EC 		.ascii	"\341.\266\354\021\022\022m\210\245\306\002\242\026\306"
  83      1112126D 
  83      88A5C602 
  83      A216C6
  84 0033 A054165A 		.ascii	"\240T\026Z\020\251(4Q;c\341\027\020\032\353sw\357h\230"
  84      10A92834 
  84      513B63E1 
  84      17101AEB 
  84      7377EF68 
  85 0048 ECEECCCE 		.ascii	"\354\356\314\316\2747\363v\0311Z\266U\261s *\012\217"
  85      BC37F376 
  85      19315AB6 
  85      55B17320 
  85      2A0A8F
  86 005b 1881F5DE 		.ascii	"\030\201\365\336\211\374$\003d@\240\026C\253\004\205"
  86      89FC2403 
  86      6440A016 
  86      43AB0485 
ARM GAS  /tmp/ccJH6cy9.s 			page 6


  87 006b 7D60E3DF 		.ascii	"}`\343\337 \030>vo\177p\305\342\014u\220F\216*\352\324"
  87      20183E76 
  87      6F7F70C5 
  87      E20C7590 
  87      468E2AEA 
  88 0080 E1BC97AE 		.ascii	"\341\274\227\256C\334**c\211S\366\330\003\223>6\245"
  88      43DC2A2A 
  88      638953F6 
  88      D803933E 
  88      36A5
  89 0092 76922843 		.ascii	"v\222(C}\316\317\307\243\356\004\374\224\373\363 Xq"
  89      7DCECFC7 
  89      A3EE04FC 
  89      94FBF320 
  89      5871
  90 00a4 20106948 		.ascii	" \020iHZ\021\016XJ\271\330\222\326#\001\2427j\317&O"
  90      5A110E58 
  90      4AB9D892 
  90      D62301A2 
  90      376ACF26 
  91 00b9 DF432F1A 		.ascii	"\337C/\032\267\230;>\233\215t\033\003d\004\322F\037"
  91      B7983B3E 
  91      9B8D741B 
  91      036404D2 
  91      461F
  92 00cb BAE88690 		.ascii	"\272\350\206\220\246E\314\327\351\313\327_;a\343ZT7"
  92      A645CCD7 
  92      E9CBD75F 
  92      3B61E35A 
  92      5437
  93 00dd E89E777C 		.ascii	"\350\236w|^r\240\255\323\235\014\267\035\350\227t\341"
  93      5E72A0AD 
  93      D39D0CB7 
  93      1DE89774 
  93      E1
  94 00ee F778CA41 		.ascii	"\367x\312A\\*Hpa\232\022\223P\022\366\241\272\337\010"
  94      5C2A4870 
  94      619A1293 
  94      5012F6A1 
  94      BADF08
  95 0101 BECA2643 		.ascii	"\276\312&CeQFL\"\372 \177\376\371\254\205\022\026f\011"
  95      6551464C 
  95      22FA207F 
  95      FEF9AC85 
  95      12166609 
  96 0115 29E207E4 		.ascii	")\342\007\344\203\326\014\303\014W\3035\253v\315t\233"
  96      83D60CC3 
  96      0C57C335 
  96      AB76CD74 
  96      9B
  97 0126 15E9CBAE 		.ascii	"\025\351\313\256gTH\363\234\372av\031r\334hz\256\271"
  97      675448F3 
  97      9CFA6176 
  97      1972DC68 
  97      7AAEB9
  98 0139 6B15B25B 		.ascii	"k\025\262[f>\277cZ\271\302\311fD*\327j\007F\225\376"
  98      663EBF63 
ARM GAS  /tmp/ccJH6cy9.s 			page 7


  98      5AB9C2C9 
  98      66442AD7 
  98      6A074695 
  99 014e 01E6CB6C 		.ascii	"\001\346\313l\275"
  99      BD
 100              		.text
 101              		.section	.gnu.lto_stGetAlarm.6d8acf5fbf06f8a6,"",%progbits
 102 0000 789C6362 		.ascii	"x\234cb`b@\007\222@\374\037\210\203\201\230\221\231"
 102      60624007 
 102      9240FC1F 
 102      88838198 
 102      9199
 103 0012 819169C2 		.ascii	"\201\221i\3029\006\206F\016&FF\020\203\201\221\241\236"
 103      39068646 
 103      0E264646 
 103      10838191 
 103      A19E
 104 0024 89B13E92 		.ascii	"\211\261>\222\021\254v=\323\201\007\377\377\257\373"
 104      11AC763D 
 104      D38107FF 
 104      FFAFFB
 105 0033 D03EEF0E 		.ascii	"\320>\357\016\343|&Vf\206LF\006\026 \001\222eehih\230"
 105      E37C2656 
 105      66864C46 
 105      06162001 
 105      92656568 
 106 004a A0900B62 		.ascii	"\240\220\013b'\203\225\207\000I\220\031\241\214L \232"
 106      27839587 
 106      00499019 
 106      A18C4C20 
 106      9A
 107 005b F92CC3A1 		.ascii	"\371,\303\241;s.\375\177\304\011U\012\323s\240\373\237"
 107      3B732EFD 
 107      7FC40955 
 107      0AD373A0 
 107      FB9F
 108 006d 21034322 		.ascii	"!\003C\"\343BFV\240N\260\326tFf]\2065\015-\215\017&"
 108      E3424656 
 108      A04EB0D6 
 108      7446665D 
 108      86350D2D 
 109 0084 FE9DEE97 		.ascii	"\376\235\356\227\311\310\244\315\260\012\310k\230\314"
 109      C9C8A4CD 
 109      B00AC86B 
 109      98CC
 110 0092 98C9C83C 		.ascii	"\230\311\310<\233aV\343\204\006\201LF\226\010 \227\265"
 110      9B6156E3 
 110      8406814C 
 110      46960820 
 110      97B5
 111 00a4 01085818 		.ascii	"\001\010X\030\300L\260#\223@&$2.\006qA\242l\020\177"
 111      C04CB023 
 111      93402624 
 111      322E0671 
 111      41A26C10 
 112 00b9 42451818 		.ascii	"BE\030\030\31624\275k\346Kd\\\004\344\2463\262\000\255"
 112      CE3234BD 
ARM GAS  /tmp/ccJH6cy9.s 			page 8


 112      6BE64B64 
 112      5C04E4A6 
 112      33B200AD 
 113 00cd 6260B8C8 		.ascii	"b`\270\310\320\270\341\220=\304\011@1\210\216\020\240"
 113      D0B8E190 
 113      3DC40940 
 113      31888E10 
 113      A0
 114 00de 5B80EE06 		.ascii	"[\200\356\006\005\231\254\236\236>\004\345\027\353g"
 114      0599AC9E 
 114      9E3E04E5 
 114      17EB67
 115 00ed 24E6E817 		.ascii	"$\346\350\027\027%\203\350\370\342\022\275d\006ct\331"
 115      172583E8 
 115      F8E212BD 
 115      64066374 
 115      D9
 116 00fe 82FCA292 		.ascii	"\202\374\242\222b\375\340\020_c#}\037\037\027\375\020"
 116      62FDE010 
 116      5F63237D 
 116      1F1F17FD 
 116      10
 117 010f 4FDF3243 		.ascii	"O\3372C\250\372\370\234\234\024\275\014\006\000\301"
 117      A8FAF89C 
 117      9C14BD0C 
 117      0600C1
 118 011e 285BC0   		.ascii	"([\300"
 119              		.text
 120              		.section	.gnu.lto_.symbol_nodes.6d8acf5fbf06f8a6,"",%progbits
 121 0000 789C4DC7 		.ascii	"x\234M\307\301\021@0\024E\321w\177\244R\205\274\314"
 121      C1114030 
 121      1445D177 
 121      7FA45285 
 121      BCCC
 122 0012 D858AA40 		.ascii	"\330X\252@I\032\020\244\022c\301\214\234\335\011\205"
 122      491A10A4 
 122      1263C18C 
 122      9CDD0985 
 123 0022 467D62C7 		.ascii	"F}b\307\322\262I\366:\023\025\323\365\300\321\365\304"
 123      D2B249F6 
 123      3A1315D3 
 123      F5C0D1F5 
 123      C4
 124 0033 A9EB8587 		.ascii	"\251\353\205\207\2774\234\337\226BR\326\324n\364\000"
 124      BF349CDF 
 124      964252D6 
 124      D46EF400 
 125 0043 44081F8A 		.ascii	"D\010\037\212"
 126              		.text
 127              		.section	.gnu.lto_.refs.6d8acf5fbf06f8a6,"",%progbits
 128 0000 789C6362 		.ascii	"x\234cb`b`d\200\002\000\000F\000\006"
 128      60626064 
 128      80020000 
 128      460006
 129              		.text
 130              		.section	.gnu.lto_.decls.6d8acf5fbf06f8a6,"",%progbits
 131 0000 789C9D58 		.ascii	"x\234\235X}l\024E\024\237\331=\372A\217R@\261\376a("
ARM GAS  /tmp/ccJH6cy9.s 			page 9


 131      7D6C1445 
 131      149FD93D 
 131      FA418F52 
 131      40B1FE61 
 132 0015 064C4342 		.ascii	"\006LCB\217\266\241\372\027R\257M!\241H\256\3054\361"
 132      8FB6A1FA 
 132      1752AF4D 
 132      21A148AE 
 132      C534F1
 133 0028 8F63DB9E 		.ascii	"\217c\333\236\366L\277\322\333\032\371o\332\322\212"
 133      F64CBFD2 
 133      DB1AF96F 
 133      DAD28A
 134 0037 22A61431 		.ascii	"\"\246\0241\325\020(\337EM(\026KS\020\016Hi\015*HA\305"
 134      D51028DF 
 134      454D2816 
 134      4B53100E 
 134      48690D2A 
 135 004e 6A3C3552 		.ascii	"j<5R\015!\226(\037U\350\371fv\367nv\272[\356\330\360"
 135      0D219628 
 135      1F55E8F9 
 135      6676F76E 
 135      76BA5BEE 
 136 0064 5EDFCDBD 		.ascii	"^\337\315\275\367\233\337{o\346v\006\011I\250\033#\024"
 136      F79BDF7B 
 136      6FE67606 
 136      0949A81B 
 136      2314
 137 0076 8667E13C 		.ascii	"\206g\341<\204^\222\020J@\010\255@\321\207~\336\003"
 137      845E9210 
 137      4A4008AD 
 137      40D1877E 
 137      DE03
 138 0088 7210A417 		.ascii	"r\020\244\027\244\017d\000\344\024\232\372P?\200@A\220"
 138      A40F6400 
 138      E4149AFA 
 138      503F8040 
 138      4190
 139 009a BDFA98A4 		.ascii	"\275\372\230\244\217[\371S\314d\220D\220\303 \251 N"
 139      8F5BF953 
 139      CC649044 
 139      90C320A9 
 139      204E
 140 00ac 90332083 		.ascii	"\2203 \203 \303 \367@\034 2\310\030\310U\220\021\035"
 140      20C320F7 
 140      401C2032 
 140      C818C855 
 140      90111D
 141 00bf 97C64FE8 		.ascii	"\227\306O\350v\017\310\244\200\337\253\307\235\341\260"
 141      760FC8A4 
 141      80DFABC7 
 141      9DE1B0
 142 00ce 30174FBF 		.ascii	"0\027O\277O\302Sy\365\305\301\013\353\274$=.\005kv?"
 142      4FC25379 
 142      F5C5C10B 
 142      EBBC243D 
 142      2E056B76 
ARM GAS  /tmp/ccJH6cy9.s 			page 10


 143 00e3 C86C017B 		.ascii	"\310l\001{@\3074p\037\206G\375\037\303\332\330\023\002"
 143      40C73470 
 143      1F8647FD 
 143      1FC3DAD8 
 143      1302
 144 00f5 D602B48B 		.ascii	"\326\002\264\213t\205B\255\273/`\322A\356\207\3032\232"
 144      748542AD 
 144      BB2F60D2 
 144      41EE87C3 
 144      329A
 145 0107 8F761078 		.ascii	"\217v\020x\272\332\010\301\252\202W<\216\312\260\202"
 145      BADA08C1 
 145      AA82573C 
 145      8ECAB082 
 146 0117 53935106 		.ascii	"S\223Q\0063\234\311l\002\204\024\274\027\317\327\255"
 146      339CC96C 
 146      028414BC 
 146      17CFD7AD 
 147 0127 F5B20627 		.ascii	"\365\262\006'\241\014\214\226\240\303\020\337N\310\257"
 147      A10C8C96 
 147      A0C310DF 
 147      4EC8AF
 148 0136 F3A61605 		.ascii	"\363\246\026\005\236g\320\001:\001\351&2\203\247\000"
 148      9E67D001 
 148      3A01E926 
 148      3283A700 
 149 0146 7BF002DE 		.ascii	"{\360\002\336E\301\373\260$\362\014\215\007\373\317"
 149      45C1FBB0 
 149      24F20C8D 
 149      07FBCF
 150 0155 3BDB9B42 		.ascii	";\333\233B\341\360\202\330I\036\322I\312\254\026\320"
 150      E1F082D8 
 150      491ED249 
 150      CAAC16D0 
 151 0165 90CD8434 		.ascii	"\220\315\2044\023\322F2\273\241!zT\232\021E}\026\243"
 151      13D24632 
 151      BBA1217A 
 151      549A1145 
 151      7D16A3
 152 0178 FD403FF4 		.ascii	"\375@?\364\371g#\022!I\012>\214\351x\011\006\260\375"
 152      F9672312 
 152      21490A3E 
 152      8CE97809 
 152      06B0FD
 153 018b 78894E28 		.ascii	"x\211N(v\234\377\332\216?\307p>a8G\261\031H\301r\262"
 153      769CFFDA 
 153      8E3FC770 
 153      3E613847 
 153      B11948C1 
 154 01a1 3975F86C 		.ascii	"9u\370l8P4\366\265n\320\376\304\347\034\355\015k\317"
 154      385034F6 
 154      B56ED0FE 
 154      C4E71CED 
 154      0D6BCF
 155 01b4 8030FB22 		.ascii	"\2000\373\"\264\217\220\216P\353\330\037r'\011JF\262"
 155      B48F908E 
 155      50EBD81F 
ARM GAS  /tmp/ccJH6cy9.s 			page 11


 155      7227094A 
 155      46B2
 156 01c6 43CCED20 		.ascii	"C\314\355 4\305*1\315+\332\311\255\2445\015GZyPl\345"
 156      34C52A31 
 156      CD2BDAC9 
 156      ADA4350D 
 156      475A7950 
 157 01dc 11CB56FE 		.ascii	"\021\313V\376c\264R[G\022\272(P\263^(\275\"\3721K\364"
 157      63B4525B 
 157      4712BA28 
 157      50B35E28 
 157      BD22FA31 
 158 01f2 9EA108FA 		.ascii	"\236\241\010\372!\206>j\2318\271\273!S\313F\301G\001"
 158      21863E6A 
 158      9938B9BB 
 158      2153CB46 
 158      C14701
 159 0205 48C17D8F 		.ascii	"H\301}\217\224s\237\310\352\270%\253[C[\237$]\315\301"
 159      94739FC8 
 159      EAB825AB 
 159      5B435B9F 
 159      245DCDC1 
 160 0219 70F87971 		.ascii	"p\370yq\233Qt\273%|\302b\237]\267\256V3\351\351&3\014"
 160      9B5174BB 
 160      257CC262 
 160      9F5DB7AE 
 160      5633E9E9 
 161 0230 B20A1EB0 		.ascii	"\262\012\036\260IG\307;iA\263=4r\361A\023\336\326\322"
 161      4947C73B 
 161      6941B33D 
 161      3472F141 
 161      13DED6D2 
 162 0244 354CC6C3 		.ascii	"5L\306\303\341\331\310h\320\001I\234R\0039m\006IAoS"
 162      E1D9C868 
 162      D001499C 
 162      5203396D 
 162      0649416F 
 163 0259 1E90D8AA 		.ascii	"\036\220\330\252\341T-\326.\261 N\341\021\331\236j\321"
 163      E1542DD6 
 163      2EB1204E 
 163      E111D99E 
 163      6AD1
 164 026b 23916554 		.ascii	"#\221eTdO]\271\205a\367a}\033N\027\242\340\263x1\350"
 164      644F5DB9 
 164      8561F761 
 164      7D1B4E17 
 164      A2E0B378 
 165 0281 44F34E49 		.ascii	"D\363NIL\216\032\364\3155\233V\365\250$n\316Das>\034"
 165      4C8E1AF4 
 165      CD359B56 
 165      F5A8246E 
 165      CE446173 
 166 0297 650E6AA7 		.ascii	"e\016j\247\215\315\240\311\237\211v\225`\203T\032\203"
 166      8DCDA0C9 
 166      9F897695 
 166      6083541A 
 166      83
ARM GAS  /tmp/ccJH6cy9.s 			page 12


 167 02a8 E2DDCED9 		.ascii	"\342\335\316\331\273)\370<\236\023\255\016\211\324\325"
 167      BB29F83C 
 167      9E13AD0E 
 167      89D4D5
 168 02b7 69BF5E86 		.ascii	"i\277^\206\264\225j\014G\014\331\224\211\341\205\346"
 168      B4956A0C 
 168      470CD994 
 168      89E185E6 
 169 02c7 A26D3A93 		.ascii	"\242m:\223H\001I\202\021\263!Z\364\333\333\357\346\261"
 169      48014982 
 169      11B3215A 
 169      F4DBDBEF 
 169      E6B1
 170 02d9 1FB2613C 		.ascii	"\037\262a<\027juS\250\325Ca\350\244\027 T\013b\240$"
 170      176A7553 
 170      A8D54361 
 170      E8A41720 
 170      540B62A0 
 171 02ee B87DD449 		.ascii	"\270}\324I\034\3328\262X]\372\263\020u\221M-\301\035"
 171      1CDA38B2 
 171      585DFAB3 
 171      1075914D 
 171      2DC11D
 172 0301 A33B61FF 		.ascii	"\243;a\377\234\305Za%4\301(\320X\253RD\3227j\221\232"
 172      9CC55A61 
 172      2534C128 
 172      D058AB52 
 172      44D2376A 
 173 0317 2CE0BD3F 		.ascii	",\340\275?\352lW\014\260\007q\203e\230\300:y\260&9\006"
 173      EA6C570C 
 173      B0077183 
 173      6598C03A 
 173      79B02639 
 174 032c B0247B66 		.ascii	"\260${f\037\362`mq\203\231\231\355\344\301\266\304\002"
 174      1FF2606D 
 174      71839999 
 174      EDE4C1B6 
 174      C402
 175 033e 9666CF6C 		.ascii	"\226f\317l\027\017\366n\334`ff=<XG,`\351\366\314>\345"
 175      170FF66E 
 175      DC606666 
 175      3D3C5847 
 175      2C60E9F6 
 176 0355 C13AE306 		.ascii	"\301:\343\00633;\306\203\355\212\005,\303\236Y\037\017"
 176      33333BC6 
 176      83ED8A05 
 176      2CC39E59 
 176      1F0F
 177 0367 B62F6E30 		.ascii	"\266/n03\263~\036\354P,`\231\366\314\006x\260\217\343"
 177      33B37E1E 
 177      EC502C60 
 177      99F6CC06 
 177      78B08FE3 
 178 037b 0633333B 		.ascii	"\00633;\311\203\035\211\005l\231\035\263\246\340\251"
 178      C9831D89 
 178      056C991D 
 178      B3A6E0A9 
ARM GAS  /tmp/ccJH6cy9.s 			page 13


 179 038b 9729D620 		.ascii	"\227)\326 \374\370I\250W\3042\377JZ\201\231\231]\342"
 179      FCF849A8 
 179      57C432FF 
 179      4A5A8199 
 179      995DE2
 180 039e 991D8F85 		.ascii	"\231\035\217\205\331J{\260\313<\330\311X\300V\3317\340"
 180      D94A7BB0 
 180      CB3CD8C9 
 180      58C056D9 
 180      37E0
 181 03b0 0A0F168C 		.ascii	"\012\017\026\214\033\314\314\354[\036l0\026\260u\366"
 181      1BCCCCEC 
 181      5B1E6C30 
 181      16B075F6 
 182 03c0 CCBEE7C1 		.ascii	"\314\276\347\301\206\343\006\343\2315\005\177\200n\352"
 182      86E306E3 
 182      9935057F 
 182      806EEA
 183 03cf 6FBCAE95 		.ascii	"o\274\256\225\302\233q\245\371'\314\344v\316\326M\301"
 183      C29B71A5 
 183      F927CCE4 
 183      76CED64D 
 183      C1
 184 03e0 B7E37E31 		.ascii	"\267\343~1\336\261y1\362\227\242\250\027\244\375\265"
 184      DEB17931 
 184      F297A2A8 
 184      17A4FDB5 
 185 03f0 98B68984 		.ascii	"\230\266\211\204n\226Y\324\320\352\341\337~\012\376"
 185      6E9659D4 
 185      D0EAE1DF 
 185      7E0AFE
 186 03ff 921D4ABE 		.ascii	"\222\035J\276\302\013A_d\372\033\246G\230\276\312\364"
 186      C20B415F 
 186      64FA1BA6 
 186      4798BECA 
 186      F4
 187 0410 774C5F63 		.ascii	"wL_cz\224\351\237\230\376\231\351_\230\376\215\351\337"
 187      7A94E99F 
 187      98FE99E9 
 187      5F98FE8D 
 187      E9DF
 188 0422 991E63FA 		.ascii	"\231\036c\372O\246o0}\223\351\277\230\276\305\364\337"
 188      4FA66F30 
 188      7D93E9BF 
 188      98BEC5F4 
 188      DF
 189 0433 A0238F70 		.ascii	"\240#\217pV\033\266\351/\345~\017\316j\372C\217\211"
 189      561BB6E9 
 189      2FE57E0F 
 189      CE6AFA43 
 189      8F89
 190 0445 C1713826 		.ascii	"\301q8&\376x\026w\264\020\355\230\330\225d\034\265G"
 190      FE781677 
 190      B410ED98 
 190      D895641C 
 190      B547
 191 0457 64CBA3F6 		.ascii	"d\313\243\366\210\222i\\/\2563\217\211\030\217\332\327"
ARM GAS  /tmp/ccJH6cy9.s 			page 14


 191      8892695C 
 191      2FAE338F 
 191      89188FDA 
 191      D7
 192 0468 C8BAF4C8 		.ascii	"\310\272\364\310I{B<i\377k>}>\215\366\220K\227B\203"
 192      497B423C 
 192      69FF6B3E 
 192      7D3E8DF6 
 192      904B9742 
 193 047d 639D7873 		.ascii	"c\235xs\010.\241\223\34106\216Z\235\251\372q1t \230"
 193      082EA193 
 193      E130368E 
 193      5A9DA9FA 
 193      71317420 
 194 0492 DE193DA6 		.ascii	"\336\031=\246$\361\353@;\227@\200\024q&\351\351\326"
 194      24F1EB40 
 194      3B974080 
 194      147126E9 
 194      E9D6
 195 04a4 BE0A6E92 		.ascii	"\276\012n\222h\027\233\245\350\272\322l\303\012\263"
 195      68179BA5 
 195      E8BAD26C 
 195      C30AB3
 196 04b3 7BFC0DD9 		.ascii	"{\374\015\331\342\277\0074\372\323\207\352\223V\031"
 196      E2BF0734 
 196      FAD387EA 
 196      935619
 197 04c2 93CE62BE 		.ascii	"\223\316b\276\321|4Ok/\005o\222\342\335 \255\222\365"
 197      D17C344F 
 197      6B2F056F 
 197      92E2DD20 
 197      AD92F5
 198 04d5 06719A38 		.ascii	"\006q\2328\033^\220\331\270,\\\024\005\022pF\323sW\360"
 198      1B5E90D9 
 198      B82C5C14 
 198      05127046 
 198      D37357F0 
 199 04e9 4CCC2D9D 		.ascii	"L\314-\235\353\302\322\321\256\030o:b\271\003n\226\204"
 199      EBC2D2D1 
 199      AE186F3A 
 199      62B9036E 
 199      9684
 200 04fb 35F09634 		.ascii	"5\360\2264\345\032\023\034\017^\276\240\335\001w\007"
 200      E51A131C 
 200      0F5EBEA0 
 200      DD017707 
 201 050b D38CA5F9 		.ascii	"\323\214\245\371\201\303ri\236V\"\267\300\373\354\026"
 201      81C37269 
 201      9E5622B7 
 201      C0FBEC16 
 202 051b B8457A84 		.ascii	"\270Ez\204\245\271E\244\365\216d\2714\357X.M\005\223"
 202      A5B945A4 
 202      F58E64B9 
 202      34EF582E 
 202      4D0593
 203 052e 682BCB8C 		.ascii	"h+\313\214IS\246k\270\340\245\340mq7\274\303\246\341"
 203      4953A66B 
ARM GAS  /tmp/ccJH6cy9.s 			page 15


 203      B8E0A5E0 
 203      6D7137BC 
 203      C3A6E1
 204 0541 334D8918 		.ascii	"3M\211\030^`\266I\302-Y !\241\217\034\226\015\237\354"
 204      5E60B649 
 204      C22D5920 
 204      21A18F1C 
 204      960D9FEC 
 205 0555 C0DBF986 		.ascii	"\300\333\371\206\237`\015\351\267n\270x\215}\317\246"
 205      9F600DE9 
 205      B76EB878 
 205      8D7DCFA6 
 206 0565 1FFA443B 		.ascii	"\037\372D;\254\013=\311\025Z\301\355P\034\203\377\300"
 206      AC0B3DC9 
 206      155AC1ED 
 206      501C83FF 
 206      C0
 207 0576 34FCBF30 		.ascii	"4\374\2770\361GOee\271\264\177u\001W\225R\355\0124T"
 207      F1474F65 
 207      65B9B47F 
 207      75015795 
 207      52ED0A34 
 208 058b D0BFDE80 		.ascii	"\320\277\336\200\232U\201\022\002\352\352Z\277\232P"
 208      9A558112 
 208      02EAEA5A 
 208      BF9A50
 209 059a B4767D86 		.ascii	"\264v}\206\033-\342}\033T\227\277\266\242\272\261\322"
 209      1B2DE27D 
 209      1B5497BF 
 209      B6A2BAB1 
 209      D2
 210 05ab E7AAA80A 		.ascii	"\347\252\250\012l\014\250\033\353}\201\254*\224Lm\177"
 210      6C0CA81B 
 210      EB7D81AC 
 210      2A944C6D 
 210      7F
 211 05bc 8DCFAB96 		.ascii	"\215\317\253\226\270\252\352j|\256\327\032\253\375J"
 211      B8AAEA6A 
 211      7CAED71A 
 211      ABFD4A
 212 05cb ADABB8B0 		.ascii	"\255\253\270\260(\337\025\360\325\370\002j\203\317\353"
 212      28DF15F0 
 212      D5F8026A 
 212      83CFEB
 213 05da 7FC35558 		.ascii	"\177\303UXS\356+\367W\002\224\322P\2634gYvnVv6\263k"
 213      53EE2BF7 
 213      570294D2 
 213      50B33467 
 213      59766E56 
 214 05f2 EB6A7D4B 		.ascii	"\353j}K}J\271?2C@\255\364\327\252\200\236\324\010\177"
 214      7D4AB93F 
 214      324340AD 
 214      F4D7AA80 
 214      9ED4087F 
 215 0606 B3F3BCAA 		.ascii	"\263\363\274\2523\240\226\250J\203\232_\015\021\211"
 215      33A096A8 
 215      4A839A5F 
ARM GAS  /tmp/ccJH6cy9.s 			page 16


 215      0D1189
 216 0615 4A399B33 		.ascii	"J9\2333\205\016\326\325\263\261\231`\373T\303,\322\315"
 216      850ED6D5 
 216      B3B19960 
 216      FB54C32C 
 216      D2CD
 217 0627 5C31DDFA 		.ascii	"\\1\335\372\272\0065\340*)-\316\315q\255YS\340*]]\374"
 217      BA0635E0 
 217      2A292DCE 
 217      CD71AD59 
 217      53E02A5D 
 218 063d 7AB65E00 		.ascii	"z\266^\000ouu%\314\231\242Y^?T\202\315\237\233\343U"
 218      6F757525 
 218      CC99A259 
 218      5E3F5482 
 218      CD9F9BE3 
 219 0652 7362030A 		.ascii	"sb\003\012\2505\324\333_\243\341\350\037\274\252\354"
 219      A835D4DB 
 219      5FA3E1E8 
 219      1FBCAAEC 
 220 0662 F66483E4 		.ascii	"\366d\203\3448J\212\335\036G\301\352B\217T\342\221\013"
 220      384A8ADD 
 220      1E47C1EA 
 220      428F54E2 
 220      910B
 221 0674 8B3C33DC 		.ascii	"\213<3\334\356bO6\3239\016\267\273\320#\273\327\226"
 221      EE624F36 
 221      D3390EB7 
 221      BBD023BB 
 221      D796
 222 0686 CAEB4ADC 		.ascii	"\312\353J\334r\276\307#{\334\360\031\002^((\365\310"
 222      72BEC723 
 222      7BDCF019 
 222      025E2828 
 222      F5C8
 223 0698 0534B238 		.ascii	"\0054\2628\337#\275\250E\345\202\177\231g\256\3166@"
 223      DF23BDA8 
 223      45E5827F 
 223      9967AECE 
 223      3640
 224 06aa ABE35568 		.ascii	"\253\343Uh\322\016Z\033GE\225\322\220\344\365\276\322"
 224      D20E5A1B 
 224      474595D2 
 224      90E4F5BE 
 224      D2
 225 06bb 585BE1F5 		.ascii	"X[\341\365\3162\214\254\274\345y\313\347Db\352\352\265"
 225      CE328CAC 
 225      BCE579CB 
 225      E74462EA 
 225      EAB5
 226 06cd 903463C4 		.ascii	"\2204c\304\247c\360\001\317\346\030_\277j\371u\336\377"
 226      A763F001 
 226      CFE6185F 
 226      BF6AF975 
 226      DEFF
 227 06df 9E3F6464 		.ascii	"\236?dd"
 228              		.text
ARM GAS  /tmp/ccJH6cy9.s 			page 17


 229              		.section	.gnu.lto_.symtab.6d8acf5fbf06f8a6,"",%progbits
 230 0000 7374496E 		.ascii	"stInit\000\000\000\000\000\000\000\000\000\000\000\000"
 230      69740000 
 230      00000000 
 230      00000000 
 230      0000
 231 0012 A1000000 		.ascii	"\241\000\000\000stStartAlarm\000\000\000\000\000\000"
 231      73745374 
 231      61727441 
 231      6C61726D 
 231      00000000 
 232 0028 00000000 		.ascii	"\000\000\000\000\000\000\246\000\000\000stStopAlarm"
 232      0000A600 
 232      00007374 
 232      53746F70 
 232      416C6172 
 233 003d 00000000 		.ascii	"\000\000\000\000\000\000\000\000\000\000\000\000\263"
 233      00000000 
 233      00000000 
 233      B3
 234 004a 00000073 		.ascii	"\000\000\000stSetAlarm\000\000\000\000\000\000\000\000"
 234      74536574 
 234      416C6172 
 234      6D000000 
 234      00000000 
 235 005f 00000000 		.ascii	"\000\000\000\000\266\000\000\000stGetAlarm\000\000\000"
 235      B6000000 
 235      73744765 
 235      74416C61 
 235      726D0000 
 236 0074 00000000 		.ascii	"\000\000\000\000\000\000\000\000\000\272\000\000\000"
 236      00000000 
 236      00BA0000 
 236      00
 237 0081 73745F6C 		.ascii	"st_lld_init\000\000\002\000\000\000\000\000\000\000"
 237      6C645F69 
 237      6E697400 
 237      00020000 
 237      00000000 
 238 0096 0000BE00 		.ascii	"\000\000\276\000\000\000"
 238      0000
 239              		.text
 240              		.section	.gnu.lto_.opts,"",%progbits
 241 0000 272D6D63 		.ascii	"'-mcpu=cortex-m3' '-mno-thumb-interwork' '-mthumb' "
 241      70753D63 
 241      6F727465 
 241      782D6D33 
 241      2720272D 
 242 0033 272D6767 		.ascii	"'-ggdb' '-O2' '-fomit-frame-pointer' '-falign-funct"
 242      64622720 
 242      272D4F32 
 242      2720272D 
 242      666F6D69 
 243 0066 696F6E73 		.ascii	"ions=16' '-ffunction-sections' '-fdata-sections' '-"
 243      3D313627 
 243      20272D66 
 243      66756E63 
ARM GAS  /tmp/ccJH6cy9.s 			page 18


 243      74696F6E 
 244 0099 666E6F2D 		.ascii	"fno-common' '-flto'\000"
 244      636F6D6D 
 244      6F6E2720 
 244      272D666C 
 244      746F2700 
 245              		.text
 246              		.cfi_sections	.debug_frame
 247              		.section	.text.stInit,"ax",%progbits
 248              		.align	2
 249              		.p2align 4,,15
 250              		.global	stInit
 251              		.thumb
 252              		.thumb_func
 253              		.type	stInit, %function
 254              	stInit:
 255              	.LFB219:
 256              		.file 1 "../../../os/hal/src/hal_st.c"
 257              		.loc 1 60 0
 258              		.cfi_startproc
 259              		@ args = 0, pretend = 0, frame = 0
 260              		@ frame_needed = 0, uses_anonymous_args = 0
 261              		@ link register save eliminated.
 262              		.loc 1 62 0
 263 0000 FFF7FEBF 		b	st_lld_init
 264              	.LVL0:
 265              		.cfi_endproc
 266              	.LFE219:
 267              		.size	stInit, .-stInit
 268 0004 AFF30080 		.section	.text.stStartAlarm,"ax",%progbits
 268      AFF30080 
 268      AFF30080 
 269              		.align	2
 270              		.p2align 4,,15
 271              		.global	stStartAlarm
 272              		.thumb
 273              		.thumb_func
 274              		.type	stStartAlarm, %function
 275              	stStartAlarm:
 276              	.LFB220:
 277              		.loc 1 76 0
 278              		.cfi_startproc
 279              		@ args = 0, pretend = 0, frame = 0
 280              		@ frame_needed = 0, uses_anonymous_args = 0
 281              		@ link register save eliminated.
 282              	.LVL1:
 283              	.LBB10:
 284              	.LBB11:
 285              		.file 2 "../../../os/hal/ports/STM32/LLD/TIMv1/hal_st_lld.h"
 286              		.loc 2 155 0
 287 0000 4FF08043 		mov	r3, #1073741824
 288              		.loc 2 156 0
 289 0004 0021     		movs	r1, #0
 290              		.loc 2 157 0
 291 0006 0222     		movs	r2, #2
 292              		.loc 2 155 0
 293 0008 5863     		str	r0, [r3, #52]
ARM GAS  /tmp/ccJH6cy9.s 			page 19


 294              		.loc 2 156 0
 295 000a 1961     		str	r1, [r3, #16]
 296              		.loc 2 157 0
 297 000c DA60     		str	r2, [r3, #12]
 298 000e 7047     		bx	lr
 299              	.LBE11:
 300              	.LBE10:
 301              		.cfi_endproc
 302              	.LFE220:
 303              		.size	stStartAlarm, .-stStartAlarm
 304              		.section	.text.stStopAlarm,"ax",%progbits
 305              		.align	2
 306              		.p2align 4,,15
 307              		.global	stStopAlarm
 308              		.thumb
 309              		.thumb_func
 310              		.type	stStopAlarm, %function
 311              	stStopAlarm:
 312              	.LFB221:
 313              		.loc 1 90 0
 314              		.cfi_startproc
 315              		@ args = 0, pretend = 0, frame = 0
 316              		@ frame_needed = 0, uses_anonymous_args = 0
 317              		@ link register save eliminated.
 318              	.LBB12:
 319              	.LBB13:
 320              		.loc 2 167 0
 321 0000 4FF08043 		mov	r3, #1073741824
 322 0004 0022     		movs	r2, #0
 323 0006 DA60     		str	r2, [r3, #12]
 324 0008 7047     		bx	lr
 325              	.LBE13:
 326              	.LBE12:
 327              		.cfi_endproc
 328              	.LFE221:
 329              		.size	stStopAlarm, .-stStopAlarm
 330 000a 00BFAFF3 		.section	.text.stSetAlarm,"ax",%progbits
 330      0080
 331              		.align	2
 332              		.p2align 4,,15
 333              		.global	stSetAlarm
 334              		.thumb
 335              		.thumb_func
 336              		.type	stSetAlarm, %function
 337              	stSetAlarm:
 338              	.LFB222:
 339              		.loc 1 104 0
 340              		.cfi_startproc
 341              		@ args = 0, pretend = 0, frame = 0
 342              		@ frame_needed = 0, uses_anonymous_args = 0
 343              		@ link register save eliminated.
 344              	.LVL2:
 345              	.LBB14:
 346              	.LBB15:
 347              		.loc 2 179 0
 348 0000 4FF08043 		mov	r3, #1073741824
 349 0004 5863     		str	r0, [r3, #52]
ARM GAS  /tmp/ccJH6cy9.s 			page 20


 350 0006 7047     		bx	lr
 351              	.LBE15:
 352              	.LBE14:
 353              		.cfi_endproc
 354              	.LFE222:
 355              		.size	stSetAlarm, .-stSetAlarm
 356 0008 AFF30080 		.section	.text.stGetAlarm,"ax",%progbits
 356      AFF30080 
 357              		.align	2
 358              		.p2align 4,,15
 359              		.global	stGetAlarm
 360              		.thumb
 361              		.thumb_func
 362              		.type	stGetAlarm, %function
 363              	stGetAlarm:
 364              	.LFB223:
 365              		.loc 1 120 0
 366              		.cfi_startproc
 367              		@ args = 0, pretend = 0, frame = 0
 368              		@ frame_needed = 0, uses_anonymous_args = 0
 369              		@ link register save eliminated.
 370              	.LBB16:
 371              	.LBB17:
 372              		.loc 2 191 0
 373 0000 4FF08043 		mov	r3, #1073741824
 374 0004 586B     		ldr	r0, [r3, #52]
 375              	.LBE17:
 376              	.LBE16:
 377              		.loc 1 125 0
 378 0006 80B2     		uxth	r0, r0
 379 0008 7047     		bx	lr
 380              		.cfi_endproc
 381              	.LFE223:
 382              		.size	stGetAlarm, .-stGetAlarm
 383 000a 00BFAFF3 		.text
 383      0080
 384              	.Letext0:
 385              		.file 3 "/home/julian/MEGA/semestre_ix/Embebidos/arm-2013.11/arm-none-eabi/include/stdint.h"
 386              		.file 4 "../../../os/common/ports/ARMCMx/compilers/GCC/chtypes.h"
 387              		.file 5 "../../../os/rt/include/chsystypes.h"
 388              		.file 6 "../../../os/rt/include/chschd.h"
 389              		.file 7 "../../../os/common/ports/ARMCMx/chcore.h"
 390              		.file 8 "../../../os/common/ports/ARMCMx/chcore_v7m.h"
 391              		.file 9 "../../../os/hal/ports/STM32/LLD/TIMv1/stm32_tim.h"
 392              		.file 10 "../../../os/rt/include/chsem.h"
 393              		.file 11 "../../../os/rt/include/chmtx.h"
 394              		.file 12 "../../../os/common/ext/CMSIS/include/core_cm3.h"