ARM GAS  /tmp/ccJH6cy9.s 			page 1


   1              		.syntax unified
   2              		.cpu cortex-m3
   3              		.fpu softvfp
   4              		.eabi_attribute 20, 1
   5              		.eabi_attribute 21, 1
   6              		.eabi_attribute 23, 3
   7              		.eabi_attribute 24, 1
   8              		.eabi_attribute 25, 1
   9              		.eabi_attribute 26, 1
  10              		.eabi_attribute 30, 2
  11              		.eabi_attribute 34, 1
  12              		.eabi_attribute 18, 4
  13              		.thumb
  14              		.file	"hal_st.c"
  15              		.text
  16              	.Ltext0:
  17              		.section	.gnu.lto_.jmpfuncs.6d8acf5fbf06f8a6,"",%progbits
  18 0000 789C6362 		.ascii	"x\234cb`b\300\006x\2414+\020322103\26200\000\000\002"
  18      6062C006 
  18      78A1342B 
  18      10333232 
  18      313033B2 
  19 0019 6D0023   		.ascii	"m\000#"
  20              		.text
  21              		.section	.gnu.lto_.inline.6d8acf5fbf06f8a6,"",%progbits
  22 0000 789C6362 		.ascii	"x\234cb`b\300\006\362\2414+\003\003\013\017#X\021\333"
  22      6062C006 
  22      F2A1342B 
  22      03030B0F 
  22      235811DB 
  23 0014 0279B05A 		.ascii	"\002y\260ZF.\020\301\300\306\312\310\010\244\030\030"
  23      462E10C1 
  23      C0C6CAC8 
  23      08A41818 
  24 0024 98D83EE8 		.ascii	"\230\330>\350\301%\231\030X\230\201\312\231.\360\303"
  24      C1259918 
  24      589881CA 
  24      992EF0C3 
  25 0034 85984142 		.ascii	"\205\230ABP\245\310\342,\230J\031\000\300\002\010{"
  25      50A5C8E2 
  25      2C984A19 
  25      00C00208 
  25      7B
  26              		.text
  27              		.section	.gnu.lto_.pureconst.6d8acf5fbf06f8a6,"",%progbits
  28 0000 789C6362 		.ascii	"x\234cb`b\340f\200\000V\006\011F)&)f)\026)\000\004\027"
  28      6062E066 
  28      80005606 
  28      09462926 
  28      29662916 
  29 0018 009F     		.ascii	"\000\237"
  30              		.text
  31              		.section	.gnu.lto_stInit.6d8acf5fbf06f8a6,"",%progbits
  32 0000 789C6362 		.ascii	"x\234cb`b@\007\222@\\\011\304\362@\314\310\314\300\310"
  32      60624007 
  32      92405C09 
  32      C4F240CC 
ARM GAS  /tmp/ccJH6cy9.s 			page 2


  32      C8CCC0C8 
  33 0014 34E11C03 		.ascii	"4\341\034\003C#\007\023##\210\301\300\310P\317\304X"
  33      43230713 
  33      232388C1 
  33      C0C850CF 
  33      C458
  34 0026 1FC90856 		.ascii	"\037\311\010V\273\236\351\300\203\377\377\327\375X\373"
  34      BB9EE9C0 
  34      83FFFFD7 
  34      FD58FB
  35 0035 B01EA894 		.ascii	"\260\036\250\224\201\201\225\241\245\241a\202\002\003"
  35      818195A1 
  35      A5A16182 
  35      0203
  36 0043 4332583E 		.ascii	"C2X>\004H\2024\20522\201h\346\363\014\315\017\376\331"
  36      04488234 
  36      85323281 
  36      68E6F30C 
  36      CD0FFED9 
  37 0057 24322E64 		.ascii	"$2.dd\005\312V3\374j\350h\020\310d\004\252\206\030\227"
  37      6405CA56 
  37      33FC6AE8 
  37      6810C864 
  37      04AA8618 
  38 006c 09A22F32 		.ascii	"\011\242/24>\370\317\004S\004\001!@\011\240\001 \307"
  38      343EF8CF 
  38      04530401 
  38      214009A0 
  38      0120C7
  39 007f CAEAE9E9 		.ascii	"\312\352\351\351CP~\261~Fb\216~qQ2\210\216/.\321Kf\000"
  39      43507EB1 
  39      7E46628E 
  39      7E715132 
  39      888E2F2E 
  40 0097 0032792A 		.ascii	"\0002y*\325"
  40      D5
  41              		.text
  42              		.section	.gnu.lto_stStartAlarm.6d8acf5fbf06f8a6,"",%progbits
  43 0000 789C9D51 		.ascii	"x\234\235Q?K\303@\024\177\357r\261\335\354\352 \224"
  43      3F4BC340 
  43      147FEF72 
  43      B1DDECEA 
  43      2094
  44 0012 AE6282F6 		.ascii	"\256b\202\366\003\270\270\010\355d\004;\225X\305\036"
  44      03B8B808 
  44      ED64043B 
  44      9558C51E 
  45 0022 B4549AE0 		.ascii	"\264T\232\340\332K)\035t)\235\244\272T\024A\305Nb\005"
  45      DA4B291D 
  45      74299DA4 
  45      BA541441 
  45      C54E6205 
  46 0036 876AA70E 		.ascii	"\207j\247\016\012E'A\020\334\245\337 \336]R\244]\004"
  46      0A452741 
  46      10DCA5DF 
  46      20DE5D52 
  46      A45D04
ARM GAS  /tmp/ccJH6cy9.s 			page 3


  47 0049 1FB9BCBB 		.ascii	"\037\271\274\273\367~\177\036w\004\010L\307\234X_\010"
  47      F77E7F1E 
  47      7704084C 
  47      C79C585F 
  47      08
  48 005a B029326A 		.ascii	"\260)2j\200\244\361\002\340E\011\242\334\000B\205`%"
  48      80A4F102 
  48      E04509A2 
  48      DC004285 
  48      6025
  49 006c 830ADB21 		.ascii	"\203\012\333!\275O\337\277\351\326/N\260E\004\246\210"
  49      BD4FDFBF 
  49      E9D62F4E 
  49      B04504A6 
  49      88
  50 007d 4081A9A6 		.ascii	"@\201\251\246\0165\316\033\361\"\212SNU,\361\227\032"
  50      0E35CE1B 
  50      F1228A53 
  50      4E552CF1 
  50      971A
  51 008f 1B4864D6 		.ascii	"\033Hd\326\006P\215\002$\240\315y\263w_\357#?\340\336"
  51      06508D02 
  51      24A0CD79 
  51      B3775FEF 
  51      233FE0DE 
  52 00a3 C8F76719 		.ascii	"\310\367g\031\012D\034%m\023\031\222\230J\332\324\254"
  52      0A441C25 
  52      6D131992 
  52      984ADAD4 
  52      AC
  53 00b4 BB0204CF 		.ascii	"\273\002\004\317P\375\356\337\275_\271\241\335\330\267"
  53      50FDEEDF 
  53      BD5FB9A1 
  53      DDD8B7
  54 00c3 77F836D4 		.ascii	"w\3706\324m<\305\204@\332\330F]\250a@\243!\363i\360"
  54      6D3CC584 
  54      40DAD846 
  54      5DA86140 
  54      A321F369 
  55 00d8 F0FA518D 		.ascii	"\360\372Q\215\330x&\272\213p\315k\036\3170\244\013p"
  55      D87826BA 
  55      8B70CD6B 
  55      1ECF30A4 
  55      0B70
  56 00ea 29B72B0C 		.ascii	")\267+\014\365chy\015\036c8#'\210p\021T\015\023Q#l\241"
  56      F5636879 
  56      0D1E6338 
  56      23278870 
  56      11540D13 
  57 0102 523F177C 		.ascii	"R?\027|U\215\006\223\205\025\341\244l\272G\235G-p\371"
  57      558D0693 
  57      8515E1A4 
  57      6CBA479D 
  57      472D70F9 
  58 0116 95A67F4A 		.ascii	"\225\246\177J\343\2044\225E)\326\375\227\030\231\024"
  58      E3843495 
  58      4529D6FD 
ARM GAS  /tmp/ccJH6cy9.s 			page 4


  58      97189914 
  59 0126 93573904 		.ascii	"\223W9\004o\324\274\245\301\345\214\303\022\266\342"
  59      6FD4BCA5 
  59      C1E58CC3 
  59      12B6E2
  60 0135 6D647FDE 		.ascii	"md\177\3360\314\340+9f\336.\230N9's\326q\215\034P\227"
  60      30CCE02B 
  60      3966DE2E 
  60      984E3927 
  60      73D6718D 
  61 014c 157792D3 		.ascii	"\025w\222\323\220\275R\331u\314u+\235\\6S\251U\323Z"
  61      90BD52D9 
  61      75CC752B 
  61      9D5C3653 
  61      A955D35A 
  62 0160 4BEF2F85 		.ascii	"K\357/\205\244l\241\260m\344\341\007\310\\\220\343"
  62      A46CA1B0 
  62      6DE4E107 
  62      C85C90E3 
  63              		.text
  64              		.section	.gnu.lto_stStopAlarm.6d8acf5fbf06f8a6,"",%progbits
  65 0000 789C6362 		.ascii	"x\234cb`b@\007\222@|\024\210\203\201\230\221\231\201"
  65      60624007 
  65      92407C14 
  65      88838198 
  65      919981
  66 0013 9169C239 		.ascii	"\221i\3029\006\206F\016&FF\020\203\201\221\241\236\211"
  66      0686460E 
  66      26464610 
  66      838191A1 
  66      9E89
  67 0025 B13E9211 		.ascii	"\261>\222\021\254v=\323\201\007\377\377\257\373\322"
  67      AC763DD3 
  67      8107FFFF 
  67      AFFBD2
  68 0034 36E70EE3 		.ascii	"6\347\016\343l&\026\240\010+CKC\303\004\005\006\206"
  68      6C2616A0 
  68      082B434B 
  68      43C30405 
  68      0686
  69 0046 64B08A10 		.ascii	"d\260\212\020 \011\322\026\312\310\004\242\231\3172"
  69      2009D216 
  69      CAC804A2 
  69      99CF32
  70 0055 1CDA31E7 		.ascii	"\034\3321\347\322\363G\254pu\020\306\201\356{\007Y\031"
  70      D2F347AC 
  70      707510C6 
  70      81EE7B07 
  70      5919
  71 0067 18121917 		.ascii	"\030\022\031\0272\262\002\265\202\365j3\254jhi|0q\357"
  71      32B202B5 
  71      82F56A33 
  71      AC6A6869 
  71      7C3071EF 
  72 007b 34F94C46 		.ascii	"4\371LF\206\331\014\263\032'4\010d22F0f225\000\001\013"
  72      86D90CB3 
  72      1A273408 
ARM GAS  /tmp/ccJH6cy9.s 			page 5


  72      64323246 
  72      30663232 
  73 0093 03980976 		.ascii	"\003\230\011vI\022HK\"\343b\240v\260(X\360\"C\343\207"
  73      4912484B 
  73      22E362A0 
  73      76B02858 
  73      F02243E3 
  74 00a8 4BDB5920 		.ascii	"K\333Y \246\302@\010\320t\240S@\332d\365\364\364!(\277"
  74      A6C24008 
  74      D074A053 
  74      40DA64F5 
  74      F4F42128 
  75 00bd 583F2331 		.ascii	"X?#1G\277\270(\031D\307\027\227\350%3\030\243\313\026"
  75      47BFB828 
  75      1944C717 
  75      97E82533 
  75      18A3CB16 
  76 00d1 E4179514 		.ascii	"\344\027\225\024\353\007\207\370\032\033\351\373\370"
  76      EB0787F8 
  76      1A1BE9FB 
  76      F8
  77 00de B8E88778 		.ascii	"\270\350\207x\372\226\031B\325\307\347\344\244\350e"
  77      FA961942 
  77      D5C7E7E4 
  77      A4E865
  78 00ed 30000080 		.ascii	"0\000\000\200\211PH"
  78      895048
  79              		.text
  80              		.section	.gnu.lto_stSetAlarm.6d8acf5fbf06f8a6,"",%progbits
  81 0000 789C5D50 		.ascii	"x\234]P\261N\002A\020\235\267\334\001\235\264\026&\204"
  81      B14E0241 
  81      109DB7DC 
  81      019DB416 
  81      2684
  82 0012 D67817E5 		.ascii	"\326x\027\345\003llH\240\362L\240\"'\032\271\004\202"
  82      036C6C48 
  82      A0F24CA0 
  82      22271AB9 
  82      0482
  83 0024 E12EB6EC 		.ascii	"\341.\266\354\021\022\022m\210\245\306\002\242\026\306"
  83      1112126D 
  83      88A5C602 
  83      A216C6
  84 0033 A054165A 		.ascii	"\240T\026Z\020\251(4Q;c\341\027\020\032\353sw\357h\230"
  84      10A92834 
  84      513B63E1 
  84      17101AEB 
  84      7377EF68 
  85 0048 ECEECCCE 		.ascii	"\354\356\314\316\2747\363v\0311Z\266U\261s *\012\217"
  85      BC37F376 
  85      19315AB6 
  85      55B17320 
  85      2A0A8F
  86 005b 1881F5DE 		.ascii	"\030\201\365\336\211\374$\003d@\240\026C\253\004\205"
  86      89FC2403 
  86      6440A016 
  86      43AB0485 
ARM GAS  /tmp/ccJH6cy9.s 			page 6


  87 006b 7D60E3DF 		.ascii	"}`\343\337 \030>vo\177p\305\342\014u\220F\216*\352\324"
  87      20183E76 
  87      6F7F70C5 
  87      E20C7590 
  87      468E2AEA 
  88 0080 E1BC97AE 		.ascii	"\341\274\227\256C\334**c\211S\366\330\003\223>6\245"
  88      43DC2A2A 
  88      638953F6 
  88      D803933E 
  88      36A5
  89 0092 76922843 		.ascii	"v\222(C}\316\317\307\243\356\004\374\224\373\363 Xq"
  89      7DCECFC7 
  89      A3EE04FC 
  89      94FBF320 
  89      5871
  90 00a4 20106948 		.ascii	" \020iHZ\021\016XJ\271\330\222\326#\001\2427j\317&O"
  90      5A110E58 
  90      4AB9D892 
  90      D62301A2 
  90      376ACF26 
  91 00b9 DF432F1A 		.ascii	"\337C/\032\267\230;>\233\215t\033\003d\004\322F\037"
  91      B7983B3E 
  91      9B8D741B 
  91      036404D2 
  91      461F
  92 00cb BAE88690 		.ascii	"\272\350\206\220\246E\314\327\351\313\327_;a\343ZT7"
  92      A645CCD7 
  92      E9CBD75F 
  92      3B61E35A 
  92      5437
  93 00dd E89E777C 		.ascii	"\350\236w|^r\240\255\323\235\014\267\035\350\227t\341"
  93      5E72A0AD 
  93      D39D0CB7 
  93      1DE89774 
  93      E1
  94 00ee F778CA41 		.ascii	"\367x\312A\\*Hpa\232\022\223P\022\366\241\272\337\010"
  94      5C2A4870 
  94      619A1293 
  94      5012F6A1 
  94      BADF08
  95 0101 BECA2643 		.ascii	"\276\312&CeQFL\"\372 \177\376\371\254\205\022\026f\011"
  95      6551464C 
  95      22FA207F 
  95      FEF9AC85 
  95      12166609 
  96 0115 29E207E4 		.ascii	")\342\007\344\203\326\014\303\014W\3035\253v\315t\233"
  96      83D60CC3 
  96      0C57C335 
  96      AB76CD74 
  96      9B
  97 0126 15E9CBAE 		.ascii	"\025\351\313\256gTH\363\234\372av\031r\334hz\256\271"
  97      675448F3 
  97      9CFA6176 
  97      1972DC68 
  97      7AAEB9
  98 0139 6B15B25B 		.ascii	"k\025\262[f>\277cZ\271\302\311fD*\327j\007F\225\376"
  98      663EBF63 
ARM GAS  /tmp/ccJH6cy9.s 			page 7


  98      5AB9C2C9 
  98      66442AD7 
  98      6A074695 
  99 014e 01E6CB6C 		.ascii	"\001\346\313l\275"
  99      BD
 100              		.text
 101              		.section	.gnu.lto_stGetAlarm.6d8acf5fbf06f8a6,"",%progbits
 102 0000 789C6362 		.ascii	"x\234cb`b@\007\222@\374\037\210\203\201\230\221\231"
 102      60624007 
 102      9240FC1F 
 102      88838198 
 102      9199
 103 0012 819169C2 		.ascii	"\201\221i\3029\006\206F\016&FF\020\203\201\221\241\236"
 103      39068646 
 103      0E264646 
 103      10838191 
 103      A19E
 104 0024 89B13E92 		.ascii	"\211\261>\222\021\254v=\323\201\007\377\377\257\373"
 104      11AC763D 
 104      D38107FF 
 104      FFAFFB
 105 0033 D03EEF0E 		.ascii	"\320>\357\016\343|&Vf\206LF\006\026 \001\222eehih\230"
 105      E37C2656 
 105      66864C46 
 105      06162001 
 105      92656568 
 106 004a A0900B62 		.ascii	"\240\220\013b'\203\225\207\000I\220\031\241\214L \232"
 106      27839587 
 106      00499019 
 106      A18C4C20 
 106      9A
 107 005b F92CC3A1 		.ascii	"\371,\303\241;s.\375\177\304\011U\012\323s\240\373\237"
 107      3B732EFD 
 107      7FC40955 
 107      0AD373A0 
 107      FB9F
 108 006d 21034322 		.ascii	"!\003C\"\343BFV\240N\260\326tFf]\2065\015-\215\017&"
 108      E3424656 
 108      A04EB0D6 
 108      7446665D 
 108      86350D2D 
 109 0084 FE9DEE97 		.ascii	"\376\235\356\227\311\310\244\315\260\012\310k\230\314"
 109      C9C8A4CD 
 109      B00AC86B 
 109      98CC
 110 0092 98C9C83C 		.ascii	"\230\311\310<\233aV\343\204\006\201LF\226\010 \227\265"
 110      9B6156E3 
 110      8406814C 
 110      46960820 
 110      97B5
 111 00a4 01085818 		.ascii	"\001\010X\030\300L\260#\223@&$2.\006qA\242l\020\177"
 111      C04CB023 
 111      93402624 
 111      322E0671 
 111      41A26C10 
 112 00b9 42451818 		.ascii	"BE\030\030\31624\275k\346Kd\\\004\344\2463\262\000\255"
 112      CE3234BD 
ARM GAS  /tmp/ccJH6cy9.s 			page 8


 112      6BE64B64 
 112      5C04E4A6 
 112      33B200AD 
 113 00cd 6260B8C8 		.ascii	"b`\270\310\320\270\341\220=\304\011@1\210\216\020\240"
 113      D0B8E190 
 113      3DC40940 
 113      31888E10 
 113      A0
 114 00de 5B80EE06 		.ascii	"[\200\356\006\005\231\254\236\236>\004\345\027\353g"
 114      0599AC9E 
 114      9E3E04E5 
 114      17EB67
 115 00ed 24E6E817 		.ascii	"$\346\350\027\027%\203\350\370\342\022\275d\006ct\331"
 115      172583E8 
 115      F8E212BD 
 115      64066374 
 115      D9
 116 00fe 82FCA292 		.ascii	"\202\374\242\222b\375\340\020_c#}\037\037\027\375\020"
 116      62FDE010 
 116      5F63237D 
 116      1F1F17FD 
 116      10
 117 010f 4FDF3243 		.ascii	"O\3372C\250\372\370\234\234\024\275\014\006\000\301"
 117      A8FAF89C 
 117      9C14BD0C 
 117      0600C1
 118 011e 285BC0   		.ascii	"([\300"
 119              		.text
 120              		.section	.gnu.lto_.symbol_nodes.6d8acf5fbf06f8a6,"",%progbits
 121 0000 789C4DC7 		.ascii	"x\234M\307\301\021@0\024E\321w\177\244R\205\274\314"
 121      C1114030 
 121      1445D177 
 121      7FA45285 
 121      BCCC
 122 0012 D858AA40 		.ascii	"\330X\252@I\032\020\244\022c\301\214\234\335\011\205"
 122      491A10A4 
 122      1263C18C 
 122      9CDD0985 
 123 0022 467D62C7 		.ascii	"F}b\307\322\262I\366:\023\025\323\365\300\321\365\304"
 123      D2B249F6 
 123      3A1315D3 
 123      F5C0D1F5 
 123      C4
 124 0033 A9EB8587 		.ascii	"\251\353\205\207\2774\234\337\226BR\326\324n\364\000"
 124      BF349CDF 
 124      964252D6 
 124      D46EF400 
 125 0043 44081F8A 		.ascii	"D\010\037\212"
 126              		.text
 127              		.section	.gnu.lto_.refs.6d8acf5fbf06f8a6,"",%progbits
 128 0000 789C6362 		.ascii	"x\234cb`b`d\200\002\000\000F\000\006"
 128      60626064 
 128      80020000 
 128      460006
 129              		.text
 130              		.section	.gnu.lto_.decls.6d8acf5fbf06f8a6,"",%progbits
 131 0000 789C9D58 		.ascii	"x\234\235X}l\024E\024\237\331=\372A\217R@\261\376a("
ARM GAS  /tmp/ccJH6cy9.s 			page 9


 131      7D6C1445 
 131      149FD93D 
 131      FA418F52 
 131      40B1FE61 
 132 0015 064C4342 		.ascii	"\006LCB\217\266\241\372\027R\257M!\241H\256\3054\361"
 132      8FB6A1FA 
 132      1752AF4D 
 132      21A148AE 
 132      C534F1
 133 0028 8F63DB9E 		.ascii	"\217c\333\236\366L\277\322\333\032\371o\332\322\212"
 133      F64CBFD2 
 133      DB1AF96F 
 133      DAD28A
 134 0037 22A61431 		.ascii	"\"\246\0241\325\020(\337EM(\026KS\020\016Hi\015*HA\305"
 134      D51028DF 
 134      454D2816 
 134      4B53100E 
 134      48690D2A 
 135 004e 6A3C3552 		.ascii	"j<5R\015!\226(\037U\350\371fv\367nv\272[\356\330\360"
 135      0D219628 
 135      1F55E8F9 
 135      6676F76E 
 135      76BA5BEE 
 136 0064 5EDFCDBD 		.ascii	"^\337\315\275\367\233\337{o\346v\006\011I\250\033#\024"
 136      F79BDF7B 
 136      6FE67606 
 136      0949A81B 
 136      2314
 137 0076 8667E13C 		.ascii	"\206g\341<\204^\222\020J@\010\255@\321\207~\336\003"
 137      845E9210 
 137      4A4008AD 
 137      40D1877E 
 137      DE03
 138 0088 7210A417 		.ascii	"r\020\244\027\244\017d\000\344\024\232\372P?\200@A\220"
 138      A40F6400 
 138      E4149AFA 
 138      503F8040 
 138      4190
 139 009a BDFA98A4 		.ascii	"\275\372\230\244\217[\371S\314d\220D\220\303 \251 N"
 139      8F5BF953 
 139      CC649044 
 139      90C320A9 
 139      204E
 140 00ac 90332083 		.ascii	"\2203 \203 \303 \367@\034 2\310\030\310U\220\021\035"
 140      20C320F7 
 140      401C2032 
 140      C818C855 
 140      90111D
 141 00bf 97C64FE8 		.ascii	"\227\306O\350v\017\310\244\200\337\253\307\235\341\260"
 141      760FC8A4 
 141      80DFABC7 
 141      9DE1B0
 142 00ce 30174FBF 		.ascii	"0\027O\277O\302Sy\365\305\301\013\353\274$=.\005kv?"
 142      4FC25379 
 142      F5C5C10B 
 142      EBBC243D 
 142      2E056B76 
ARM GAS  /tmp/ccJH6cy9.s 			page 10


 143 00e3 C86C017B 		.ascii	"\310l\001{@\3074p\037\206G\375\037\303\332\330\023\002"
 143      40C73470 
 143      1F8647FD 
 143      1FC3DAD8 
 143      1302
 144 00f5 D602B48B 		.ascii	"\326\002\264\213t\205B\255\273/`\322A\356\207\3032\232"
 144      748542AD 
 144      BB2F60D2 
 144      41EE87C3 
 144      329A
 145 0107 8F761078 		.ascii	"\217v\020x\272\332\010\301\252\202W<\216\312\260\202"
 145      BADA08C1 
 145      AA82573C 
 145      8ECAB082 
 146 0117 53935106 		.ascii	"S\223Q\0063\234\311l\002\204\024\274\027\317\327\255"
 146      339CC96C 
 146      028414BC 
 146      17CFD7AD 
 147 0127 F5B20627 		.ascii	"\365\262\006'\241\014\214\226\240\303\020\337N\310\257"
 147      A10C8C96 
 147      A0C310DF 
 147      4EC8AF
 148 0136 F3A61605 		.ascii	"\363\246\026\005\236g\320\001:\001\351&2\203\247\000"
 148      9E67D001 
 148      3A01E926 
 148      3283A700 
 149 0146 7BF002DE 		.ascii	"{\360\002\336E\301\373\260$\362\014\215\007\373\317"
 149      45C1FBB0 
 149      24F20C8D 
 149      07FBCF
 150 0155 3BDB9B42 		.ascii	";\333\233B\341\360\202\330I\036\322I\312\254\026\320"
 150      E1F082D8 
 150      491ED249 
 150      CAAC16D0 
 151 0165 90CD8434 		.ascii	"\220\315\2044\023\322F2\273\241!zT\232\021E}\026\243"
 151      13D24632 
 151      BBA1217A 
 151      549A1145 
 151      7D16A3
 152 0178 FD403FF4 		.ascii	"\375@?\364\371g#\022!I\012>\214\351x\011\006\260\375"
 152      F9672312 
 152      21490A3E 
 152      8CE97809 
 152      06B0FD
 153 018b 78894E28 		.ascii	"x\211N(v\234\377\332\216?\307p>a8G\261\031H\301r\262"
 153      769CFFDA 
 153      8E3FC770 
 153      3E613847 
 153      B11948C1 
 154 01a1 3975F86C 		.ascii	"9u\370l8P4\366\265n\320\376\304\347\034\355\015k\317"
 154      385034F6 
 154      B56ED0FE 
 154      C4E71CED 
 154      0D6BCF
 155 01b4 8030FB22 		.ascii	"\2000\373\"\264\217\220\216P\353\330\037r'\011JF\262"
 155      B48F908E 
 155      50EBD81F 
ARM GAS  /tmp/ccJH6cy9.s 			page 11


 155      7227094A 
 155      46B2
 156 01c6 43CCED20 		.ascii	"C\314\355 4\305*1\315+\332\311\255\2445\015GZyPl\345"
 156      34C52A31 
 156      CD2BDAC9 
 156      ADA4350D 
 156      475A7950 
 157 01dc 11CB56FE 		.ascii	"\021\313V\376c\264R[G\022\272(P\263^(\275\"\3721K\364"
 157      63B4525B 
 157      4712BA28 
 157      50B35E28 
 157      BD22FA31 
 158 01f2 9EA108FA 		.ascii	"\236\241\010\372!\206>j\2318\271\273!S\313F\301G\001"
 158      21863E6A 
 158      9938B9BB 
 158      2153CB46 
 158      C14701
 159 0205 48C17D8F 		.ascii	"H\301}\217\224s\237\310\352\270%\253[C[\237$]\315\301"
 159      94739FC8 
 159      EAB825AB 
 159      5B435B9F 
 159      245DCDC1 
 160 0219 70F87971 		.ascii	"p\370yq\233Qt\273%|\302b\237]\267\256V3\351\351&3\014"
 160      9B5174BB 
 160      257CC262 
 160      9F5DB7AE 
 160      5633E9E9 
 161 0230 B20A1EB0 		.ascii	"\262\012\036\260IG\307;iA\263=4r\361A\023\336\326\322"
 161      4947C73B 
 161      6941B33D 
 161      3472F141 
 161      13DED6D2 
 162 0244 354CC6C3 		.ascii	"5L\306\303\341\331\310h\320\001I\234R\0039m\006IAoS"
 162      E1D9C868 
 162      D001499C 
 162      5203396D 
 162      0649416F 
 163 0259 1E90D8AA 		.ascii	"\036\220\330\252\341T-\326.\261 N\341\021\331\236j\321"
 163      E1542DD6 
 163      2EB1204E 
 163      E111D99E 
 163      6AD1
 164 026b 23916554 		.ascii	"#\221eTdO]\271\205a\367a}\033N\027\242\340\263x1\350"
 164      644F5DB9 
 164      8561F761 
 164      7D1B4E17 
 164      A2E0B378 
 165 0281 44F34E49 		.ascii	"D\363NIL\216\032\364\3155\233V\365\250$n\316Das>\034"
 165      4C8E1AF4 
 165      CD359B56 
 165      F5A8246E 
 165      CE446173 
 166 0297 650E6AA7 		.ascii	"e\016j\247\215\315\240\311\237\211v\225`\203T\032\203"
 166      8DCDA0C9 
 166      9F897695 
 166      6083541A 
 166      83
ARM GAS  /tmp/ccJH6cy9.s 			page 12


 167 02a8 E2DDCED9 		.ascii	"\342\335\316\331\273)\370<\236\023\255\016\211\324\325"
 167      BB29F83C 
 167      9E13AD0E 
 167      89D4D5
 168 02b7 69BF5E86 		.ascii	"i\277^\206\264\225j\014G\014\331\224\211\341\205\346"
 168      B4956A0C 
 168      470CD994 
 168      89E185E6 
 169 02c7 A26D3A93 		.ascii	"\242m:\223H\001I\202\021\263!Z\364\333\333\357\346\261"
 169      48014982 
 169      11B3215A 
 169      F4DBDBEF 
 169      E6B1
 170 02d9 1FB2613C 		.ascii	"\037\262a<\027juS\250\325Ca\350\244\027 T\013b\240$"
 170      176A7553 
 170      A8D54361 
 170      E8A41720 
 170      540B62A0 
 171 02ee B87DD449 		.ascii	"\270}\324I\034\3328\262X]\372\263\020u\221M-\301\035"
 171      1CDA38B2 
 171      585DFAB3 
 171      1075914D 
 171      2DC11D
 172 0301 A33B61FF 		.ascii	"\243;a\377\234\305Za%4\301(\320X\253RD\3227j\221\232"
 172      9CC55A61 
 172      2534C128 
 172      D058AB52 
 172      44D2376A 
 173 0317 2CE0BD3F 		.ascii	",\340\275?\352lW\014\260\007q\203e\230\300:y\260&9\006"
 173      EA6C570C 
 173      B0077183 
 173      6598C03A 
 173      79B02639 
 174 032c B0247B66 		.ascii	"\260${f\037\362`mq\203\231\231\355\344\301\266\304\002"
 174      1FF2606D 
 174      71839999 
 174      EDE4C1B6 
 174      C402
 175 033e 9666CF6C 		.ascii	"\226f\317l\027\017\366n\334`ff=<XG,`\351\366\314>\345"
 175      170FF66E 
 175      DC606666 
 175      3D3C5847 
 175      2C60E9F6 
 176 0355 C13AE306 		.ascii	"\301:\343\00633;\306\203\355\212\005,\303\236Y\037\017"
 176      33333BC6 
 176      83ED8A05 
 176      2CC39E59 
 176      1F0F
 177 0367 B62F6E30 		.ascii	"\266/n03\263~\036\354P,`\231\366\314\006x\260\217\343"
 177      33B37E1E 
 177      EC502C60 
 177      99F6CC06 
 177      78B08FE3 
 178 037b 0633333B 		.ascii	"\00633;\311\203\035\211\005l\231\035\263\246\340\251"
 178      C9831D89 
 178      056C991D 
 178      B3A6E0A9 
ARM GAS  /tmp/ccJH6cy9.s 			page 13


 179 038b 9729D620 		.ascii	"\227)\326 \374\370I\250W\3042\377JZ\201\231\231]\342"
 179      FCF849A8 
 179      57C432FF 
 179      4A5A8199 
 179      995DE2
 180 039e 991D8F85 		.ascii	"\231\035\217\205\331J{\260\313<\330\311X\300V\3317\340"
 180      D94A7BB0 
 180      CB3CD8C9 
 180      58C056D9 
 180      37E0
 181 03b0 0A0F168C 		.ascii	"\012\017\026\214\033\314\314\354[\036l0\026\260u\366"
 181      1BCCCCEC 
 181      5B1E6C30 
 181      16B075F6 
 182 03c0 CCBEE7C1 		.ascii	"\314\276\347\301\206\343\006\343\2315\005\177\200n\352"
 182      86E306E3 
 182      9935057F 
 182      806EEA
 183 03cf 6FBCAE95 		.ascii	"o\274\256\225\302\233q\245\371'\314\344v\316\326M\301"
 183      C29B71A5 
 183      F927CCE4 
 183      76CED64D 
 183      C1
 184 03e0 B7E37E31 		.ascii	"\267\343~1\336\261y1\362\227\242\250\027\244\375\265"
 184      DEB17931 
 184      F297A2A8 
 184      17A4FDB5 
 185 03f0 98B68984 		.ascii	"\230\266\211\204n\226Y\324\320\352\341\337~\012\376"
 185      6E9659D4 
 185      D0EAE1DF 
 185      7E0AFE
 186 03ff 921D4ABE 		.ascii	"\222\035J\276\302\013A_d\372\033\246G\230\276\312\364"
 186      C20B415F 
 186      64FA1BA6 
 186      4798BECA 
 186      F4
 187 0410 774C5F63 		.ascii	"wL_cz\224\351\237\230\376\231\351_\230\376\215\351\337"
 187      7A94E99F 
 187      98FE99E9 
 187      5F98FE8D 
 187      E9DF
 188 0422 991E63FA 		.ascii	"\231\036c\372O\246o0}\223\351\277\230\276\305\364\337"
 188      4FA66F30 
 188      7D93E9BF 
 188      98BEC5F4 
 188      DF
 189 0433 A0238F70 		.ascii	"\240#\217pV\033\266\351/\345~\017\316j\372C\217\211"
 189      561BB6E9 
 189      2FE57E0F 
 189      CE6AFA43 
 189      8F89
 190 0445 C1713826 		.ascii	"\301q8&\376x\026w\264\020\355\230\330\225d\034\265G"
 190      FE781677 
 190      B410ED98 
 190      D895641C 
 190      B547
 191 0457 64CBA3F6 		.ascii	"d\313\243\366\210\222i\\/\2563\217\211\030\217\332\327"
ARM GAS  /tmp/ccJH6cy9.s 			page 14


 191      8892695C 
 191      2FAE338F 
 191      89188FDA 
 191      D7
 192 0468 C8BAF4C8 		.ascii	"\310\272\364\310I{B<i\377k>}>\215\366\220K\227B\203"
 192      497B423C 
 192      69FF6B3E 
 192      7D3E8DF6 
 192      904B9742 
 193 047d 639D7873 		.ascii	"c\235xs\010.\241\223\34106\216Z\235\251\372q1t \230"
 193      082EA193 
 193      E130368E 
 193      5A9DA9FA 
 193      71317420 
 194 0492 DE193DA6 		.ascii	"\336\031=\246$\361\353@;\227@\200\024q&\351\351\326"
 194      24F1EB40 
 194      3B974080 
 194      147126E9 
 194      E9D6
 195 04a4 BE0A6E92 		.ascii	"\276\012n\222h\027\233\245\350\272\322l\303\012\263"
 195      68179BA5 
 195      E8BAD26C 
 195      C30AB3
 196 04b3 7BFC0DD9 		.ascii	"{\374\015\331\342\277\0074\372\323\207\352\223V\031"
 196      E2BF0734 
 196      FAD387EA 
 196      935619
 197 04c2 93CE62BE 		.ascii	"\223\316b\276\321|4Ok/\005o\222\342\335 \255\222\365"
 197      D17C344F 
 197      6B2F056F 
 197      92E2DD20 
 197      AD92F5
 198 04d5 06719A38 		.ascii	"\006q\2328\033^\220\331\270,\\\024\005\022pF\323sW\360"
 198      1B5E90D9 
 198      B82C5C14 
 198      05127046 
 198      D37357F0 
 199 04e9 4CCC2D9D 		.ascii	"L\314-\235\353\302\322\321\256\030o:b\271\003n\226\204"
 199      EBC2D2D1 
 199      AE186F3A 
 199      62B9036E 
 199      9684
 200 04fb 35F09634 		.ascii	"5\360\2264\345\032\023\034\017^\276\240\335\001w\007"
 200      E51A131C 
 200      0F5EBEA0 
 200      DD017707 
 201 050b D38CA5F9 		.ascii	"\323\214\245\371\201\303ri\236V\"\267\300\373\354\026"
 201      81C37269 
 201      9E5622B7 
 201      C0FBEC16 
 202 051b B8457A84 		.ascii	"\270Ez\204\245\271E\244\365\216d\2714\357X.M\005\223"
 202      A5B945A4 
 202      F58E64B9 
 202      34EF582E 
 202      4D0593
 203 052e 682BCB8C 		.ascii	"h+\313\214IS\246k\270\340\245\340mq7\274\303\246\341"
 203      4953A66B 
ARM GAS  /tmp/ccJH6cy9.s 			page 15


 203      B8E0A5E0 
 203      6D7137BC 
 203      C3A6E1
 204 0541 334D8918 		.ascii	"3M\211\030^`\266I\302-Y !\241\217\034\226\015\237\354"
 204      5E60B649 
 204      C22D5920 
 204      21A18F1C 
 204      960D9FEC 
 205 0555 C0DBF986 		.ascii	"\300\333\371\206\237`\015\351\267n\270x\215}\317\246"
 205      9F600DE9 
 205      B76EB878 
 205      8D7DCFA6 
 206 0565 1FFA443B 		.ascii	"\037\372D;\254\013=\311\025Z\301\355P\034\203\377\300"
 206      AC0B3DC9 
 206      155AC1ED 
 206      501C83FF 
 206      C0
 207 0576 34FCBF30 		.ascii	"4\374\2770\361GOee\271\264\177u\001W\225R\355\0124T"
 207      F1474F65 
 207      65B9B47F 
 207      75015795 
 207      52ED0A34 
 208 058b D0BFDE80 		.ascii	"\320\277\336\200\232U\201\022\002\352\352Z\277\232P"
 208      9A558112 
 208      02EAEA5A 
 208      BF9A50
 209 059a B4767D86 		.ascii	"\264v}\206\033-\342}\033T\227\277\266\242\272\261\322"
 209      1B2DE27D 
 209      1B5497BF 
 209      B6A2BAB1 
 209      D2
 210 05ab E7AAA80A 		.ascii	"\347\252\250\012l\014\250\033\353}\201\254*\224Lm\177"
 210      6C0CA81B 
 210      EB7D81AC 
 210      2A944C6D 
 210      7F
 211 05bc 8DCFAB96 		.ascii	"\215\317\253\226\270\252\352j|\256\327\032\253\375J"
 211      B8AAEA6A 
 211      7CAED71A 
 211      ABFD4A
 212 05cb ADABB8B0 		.ascii	"\255\253\270\260(\337\025\360\325\370\002j\203\317\353"
 212      28DF15F0 
 212      D5F8026A 
 212      83CFEB
 213 05da 7FC35558 		.ascii	"\177\303UXS\356+\367W\002\224\322P\2634gYvnVv6\263k"
 213      53EE2BF7 
 213      570294D2 
 213      50B33467 
 213      59766E56 
 214 05f2 EB6A7D4B 		.ascii	"\353j}K}J\271?2C@\255\364\327\252\200\236\324\010\177"
 214      7D4AB93F 
 214      324340AD 
 214      F4D7AA80 
 214      9ED4087F 
 215 0606 B3F3BCAA 		.ascii	"\263\363\274\2523\240\226\250J\203\232_\015\021\211"
 215      33A096A8 
 215      4A839A5F 
ARM GAS  /tmp/ccJH6cy9.s 			page 16


 215      0D1189
 216 0615 4A399B33 		.ascii	"J9\2333\205\016\326\325\263\261\231`\373T\303,\322\315"
 216      850ED6D5 
 216      B3B19960 
 216      FB54C32C 
 216      D2CD
 217 0627 5C31DDFA 		.ascii	"\\1\335\372\272\0065\340*)-\316\315q\255YS\340*]]\374"
 217      BA0635E0 
 217      2A292DCE 
 217      CD71AD59 
 217      53E02A5D 
 218 063d 7AB65E00 		.ascii	"z\266^\000ouu%\314\231\242Y^?T\202\315\237\233\343U"
 218      6F757525 
 218      CC99A259 
 218      5E3F5482 
 218      CD9F9BE3 
 219 0652 7362030A 		.ascii	"sb\003\012\2505\324\333_\243\341\350\037\274\252\354"
 219      A835D4DB 
 219      5FA3E1E8 
 219      1FBCAAEC 
 220 0662 F66483E4 		.ascii	"\366d\203\3448J\212\335\036G\301\352B\217T\342\221\013"
 220      384A8ADD 
 220      1E47C1EA 
 220      428F54E2 
 220      910B
 221 0674 8B3C33DC 		.ascii	"\213<3\334\356bO6\3239\016\267\273\320#\273\327\226"
 221      EE624F36 
 221      D3390EB7 
 221      BBD023BB 
 221      D796
 222 0686 CAEB4ADC 		.ascii	"\312\353J\334r\276\307#{\334\360\031\002^((\365\310"
 222      72BEC723 
 222      7BDCF019 
 222      025E2828 
 222      F5C8
 223 0698 0534B238 		.ascii	"\0054\2628\337#\275\250E\345\202\177\231g\256\3166@"
 223      DF23BDA8 
 223      45E5827F 
 223      9967AECE 
 223      3640
 224 06aa ABE35568 		.ascii	"\253\343Uh\322\016Z\033GE\225\322\220\344\365\276\322"
 224      D20E5A1B 
 224      474595D2 
 224      90E4F5BE 
 224      D2
 225 06bb 585BE1F5 		.ascii	"X[\341\365\3162\214\254\274\345y\313\347Db\352\352\265"
 225      CE328CAC 
 225      BCE579CB 
 225      E74462EA 
 225      EAB5
 226 06cd 903463C4 		.ascii	"\2204c\304\247c\360\001\317\346\030_\277j\371u\336\377"
 226      A763F001 
 226      CFE6185F 
 226      BF6AF975 
 226      DEFF
 227 06df 9E3F6464 		.ascii	"\236?dd"
 228              		.text
ARM GAS  /tmp/ccJH6cy9.s 			page 17


 229              		.section	.gnu.lto_.symtab.6d8acf5fbf06f8a6,"",%progbits
 230 0000 7374496E 		.ascii	"stInit\000\000\000\000\000\000\000\000\000\000\000\000"
 230      69740000 
 230      00000000 
 230      00000000 
 230      0000
 231 0012 A1000000 		.ascii	"\241\000\000\000stStartAlarm\000\000\000\000\000\000"
 231      73745374 
 231      61727441 
 231      6C61726D 
 231      00000000 
 232 0028 00000000 		.ascii	"\000\000\000\000\000\000\246\000\000\000stStopAlarm"
 232      0000A600 
 232      00007374 
 232      53746F70 
 232      416C6172 
 233 003d 00000000 		.ascii	"\000\000\000\000\000\000\000\000\000\000\000\000\263"
 233      00000000 
 233      00000000 
 233      B3
 234 004a 00000073 		.ascii	"\000\000\000stSetAlarm\000\000\000\000\000\000\000\000"
 234      74536574 
 234      416C6172 
 234      6D000000 
 234      00000000 
 235 005f 00000000 		.ascii	"\000\000\000\000\266\000\000\000stGetAlarm\000\000\000"
 235      B6000000 
 235      73744765 
 235      74416C61 
 235      726D0000 
 236 0074 00000000 		.ascii	"\000\000\000\000\000\000\000\000\000\272\000\000\000"
 236      00000000 
 236      00BA0000 
 236      00
 237 0081 73745F6C 		.ascii	"st_lld_init\000\000\002\000\000\000\000\000\000\000"
 237      6C645F69 
 237      6E697400 
 237      00020000 
 237      00000000 
 238 0096 0000BE00 		.ascii	"\000\000\276\000\000\000"
 238      0000
 239              		.text
 240              		.section	.gnu.lto_.opts,"",%progbits
 241 0000 272D6D63 		.ascii	"'-mcpu=cortex-m3' '-mno-thumb-interwork' '-mthumb' "
 241      70753D63 
 241      6F727465 
 241      782D6D33 
 241      2720272D 
 242 0033 272D6767 		.ascii	"'-ggdb' '-O2' '-fomit-frame-pointer' '-falign-funct"
 242      64622720 
 242      272D4F32 
 242      2720272D 
 242      666F6D69 
 243 0066 696F6E73 		.ascii	"ions=16' '-ffunction-sections' '-fdata-sections' '-"
 243      3D313627 
 243      20272D66 
 243      66756E63 
ARM GAS  /tmp/ccJH6cy9.s 			page 18


 243      74696F6E 
 244 0099 666E6F2D 		.ascii	"fno-common' '-flto'\000"
 244      636F6D6D 
 244      6F6E2720 
 244      272D666C 
 244      746F2700 
 245              		.text
 246              		.cfi_sections	.debug_frame
 247              		.section	.text.stInit,"ax",%progbits
 248              		.align	2
 249              		.p2align 4,,15
 250              		.global	stInit
 251              		.thumb
 252              		.thumb_func
 253              		.type	stInit, %function
 254              	stInit:
 255              	.LFB219:
 256              		.file 1 "../../../os/hal/src/hal_st.c"
 257              		.loc 1 60 0
 258              		.cfi_startproc
 259              		@ args = 0, pretend = 0, frame = 0
 260              		@ frame_needed = 0, uses_anonymous_args = 0
 261              		@ link register save eliminated.
 262              		.loc 1 62 0
 263 0000 FFF7FEBF 		b	st_lld_init
 264              	.LVL0:
 265              		.cfi_endproc
 266              	.LFE219:
 267              		.size	stInit, .-stInit
 268 0004 AFF30080 		.section	.text.stStartAlarm,"ax",%progbits
 268      AFF30080 
 268      AFF30080 
 269              		.align	2
 270              		.p2align 4,,15
 271              		.global	stStartAlarm
 272              		.thumb
 273              		.thumb_func
 274              		.type	stStartAlarm, %function
 275              	stStartAlarm:
 276              	.LFB220:
 277              		.loc 1 76 0
 278              		.cfi_startproc
 279              		@ args = 0, pretend = 0, frame = 0
 280              		@ frame_needed = 0, uses_anonymous_args = 0
 281              		@ link register save eliminated.
 282              	.LVL1:
 283              	.LBB10:
 284              	.LBB11:
 285              		.file 2 "../../../os/hal/ports/STM32/LLD/TIMv1/hal_st_lld.h"
 286              		.loc 2 155 0
 287 0000 4FF08043 		mov	r3, #1073741824
 288              		.loc 2 156 0
 289 0004 0021     		movs	r1, #0
 290              		.loc 2 157 0
 291 0006 0222     		movs	r2, #2
 292              		.loc 2 155 0
 293 0008 5863     		str	r0, [r3, #52]
ARM GAS  /tmp/ccJH6cy9.s 			page 19


 294              		.loc 2 156 0
 295 000a 1961     		str	r1, [r3, #16]
 296              		.loc 2 157 0
 297 000c DA60     		str	r2, [r3, #12]
 298 000e 7047     		bx	lr
 299              	.LBE11:
 300              	.LBE10:
 301              		.cfi_endproc
 302              	.LFE220:
 303              		.size	stStartAlarm, .-stStartAlarm
 304              		.section	.text.stStopAlarm,"ax",%progbits
 305              		.align	2
 306              		.p2align 4,,15
 307              		.global	stStopAlarm
 308              		.thumb
 309              		.thumb_func
 310              		.type	stStopAlarm, %function
 311              	stStopAlarm:
 312              	.LFB221:
 313              		.loc 1 90 0
 314              		.cfi_startproc
 315              		@ args = 0, pretend = 0, frame = 0
 316              		@ frame_needed = 0, uses_anonymous_args = 0
 317              		@ link register save eliminated.
 318              	.LBB12:
 319              	.LBB13:
 320              		.loc 2 167 0
 321 0000 4FF08043 		mov	r3, #1073741824
 322 0004 0022     		movs	r2, #0
 323 0006 DA60     		str	r2, [r3, #12]
 324 0008 7047     		bx	lr
 325              	.LBE13:
 326              	.LBE12:
 327              		.cfi_endproc
 328              	.LFE221:
 329              		.size	stStopAlarm, .-stStopAlarm
 330 000a 00BFAFF3 		.section	.text.stSetAlarm,"ax",%progbits
 330      0080
 331              		.align	2
 332              		.p2align 4,,15
 333              		.global	stSetAlarm
 334              		.thumb
 335              		.thumb_func
 336              		.type	stSetAlarm, %function
 337              	stSetAlarm:
 338              	.LFB222:
 339              		.loc 1 104 0
 340              		.cfi_startproc
 341              		@ args = 0, pretend = 0, frame = 0
 342              		@ frame_needed = 0, uses_anonymous_args = 0
 343              		@ link register save eliminated.
 344              	.LVL2:
 345              	.LBB14:
 346              	.LBB15:
 347              		.loc 2 179 0
 348 0000 4FF08043 		mov	r3, #1073741824
 349 0004 5863     		str	r0, [r3, #52]
ARM GAS  /tmp/ccJH6cy9.s 			page 20


 350 0006 7047     		bx	lr
 351              	.LBE15:
 352              	.LBE14:
 353              		.cfi_endproc
 354              	.LFE222:
 355              		.size	stSetAlarm, .-stSetAlarm
 356 0008 AFF30080 		.section	.text.stGetAlarm,"ax",%progbits
 356      AFF30080 
 357              		.align	2
 358              		.p2align 4,,15
 359              		.global	stGetAlarm
 360              		.thumb
 361              		.thumb_func
 362              		.type	stGetAlarm, %function
 363              	stGetAlarm:
 364              	.LFB223:
 365              		.loc 1 120 0
 366              		.cfi_startproc
 367              		@ args = 0, pretend = 0, frame = 0
 368              		@ frame_needed = 0, uses_anonymous_args = 0
 369              		@ link register save eliminated.
 370              	.LBB16:
 371              	.LBB17:
 372              		.loc 2 191 0
 373 0000 4FF08043 		mov	r3, #1073741824
 374 0004 586B     		ldr	r0, [r3, #52]
 375              	.LBE17:
 376              	.LBE16:
 377              		.loc 1 125 0
 378 0006 80B2     		uxth	r0, r0
 379 0008 7047     		bx	lr
 380              		.cfi_endproc
 381              	.LFE223:
 382              		.size	stGetAlarm, .-stGetAlarm
 383 000a 00BFAFF3 		.text
 383      0080
 384              	.Letext0:
 385              		.file 3 "/home/julian/MEGA/semestre_ix/Embebidos/arm-2013.11/arm-none-eabi/include/stdint.h"
 386              		.file 4 "../../../os/common/ports/ARMCMx/compilers/GCC/chtypes.h"
 387              		.file 5 "../../../os/rt/include/chsystypes.h"
 388              		.file 6 "../../../os/rt/include/chschd.h"
 389              		.file 7 "../../../os/common/ports/ARMCMx/chcore.h"
 390              		.file 8 "../../../os/common/ports/ARMCMx/chcore_v7m.h"
 391              		.file 9 "../../../os/hal/ports/STM32/LLD/TIMv1/stm32_tim.h"
 392              		.file 10 "../../../os/rt/include/chsem.h"
 393              		.file 11 "../../../os/rt/include/chmtx.h"
 394              		.file 12 "../../../os/common/ext/CMSIS/include/core_cm3.h"
 395              		.section	.debug_info,"",%progbits
 396              	.Ldebug_info0:
 397 0000 7A080000 		.4byte	0x87a
 398 0004 0400     		.2byte	0x4
 399 0006 00000000 		.4byte	.Ldebug_abbrev0
 400 000a 04       		.byte	0x4
 401 000b 01       		.uleb128 0x1
 402 000c 5F020000 		.4byte	.LASF106
 403 0010 01       		.byte	0x1
 404 0011 C5010000 		.4byte	.LASF107
ARM GAS  /tmp/ccJH6cy9.s 			page 21


 405 0015 7B000000 		.4byte	.LASF108
 406 0019 00000000 		.4byte	.Ldebug_ranges0+0
 407 001d 00000000 		.4byte	0
 408 0021 00000000 		.4byte	.Ldebug_line0
 409 0025 02       		.uleb128 0x2
 410 0026 04       		.byte	0x4
 411 0027 05       		.byte	0x5
 412 0028 696E7400 		.ascii	"int\000"
 413 002c 03       		.uleb128 0x3
 414 002d 04       		.byte	0x4
 415 002e 07       		.byte	0x7
 416 002f 55000000 		.4byte	.LASF0
 417 0033 03       		.uleb128 0x3
 418 0034 01       		.byte	0x1
 419 0035 06       		.byte	0x6
 420 0036 1F050000 		.4byte	.LASF1
 421 003a 04       		.uleb128 0x4
 422 003b 4C030000 		.4byte	.LASF4
 423 003f 03       		.byte	0x3
 424 0040 2A       		.byte	0x2a
 425 0041 45000000 		.4byte	0x45
 426 0045 03       		.uleb128 0x3
 427 0046 01       		.byte	0x1
 428 0047 08       		.byte	0x8
 429 0048 B8040000 		.4byte	.LASF2
 430 004c 03       		.uleb128 0x3
 431 004d 02       		.byte	0x2
 432 004e 05       		.byte	0x5
 433 004f FC030000 		.4byte	.LASF3
 434 0053 04       		.uleb128 0x4
 435 0054 EE030000 		.4byte	.LASF5
 436 0058 03       		.byte	0x3
 437 0059 36       		.byte	0x36
 438 005a 5E000000 		.4byte	0x5e
 439 005e 03       		.uleb128 0x3
 440 005f 02       		.byte	0x2
 441 0060 07       		.byte	0x7
 442 0061 31050000 		.4byte	.LASF6
 443 0065 04       		.uleb128 0x4
 444 0066 A2040000 		.4byte	.LASF7
 445 006a 03       		.byte	0x3
 446 006b 4F       		.byte	0x4f
 447 006c 70000000 		.4byte	0x70
 448 0070 03       		.uleb128 0x3
 449 0071 04       		.byte	0x4
 450 0072 05       		.byte	0x5
 451 0073 06040000 		.4byte	.LASF8
 452 0077 04       		.uleb128 0x4
 453 0078 3C010000 		.4byte	.LASF9
 454 007c 03       		.byte	0x3
 455 007d 50       		.byte	0x50
 456 007e 82000000 		.4byte	0x82
 457 0082 03       		.uleb128 0x3
 458 0083 04       		.byte	0x4
 459 0084 07       		.byte	0x7
 460 0085 7D040000 		.4byte	.LASF10
 461 0089 03       		.uleb128 0x3
ARM GAS  /tmp/ccJH6cy9.s 			page 22


 462 008a 08       		.byte	0x8
 463 008b 05       		.byte	0x5
 464 008c 7B030000 		.4byte	.LASF11
 465 0090 04       		.uleb128 0x4
 466 0091 58040000 		.4byte	.LASF12
 467 0095 03       		.byte	0x3
 468 0096 78       		.byte	0x78
 469 0097 9B000000 		.4byte	0x9b
 470 009b 03       		.uleb128 0x3
 471 009c 08       		.byte	0x8
 472 009d 07       		.byte	0x7
 473 009e AE010000 		.4byte	.LASF13
 474 00a2 04       		.uleb128 0x4
 475 00a3 D3030000 		.4byte	.LASF14
 476 00a7 04       		.byte	0x4
 477 00a8 3C       		.byte	0x3c
 478 00a9 3A000000 		.4byte	0x3a
 479 00ad 04       		.uleb128 0x4
 480 00ae 3C030000 		.4byte	.LASF15
 481 00b2 04       		.byte	0x4
 482 00b3 3D       		.byte	0x3d
 483 00b4 3A000000 		.4byte	0x3a
 484 00b8 04       		.uleb128 0x4
 485 00b9 75040000 		.4byte	.LASF16
 486 00bd 04       		.byte	0x4
 487 00be 3E       		.byte	0x3e
 488 00bf 3A000000 		.4byte	0x3a
 489 00c3 04       		.uleb128 0x4
 490 00c4 83010000 		.4byte	.LASF17
 491 00c8 04       		.byte	0x4
 492 00c9 40       		.byte	0x40
 493 00ca 77000000 		.4byte	0x77
 494 00ce 04       		.uleb128 0x4
 495 00cf 89030000 		.4byte	.LASF18
 496 00d3 04       		.byte	0x4
 497 00d4 41       		.byte	0x41
 498 00d5 65000000 		.4byte	0x65
 499 00d9 04       		.uleb128 0x4
 500 00da 58010000 		.4byte	.LASF19
 501 00de 04       		.byte	0x4
 502 00df 43       		.byte	0x43
 503 00e0 77000000 		.4byte	0x77
 504 00e4 04       		.uleb128 0x4
 505 00e5 E2010000 		.4byte	.LASF20
 506 00e9 04       		.byte	0x4
 507 00ea 45       		.byte	0x45
 508 00eb 65000000 		.4byte	0x65
 509 00ef 04       		.uleb128 0x4
 510 00f0 39000000 		.4byte	.LASF21
 511 00f4 05       		.byte	0x5
 512 00f5 35       		.byte	0x35
 513 00f6 53000000 		.4byte	0x53
 514 00fa 04       		.uleb128 0x4
 515 00fb 22020000 		.4byte	.LASF22
 516 00ff 05       		.byte	0x5
 517 0100 3F       		.byte	0x3f
 518 0101 05010000 		.4byte	0x105
ARM GAS  /tmp/ccJH6cy9.s 			page 23


 519 0105 05       		.uleb128 0x5
 520 0106 62030000 		.4byte	.LASF40
 521 010a 44       		.byte	0x44
 522 010b 06       		.byte	0x6
 523 010c 9A       		.byte	0x9a
 524 010d E3010000 		.4byte	0x1e3
 525 0111 06       		.uleb128 0x6
 526 0112 9C040000 		.4byte	.LASF23
 527 0116 06       		.byte	0x6
 528 0117 9B       		.byte	0x9b
 529 0118 18020000 		.4byte	0x218
 530 011c 00       		.byte	0
 531 011d 06       		.uleb128 0x6
 532 011e 02030000 		.4byte	.LASF24
 533 0122 06       		.byte	0x6
 534 0123 9C       		.byte	0x9c
 535 0124 C3000000 		.4byte	0xc3
 536 0128 08       		.byte	0x8
 537 0129 07       		.uleb128 0x7
 538 012a 63747800 		.ascii	"ctx\000"
 539 012e 06       		.byte	0x6
 540 012f 9D       		.byte	0x9d
 541 0130 29040000 		.4byte	0x429
 542 0134 0C       		.byte	0xc
 543 0135 06       		.uleb128 0x6
 544 0136 B2040000 		.4byte	.LASF25
 545 013a 06       		.byte	0x6
 546 013b 9F       		.byte	0x9f
 547 013c EE010000 		.4byte	0x1ee
 548 0140 10       		.byte	0x10
 549 0141 06       		.uleb128 0x6
 550 0142 57050000 		.4byte	.LASF26
 551 0146 06       		.byte	0x6
 552 0147 A0       		.byte	0xa0
 553 0148 EE010000 		.4byte	0x1ee
 554 014c 14       		.byte	0x14
 555 014d 06       		.uleb128 0x6
 556 014e 67040000 		.4byte	.LASF27
 557 0152 06       		.byte	0x6
 558 0153 A7       		.byte	0xa7
 559 0154 B0060000 		.4byte	0x6b0
 560 0158 18       		.byte	0x18
 561 0159 06       		.uleb128 0x6
 562 015a 24030000 		.4byte	.LASF28
 563 015e 06       		.byte	0x6
 564 015f B0       		.byte	0xb0
 565 0160 C2060000 		.4byte	0x6c2
 566 0164 1C       		.byte	0x1c
 567 0165 06       		.uleb128 0x6
 568 0166 F5040000 		.4byte	.LASF29
 569 016a 06       		.byte	0x6
 570 016b B5       		.byte	0xb5
 571 016c AD000000 		.4byte	0xad
 572 0170 20       		.byte	0x20
 573 0171 06       		.uleb128 0x6
 574 0172 33000000 		.4byte	.LASF30
 575 0176 06       		.byte	0x6
ARM GAS  /tmp/ccJH6cy9.s 			page 24


 576 0177 B9       		.byte	0xb9
 577 0178 A2000000 		.4byte	0xa2
 578 017c 21       		.byte	0x21
 579 017d 06       		.uleb128 0x6
 580 017e 76000000 		.4byte	.LASF31
 581 0182 06       		.byte	0x6
 582 0183 BE       		.byte	0xbe
 583 0184 B8000000 		.4byte	0xb8
 584 0188 22       		.byte	0x22
 585 0189 08       		.uleb128 0x8
 586 018a 7500     		.ascii	"u\000"
 587 018c 06       		.byte	0x6
 588 018d 0F01     		.2byte	0x10f
 589 018f E5050000 		.4byte	0x5e5
 590 0193 24       		.byte	0x24
 591 0194 09       		.uleb128 0x9
 592 0195 C6040000 		.4byte	.LASF32
 593 0199 06       		.byte	0x6
 594 019a 1401     		.2byte	0x114
 595 019c F4010000 		.4byte	0x1f4
 596 01a0 28       		.byte	0x28
 597 01a1 09       		.uleb128 0x9
 598 01a2 54030000 		.4byte	.LASF33
 599 01a6 06       		.byte	0x6
 600 01a7 1A01     		.2byte	0x11a
 601 01a9 18020000 		.4byte	0x218
 602 01ad 2C       		.byte	0x2c
 603 01ae 09       		.uleb128 0x9
 604 01af 4C000000 		.4byte	.LASF34
 605 01b3 06       		.byte	0x6
 606 01b4 2001     		.2byte	0x120
 607 01b6 D9000000 		.4byte	0xd9
 608 01ba 34       		.byte	0x34
 609 01bb 09       		.uleb128 0x9
 610 01bc 03020000 		.4byte	.LASF35
 611 01c0 06       		.byte	0x6
 612 01c1 2701     		.2byte	0x127
 613 01c3 AA060000 		.4byte	0x6aa
 614 01c7 38       		.byte	0x38
 615 01c8 09       		.uleb128 0x9
 616 01c9 43000000 		.4byte	.LASF36
 617 01cd 06       		.byte	0x6
 618 01ce 2B01     		.2byte	0x12b
 619 01d0 C3000000 		.4byte	0xc3
 620 01d4 3C       		.byte	0x3c
 621 01d5 09       		.uleb128 0x9
 622 01d6 66050000 		.4byte	.LASF37
 623 01da 06       		.byte	0x6
 624 01db 3201     		.2byte	0x132
 625 01dd CB020000 		.4byte	0x2cb
 626 01e1 40       		.byte	0x40
 627 01e2 00       		.byte	0
 628 01e3 04       		.uleb128 0x4
 629 01e4 11030000 		.4byte	.LASF38
 630 01e8 05       		.byte	0x5
 631 01e9 44       		.byte	0x44
 632 01ea EE010000 		.4byte	0x1ee
ARM GAS  /tmp/ccJH6cy9.s 			page 25


 633 01ee 0A       		.uleb128 0xa
 634 01ef 04       		.byte	0x4
 635 01f0 FA000000 		.4byte	0xfa
 636 01f4 04       		.uleb128 0x4
 637 01f5 67000000 		.4byte	.LASF39
 638 01f9 05       		.byte	0x5
 639 01fa 49       		.byte	0x49
 640 01fb FF010000 		.4byte	0x1ff
 641 01ff 05       		.uleb128 0x5
 642 0200 00000000 		.4byte	.LASF41
 643 0204 04       		.byte	0x4
 644 0205 06       		.byte	0x6
 645 0206 88       		.byte	0x88
 646 0207 18020000 		.4byte	0x218
 647 020b 06       		.uleb128 0x6
 648 020c 62000000 		.4byte	.LASF42
 649 0210 06       		.byte	0x6
 650 0211 89       		.byte	0x89
 651 0212 EE010000 		.4byte	0x1ee
 652 0216 00       		.byte	0
 653 0217 00       		.byte	0
 654 0218 04       		.uleb128 0x4
 655 0219 F3010000 		.4byte	.LASF43
 656 021d 05       		.byte	0x5
 657 021e 50       		.byte	0x50
 658 021f 23020000 		.4byte	0x223
 659 0223 05       		.uleb128 0x5
 660 0224 0D010000 		.4byte	.LASF44
 661 0228 08       		.byte	0x8
 662 0229 06       		.byte	0x6
 663 022a 8F       		.byte	0x8f
 664 022b 48020000 		.4byte	0x248
 665 022f 06       		.uleb128 0x6
 666 0230 62000000 		.4byte	.LASF42
 667 0234 06       		.byte	0x6
 668 0235 90       		.byte	0x90
 669 0236 EE010000 		.4byte	0x1ee
 670 023a 00       		.byte	0
 671 023b 06       		.uleb128 0x6
 672 023c 08010000 		.4byte	.LASF45
 673 0240 06       		.byte	0x6
 674 0241 91       		.byte	0x91
 675 0242 EE010000 		.4byte	0x1ee
 676 0246 04       		.byte	0x4
 677 0247 00       		.byte	0
 678 0248 04       		.uleb128 0x4
 679 0249 8F040000 		.4byte	.LASF46
 680 024d 05       		.byte	0x5
 681 024e 57       		.byte	0x57
 682 024f 53020000 		.4byte	0x253
 683 0253 0B       		.uleb128 0xb
 684 0254 EE000000 		.4byte	.LASF47
 685 0258 1C       		.byte	0x1c
 686 0259 06       		.byte	0x6
 687 025a 6A01     		.2byte	0x16a
 688 025c AF020000 		.4byte	0x2af
 689 0260 09       		.uleb128 0x9
ARM GAS  /tmp/ccJH6cy9.s 			page 26


 690 0261 9C040000 		.4byte	.LASF23
 691 0265 06       		.byte	0x6
 692 0266 6B01     		.2byte	0x16b
 693 0268 18020000 		.4byte	0x218
 694 026c 00       		.byte	0
 695 026d 09       		.uleb128 0x9
 696 026e 02030000 		.4byte	.LASF24
 697 0272 06       		.byte	0x6
 698 0273 6C01     		.2byte	0x16c
 699 0275 C3000000 		.4byte	0xc3
 700 0279 08       		.byte	0x8
 701 027a 08       		.uleb128 0x8
 702 027b 63747800 		.ascii	"ctx\000"
 703 027f 06       		.byte	0x6
 704 0280 6E01     		.2byte	0x16e
 705 0282 29040000 		.4byte	0x429
 706 0286 0C       		.byte	0xc
 707 0287 09       		.uleb128 0x9
 708 0288 B2040000 		.4byte	.LASF25
 709 028c 06       		.byte	0x6
 710 028d 7101     		.2byte	0x171
 711 028f EE010000 		.4byte	0x1ee
 712 0293 10       		.byte	0x10
 713 0294 09       		.uleb128 0x9
 714 0295 57050000 		.4byte	.LASF26
 715 0299 06       		.byte	0x6
 716 029a 7201     		.2byte	0x172
 717 029c EE010000 		.4byte	0x1ee
 718 02a0 14       		.byte	0x14
 719 02a1 09       		.uleb128 0x9
 720 02a2 4F050000 		.4byte	.LASF48
 721 02a6 06       		.byte	0x6
 722 02a7 7501     		.2byte	0x175
 723 02a9 EE010000 		.4byte	0x1ee
 724 02ad 18       		.byte	0x18
 725 02ae 00       		.byte	0
 726 02af 04       		.uleb128 0x4
 727 02b0 23010000 		.4byte	.LASF49
 728 02b4 05       		.byte	0x5
 729 02b5 5C       		.byte	0x5c
 730 02b6 BA020000 		.4byte	0x2ba
 731 02ba 0A       		.uleb128 0xa
 732 02bb 04       		.byte	0x4
 733 02bc C0020000 		.4byte	0x2c0
 734 02c0 0C       		.uleb128 0xc
 735 02c1 CB020000 		.4byte	0x2cb
 736 02c5 0D       		.uleb128 0xd
 737 02c6 CB020000 		.4byte	0x2cb
 738 02ca 00       		.byte	0
 739 02cb 0E       		.uleb128 0xe
 740 02cc 04       		.byte	0x4
 741 02cd 04       		.uleb128 0x4
 742 02ce 9D030000 		.4byte	.LASF50
 743 02d2 05       		.byte	0x5
 744 02d3 61       		.byte	0x61
 745 02d4 D8020000 		.4byte	0x2d8
 746 02d8 0B       		.uleb128 0xb
ARM GAS  /tmp/ccJH6cy9.s 			page 27


 747 02d9 8B010000 		.4byte	.LASF51
 748 02dd 14       		.byte	0x14
 749 02de 06       		.byte	0x6
 750 02df 4501     		.2byte	0x145
 751 02e1 27030000 		.4byte	0x327
 752 02e5 09       		.uleb128 0x9
 753 02e6 62000000 		.4byte	.LASF42
 754 02ea 06       		.byte	0x6
 755 02eb 4601     		.2byte	0x146
 756 02ed C8060000 		.4byte	0x6c8
 757 02f1 00       		.byte	0
 758 02f2 09       		.uleb128 0x9
 759 02f3 08010000 		.4byte	.LASF45
 760 02f7 06       		.byte	0x6
 761 02f8 4701     		.2byte	0x147
 762 02fa C8060000 		.4byte	0x6c8
 763 02fe 04       		.byte	0x4
 764 02ff 09       		.uleb128 0x9
 765 0300 2B050000 		.4byte	.LASF52
 766 0304 06       		.byte	0x6
 767 0305 4801     		.2byte	0x148
 768 0307 EF000000 		.4byte	0xef
 769 030b 08       		.byte	0x8
 770 030c 09       		.uleb128 0x9
 771 030d FC000000 		.4byte	.LASF53
 772 0311 06       		.byte	0x6
 773 0312 4901     		.2byte	0x149
 774 0314 AF020000 		.4byte	0x2af
 775 0318 0C       		.byte	0xc
 776 0319 08       		.uleb128 0x8
 777 031a 70617200 		.ascii	"par\000"
 778 031e 06       		.byte	0x6
 779 031f 4B01     		.2byte	0x14b
 780 0321 CB020000 		.4byte	0x2cb
 781 0325 10       		.byte	0x10
 782 0326 00       		.byte	0
 783 0327 04       		.uleb128 0x4
 784 0328 CE040000 		.4byte	.LASF54
 785 032c 05       		.byte	0x5
 786 032d 66       		.byte	0x66
 787 032e 32030000 		.4byte	0x332
 788 0332 0B       		.uleb128 0xb
 789 0333 0B020000 		.4byte	.LASF55
 790 0337 0C       		.byte	0xc
 791 0338 06       		.byte	0x6
 792 0339 5501     		.2byte	0x155
 793 033b 74030000 		.4byte	0x374
 794 033f 09       		.uleb128 0x9
 795 0340 62000000 		.4byte	.LASF42
 796 0344 06       		.byte	0x6
 797 0345 5601     		.2byte	0x156
 798 0347 C8060000 		.4byte	0x6c8
 799 034b 00       		.byte	0
 800 034c 09       		.uleb128 0x9
 801 034d 08010000 		.4byte	.LASF45
 802 0351 06       		.byte	0x6
 803 0352 5801     		.2byte	0x158
ARM GAS  /tmp/ccJH6cy9.s 			page 28


 804 0354 C8060000 		.4byte	0x6c8
 805 0358 04       		.byte	0x4
 806 0359 09       		.uleb128 0x9
 807 035a 2B050000 		.4byte	.LASF52
 808 035e 06       		.byte	0x6
 809 035f 5A01     		.2byte	0x15a
 810 0361 EF000000 		.4byte	0xef
 811 0365 08       		.byte	0x8
 812 0366 09       		.uleb128 0x9
 813 0367 4F040000 		.4byte	.LASF56
 814 036b 06       		.byte	0x6
 815 036c 6201     		.2byte	0x162
 816 036e EF000000 		.4byte	0xef
 817 0372 0A       		.byte	0xa
 818 0373 00       		.byte	0
 819 0374 04       		.uleb128 0x4
 820 0375 6C030000 		.4byte	.LASF57
 821 0379 05       		.byte	0x5
 822 037a 6B       		.byte	0x6b
 823 037b 7F030000 		.4byte	0x37f
 824 037f 0B       		.uleb128 0xb
 825 0380 2C010000 		.4byte	.LASF58
 826 0384 04       		.byte	0x4
 827 0385 06       		.byte	0x6
 828 0386 7C01     		.2byte	0x17c
 829 0388 9A030000 		.4byte	0x39a
 830 038c 09       		.uleb128 0x9
 831 038d C9030000 		.4byte	.LASF59
 832 0391 06       		.byte	0x6
 833 0392 8401     		.2byte	0x184
 834 0394 CE060000 		.4byte	0x6ce
 835 0398 00       		.byte	0
 836 0399 00       		.byte	0
 837 039a 04       		.uleb128 0x4
 838 039b FB040000 		.4byte	.LASF60
 839 039f 05       		.byte	0x5
 840 03a0 70       		.byte	0x70
 841 03a1 A5030000 		.4byte	0x3a5
 842 03a5 0B       		.uleb128 0xb
 843 03a6 2D040000 		.4byte	.LASF61
 844 03aa 70       		.byte	0x70
 845 03ab 06       		.byte	0x6
 846 03ac 9C01     		.2byte	0x19c
 847 03ae E7030000 		.4byte	0x3e7
 848 03b2 09       		.uleb128 0x9
 849 03b3 61040000 		.4byte	.LASF62
 850 03b7 06       		.byte	0x6
 851 03b8 A001     		.2byte	0x1a0
 852 03ba 48020000 		.4byte	0x248
 853 03be 00       		.byte	0
 854 03bf 09       		.uleb128 0x9
 855 03c0 DA000000 		.4byte	.LASF63
 856 03c4 06       		.byte	0x6
 857 03c5 A401     		.2byte	0x1a4
 858 03c7 27030000 		.4byte	0x327
 859 03cb 1C       		.byte	0x1c
 860 03cc 08       		.uleb128 0x8
ARM GAS  /tmp/ccJH6cy9.s 			page 29


 861 03cd 64626700 		.ascii	"dbg\000"
 862 03d1 06       		.byte	0x6
 863 03d2 A801     		.2byte	0x1a8
 864 03d4 74030000 		.4byte	0x374
 865 03d8 28       		.byte	0x28
 866 03d9 09       		.uleb128 0x9
 867 03da DB030000 		.4byte	.LASF64
 868 03de 06       		.byte	0x6
 869 03df AC01     		.2byte	0x1ac
 870 03e1 FA000000 		.4byte	0xfa
 871 03e5 2C       		.byte	0x2c
 872 03e6 00       		.byte	0
 873 03e7 03       		.uleb128 0x3
 874 03e8 04       		.byte	0x4
 875 03e9 07       		.byte	0x7
 876 03ea 6C040000 		.4byte	.LASF65
 877 03ee 0F       		.uleb128 0xf
 878 03ef 77000000 		.4byte	0x77
 879 03f3 10       		.uleb128 0x10
 880 03f4 77000000 		.4byte	0x77
 881 03f8 03040000 		.4byte	0x403
 882 03fc 11       		.uleb128 0x11
 883 03fd E7030000 		.4byte	0x3e7
 884 0401 01       		.byte	0x1
 885 0402 00       		.byte	0
 886 0403 10       		.uleb128 0x10
 887 0404 77000000 		.4byte	0x77
 888 0408 13040000 		.4byte	0x413
 889 040c 11       		.uleb128 0x11
 890 040d E7030000 		.4byte	0x3e7
 891 0411 03       		.byte	0x3
 892 0412 00       		.byte	0
 893 0413 04       		.uleb128 0x4
 894 0414 17000000 		.4byte	.LASF66
 895 0418 07       		.byte	0x7
 896 0419 65       		.byte	0x65
 897 041a CB020000 		.4byte	0x2cb
 898 041e 04       		.uleb128 0x4
 899 041f 44050000 		.4byte	.LASF67
 900 0423 07       		.byte	0x7
 901 0424 6D       		.byte	0x6d
 902 0425 90000000 		.4byte	0x90
 903 0429 05       		.uleb128 0x5
 904 042a E1000000 		.4byte	.LASF68
 905 042e 04       		.byte	0x4
 906 042f 07       		.byte	0x7
 907 0430 89       		.byte	0x89
 908 0431 41040000 		.4byte	0x441
 909 0435 07       		.uleb128 0x7
 910 0436 737000   		.ascii	"sp\000"
 911 0439 07       		.byte	0x7
 912 043a 8A       		.byte	0x8a
 913 043b BD040000 		.4byte	0x4bd
 914 043f 00       		.byte	0
 915 0440 00       		.byte	0
 916 0441 0B       		.uleb128 0xb
 917 0442 0F040000 		.4byte	.LASF69
ARM GAS  /tmp/ccJH6cy9.s 			page 30


 918 0446 24       		.byte	0x24
 919 0447 08       		.byte	0x8
 920 0448 5901     		.2byte	0x159
 921 044a BD040000 		.4byte	0x4bd
 922 044e 08       		.uleb128 0x8
 923 044f 723400   		.ascii	"r4\000"
 924 0452 08       		.byte	0x8
 925 0453 6C01     		.2byte	0x16c
 926 0455 13040000 		.4byte	0x413
 927 0459 00       		.byte	0
 928 045a 08       		.uleb128 0x8
 929 045b 723500   		.ascii	"r5\000"
 930 045e 08       		.byte	0x8
 931 045f 6D01     		.2byte	0x16d
 932 0461 13040000 		.4byte	0x413
 933 0465 04       		.byte	0x4
 934 0466 08       		.uleb128 0x8
 935 0467 723600   		.ascii	"r6\000"
 936 046a 08       		.byte	0x8
 937 046b 6E01     		.2byte	0x16e
 938 046d 13040000 		.4byte	0x413
 939 0471 08       		.byte	0x8
 940 0472 08       		.uleb128 0x8
 941 0473 723700   		.ascii	"r7\000"
 942 0476 08       		.byte	0x8
 943 0477 6F01     		.2byte	0x16f
 944 0479 13040000 		.4byte	0x413
 945 047d 0C       		.byte	0xc
 946 047e 08       		.uleb128 0x8
 947 047f 723800   		.ascii	"r8\000"
 948 0482 08       		.byte	0x8
 949 0483 7001     		.2byte	0x170
 950 0485 13040000 		.4byte	0x413
 951 0489 10       		.byte	0x10
 952 048a 08       		.uleb128 0x8
 953 048b 723900   		.ascii	"r9\000"
 954 048e 08       		.byte	0x8
 955 048f 7101     		.2byte	0x171
 956 0491 13040000 		.4byte	0x413
 957 0495 14       		.byte	0x14
 958 0496 08       		.uleb128 0x8
 959 0497 72313000 		.ascii	"r10\000"
 960 049b 08       		.byte	0x8
 961 049c 7201     		.2byte	0x172
 962 049e 13040000 		.4byte	0x413
 963 04a2 18       		.byte	0x18
 964 04a3 08       		.uleb128 0x8
 965 04a4 72313100 		.ascii	"r11\000"
 966 04a8 08       		.byte	0x8
 967 04a9 7301     		.2byte	0x173
 968 04ab 13040000 		.4byte	0x413
 969 04af 1C       		.byte	0x1c
 970 04b0 08       		.uleb128 0x8
 971 04b1 6C7200   		.ascii	"lr\000"
 972 04b4 08       		.byte	0x8
 973 04b5 7401     		.2byte	0x174
 974 04b7 13040000 		.4byte	0x413
ARM GAS  /tmp/ccJH6cy9.s 			page 31


 975 04bb 20       		.byte	0x20
 976 04bc 00       		.byte	0
 977 04bd 0A       		.uleb128 0xa
 978 04be 04       		.byte	0x4
 979 04bf 41040000 		.4byte	0x441
 980 04c3 12       		.uleb128 0x12
 981 04c4 60       		.byte	0x60
 982 04c5 09       		.byte	0x9
 983 04c6 A101     		.2byte	0x1a1
 984 04c8 CF050000 		.4byte	0x5cf
 985 04cc 08       		.uleb128 0x8
 986 04cd 43523100 		.ascii	"CR1\000"
 987 04d1 09       		.byte	0x9
 988 04d2 A201     		.2byte	0x1a2
 989 04d4 EE030000 		.4byte	0x3ee
 990 04d8 00       		.byte	0
 991 04d9 08       		.uleb128 0x8
 992 04da 43523200 		.ascii	"CR2\000"
 993 04de 09       		.byte	0x9
 994 04df A301     		.2byte	0x1a3
 995 04e1 EE030000 		.4byte	0x3ee
 996 04e5 04       		.byte	0x4
 997 04e6 09       		.uleb128 0x9
 998 04e7 5D030000 		.4byte	.LASF70
 999 04eb 09       		.byte	0x9
 1000 04ec A401     		.2byte	0x1a4
 1001 04ee EE030000 		.4byte	0x3ee
 1002 04f2 08       		.byte	0x8
 1003 04f3 09       		.uleb128 0x9
 1004 04f4 5A020000 		.4byte	.LASF71
 1005 04f8 09       		.byte	0x9
 1006 04f9 A501     		.2byte	0x1a5
 1007 04fb EE030000 		.4byte	0x3ee
 1008 04ff 0C       		.byte	0xc
 1009 0500 08       		.uleb128 0x8
 1010 0501 535200   		.ascii	"SR\000"
 1011 0504 09       		.byte	0x9
 1012 0505 A601     		.2byte	0x1a6
 1013 0507 EE030000 		.4byte	0x3ee
 1014 050b 10       		.byte	0x10
 1015 050c 08       		.uleb128 0x8
 1016 050d 45475200 		.ascii	"EGR\000"
 1017 0511 09       		.byte	0x9
 1018 0512 A701     		.2byte	0x1a7
 1019 0514 EE030000 		.4byte	0x3ee
 1020 0518 14       		.byte	0x14
 1021 0519 09       		.uleb128 0x9
 1022 051a 9C010000 		.4byte	.LASF72
 1023 051e 09       		.byte	0x9
 1024 051f A801     		.2byte	0x1a8
 1025 0521 EE030000 		.4byte	0x3ee
 1026 0525 18       		.byte	0x18
 1027 0526 09       		.uleb128 0x9
 1028 0527 A2010000 		.4byte	.LASF73
 1029 052b 09       		.byte	0x9
 1030 052c A901     		.2byte	0x1a9
 1031 052e EE030000 		.4byte	0x3ee
ARM GAS  /tmp/ccJH6cy9.s 			page 32


 1032 0532 1C       		.byte	0x1c
 1033 0533 09       		.uleb128 0x9
 1034 0534 07030000 		.4byte	.LASF74
 1035 0538 09       		.byte	0x9
 1036 0539 AA01     		.2byte	0x1aa
 1037 053b EE030000 		.4byte	0x3ee
 1038 053f 20       		.byte	0x20
 1039 0540 08       		.uleb128 0x8
 1040 0541 434E5400 		.ascii	"CNT\000"
 1041 0545 09       		.byte	0x9
 1042 0546 AB01     		.2byte	0x1ab
 1043 0548 EE030000 		.4byte	0x3ee
 1044 054c 24       		.byte	0x24
 1045 054d 08       		.uleb128 0x8
 1046 054e 50534300 		.ascii	"PSC\000"
 1047 0552 09       		.byte	0x9
 1048 0553 AC01     		.2byte	0x1ac
 1049 0555 EE030000 		.4byte	0x3ee
 1050 0559 28       		.byte	0x28
 1051 055a 08       		.uleb128 0x8
 1052 055b 41525200 		.ascii	"ARR\000"
 1053 055f 09       		.byte	0x9
 1054 0560 AD01     		.2byte	0x1ad
 1055 0562 EE030000 		.4byte	0x3ee
 1056 0566 2C       		.byte	0x2c
 1057 0567 08       		.uleb128 0x8
 1058 0568 52435200 		.ascii	"RCR\000"
 1059 056c 09       		.byte	0x9
 1060 056d AE01     		.2byte	0x1ae
 1061 056f EE030000 		.4byte	0x3ee
 1062 0573 30       		.byte	0x30
 1063 0574 08       		.uleb128 0x8
 1064 0575 43435200 		.ascii	"CCR\000"
 1065 0579 09       		.byte	0x9
 1066 057a AF01     		.2byte	0x1af
 1067 057c CF050000 		.4byte	0x5cf
 1068 0580 34       		.byte	0x34
 1069 0581 09       		.uleb128 0x9
 1070 0582 64010000 		.4byte	.LASF75
 1071 0586 09       		.byte	0x9
 1072 0587 B001     		.2byte	0x1b0
 1073 0589 EE030000 		.4byte	0x3ee
 1074 058d 44       		.byte	0x44
 1075 058e 08       		.uleb128 0x8
 1076 058f 44435200 		.ascii	"DCR\000"
 1077 0593 09       		.byte	0x9
 1078 0594 B101     		.2byte	0x1b1
 1079 0596 EE030000 		.4byte	0x3ee
 1080 059a 48       		.byte	0x48
 1081 059b 09       		.uleb128 0x9
 1082 059c 1E010000 		.4byte	.LASF76
 1083 05a0 09       		.byte	0x9
 1084 05a1 B201     		.2byte	0x1b2
 1085 05a3 EE030000 		.4byte	0x3ee
 1086 05a7 4C       		.byte	0x4c
 1087 05a8 08       		.uleb128 0x8
 1088 05a9 4F5200   		.ascii	"OR\000"
ARM GAS  /tmp/ccJH6cy9.s 			page 33


 1089 05ac 09       		.byte	0x9
 1090 05ad B301     		.2byte	0x1b3
 1091 05af EE030000 		.4byte	0x3ee
 1092 05b3 50       		.byte	0x50
 1093 05b4 09       		.uleb128 0x9
 1094 05b5 A8010000 		.4byte	.LASF77
 1095 05b9 09       		.byte	0x9
 1096 05ba B401     		.2byte	0x1b4
 1097 05bc EE030000 		.4byte	0x3ee
 1098 05c0 54       		.byte	0x54
 1099 05c1 09       		.uleb128 0x9
 1100 05c2 F7030000 		.4byte	.LASF78
 1101 05c6 09       		.byte	0x9
 1102 05c7 B501     		.2byte	0x1b5
 1103 05c9 D4050000 		.4byte	0x5d4
 1104 05cd 58       		.byte	0x58
 1105 05ce 00       		.byte	0
 1106 05cf 0F       		.uleb128 0xf
 1107 05d0 03040000 		.4byte	0x403
 1108 05d4 0F       		.uleb128 0xf
 1109 05d5 F3030000 		.4byte	0x3f3
 1110 05d9 13       		.uleb128 0x13
 1111 05da 32020000 		.4byte	.LASF79
 1112 05de 09       		.byte	0x9
 1113 05df B601     		.2byte	0x1b6
 1114 05e1 C3040000 		.4byte	0x4c3
 1115 05e5 14       		.uleb128 0x14
 1116 05e6 04       		.byte	0x4
 1117 05e7 06       		.byte	0x6
 1118 05e8 D2       		.byte	0xd2
 1119 05e9 48060000 		.4byte	0x648
 1120 05ed 15       		.uleb128 0x15
 1121 05ee 2B020000 		.4byte	.LASF80
 1122 05f2 06       		.byte	0x6
 1123 05f3 D9       		.byte	0xd9
 1124 05f4 CE000000 		.4byte	0xce
 1125 05f8 15       		.uleb128 0x15
 1126 05f9 5D050000 		.4byte	.LASF81
 1127 05fd 06       		.byte	0x6
 1128 05fe E0       		.byte	0xe0
 1129 05ff CE000000 		.4byte	0xce
 1130 0603 15       		.uleb128 0x15
 1131 0604 D3000000 		.4byte	.LASF82
 1132 0608 06       		.byte	0x6
 1133 0609 E7       		.byte	0xe7
 1134 060a CB020000 		.4byte	0x2cb
 1135 060e 15       		.uleb128 0x15
 1136 060f 0E050000 		.4byte	.LASF83
 1137 0613 06       		.byte	0x6
 1138 0614 EE       		.byte	0xee
 1139 0615 48060000 		.4byte	0x648
 1140 0619 15       		.uleb128 0x15
 1141 061a 50010000 		.4byte	.LASF84
 1142 061e 06       		.byte	0x6
 1143 061f F3       		.byte	0xf3
 1144 0620 CE000000 		.4byte	0xce
 1145 0624 15       		.uleb128 0x15
ARM GAS  /tmp/ccJH6cy9.s 			page 34


 1146 0625 07050000 		.4byte	.LASF85
 1147 0629 06       		.byte	0x6
 1148 062a FC       		.byte	0xfc
 1149 062b 73060000 		.4byte	0x673
 1150 062f 16       		.uleb128 0x16
 1151 0630 10000000 		.4byte	.LASF86
 1152 0634 06       		.byte	0x6
 1153 0635 0501     		.2byte	0x105
 1154 0637 AA060000 		.4byte	0x6aa
 1155 063b 16       		.uleb128 0x16
 1156 063c 01010000 		.4byte	.LASF87
 1157 0640 06       		.byte	0x6
 1158 0641 0D01     		.2byte	0x10d
 1159 0643 D9000000 		.4byte	0xd9
 1160 0647 00       		.byte	0
 1161 0648 0A       		.uleb128 0xa
 1162 0649 04       		.byte	0x4
 1163 064a E3010000 		.4byte	0x1e3
 1164 064e 05       		.uleb128 0x5
 1165 064f 76010000 		.4byte	.LASF88
 1166 0653 0C       		.byte	0xc
 1167 0654 0A       		.byte	0xa
 1168 0655 34       		.byte	0x34
 1169 0656 73060000 		.4byte	0x673
 1170 065a 06       		.uleb128 0x6
 1171 065b 9C040000 		.4byte	.LASF23
 1172 065f 0A       		.byte	0xa
 1173 0660 35       		.byte	0x35
 1174 0661 18020000 		.4byte	0x218
 1175 0665 00       		.byte	0
 1176 0666 07       		.uleb128 0x7
 1177 0667 636E7400 		.ascii	"cnt\000"
 1178 066b 0A       		.byte	0xa
 1179 066c 37       		.byte	0x37
 1180 066d E4000000 		.4byte	0xe4
 1181 0671 08       		.byte	0x8
 1182 0672 00       		.byte	0
 1183 0673 0A       		.uleb128 0xa
 1184 0674 04       		.byte	0x4
 1185 0675 4E060000 		.4byte	0x64e
 1186 0679 05       		.uleb128 0x5
 1187 067a 51020000 		.4byte	.LASF89
 1188 067e 10       		.byte	0x10
 1189 067f 0B       		.byte	0xb
 1190 0680 39       		.byte	0x39
 1191 0681 AA060000 		.4byte	0x6aa
 1192 0685 06       		.uleb128 0x6
 1193 0686 9C040000 		.4byte	.LASF23
 1194 068a 0B       		.byte	0xb
 1195 068b 3A       		.byte	0x3a
 1196 068c 18020000 		.4byte	0x218
 1197 0690 00       		.byte	0
 1198 0691 06       		.uleb128 0x6
 1199 0692 ED010000 		.4byte	.LASF90
 1200 0696 0B       		.byte	0xb
 1201 0697 3C       		.byte	0x3c
 1202 0698 EE010000 		.4byte	0x1ee
ARM GAS  /tmp/ccJH6cy9.s 			page 35


 1203 069c 08       		.byte	0x8
 1204 069d 06       		.uleb128 0x6
 1205 069e 62000000 		.4byte	.LASF42
 1206 06a2 0B       		.byte	0xb
 1207 06a3 3E       		.byte	0x3e
 1208 06a4 DE060000 		.4byte	0x6de
 1209 06a8 0C       		.byte	0xc
 1210 06a9 00       		.byte	0
 1211 06aa 0A       		.uleb128 0xa
 1212 06ab 04       		.byte	0x4
 1213 06ac 79060000 		.4byte	0x679
 1214 06b0 0A       		.uleb128 0xa
 1215 06b1 04       		.byte	0x4
 1216 06b2 B6060000 		.4byte	0x6b6
 1217 06b6 17       		.uleb128 0x17
 1218 06b7 BB060000 		.4byte	0x6bb
 1219 06bb 03       		.uleb128 0x3
 1220 06bc 01       		.byte	0x1
 1221 06bd 08       		.byte	0x8
 1222 06be 0C030000 		.4byte	.LASF91
 1223 06c2 0A       		.uleb128 0xa
 1224 06c3 04       		.byte	0x4
 1225 06c4 1E040000 		.4byte	0x41e
 1226 06c8 0A       		.uleb128 0xa
 1227 06c9 04       		.byte	0x4
 1228 06ca CD020000 		.4byte	0x2cd
 1229 06ce 0F       		.uleb128 0xf
 1230 06cf B0060000 		.4byte	0x6b0
 1231 06d3 04       		.uleb128 0x4
 1232 06d4 AA040000 		.4byte	.LASF92
 1233 06d8 0B       		.byte	0xb
 1234 06d9 34       		.byte	0x34
 1235 06da 79060000 		.4byte	0x679
 1236 06de 0A       		.uleb128 0xa
 1237 06df 04       		.byte	0x4
 1238 06e0 D3060000 		.4byte	0x6d3
 1239 06e4 03       		.uleb128 0x3
 1240 06e5 01       		.byte	0x1
 1241 06e6 02       		.byte	0x2
 1242 06e7 3E020000 		.4byte	.LASF93
 1243 06eb 18       		.uleb128 0x18
 1244 06ec 20000000 		.4byte	.LASF94
 1245 06f0 02       		.byte	0x2
 1246 06f1 99       		.byte	0x99
 1247 06f2 03       		.byte	0x3
 1248 06f3 03070000 		.4byte	0x703
 1249 06f7 19       		.uleb128 0x19
 1250 06f8 E8010000 		.4byte	.LASF96
 1251 06fc 02       		.byte	0x2
 1252 06fd 99       		.byte	0x99
 1253 06fe EF000000 		.4byte	0xef
 1254 0702 00       		.byte	0
 1255 0703 1A       		.uleb128 0x1a
 1256 0704 1B040000 		.4byte	.LASF109
 1257 0708 02       		.byte	0x2
 1258 0709 A5       		.byte	0xa5
 1259 070a 03       		.byte	0x3
ARM GAS  /tmp/ccJH6cy9.s 			page 36


 1260 070b 18       		.uleb128 0x18
 1261 070c E4040000 		.4byte	.LASF95
 1262 0710 02       		.byte	0x2
 1263 0711 B1       		.byte	0xb1
 1264 0712 03       		.byte	0x3
 1265 0713 23070000 		.4byte	0x723
 1266 0717 19       		.uleb128 0x19
 1267 0718 E8010000 		.4byte	.LASF96
 1268 071c 02       		.byte	0x2
 1269 071d B1       		.byte	0xb1
 1270 071e EF000000 		.4byte	0xef
 1271 0722 00       		.byte	0
 1272 0723 1B       		.uleb128 0x1b
 1273 0724 2B030000 		.4byte	.LASF110
 1274 0728 02       		.byte	0x2
 1275 0729 BD       		.byte	0xbd
 1276 072a EF000000 		.4byte	0xef
 1277 072e 03       		.byte	0x3
 1278 072f 1C       		.uleb128 0x1c
 1279 0730 45030000 		.4byte	.LASF97
 1280 0734 01       		.byte	0x1
 1281 0735 3C       		.byte	0x3c
 1282 0736 00000000 		.4byte	.LFB219
 1283 073a 04000000 		.4byte	.LFE219-.LFB219
 1284 073e 01       		.uleb128 0x1
 1285 073f 9C       		.byte	0x9c
 1286 0740 4E070000 		.4byte	0x74e
 1287 0744 1D       		.uleb128 0x1d
 1288 0745 04000000 		.4byte	.LVL0
 1289 0749 76080000 		.4byte	0x876
 1290 074d 00       		.byte	0
 1291 074e 1C       		.uleb128 0x1c
 1292 074f 69010000 		.4byte	.LASF98
 1293 0753 01       		.byte	0x1
 1294 0754 4C       		.byte	0x4c
 1295 0755 00000000 		.4byte	.LFB220
 1296 0759 10000000 		.4byte	.LFE220-.LFB220
 1297 075d 01       		.uleb128 0x1
 1298 075e 9C       		.byte	0x9c
 1299 075f 91070000 		.4byte	0x791
 1300 0763 1E       		.uleb128 0x1e
 1301 0764 E6030000 		.4byte	.LASF101
 1302 0768 01       		.byte	0x1
 1303 0769 4C       		.byte	0x4c
 1304 076a EF000000 		.4byte	0xef
 1305 076e 01       		.uleb128 0x1
 1306 076f 50       		.byte	0x50
 1307 0770 1F       		.uleb128 0x1f
 1308 0771 8F030000 		.4byte	.LASF102
 1309 0775 A1070000 		.4byte	0x7a1
 1310 0779 20       		.uleb128 0x20
 1311 077a EB060000 		.4byte	0x6eb
 1312 077e 00000000 		.4byte	.LBB10
 1313 0782 10000000 		.4byte	.LBE10-.LBB10
 1314 0786 01       		.byte	0x1
 1315 0787 50       		.byte	0x50
 1316 0788 21       		.uleb128 0x21
ARM GAS  /tmp/ccJH6cy9.s 			page 37


 1317 0789 F7060000 		.4byte	0x6f7
 1318 078d 01       		.uleb128 0x1
 1319 078e 50       		.byte	0x50
 1320 078f 00       		.byte	0
 1321 0790 00       		.byte	0
 1322 0791 10       		.uleb128 0x10
 1323 0792 BB060000 		.4byte	0x6bb
 1324 0796 A1070000 		.4byte	0x7a1
 1325 079a 11       		.uleb128 0x11
 1326 079b E7030000 		.4byte	0x3e7
 1327 079f 0C       		.byte	0xc
 1328 07a0 00       		.byte	0
 1329 07a1 17       		.uleb128 0x17
 1330 07a2 91070000 		.4byte	0x791
 1331 07a6 1C       		.uleb128 0x1c
 1332 07a7 43040000 		.4byte	.LASF99
 1333 07ab 01       		.byte	0x1
 1334 07ac 5A       		.byte	0x5a
 1335 07ad 00000000 		.4byte	.LFB221
 1336 07b1 0A000000 		.4byte	.LFE221-.LFB221
 1337 07b5 01       		.uleb128 0x1
 1338 07b6 9C       		.byte	0x9c
 1339 07b7 CB070000 		.4byte	0x7cb
 1340 07bb 22       		.uleb128 0x22
 1341 07bc 03070000 		.4byte	0x703
 1342 07c0 00000000 		.4byte	.LBB12
 1343 07c4 0A000000 		.4byte	.LBE12-.LBB12
 1344 07c8 01       		.byte	0x1
 1345 07c9 5C       		.byte	0x5c
 1346 07ca 00       		.byte	0
 1347 07cb 1C       		.uleb128 0x1c
 1348 07cc 45010000 		.4byte	.LASF100
 1349 07d0 01       		.byte	0x1
 1350 07d1 68       		.byte	0x68
 1351 07d2 00000000 		.4byte	.LFB222
 1352 07d6 08000000 		.4byte	.LFE222-.LFB222
 1353 07da 01       		.uleb128 0x1
 1354 07db 9C       		.byte	0x9c
 1355 07dc 0E080000 		.4byte	0x80e
 1356 07e0 1E       		.uleb128 0x1e
 1357 07e1 E6030000 		.4byte	.LASF101
 1358 07e5 01       		.byte	0x1
 1359 07e6 68       		.byte	0x68
 1360 07e7 EF000000 		.4byte	0xef
 1361 07eb 01       		.uleb128 0x1
 1362 07ec 50       		.byte	0x50
 1363 07ed 1F       		.uleb128 0x1f
 1364 07ee AD030000 		.4byte	.LASF103
 1365 07f2 1E080000 		.4byte	0x81e
 1366 07f6 20       		.uleb128 0x20
 1367 07f7 0B070000 		.4byte	0x70b
 1368 07fb 00000000 		.4byte	.LBB14
 1369 07ff 08000000 		.4byte	.LBE14-.LBB14
 1370 0803 01       		.byte	0x1
 1371 0804 6C       		.byte	0x6c
 1372 0805 21       		.uleb128 0x21
 1373 0806 17070000 		.4byte	0x717
ARM GAS  /tmp/ccJH6cy9.s 			page 38


 1374 080a 01       		.uleb128 0x1
 1375 080b 50       		.byte	0x50
 1376 080c 00       		.byte	0
 1377 080d 00       		.byte	0
 1378 080e 10       		.uleb128 0x10
 1379 080f BB060000 		.4byte	0x6bb
 1380 0813 1E080000 		.4byte	0x81e
 1381 0817 11       		.uleb128 0x11
 1382 0818 E7030000 		.4byte	0x3e7
 1383 081c 0A       		.byte	0xa
 1384 081d 00       		.byte	0
 1385 081e 17       		.uleb128 0x17
 1386 081f 0E080000 		.4byte	0x80e
 1387 0823 23       		.uleb128 0x23
 1388 0824 14050000 		.4byte	.LASF111
 1389 0828 01       		.byte	0x1
 1390 0829 78       		.byte	0x78
 1391 082a EF000000 		.4byte	0xef
 1392 082e 00000000 		.4byte	.LFB223
 1393 0832 0A000000 		.4byte	.LFE223-.LFB223
 1394 0836 01       		.uleb128 0x1
 1395 0837 9C       		.byte	0x9c
 1396 0838 55080000 		.4byte	0x855
 1397 083c 1F       		.uleb128 0x1f
 1398 083d BB030000 		.4byte	.LASF104
 1399 0841 55080000 		.4byte	0x855
 1400 0845 22       		.uleb128 0x22
 1401 0846 23070000 		.4byte	0x723
 1402 084a 00000000 		.4byte	.LBB16
 1403 084e 06000000 		.4byte	.LBE16-.LBB16
 1404 0852 01       		.byte	0x1
 1405 0853 7C       		.byte	0x7c
 1406 0854 00       		.byte	0
 1407 0855 17       		.uleb128 0x17
 1408 0856 0E080000 		.4byte	0x80e
 1409 085a 24       		.uleb128 0x24
 1410 085b 44020000 		.4byte	.LASF105
 1411 085f 0C       		.byte	0xc
 1412 0860 9606     		.2byte	0x696
 1413 0862 66080000 		.4byte	0x866
 1414 0866 0F       		.uleb128 0xf
 1415 0867 65000000 		.4byte	0x65
 1416 086b 25       		.uleb128 0x25
 1417 086c 636800   		.ascii	"ch\000"
 1418 086f 06       		.byte	0x6
 1419 0870 D201     		.2byte	0x1d2
 1420 0872 9A030000 		.4byte	0x39a
 1421 0876 26       		.uleb128 0x26
 1422 0877 37040000 		.4byte	.LASF112
 1423 087b 02       		.byte	0x2
 1424 087c 7B       		.byte	0x7b
 1425 087d 00       		.byte	0
 1426              		.section	.debug_abbrev,"",%progbits
 1427              	.Ldebug_abbrev0:
 1428 0000 01       		.uleb128 0x1
 1429 0001 11       		.uleb128 0x11
 1430 0002 01       		.byte	0x1
ARM GAS  /tmp/ccJH6cy9.s 			page 39


 1431 0003 25       		.uleb128 0x25
 1432 0004 0E       		.uleb128 0xe
 1433 0005 13       		.uleb128 0x13
 1434 0006 0B       		.uleb128 0xb
 1435 0007 03       		.uleb128 0x3
 1436 0008 0E       		.uleb128 0xe
 1437 0009 1B       		.uleb128 0x1b
 1438 000a 0E       		.uleb128 0xe
 1439 000b 55       		.uleb128 0x55
 1440 000c 17       		.uleb128 0x17
 1441 000d 11       		.uleb128 0x11
 1442 000e 01       		.uleb128 0x1
 1443 000f 10       		.uleb128 0x10
 1444 0010 17       		.uleb128 0x17
 1445 0011 00       		.byte	0
 1446 0012 00       		.byte	0
 1447 0013 02       		.uleb128 0x2
 1448 0014 24       		.uleb128 0x24
 1449 0015 00       		.byte	0
 1450 0016 0B       		.uleb128 0xb
 1451 0017 0B       		.uleb128 0xb
 1452 0018 3E       		.uleb128 0x3e
 1453 0019 0B       		.uleb128 0xb
 1454 001a 03       		.uleb128 0x3
 1455 001b 08       		.uleb128 0x8
 1456 001c 00       		.byte	0
 1457 001d 00       		.byte	0
 1458 001e 03       		.uleb128 0x3
 1459 001f 24       		.uleb128 0x24
 1460 0020 00       		.byte	0
 1461 0021 0B       		.uleb128 0xb
 1462 0022 0B       		.uleb128 0xb
 1463 0023 3E       		.uleb128 0x3e
 1464 0024 0B       		.uleb128 0xb
 1465 0025 03       		.uleb128 0x3
 1466 0026 0E       		.uleb128 0xe
 1467 0027 00       		.byte	0
 1468 0028 00       		.byte	0
 1469 0029 04       		.uleb128 0x4
 1470 002a 16       		.uleb128 0x16
 1471 002b 00       		.byte	0
 1472 002c 03       		.uleb128 0x3
 1473 002d 0E       		.uleb128 0xe
 1474 002e 3A       		.uleb128 0x3a
 1475 002f 0B       		.uleb128 0xb
 1476 0030 3B       		.uleb128 0x3b
 1477 0031 0B       		.uleb128 0xb
 1478 0032 49       		.uleb128 0x49
 1479 0033 13       		.uleb128 0x13
 1480 0034 00       		.byte	0
 1481 0035 00       		.byte	0
 1482 0036 05       		.uleb128 0x5
 1483 0037 13       		.uleb128 0x13
 1484 0038 01       		.byte	0x1
 1485 0039 03       		.uleb128 0x3
 1486 003a 0E       		.uleb128 0xe
 1487 003b 0B       		.uleb128 0xb
ARM GAS  /tmp/ccJH6cy9.s 			page 40


 1488 003c 0B       		.uleb128 0xb
 1489 003d 3A       		.uleb128 0x3a
 1490 003e 0B       		.uleb128 0xb
 1491 003f 3B       		.uleb128 0x3b
 1492 0040 0B       		.uleb128 0xb
 1493 0041 01       		.uleb128 0x1
 1494 0042 13       		.uleb128 0x13
 1495 0043 00       		.byte	0
 1496 0044 00       		.byte	0
 1497 0045 06       		.uleb128 0x6
 1498 0046 0D       		.uleb128 0xd
 1499 0047 00       		.byte	0
 1500 0048 03       		.uleb128 0x3
 1501 0049 0E       		.uleb128 0xe
 1502 004a 3A       		.uleb128 0x3a
 1503 004b 0B       		.uleb128 0xb
 1504 004c 3B       		.uleb128 0x3b
 1505 004d 0B       		.uleb128 0xb
 1506 004e 49       		.uleb128 0x49
 1507 004f 13       		.uleb128 0x13
 1508 0050 38       		.uleb128 0x38
 1509 0051 0B       		.uleb128 0xb
 1510 0052 00       		.byte	0
 1511 0053 00       		.byte	0
 1512 0054 07       		.uleb128 0x7
 1513 0055 0D       		.uleb128 0xd
 1514 0056 00       		.byte	0
 1515 0057 03       		.uleb128 0x3
 1516 0058 08       		.uleb128 0x8
 1517 0059 3A       		.uleb128 0x3a
 1518 005a 0B       		.uleb128 0xb
 1519 005b 3B       		.uleb128 0x3b
 1520 005c 0B       		.uleb128 0xb
 1521 005d 49       		.uleb128 0x49
 1522 005e 13       		.uleb128 0x13
 1523 005f 38       		.uleb128 0x38
 1524 0060 0B       		.uleb128 0xb
 1525 0061 00       		.byte	0
 1526 0062 00       		.byte	0
 1527 0063 08       		.uleb128 0x8
 1528 0064 0D       		.uleb128 0xd
 1529 0065 00       		.byte	0
 1530 0066 03       		.uleb128 0x3
 1531 0067 08       		.uleb128 0x8
 1532 0068 3A       		.uleb128 0x3a
 1533 0069 0B       		.uleb128 0xb
 1534 006a 3B       		.uleb128 0x3b
 1535 006b 05       		.uleb128 0x5
 1536 006c 49       		.uleb128 0x49
 1537 006d 13       		.uleb128 0x13
 1538 006e 38       		.uleb128 0x38
 1539 006f 0B       		.uleb128 0xb
 1540 0070 00       		.byte	0
 1541 0071 00       		.byte	0
 1542 0072 09       		.uleb128 0x9
 1543 0073 0D       		.uleb128 0xd
 1544 0074 00       		.byte	0
ARM GAS  /tmp/ccJH6cy9.s 			page 41


 1545 0075 03       		.uleb128 0x3
 1546 0076 0E       		.uleb128 0xe
 1547 0077 3A       		.uleb128 0x3a
 1548 0078 0B       		.uleb128 0xb
 1549 0079 3B       		.uleb128 0x3b
 1550 007a 05       		.uleb128 0x5
 1551 007b 49       		.uleb128 0x49
 1552 007c 13       		.uleb128 0x13
 1553 007d 38       		.uleb128 0x38
 1554 007e 0B       		.uleb128 0xb
 1555 007f 00       		.byte	0
 1556 0080 00       		.byte	0
 1557 0081 0A       		.uleb128 0xa
 1558 0082 0F       		.uleb128 0xf
 1559 0083 00       		.byte	0
 1560 0084 0B       		.uleb128 0xb
 1561 0085 0B       		.uleb128 0xb
 1562 0086 49       		.uleb128 0x49
 1563 0087 13       		.uleb128 0x13
 1564 0088 00       		.byte	0
 1565 0089 00       		.byte	0
 1566 008a 0B       		.uleb128 0xb
 1567 008b 13       		.uleb128 0x13
 1568 008c 01       		.byte	0x1
 1569 008d 03       		.uleb128 0x3
 1570 008e 0E       		.uleb128 0xe
 1571 008f 0B       		.uleb128 0xb
 1572 0090 0B       		.uleb128 0xb
 1573 0091 3A       		.uleb128 0x3a
 1574 0092 0B       		.uleb128 0xb
 1575 0093 3B       		.uleb128 0x3b
 1576 0094 05       		.uleb128 0x5
 1577 0095 01       		.uleb128 0x1
 1578 0096 13       		.uleb128 0x13
 1579 0097 00       		.byte	0
 1580 0098 00       		.byte	0
 1581 0099 0C       		.uleb128 0xc
 1582 009a 15       		.uleb128 0x15
 1583 009b 01       		.byte	0x1
 1584 009c 27       		.uleb128 0x27
 1585 009d 19       		.uleb128 0x19
 1586 009e 01       		.uleb128 0x1
 1587 009f 13       		.uleb128 0x13
 1588 00a0 00       		.byte	0
 1589 00a1 00       		.byte	0
 1590 00a2 0D       		.uleb128 0xd
 1591 00a3 05       		.uleb128 0x5
 1592 00a4 00       		.byte	0
 1593 00a5 49       		.uleb128 0x49
 1594 00a6 13       		.uleb128 0x13
 1595 00a7 00       		.byte	0
 1596 00a8 00       		.byte	0
 1597 00a9 0E       		.uleb128 0xe
 1598 00aa 0F       		.uleb128 0xf
 1599 00ab 00       		.byte	0
 1600 00ac 0B       		.uleb128 0xb
 1601 00ad 0B       		.uleb128 0xb
ARM GAS  /tmp/ccJH6cy9.s 			page 42


 1602 00ae 00       		.byte	0
 1603 00af 00       		.byte	0
 1604 00b0 0F       		.uleb128 0xf
 1605 00b1 35       		.uleb128 0x35
 1606 00b2 00       		.byte	0
 1607 00b3 49       		.uleb128 0x49
 1608 00b4 13       		.uleb128 0x13
 1609 00b5 00       		.byte	0
 1610 00b6 00       		.byte	0
 1611 00b7 10       		.uleb128 0x10
 1612 00b8 01       		.uleb128 0x1
 1613 00b9 01       		.byte	0x1
 1614 00ba 49       		.uleb128 0x49
 1615 00bb 13       		.uleb128 0x13
 1616 00bc 01       		.uleb128 0x1
 1617 00bd 13       		.uleb128 0x13
 1618 00be 00       		.byte	0
 1619 00bf 00       		.byte	0
 1620 00c0 11       		.uleb128 0x11
 1621 00c1 21       		.uleb128 0x21
 1622 00c2 00       		.byte	0
 1623 00c3 49       		.uleb128 0x49
 1624 00c4 13       		.uleb128 0x13
 1625 00c5 2F       		.uleb128 0x2f
 1626 00c6 0B       		.uleb128 0xb
 1627 00c7 00       		.byte	0
 1628 00c8 00       		.byte	0
 1629 00c9 12       		.uleb128 0x12
 1630 00ca 13       		.uleb128 0x13
 1631 00cb 01       		.byte	0x1
 1632 00cc 0B       		.uleb128 0xb
 1633 00cd 0B       		.uleb128 0xb
 1634 00ce 3A       		.uleb128 0x3a
 1635 00cf 0B       		.uleb128 0xb
 1636 00d0 3B       		.uleb128 0x3b
 1637 00d1 05       		.uleb128 0x5
 1638 00d2 01       		.uleb128 0x1
 1639 00d3 13       		.uleb128 0x13
 1640 00d4 00       		.byte	0
 1641 00d5 00       		.byte	0
 1642 00d6 13       		.uleb128 0x13
 1643 00d7 16       		.uleb128 0x16
 1644 00d8 00       		.byte	0
 1645 00d9 03       		.uleb128 0x3
 1646 00da 0E       		.uleb128 0xe
 1647 00db 3A       		.uleb128 0x3a
 1648 00dc 0B       		.uleb128 0xb
 1649 00dd 3B       		.uleb128 0x3b
 1650 00de 05       		.uleb128 0x5
 1651 00df 49       		.uleb128 0x49
 1652 00e0 13       		.uleb128 0x13
 1653 00e1 00       		.byte	0
 1654 00e2 00       		.byte	0
 1655 00e3 14       		.uleb128 0x14
 1656 00e4 17       		.uleb128 0x17
 1657 00e5 01       		.byte	0x1
 1658 00e6 0B       		.uleb128 0xb
ARM GAS  /tmp/ccJH6cy9.s 			page 43


 1659 00e7 0B       		.uleb128 0xb
 1660 00e8 3A       		.uleb128 0x3a
 1661 00e9 0B       		.uleb128 0xb
 1662 00ea 3B       		.uleb128 0x3b
 1663 00eb 0B       		.uleb128 0xb
 1664 00ec 01       		.uleb128 0x1
 1665 00ed 13       		.uleb128 0x13
 1666 00ee 00       		.byte	0
 1667 00ef 00       		.byte	0
 1668 00f0 15       		.uleb128 0x15
 1669 00f1 0D       		.uleb128 0xd
 1670 00f2 00       		.byte	0
 1671 00f3 03       		.uleb128 0x3
 1672 00f4 0E       		.uleb128 0xe
 1673 00f5 3A       		.uleb128 0x3a
 1674 00f6 0B       		.uleb128 0xb
 1675 00f7 3B       		.uleb128 0x3b
 1676 00f8 0B       		.uleb128 0xb
 1677 00f9 49       		.uleb128 0x49
 1678 00fa 13       		.uleb128 0x13
 1679 00fb 00       		.byte	0
 1680 00fc 00       		.byte	0
 1681 00fd 16       		.uleb128 0x16
 1682 00fe 0D       		.uleb128 0xd
 1683 00ff 00       		.byte	0
 1684 0100 03       		.uleb128 0x3
 1685 0101 0E       		.uleb128 0xe
 1686 0102 3A       		.uleb128 0x3a
 1687 0103 0B       		.uleb128 0xb
 1688 0104 3B       		.uleb128 0x3b
 1689 0105 05       		.uleb128 0x5
 1690 0106 49       		.uleb128 0x49
 1691 0107 13       		.uleb128 0x13
 1692 0108 00       		.byte	0
 1693 0109 00       		.byte	0
 1694 010a 17       		.uleb128 0x17
 1695 010b 26       		.uleb128 0x26
 1696 010c 00       		.byte	0
 1697 010d 49       		.uleb128 0x49
 1698 010e 13       		.uleb128 0x13
 1699 010f 00       		.byte	0
 1700 0110 00       		.byte	0
 1701 0111 18       		.uleb128 0x18
 1702 0112 2E       		.uleb128 0x2e
 1703 0113 01       		.byte	0x1
 1704 0114 03       		.uleb128 0x3
 1705 0115 0E       		.uleb128 0xe
 1706 0116 3A       		.uleb128 0x3a
 1707 0117 0B       		.uleb128 0xb
 1708 0118 3B       		.uleb128 0x3b
 1709 0119 0B       		.uleb128 0xb
 1710 011a 27       		.uleb128 0x27
 1711 011b 19       		.uleb128 0x19
 1712 011c 20       		.uleb128 0x20
 1713 011d 0B       		.uleb128 0xb
 1714 011e 01       		.uleb128 0x1
 1715 011f 13       		.uleb128 0x13
ARM GAS  /tmp/ccJH6cy9.s 			page 44


 1716 0120 00       		.byte	0
 1717 0121 00       		.byte	0
 1718 0122 19       		.uleb128 0x19
 1719 0123 05       		.uleb128 0x5
 1720 0124 00       		.byte	0
 1721 0125 03       		.uleb128 0x3
 1722 0126 0E       		.uleb128 0xe
 1723 0127 3A       		.uleb128 0x3a
 1724 0128 0B       		.uleb128 0xb
 1725 0129 3B       		.uleb128 0x3b
 1726 012a 0B       		.uleb128 0xb
 1727 012b 49       		.uleb128 0x49
 1728 012c 13       		.uleb128 0x13
 1729 012d 00       		.byte	0
 1730 012e 00       		.byte	0
 1731 012f 1A       		.uleb128 0x1a
 1732 0130 2E       		.uleb128 0x2e
 1733 0131 00       		.byte	0
 1734 0132 03       		.uleb128 0x3
 1735 0133 0E       		.uleb128 0xe
 1736 0134 3A       		.uleb128 0x3a
 1737 0135 0B       		.uleb128 0xb
 1738 0136 3B       		.uleb128 0x3b
 1739 0137 0B       		.uleb128 0xb
 1740 0138 27       		.uleb128 0x27
 1741 0139 19       		.uleb128 0x19
 1742 013a 20       		.uleb128 0x20
 1743 013b 0B       		.uleb128 0xb
 1744 013c 00       		.byte	0
 1745 013d 00       		.byte	0
 1746 013e 1B       		.uleb128 0x1b
 1747 013f 2E       		.uleb128 0x2e
 1748 0140 00       		.byte	0
 1749 0141 03       		.uleb128 0x3
 1750 0142 0E       		.uleb128 0xe
 1751 0143 3A       		.uleb128 0x3a
 1752 0144 0B       		.uleb128 0xb
 1753 0145 3B       		.uleb128 0x3b
 1754 0146 0B       		.uleb128 0xb
 1755 0147 27       		.uleb128 0x27
 1756 0148 19       		.uleb128 0x19
 1757 0149 49       		.uleb128 0x49
 1758 014a 13       		.uleb128 0x13
 1759 014b 20       		.uleb128 0x20
 1760 014c 0B       		.uleb128 0xb
 1761 014d 00       		.byte	0
 1762 014e 00       		.byte	0
 1763 014f 1C       		.uleb128 0x1c
 1764 0150 2E       		.uleb128 0x2e
 1765 0151 01       		.byte	0x1
 1766 0152 3F       		.uleb128 0x3f
 1767 0153 19       		.uleb128 0x19
 1768 0154 03       		.uleb128 0x3
 1769 0155 0E       		.uleb128 0xe
 1770 0156 3A       		.uleb128 0x3a
 1771 0157 0B       		.uleb128 0xb
 1772 0158 3B       		.uleb128 0x3b
ARM GAS  /tmp/ccJH6cy9.s 			page 45


 1773 0159 0B       		.uleb128 0xb
 1774 015a 27       		.uleb128 0x27
 1775 015b 19       		.uleb128 0x19
 1776 015c 11       		.uleb128 0x11
 1777 015d 01       		.uleb128 0x1
 1778 015e 12       		.uleb128 0x12
 1779 015f 06       		.uleb128 0x6
 1780 0160 40       		.uleb128 0x40
 1781 0161 18       		.uleb128 0x18
 1782 0162 9742     		.uleb128 0x2117
 1783 0164 19       		.uleb128 0x19
 1784 0165 01       		.uleb128 0x1
 1785 0166 13       		.uleb128 0x13
 1786 0167 00       		.byte	0
 1787 0168 00       		.byte	0
 1788 0169 1D       		.uleb128 0x1d
 1789 016a 898201   		.uleb128 0x4109
 1790 016d 00       		.byte	0
 1791 016e 11       		.uleb128 0x11
 1792 016f 01       		.uleb128 0x1
 1793 0170 9542     		.uleb128 0x2115
 1794 0172 19       		.uleb128 0x19
 1795 0173 31       		.uleb128 0x31
 1796 0174 13       		.uleb128 0x13
 1797 0175 00       		.byte	0
 1798 0176 00       		.byte	0
 1799 0177 1E       		.uleb128 0x1e
 1800 0178 05       		.uleb128 0x5
 1801 0179 00       		.byte	0
 1802 017a 03       		.uleb128 0x3
 1803 017b 0E       		.uleb128 0xe
 1804 017c 3A       		.uleb128 0x3a
 1805 017d 0B       		.uleb128 0xb
 1806 017e 3B       		.uleb128 0x3b
 1807 017f 0B       		.uleb128 0xb
 1808 0180 49       		.uleb128 0x49
 1809 0181 13       		.uleb128 0x13
 1810 0182 02       		.uleb128 0x2
 1811 0183 18       		.uleb128 0x18
 1812 0184 00       		.byte	0
 1813 0185 00       		.byte	0
 1814 0186 1F       		.uleb128 0x1f
 1815 0187 34       		.uleb128 0x34
 1816 0188 00       		.byte	0
 1817 0189 03       		.uleb128 0x3
 1818 018a 0E       		.uleb128 0xe
 1819 018b 49       		.uleb128 0x49
 1820 018c 13       		.uleb128 0x13
 1821 018d 34       		.uleb128 0x34
 1822 018e 19       		.uleb128 0x19
 1823 018f 00       		.byte	0
 1824 0190 00       		.byte	0
 1825 0191 20       		.uleb128 0x20
 1826 0192 1D       		.uleb128 0x1d
 1827 0193 01       		.byte	0x1
 1828 0194 31       		.uleb128 0x31
 1829 0195 13       		.uleb128 0x13
ARM GAS  /tmp/ccJH6cy9.s 			page 46


 1830 0196 11       		.uleb128 0x11
 1831 0197 01       		.uleb128 0x1
 1832 0198 12       		.uleb128 0x12
 1833 0199 06       		.uleb128 0x6
 1834 019a 58       		.uleb128 0x58
 1835 019b 0B       		.uleb128 0xb
 1836 019c 59       		.uleb128 0x59
 1837 019d 0B       		.uleb128 0xb
 1838 019e 00       		.byte	0
 1839 019f 00       		.byte	0
 1840 01a0 21       		.uleb128 0x21
 1841 01a1 05       		.uleb128 0x5
 1842 01a2 00       		.byte	0
 1843 01a3 31       		.uleb128 0x31
 1844 01a4 13       		.uleb128 0x13
 1845 01a5 02       		.uleb128 0x2
 1846 01a6 18       		.uleb128 0x18
 1847 01a7 00       		.byte	0
 1848 01a8 00       		.byte	0
 1849 01a9 22       		.uleb128 0x22
 1850 01aa 1D       		.uleb128 0x1d
 1851 01ab 00       		.byte	0
 1852 01ac 31       		.uleb128 0x31
 1853 01ad 13       		.uleb128 0x13
 1854 01ae 11       		.uleb128 0x11
 1855 01af 01       		.uleb128 0x1
 1856 01b0 12       		.uleb128 0x12
 1857 01b1 06       		.uleb128 0x6
 1858 01b2 58       		.uleb128 0x58
 1859 01b3 0B       		.uleb128 0xb
 1860 01b4 59       		.uleb128 0x59
 1861 01b5 0B       		.uleb128 0xb
 1862 01b6 00       		.byte	0
 1863 01b7 00       		.byte	0
 1864 01b8 23       		.uleb128 0x23
 1865 01b9 2E       		.uleb128 0x2e
 1866 01ba 01       		.byte	0x1
 1867 01bb 3F       		.uleb128 0x3f
 1868 01bc 19       		.uleb128 0x19
 1869 01bd 03       		.uleb128 0x3
 1870 01be 0E       		.uleb128 0xe
 1871 01bf 3A       		.uleb128 0x3a
 1872 01c0 0B       		.uleb128 0xb
 1873 01c1 3B       		.uleb128 0x3b
 1874 01c2 0B       		.uleb128 0xb
 1875 01c3 27       		.uleb128 0x27
 1876 01c4 19       		.uleb128 0x19
 1877 01c5 49       		.uleb128 0x49
 1878 01c6 13       		.uleb128 0x13
 1879 01c7 11       		.uleb128 0x11
 1880 01c8 01       		.uleb128 0x1
 1881 01c9 12       		.uleb128 0x12
 1882 01ca 06       		.uleb128 0x6
 1883 01cb 40       		.uleb128 0x40
 1884 01cc 18       		.uleb128 0x18
 1885 01cd 9742     		.uleb128 0x2117
 1886 01cf 19       		.uleb128 0x19
ARM GAS  /tmp/ccJH6cy9.s 			page 47


 1887 01d0 01       		.uleb128 0x1
 1888 01d1 13       		.uleb128 0x13
 1889 01d2 00       		.byte	0
 1890 01d3 00       		.byte	0
 1891 01d4 24       		.uleb128 0x24
 1892 01d5 34       		.uleb128 0x34
 1893 01d6 00       		.byte	0
 1894 01d7 03       		.uleb128 0x3
 1895 01d8 0E       		.uleb128 0xe
 1896 01d9 3A       		.uleb128 0x3a
 1897 01da 0B       		.uleb128 0xb
 1898 01db 3B       		.uleb128 0x3b
 1899 01dc 05       		.uleb128 0x5
 1900 01dd 49       		.uleb128 0x49
 1901 01de 13       		.uleb128 0x13
 1902 01df 3F       		.uleb128 0x3f
 1903 01e0 19       		.uleb128 0x19
 1904 01e1 3C       		.uleb128 0x3c
 1905 01e2 19       		.uleb128 0x19
 1906 01e3 00       		.byte	0
 1907 01e4 00       		.byte	0
 1908 01e5 25       		.uleb128 0x25
 1909 01e6 34       		.uleb128 0x34
 1910 01e7 00       		.byte	0
 1911 01e8 03       		.uleb128 0x3
 1912 01e9 08       		.uleb128 0x8
 1913 01ea 3A       		.uleb128 0x3a
 1914 01eb 0B       		.uleb128 0xb
 1915 01ec 3B       		.uleb128 0x3b
 1916 01ed 05       		.uleb128 0x5
 1917 01ee 49       		.uleb128 0x49
 1918 01ef 13       		.uleb128 0x13
 1919 01f0 3F       		.uleb128 0x3f
 1920 01f1 19       		.uleb128 0x19
 1921 01f2 3C       		.uleb128 0x3c
 1922 01f3 19       		.uleb128 0x19
 1923 01f4 00       		.byte	0
 1924 01f5 00       		.byte	0
 1925 01f6 26       		.uleb128 0x26
 1926 01f7 2E       		.uleb128 0x2e
 1927 01f8 00       		.byte	0
 1928 01f9 3F       		.uleb128 0x3f
 1929 01fa 19       		.uleb128 0x19
 1930 01fb 03       		.uleb128 0x3
 1931 01fc 0E       		.uleb128 0xe
 1932 01fd 3A       		.uleb128 0x3a
 1933 01fe 0B       		.uleb128 0xb
 1934 01ff 3B       		.uleb128 0x3b
 1935 0200 0B       		.uleb128 0xb
 1936 0201 27       		.uleb128 0x27
 1937 0202 19       		.uleb128 0x19
 1938 0203 3C       		.uleb128 0x3c
 1939 0204 19       		.uleb128 0x19
 1940 0205 00       		.byte	0
 1941 0206 00       		.byte	0
 1942 0207 00       		.byte	0
 1943              		.section	.debug_aranges,"",%progbits
ARM GAS  /tmp/ccJH6cy9.s 			page 48


 1944 0000 3C000000 		.4byte	0x3c
 1945 0004 0200     		.2byte	0x2
 1946 0006 00000000 		.4byte	.Ldebug_info0
 1947 000a 04       		.byte	0x4
 1948 000b 00       		.byte	0
 1949 000c 0000     		.2byte	0
 1950 000e 0000     		.2byte	0
 1951 0010 00000000 		.4byte	.LFB219
 1952 0014 04000000 		.4byte	.LFE219-.LFB219
 1953 0018 00000000 		.4byte	.LFB220
 1954 001c 10000000 		.4byte	.LFE220-.LFB220
 1955 0020 00000000 		.4byte	.LFB221
 1956 0024 0A000000 		.4byte	.LFE221-.LFB221
 1957 0028 00000000 		.4byte	.LFB222
 1958 002c 08000000 		.4byte	.LFE222-.LFB222
 1959 0030 00000000 		.4byte	.LFB223
 1960 0034 0A000000 		.4byte	.LFE223-.LFB223
 1961 0038 00000000 		.4byte	0
 1962 003c 00000000 		.4byte	0
 1963              		.section	.debug_ranges,"",%progbits
 1964              	.Ldebug_ranges0:
 1965 0000 00000000 		.4byte	.LFB219
 1966 0004 04000000 		.4byte	.LFE219
 1967 0008 00000000 		.4byte	.LFB220
 1968 000c 10000000 		.4byte	.LFE220
 1969 0010 00000000 		.4byte	.LFB221
 1970 0014 0A000000 		.4byte	.LFE221
 1971 0018 00000000 		.4byte	.LFB222
 1972 001c 08000000 		.4byte	.LFE222
 1973 0020 00000000 		.4byte	.LFB223
 1974 0024 0A000000 		.4byte	.LFE223
 1975 0028 00000000 		.4byte	0
 1976 002c 00000000 		.4byte	0
 1977              		.section	.debug_line,"",%progbits
 1978              	.Ldebug_line0:
 1979 0000 3A020000 		.section	.debug_str,"MS",%progbits,1
 1979      0200C101 
 1979      00000201 
 1979      FB0E0D00 
 1979      01010101 
 1980              	.LASF41:
 1981 0000 63685F74 		.ascii	"ch_threads_list\000"
 1981      68726561 
 1981      64735F6C 
 1981      69737400 
 1982              	.LASF86:
 1983 0010 77746D74 		.ascii	"wtmtxp\000"
 1983      787000
 1984              	.LASF66:
 1985 0017 72656761 		.ascii	"regarm_t\000"
 1985      726D5F74 
 1985      00
 1986              	.LASF94:
 1987 0020 73745F6C 		.ascii	"st_lld_start_alarm\000"
 1987      6C645F73 
 1987      74617274 
 1987      5F616C61 
ARM GAS  /tmp/ccJH6cy9.s 			page 49


 1987      726D00
 1988              	.LASF30:
 1989 0033 666C6167 		.ascii	"flags\000"
 1989      7300
 1990              	.LASF21:
 1991 0039 73797374 		.ascii	"systime_t\000"
 1991      696D655F 
 1991      7400
 1992              	.LASF36:
 1993 0043 7265616C 		.ascii	"realprio\000"
 1993      7072696F 
 1993      00
 1994              	.LASF34:
 1995 004c 6570656E 		.ascii	"epending\000"
 1995      64696E67 
 1995      00
 1996              	.LASF0:
 1997 0055 756E7369 		.ascii	"unsigned int\000"
 1997      676E6564 
 1997      20696E74 
 1997      00
 1998              	.LASF42:
 1999 0062 6E657874 		.ascii	"next\000"
 1999      00
 2000              	.LASF39:
 2001 0067 74687265 		.ascii	"threads_list_t\000"
 2001      6164735F 
 2001      6C697374 
 2001      5F7400
 2002              	.LASF31:
 2003 0076 72656673 		.ascii	"refs\000"
 2003      00
 2004              	.LASF108:
 2005 007b 2F686F6D 		.ascii	"/home/julian/MEGA/semestre_ix/Crasby/ChibiOS_17.6.2"
 2005      652F6A75 
 2005      6C69616E 
 2005      2F4D4547 
 2005      412F7365 
 2006 00ae 2F64656D 		.ascii	"/demos/STM32/RT3-STM32F100-DISCOVERY\000"
 2006      6F732F53 
 2006      544D3332 
 2006      2F525433 
 2006      2D53544D 
 2007              	.LASF82:
 2008 00d3 77746F62 		.ascii	"wtobjp\000"
 2008      6A7000
 2009              	.LASF63:
 2010 00da 76746C69 		.ascii	"vtlist\000"
 2010      737400
 2011              	.LASF68:
 2012 00e1 706F7274 		.ascii	"port_context\000"
 2012      5F636F6E 
 2012      74657874 
 2012      00
 2013              	.LASF47:
 2014 00ee 63685F72 		.ascii	"ch_ready_list\000"
 2014      65616479 
ARM GAS  /tmp/ccJH6cy9.s 			page 50


 2014      5F6C6973 
 2014      7400
 2015              	.LASF53:
 2016 00fc 66756E63 		.ascii	"func\000"
 2016      00
 2017              	.LASF87:
 2018 0101 65776D61 		.ascii	"ewmask\000"
 2018      736B00
 2019              	.LASF45:
 2020 0108 70726576 		.ascii	"prev\000"
 2020      00
 2021              	.LASF44:
 2022 010d 63685F74 		.ascii	"ch_threads_queue\000"
 2022      68726561 
 2022      64735F71 
 2022      75657565 
 2022      00
 2023              	.LASF76:
 2024 011e 444D4152 		.ascii	"DMAR\000"
 2024      00
 2025              	.LASF49:
 2026 0123 76746675 		.ascii	"vtfunc_t\000"
 2026      6E635F74 
 2026      00
 2027              	.LASF58:
 2028 012c 63685F73 		.ascii	"ch_system_debug\000"
 2028      79737465 
 2028      6D5F6465 
 2028      62756700 
 2029              	.LASF9:
 2030 013c 75696E74 		.ascii	"uint32_t\000"
 2030      33325F74 
 2030      00
 2031              	.LASF100:
 2032 0145 73745365 		.ascii	"stSetAlarm\000"
 2032      74416C61 
 2032      726D00
 2033              	.LASF84:
 2034 0150 73656E74 		.ascii	"sentmsg\000"
 2034      6D736700 
 2035              	.LASF19:
 2036 0158 6576656E 		.ascii	"eventmask_t\000"
 2036      746D6173 
 2036      6B5F7400 
 2037              	.LASF75:
 2038 0164 42445452 		.ascii	"BDTR\000"
 2038      00
 2039              	.LASF98:
 2040 0169 73745374 		.ascii	"stStartAlarm\000"
 2040      61727441 
 2040      6C61726D 
 2040      00
 2041              	.LASF88:
 2042 0176 63685F73 		.ascii	"ch_semaphore\000"
 2042      656D6170 
 2042      686F7265 
 2042      00
ARM GAS  /tmp/ccJH6cy9.s 			page 51


 2043              	.LASF17:
 2044 0183 74707269 		.ascii	"tprio_t\000"
 2044      6F5F7400 
 2045              	.LASF51:
 2046 018b 63685F76 		.ascii	"ch_virtual_timer\000"
 2046      69727475 
 2046      616C5F74 
 2046      696D6572 
 2046      00
 2047              	.LASF72:
 2048 019c 43434D52 		.ascii	"CCMR1\000"
 2048      3100
 2049              	.LASF73:
 2050 01a2 43434D52 		.ascii	"CCMR2\000"
 2050      3200
 2051              	.LASF77:
 2052 01a8 43434D52 		.ascii	"CCMR3\000"
 2052      3300
 2053              	.LASF13:
 2054 01ae 6C6F6E67 		.ascii	"long long unsigned int\000"
 2054      206C6F6E 
 2054      6720756E 
 2054      7369676E 
 2054      65642069 
 2055              	.LASF107:
 2056 01c5 2E2E2F2E 		.ascii	"../../../os/hal/src/hal_st.c\000"
 2056      2E2F2E2E 
 2056      2F6F732F 
 2056      68616C2F 
 2056      7372632F 
 2057              	.LASF20:
 2058 01e2 636E745F 		.ascii	"cnt_t\000"
 2058      7400
 2059              	.LASF96:
 2060 01e8 74696D65 		.ascii	"time\000"
 2060      00
 2061              	.LASF90:
 2062 01ed 6F776E65 		.ascii	"owner\000"
 2062      7200
 2063              	.LASF43:
 2064 01f3 74687265 		.ascii	"threads_queue_t\000"
 2064      6164735F 
 2064      71756575 
 2064      655F7400 
 2065              	.LASF35:
 2066 0203 6D74786C 		.ascii	"mtxlist\000"
 2066      69737400 
 2067              	.LASF55:
 2068 020b 63685F76 		.ascii	"ch_virtual_timers_list\000"
 2068      69727475 
 2068      616C5F74 
 2068      696D6572 
 2068      735F6C69 
 2069              	.LASF22:
 2070 0222 74687265 		.ascii	"thread_t\000"
 2070      61645F74 
 2070      00
ARM GAS  /tmp/ccJH6cy9.s 			page 52


 2071              	.LASF80:
 2072 022b 7264796D 		.ascii	"rdymsg\000"
 2072      736700
 2073              	.LASF79:
 2074 0232 73746D33 		.ascii	"stm32_tim_t\000"
 2074      325F7469 
 2074      6D5F7400 
 2075              	.LASF93:
 2076 023e 5F426F6F 		.ascii	"_Bool\000"
 2076      6C00
 2077              	.LASF105:
 2078 0244 49544D5F 		.ascii	"ITM_RxBuffer\000"
 2078      52784275 
 2078      66666572 
 2078      00
 2079              	.LASF89:
 2080 0251 63685F6D 		.ascii	"ch_mutex\000"
 2080      75746578 
 2080      00
 2081              	.LASF71:
 2082 025a 44494552 		.ascii	"DIER\000"
 2082      00
 2083              	.LASF106:
 2084 025f 474E5520 		.ascii	"GNU C 4.8.1 -mcpu=cortex-m3 -mno-thumb-interwork -m"
 2084      4320342E 
 2084      382E3120 
 2084      2D6D6370 
 2084      753D636F 
 2085 0292 7468756D 		.ascii	"thumb -ggdb -O2 -fomit-frame-pointer -falign-functi"
 2085      62202D67 
 2085      67646220 
 2085      2D4F3220 
 2085      2D666F6D 
 2086 02c5 6F6E733D 		.ascii	"ons=16 -ffunction-sections -fdata-sections -fno-com"
 2086      3136202D 
 2086      6666756E 
 2086      6374696F 
 2086      6E2D7365 
 2087 02f8 6D6F6E20 		.ascii	"mon -flto\000"
 2087      2D666C74 
 2087      6F00
 2088              	.LASF24:
 2089 0302 7072696F 		.ascii	"prio\000"
 2089      00
 2090              	.LASF74:
 2091 0307 43434552 		.ascii	"CCER\000"
 2091      00
 2092              	.LASF91:
 2093 030c 63686172 		.ascii	"char\000"
 2093      00
 2094              	.LASF38:
 2095 0311 74687265 		.ascii	"thread_reference_t\000"
 2095      61645F72 
 2095      65666572 
 2095      656E6365 
 2095      5F7400
 2096              	.LASF28:
ARM GAS  /tmp/ccJH6cy9.s 			page 53


 2097 0324 77616261 		.ascii	"wabase\000"
 2097      736500
 2098              	.LASF110:
 2099 032b 73745F6C 		.ascii	"st_lld_get_alarm\000"
 2099      6C645F67 
 2099      65745F61 
 2099      6C61726D 
 2099      00
 2100              	.LASF15:
 2101 033c 74737461 		.ascii	"tstate_t\000"
 2101      74655F74 
 2101      00
 2102              	.LASF97:
 2103 0345 7374496E 		.ascii	"stInit\000"
 2103      697400
 2104              	.LASF4:
 2105 034c 75696E74 		.ascii	"uint8_t\000"
 2105      385F7400 
 2106              	.LASF33:
 2107 0354 6D736771 		.ascii	"msgqueue\000"
 2107      75657565 
 2107      00
 2108              	.LASF70:
 2109 035d 534D4352 		.ascii	"SMCR\000"
 2109      00
 2110              	.LASF40:
 2111 0362 63685F74 		.ascii	"ch_thread\000"
 2111      68726561 
 2111      6400
 2112              	.LASF57:
 2113 036c 73797374 		.ascii	"system_debug_t\000"
 2113      656D5F64 
 2113      65627567 
 2113      5F7400
 2114              	.LASF11:
 2115 037b 6C6F6E67 		.ascii	"long long int\000"
 2115      206C6F6E 
 2115      6720696E 
 2115      7400
 2116              	.LASF18:
 2117 0389 6D73675F 		.ascii	"msg_t\000"
 2117      7400
 2118              	.LASF102:
 2119 038f 5F5F6675 		.ascii	"__func__.6565\000"
 2119      6E635F5F 
 2119      2E363536 
 2119      3500
 2120              	.LASF50:
 2121 039d 76697274 		.ascii	"virtual_timer_t\000"
 2121      75616C5F 
 2121      74696D65 
 2121      725F7400 
 2122              	.LASF103:
 2123 03ad 5F5F6675 		.ascii	"__func__.6572\000"
 2123      6E635F5F 
 2123      2E363537 
 2123      3200
ARM GAS  /tmp/ccJH6cy9.s 			page 54


 2124              	.LASF104:
 2125 03bb 5F5F6675 		.ascii	"__func__.6576\000"
 2125      6E635F5F 
 2125      2E363537 
 2125      3600
 2126              	.LASF59:
 2127 03c9 70616E69 		.ascii	"panic_msg\000"
 2127      635F6D73 
 2127      6700
 2128              	.LASF14:
 2129 03d3 746D6F64 		.ascii	"tmode_t\000"
 2129      655F7400 
 2130              	.LASF64:
 2131 03db 6D61696E 		.ascii	"mainthread\000"
 2131      74687265 
 2131      616400
 2132              	.LASF101:
 2133 03e6 61627374 		.ascii	"abstime\000"
 2133      696D6500 
 2134              	.LASF5:
 2135 03ee 75696E74 		.ascii	"uint16_t\000"
 2135      31365F74 
 2135      00
 2136              	.LASF78:
 2137 03f7 43435852 		.ascii	"CCXR\000"
 2137      00
 2138              	.LASF3:
 2139 03fc 73686F72 		.ascii	"short int\000"
 2139      7420696E 
 2139      7400
 2140              	.LASF8:
 2141 0406 6C6F6E67 		.ascii	"long int\000"
 2141      20696E74 
 2141      00
 2142              	.LASF69:
 2143 040f 706F7274 		.ascii	"port_intctx\000"
 2143      5F696E74 
 2143      63747800 
 2144              	.LASF109:
 2145 041b 73745F6C 		.ascii	"st_lld_stop_alarm\000"
 2145      6C645F73 
 2145      746F705F 
 2145      616C6172 
 2145      6D00
 2146              	.LASF61:
 2147 042d 63685F73 		.ascii	"ch_system\000"
 2147      79737465 
 2147      6D00
 2148              	.LASF112:
 2149 0437 73745F6C 		.ascii	"st_lld_init\000"
 2149      6C645F69 
 2149      6E697400 
 2150              	.LASF99:
 2151 0443 73745374 		.ascii	"stStopAlarm\000"
 2151      6F70416C 
 2151      61726D00 
 2152              	.LASF56:
ARM GAS  /tmp/ccJH6cy9.s 			page 55


 2153 044f 6C617374 		.ascii	"lasttime\000"
 2153      74696D65 
 2153      00
 2154              	.LASF12:
 2155 0458 75696E74 		.ascii	"uint64_t\000"
 2155      36345F74 
 2155      00
 2156              	.LASF62:
 2157 0461 726C6973 		.ascii	"rlist\000"
 2157      7400
 2158              	.LASF27:
 2159 0467 6E616D65 		.ascii	"name\000"
 2159      00
 2160              	.LASF65:
 2161 046c 73697A65 		.ascii	"sizetype\000"
 2161      74797065 
 2161      00
 2162              	.LASF16:
 2163 0475 74726566 		.ascii	"trefs_t\000"
 2163      735F7400 
 2164              	.LASF10:
 2165 047d 6C6F6E67 		.ascii	"long unsigned int\000"
 2165      20756E73 
 2165      69676E65 
 2165      6420696E 
 2165      7400
 2166              	.LASF46:
 2167 048f 72656164 		.ascii	"ready_list_t\000"
 2167      795F6C69 
 2167      73745F74 
 2167      00
 2168              	.LASF23:
 2169 049c 71756575 		.ascii	"queue\000"
 2169      6500
 2170              	.LASF7:
 2171 04a2 696E7433 		.ascii	"int32_t\000"
 2171      325F7400 
 2172              	.LASF92:
 2173 04aa 6D757465 		.ascii	"mutex_t\000"
 2173      785F7400 
 2174              	.LASF25:
 2175 04b2 6E657765 		.ascii	"newer\000"
 2175      7200
 2176              	.LASF2:
 2177 04b8 756E7369 		.ascii	"unsigned char\000"
 2177      676E6564 
 2177      20636861 
 2177      7200
 2178              	.LASF32:
 2179 04c6 77616974 		.ascii	"waiting\000"
 2179      696E6700 
 2180              	.LASF54:
 2181 04ce 76697274 		.ascii	"virtual_timers_list_t\000"
 2181      75616C5F 
 2181      74696D65 
 2181      72735F6C 
 2181      6973745F 
ARM GAS  /tmp/ccJH6cy9.s 			page 56


 2182              	.LASF95:
 2183 04e4 73745F6C 		.ascii	"st_lld_set_alarm\000"
 2183      6C645F73 
 2183      65745F61 
 2183      6C61726D 
 2183      00
 2184              	.LASF29:
 2185 04f5 73746174 		.ascii	"state\000"
 2185      6500
 2186              	.LASF60:
 2187 04fb 63685F73 		.ascii	"ch_system_t\000"
 2187      79737465 
 2187      6D5F7400 
 2188              	.LASF85:
 2189 0507 77747365 		.ascii	"wtsemp\000"
 2189      6D7000
 2190              	.LASF83:
 2191 050e 77747472 		.ascii	"wttrp\000"
 2191      7000
 2192              	.LASF111:
 2193 0514 73744765 		.ascii	"stGetAlarm\000"
 2193      74416C61 
 2193      726D00
 2194              	.LASF1:
 2195 051f 7369676E 		.ascii	"signed char\000"
 2195      65642063 
 2195      68617200 
 2196              	.LASF52:
 2197 052b 64656C74 		.ascii	"delta\000"
 2197      6100
 2198              	.LASF6:
 2199 0531 73686F72 		.ascii	"short unsigned int\000"
 2199      7420756E 
 2199      7369676E 
 2199      65642069 
 2199      6E7400
 2200              	.LASF67:
 2201 0544 73746B61 		.ascii	"stkalign_t\000"
 2201      6C69676E 
 2201      5F7400
 2202              	.LASF48:
 2203 054f 63757272 		.ascii	"current\000"
 2203      656E7400 
 2204              	.LASF26:
 2205 0557 6F6C6465 		.ascii	"older\000"
 2205      7200
 2206              	.LASF81:
 2207 055d 65786974 		.ascii	"exitcode\000"
 2207      636F6465 
 2207      00
 2208              	.LASF37:
 2209 0566 6D706F6F 		.ascii	"mpool\000"
 2209      6C00
 2210              		.comm	__gnu_lto_v1,1,1
 2211              		.ident	"GCC: (Sourcery CodeBench Lite 2013.11-24) 4.8.1"
ARM GAS  /tmp/ccJH6cy9.s 			page 57


DEFINED SYMBOLS
                            *ABS*:00000000 hal_st.c
     /tmp/ccJH6cy9.s:248    .text.stInit:00000000 $t
     /tmp/ccJH6cy9.s:254    .text.stInit:00000000 stInit
     /tmp/ccJH6cy9.s:269    .text.stStartAlarm:00000000 $t
     /tmp/ccJH6cy9.s:275    .text.stStartAlarm:00000000 stStartAlarm
     /tmp/ccJH6cy9.s:305    .text.stStopAlarm:00000000 $t
     /tmp/ccJH6cy9.s:311    .text.stStopAlarm:00000000 stStopAlarm
     /tmp/ccJH6cy9.s:331    .text.stSetAlarm:00000000 $t
     /tmp/ccJH6cy9.s:337    .text.stSetAlarm:00000000 stSetAlarm
     /tmp/ccJH6cy9.s:357    .text.stGetAlarm:00000000 $t
     /tmp/ccJH6cy9.s:363    .text.stGetAlarm:00000000 stGetAlarm
                            *COM*:00000001 __gnu_lto_v1
                     .debug_frame:00000010 $d

UNDEFINED SYMBOLS
st_lld_init
