ARM GAS  /tmp/cctevvtP.s 			page 1


   1              		.syntax unified
   2              		.cpu cortex-m3
   3              		.fpu softvfp
   4              		.eabi_attribute 20, 1
   5              		.eabi_attribute 21, 1
   6              		.eabi_attribute 23, 3
   7              		.eabi_attribute 24, 1
   8              		.eabi_attribute 25, 1
   9              		.eabi_attribute 26, 1
  10              		.eabi_attribute 30, 2
  11              		.eabi_attribute 34, 1
  12              		.eabi_attribute 18, 4
  13              		.thumb
  14              		.file	"nvic.c"
  15              		.text
  16              	.Ltext0:
  17              		.section	.gnu.lto_.jmpfuncs.33665e3f51b8b7d5,"",%progbits
  18 0000 789C6362 		.ascii	"x\234cb`b\300\006\270\2404\013\0033##\02333#\003\000"
  18      6062C006 
  18      B8A0340B 
  18      03332323 
  18      13333323 
  19 0016 01F00021 		.ascii	"\001\360\000!"
  20              		.text
  21              		.section	.gnu.lto_.inline.33665e3f51b8b7d5,"",%progbits
  22 0000 789C6D4C 		.ascii	"x\234mL\313\025\200 \014KK\205\352\305\021\330\300%"
  22      CB158020 
  22      0C4B4B85 
  22      EAC511D8 
  22      C025
  23 0012 5D84911C 		.ascii	"]\204\221\034\305\021LQy\036\354!}\371*\024\177\267"
  23      C5114C51 
  23      791EEC21 
  23      7DF92A14 
  23      7FB7
  24 0024 3FDF8065 		.ascii	"?\337\200e\026\025\011\022`\371\334\220[U\350\261\032"
  24      16150912 
  24      60F9DC90 
  24      5B55E8B1 
  24      1A
  25 0035 C89CAAD3 		.ascii	"\310\234\252\323\363\302TD\222\265zG\350Z\037QL&\322"
  25      F3C25444 
  25      92B57A47 
  25      E85A1F51 
  25      4C26D2
  26 0048 57127B9F 		.ascii	"W\022{\237\201PP\362[\035\346\250\342\002a/\015\002"
  26      815050F2 
  26      5B1DE6A8 
  26      E202612F 
  26      0D02
  27              		.text
  28              		.section	.gnu.lto_.pureconst.33665e3f51b8b7d5,"",%progbits
  29 0000 789C6362 		.ascii	"x\234cb`b\340d\200\000\026\006)F)&)f)\000\002\326\000"
  29      6062E064 
  29      80001606 
  29      29462926 
  29      29662900 
ARM GAS  /tmp/cctevvtP.s 			page 2


  30 0017 80       		.ascii	"\200"
  31              		.text
  32              		.section	.gnu.lto_nvicEnableVector.33665e3f51b8b7d5,"",%progbits
  33 0000 789C9D91 		.ascii	"x\234\235\221\277K\303@\024\307\337\273k\314\217\242"
  33      BF4BC340 
  33      14C7DFBB 
  33      6BCC8FA2 
  34 0010 AE3A5974 		.ascii	"\256:Yt\021\212\211N\016N\342\344\320\245T\320\261f"
  34      118A894E 
  34      0E4EE2E4 
  34      D0A554D0 
  34      B166
  35 0022 8801DB88 		.ascii	"\210\001\333\210\025q3m\272\351\320\301\305\352`\021"
  35      1571336D 
  35      BAE9D0C1 
  35      C5EA6011 
  36 0032 11C41F7F 		.ascii	"\021\304\037\177\200 \245\233C\0257')\256\202\210\223"
  36      8020A59B 
  36      43153727 
  36      29AE8288 
  36      93
  37 0043 A010DFE5 		.ascii	"\240\020\337\345l\245\"\016\036\311\335\273{\337\367"
  37      6CA5220E 
  37      1EC9DDBB 
  37      7BDFF7
  38 0052 BE9FE318 		.ascii	"\276\237\343\0300\3709\006\351O\323\361\004\255\310"
  38      30F83906 
  38      E94FD3F1 
  38      04ADC8
  39 0061 0159E506 		.ascii	"\001Y\345\006\240\2501D\021\000\302&\303\315\005\024"
  39      A0A83144 
  39      1100C226 
  39      C3CD0514 
  40 0071 521C869A 		.ascii	"R\034\206\232\357WZG\217olw\247^>\360?\302\020\321E"
  40      EF575A47 
  40      8F6F6C77 
  40      A75E3EF0 
  40      3FC210D1 
  41 0086 6A6B22D8 		.ascii	"jk\"\330\010\363\264\301D\264\260X\267\317\005\253\267"
  41      08F3B4C1 
  41      44B4B058 
  41      B7CF05AB 
  41      B7
  42 0097 C270FFB6 		.ascii	"\302p\377\266\3720\200\275\2109Q\344\"\347bRh\213*E"
  42      FA3080BD 
  42      883951E4 
  42      22E76252 
  42      688B2A45 
  43 00ab 310DB258 		.ascii	"1\015\262X#\037\2356`\320\244P\251\002e\262M\200p\240"
  43      231F9D36 
  43      60D0A450 
  43      A90265B2 
  43      4D8070A0 
  44 00bf 91A159B0 		.ascii	"\221\241Y\260\315!\023+oB\351)\010\3371\213\207$w\220"
  44      CD21132B 
  44      6F42E929 
  44      08DF318B 
ARM GAS  /tmp/cctevvtP.s 			page 3


  44      87247790 
  45 00d3 39488A26 		.ascii	"9H\212&\004g\274}\304\351T@\365\010\250&4feb\014N\375"
  45      0467BC7D 
  45      C4E95440 
  45      F508A826 
  45      34666562 
  46 00ea 72D19FA4 		.ascii	"r\321\237\244D\022ND\330\357\242\272\007U\222jB\257"
  46      44124E44 
  46      D8EFA2BA 
  46      0755926A 
  46      42AF
  47 00fc FB8DC0EF 		.ascii	"\373\215\300\357\213\356\243G\267XDy\033'\002\223\021"
  47      8BEEA347 
  47      B7584479 
  47      1B270293 
  47      11
  48 010d 8FCCCE83 		.ascii	"\217\314\316\203\343\355\321\266\237JyQ\004J\344Wz\016"
  48      E3EDD1B6 
  48      9F4A7951 
  48      044AE457 
  48      7A0E
  49 011f AE3A785A 		.ascii	"\256:xZTK\025\227\035<\335\221v0\004\022<x\355\310\015"
  49      544B1597 
  49      1D3CDD91 
  49      76300412 
  49      3C78EDC8 
  50 0134 915050A8 		.ascii	"\221PP\250\"\364\353\227x\027\374\224\213\3067|\374"
  50      22F4EB97 
  50      7817FC94 
  50      8BC6377C 
  50      FC
  51 0145 6F78FC42 		.ascii	"ox\374BV;\360\206lzOO\372\377\266\354\267\266wPlm\215"
  51      563BF086 
  51      6C7A4F4F 
  51      FAFFB6EC 
  51      B7B67750 
  52 015c C8A6ED91 		.ascii	"\310\246\355\221!\002z2\241O\232\246%?\257`-e\227\255"
  52      21027A32 
  52      A14F9AA6 
  52      253FAF60 
  52      2D6597AD 
  53 0170 156F75AD 		.ascii	"\025ou\255`\331^.\347\345\255\351tj&\265a\345\327]\333"
  53      60D95E2E 
  53      E7E5ADE9 
  53      746A26B5 
  53      61E5D75D 
  54 0185 B481E7CD 		.ascii	"\264\201\347\315\361O\265\353\222\340"
  54      F14FB5EB 
  54      92E0
  55              		.text
  56              		.section	.gnu.lto_nvicDisableVector.33665e3f51b8b7d5,"",%progbits
  57 0000 789C7D50 		.ascii	"x\234}P\277K\303P\020\276\357\245\321VAqt\262\350\""
  57      BF4BC350 
  57      10BEEFA5 
  57      D1564171 
  57      74B2E822 
  58 0014 14133A39 		.ascii	"\024\023:98\211s\027\251\240c\355P\003\266\021+\342"
ARM GAS  /tmp/cctevvtP.s 			page 4


  58      38897317 
  58      A9A063ED 
  58      5003B611 
  58      2BE2
  59 0026 D6D4D4CD 		.ascii	"\326\324\324\315\241\203\203?\026\213[\251?\300E\020"
  59      A183833F 
  59      168B5BA9 
  59      3FC04510 
  60 0036 A4141C1C 		.ascii	"\244\024\034\034*\370\037\024\027\301AD\227\016B\274"
  60      2AF81F14 
  60      17C14144 
  60      970E42BC 
  61 0046 4B1AA50E 		.ascii	"K\032\245\016\036\311\273{\367}\367\335\335S\244\350"
  61      1EC9BB7B 
  61      F77DF7DD 
  61      DD53A4E8 
  62 0056 AF8DF37F 		.ascii	"\257\215\363\177\017\242${h\004U}$*G\025 \001\201J\012"
  62      0FA2247B 
  62      6804557D 
  62      242A4715 
  62      2001814A 
  63 006b A5150815 		.ascii	"\245\025\010\025\223Ts\234jg\357\245\253\216\016\232"
  63      9354739C 
  63      6A67EFA5 
  63      AB8E0E9A 
  64 007b 9553E7CB 		.ascii	"\225S\347\313\363\000\013,k\200\262\240e\276 \356;\025"
  64      F3000B2C 
  64      6B80B2A0 
  64      65BE20EE 
  64      3B15
  65 008d E9EF73A9 		.ascii	"\351\357s\251\232\035\317k\\_=\3271\026\003\362ReA\323"
  65      9A1DCF6B 
  65      5C5F3DD7 
  65      311603F2 
  65      526541D3 
  66 00a1 28831A2B 		.ascii	"(\203\032+G\370B:\037R\247S\205\033\305I4\331\322|\312"
  66      47F8423A 
  66      1F52A753 
  66      851BC549 
  66      34D9D27C 
  67 00b6 344B50E2 		.ascii	"4KP\342\2656\271\027\356\347\376t\006g\320)\007\225"
  67      B536B917 
  67      EEE7FE74 
  67      0667D029 
  67      0795
  68 00c8 03A427D7 		.ascii	"\003\244'\327\021\265i\367\315\275C\210i\214I\322\275"
  68      11B569F7 
  68      CDBD4388 
  68      698C49D2 
  68      BD
  69 00d9 D5C25484 		.ascii	"\325\302T\204\263>}\302\247\273\347\356\307\017]\027"
  69      B33E7DC2 
  69      A7BBE7EE 
  69      C70F5D17 
  70 00e9 20026109 		.ascii	" \002a\011\326zx\037\016\240\031j8\225\2623gAOP]\302"
  70      D67A781F 
  70      0EA0196A 
ARM GAS  /tmp/cctevvtP.s 			page 5


  70      3895B233 
  70      67414F50 
  71 00ff 510B0327 		.ascii	"Q\013\003't\314\374A)\212:-\327\031\361w\217\372\033"
  71      74CCFC41 
  71      298A3A2D 
  71      D719F177 
  71      8FFA1B
  72 0112 AF22D89C 		.ascii	"\257\"\330\234\347\2430\322}\321\233\303\327.\372dg"
  72      E7A330D2 
  72      7DD19BC3 
  72      D72EFA64 
  72      67
  73 0123 2DC47E65 		.ascii	"-\304~e\207\376\227EO\254\247\357c1\011\236\250\334"
  73      87FE9745 
  73      4FACA7EF 
  73      6331099E 
  73      A8DC
  74 0135 A94F05C2 		.ascii	"\251O\005\302\241\245\231\306o&#$\014\303\014>\273h"
  74      A1A599C6 
  74      6F262324 
  74      0CC30C3E 
  74      BB68
  75 0147 AE65D6CD 		.ascii	"\256e\326\315\015{s\253hf\355|\336.\230\363\213\251"
  75      0D7B73AB 
  75      6866ED7C 
  75      DE2E98F3 
  75      8BA9
  76 0159 85D48E59 		.ascii	"\205\324\216Y\330\266\262F\226\264\202\221\374\006\256"
  76      D8B6B246 
  76      96B48291 
  76      FC06AE
  77 0168 7676D4   		.ascii	"vv\324"
  78              		.text
  79              		.section	.gnu.lto_nvicSetSystemHandlerPriority.33665e3f51b8b7d5,"",%progbits
  80 0000 789C6362 		.ascii	"x\234cb`b@\007\222@\374\001\210u\201\230\221\231\201"
  80      60624007 
  80      9240FC01 
  80      88758198 
  80      919981
  81 0013 9169C239 		.ascii	"\221i\3029\006\206F\016&FF\020\203\201\221\241\236\211"
  81      0686460E 
  81      26464610 
  81      838191A1 
  81      9E89
  82 0025 B13E9211 		.ascii	"\261>\222\021\254v=\323\201\007\377\377\257\373\322"
  82      AC763DD3 
  82      8107FFFF 
  82      AFFBD2
  83 0034 76EC20E3 		.ascii	"v\354 \3439evF\306\\F\240\211\231\214\014\314 \202\025"
  83      39657646 
  83      C65C46A0 
  83      89998C0C 
  83      CC208215 
  84 0048 C805A963 		.ascii	"\310\005\251cehih\230\240\220\313\010\264,\031\2541"
  84      65686968 
  84      98A090CB 
  84      08B42C19 
ARM GAS  /tmp/cctevvtP.s 			page 6


  84      AC31
  85 005a 0448824C 		.ascii	"\004H\202L\013\005\012\001i\346\263\014M\257\2337\367"
  85      0B050A01 
  85      69E6B30C 
  85      4DAF9B37 
  85      F7
  86 006b E926322E 		.ascii	"\351&2.ddeHgdJ\007i<\313\320\274\226\031&\304\014\024"
  86      64646548 
  86      67644A07 
  86      693CCBD0 
  86      BC961926 
  87 0082 8D60CC64 		.ascii	"\215`\314ddda\000\311\034\362\204H\3502\254ihil0\007"
  87      64646100 
  87      C91CF284 
  87      48E832AC 
  87      6968696C 
  88 0098 4A6833AC 		.ascii	"Jh3\254\0021y3\031\231f3\314\002*e\006\251gi\270\325"
  88      02317933 
  88      19996633 
  88      CC022A65 
  88      06A96769 
  89 00ae DCC0C700 		.ascii	"\334\300\307\000f\202\335\234\004q:\320HV\006\030\213"
  89      6682DD9C 
  89      04713AD0 
  89      48560618 
  89      8B
  90 00bf 9981E122 		.ascii	"\231\201\341\"C\343\203s\312\020Ca \004\350\012\240"
  90      43E38373 
  90      CA104361 
  90      2004E80A 
  90      A0
  91 00d0 F34061A4 		.ascii	"\363@a\244\255\247\247\017A\371\305\372\031\2119\372"
  91      ADA7A70F 
  91      41F9C5FA 
  91      198939FA 
  92 00e0 05F94525 		.ascii	"\005\371E%\305\372\311\371\271\271\371y\372\216A\276"
  92      C5FAC9F9 
  92      B9B9F979 
  92      FA8E41BE 
  93 00f0 CEBE15FA 		.ascii	"\316\276\025\372ye\231\311z\311\014\000\317\274E\347"
  93      796599C9 
  93      7AC90C00 
  93      CFBC45E7 
  94              		.text
  95              		.section	.gnu.lto_nvicClearPending.33665e3f51b8b7d5,"",%progbits
  96 0000 789C5D50 		.ascii	"x\234]P1H\303P\020\275\367\177\322\352\2428:Yt\021\212"
  96      3148C350 
  96      10BDF77F 
  96      D2EAA238 
  96      3A597411 
  97 0015 09BA3A89 		.ascii	"\011\272:\211\223C\027\251\240c\315P\003\266\021+\342"
  97      934317A9 
  97      A063CD50 
  97      03B6112B 
  97      E2
  98 0026 D65FD359 		.ascii	"\326_\323Y:\270\250\213\305M\252\356v)\335+\272;\024"
  98      3AB8A88B 
ARM GAS  /tmp/cctevvtP.s 			page 7


  98      C54DAAEE 
  98      7629DD2B 
  98      BA3B14
  99 0039 41280EAE 		.ascii	"A(\016\256.B\274KLA\217\237\177\367\337\275{w9E\212"
  99      2E42BC4B 
  99      4C418F9F 
  99      7FF7DFBD 
  99      7B773945 
 100 004e FEDB2C7F 		.ascii	"\376\333,\177\006D\313\354\241\011\252\365D\324\230"
 100      0644CBEC 
 100      A109AAF5 
 100      44D498
 101 005d 50800404 		.ascii	"P\200\004\004\252+\324w T\314S\333\230\326\360\375\353"
 101      AA2BD477 
 101      2054CC53 
 101      DB98D6F0 
 101      FDEB
 102 006f 595F9CF7 		.ascii	"Y_\234\367\232\327\346;\212\000\037,\353\200<\3206?"
 102      9AD7E63B 
 102      8A001F2C 
 102      EB803CD0 
 102      363F
 103 0081 908B9DB2 		.ascii	"\220\213\235\262\376\366yP\275a\024\275v;o#\314L\002"
 103      FEF67950 
 103      BD6114BD 
 103      763B6F23 
 103      CC4C02
 104 0094 15A9F2A1 		.ascii	"\025\251\362\2415\225\320fe\213\037d\313\225\021\230"
 104      3595D066 
 104      658B1F64 
 104      CB951198 
 105 00a4 2B6C6A72 		.ascii	"+ljr\267\034\2110[\221o\031i\013J\274\036Px\037Fg\213"
 105      B71C8930 
 105      5B916F19 
 105      690B4ABC 
 105      1E50781F 
 106 00bb 25DCC0A6 		.ascii	"%\334\300\2462T\031\220\306\\G4\240\323\317\360\003"
 106      32541990 
 106      C65C4734 
 106      A0D3CFF0 
 106      03
 107 00cc 694E734E 		.ascii	"iNsN\300\260\253S\310b4\246\317\305\364\360n\234\261"
 107      C0B0AB53 
 107      C86234A6 
 107      CFC5F4F0 
 107      6E9CB1
 108 00df 6318C2F9 		.ascii	"c\030\302\371\025z\034\013e8-`\177#A\226\250c\232\015"
 108      157A1C0B 
 108      65382D60 
 108      7F234196 
 108      A8639A0D 
 109 00f3 B3EAC3CA 		.ascii	"\263\352\303\312\323\255\204\323>\354+\272d\211\214"
 109      D3AD84D3 
 109      3EEC2BBA 
 109      64898C
 110 0102 E8644D3F 		.ascii	"\350dM?4S\361F\262\361\036v\221\354\203\007\2464\312"
 110      3453F146 
ARM GAS  /tmp/cctevvtP.s 			page 8


 110      B2F11E76 
 110      91EC8307 
 110      A634CA
 111 0115 10BD5063 		.ascii	"\020\275Pc8ZHDS+\362\320\374\247\302\313;\216\233\234"
 111      385A4844 
 111      532BF2D0 
 111      FCA7C2CB 
 111      3B8E9B9C 
 112 0129 A0E6EE95 		.ascii	"\240\346\356\225\366\335\203\340\360\250\346zA\245\022"
 112      F6DD83E0 
 112      F0A8E67A 
 112      41A512
 113 0138 54DDB5CD 		.ascii	"T\335\265\315\302z\341\304\255\036\373\236\343\221\256"
 113      C27AE1C4 
 113      AD1EFB9E 
 113      E391AE
 114 0147 3A2B3F72 		.ascii	":+?r\207f\302"
 114      8766C2
 115              		.text
 116              		.section	.gnu.lto_.symbol_nodes.33665e3f51b8b7d5,"",%progbits
 117 0000 789C6362 		.ascii	"x\234cb`b\260c\200\002\246\333\214\365\014\014\023\316"
 117      6062B063 
 117      8002A6DB 
 117      8CF50C0C 
 117      13CE
 118 0012 3130D4D7 		.ascii	"10\324\327\317\353`d\272\303X\317\210\304\275\313X\317"
 118      CFEB6064 
 118      BAC358CF 
 118      88C4BDCB 
 118      58CF
 119 0024 84C4BDC7 		.ascii	"\204\304\275\307X\317\214\3402\000\000q\306\023\317"
 119      58CF8CE0 
 119      32000071 
 119      C613CF
 120              		.text
 121              		.section	.gnu.lto_.refs.33665e3f51b8b7d5,"",%progbits
 122 0000 789C6362 		.ascii	"x\234cb`b`d\200\002\000\000F\000\006"
 122      60626064 
 122      80020000 
 122      460006
 123              		.text
 124              		.section	.gnu.lto_.decls.33665e3f51b8b7d5,"",%progbits
 125 0000 789CAD59 		.ascii	"x\234\255YmpT\325\031>\347\356\206$\222Fp\254\205\031"
 125      6D7054D5 
 125      193EE7EE 
 125      86249246 
 125      70AC8519 
 126 0014 1C62A73A 		.ascii	"\034b\247:\216\326l\000\255\376rX6\301\354\217\330\314"
 126      8ED66C00 
 126      ADFE7258 
 126      36C1EC8F 
 126      D8CC
 127 0026 2E308EFC 		.ascii	".0\216\374\010\207\345\266\331N\262\313l\226\016\374"
 127      0887E5B6 
 127      D94EB2CB 
 127      6C960EFC 
 128 0036 3B21D262 		.ascii	";!\322b\2051|\325L\312d6\222\330\002:d\200P\004\254"
ARM GAS  /tmp/cctevvtP.s 			page 9


 128      85317CD5 
 128      4CCA6436 
 128      92D8023A 
 128      64805004 
 129 004b EB47510B 		.ascii	"\353GQ\013V\244Z\252h]Z\255b\307\001\241b\255\342\366"
 129      56A45AAA 
 129      685D5AAD 
 129      62C701A1 
 129      62ADE2F6 
 130 005f 3DE7DE73 		.ascii	"=\347\336s\3579w\367l\356:\336\311y\357\271\367\236"
 130      EF3977F7 
 130      6CEE3ADE 
 130      C979EFB9 
 130      F79E
 131 0071 F3BCCFF3 		.ascii	"\363\274\317\363\236\217\373\356\215\201\014\264\011"
 131      9E8FFBEE 
 131      8D810CB4 
 131      09
 132 007e 235484A3 		.ascii	"#T\204\243\1776B\263\014\204j\020B\367\"\367\010B\031"
 132      7F3642B3 
 132      0C846A10 
 132      42F722F7 
 132      084219
 133 0091 85B20FCA 		.ascii	"\205\262\017\312$\224\243\250\364`\317\033\354\266\215"
 133      2494A3A8 
 133      F460CF1B 
 133      ECB68D
 134 00a0 761D6051 		.ascii	"v\035`Q-\262\360\236\205\362\002\224\343P.@y\025\312"
 134      2DB2F09E 
 134      85F20294 
 134      E3502E40 
 134      7915CA
 135 00b3 49280128 		.ascii	"I(\001(\037By\027\312\011\273\017\303\002\032\350I("
 135      1F427917 
 135      CA09BB0F 
 135      C3021AE8 
 135      4928
 136 00c5 7B3C7E18 		.ascii	"{<~\030\207\351\036?\302\207\300\024>\204O\206\365\246"
 136      87E91E3F 
 136      C287C014 
 136      3E844F86 
 136      F5A6
 137 00d7 ED07DB18 		.ascii	"\355\007\333\030\354|\300\203=i\343`\273\357E(\227\241"
 137      EC7CC083 
 137      3D69E360 
 137      BBEF4528 
 137      97A1
 138 00e9 DC8EAD7B 		.ascii	"\334\216\255{5\366y\322\346\3754\224\337C\371!VqX|\352"
 138      35F679D2 
 138      E6FD3494 
 138      DF43F921 
 138      5671587C 
 139 00fe CA70F4F2 		.ascii	"\312p\364\362\303\266nl\367a\347g<\234\346\242\021\232"
 139      C3B66E6C 
 139      F761E767 
 139      3C9CE6A2 
 139      119A
ARM GAS  /tmp/cctevvtP.s 			page 10


 140 0110 2B14C647 		.ascii	"+\024\306GN`\272\225~U,\006\320\015h\007\205#\367\013"
 140      4E60BA95 
 140      7E552C06 
 140      D00D6807 
 140      8523F70B 
 141 0124 4A7196E0 		.ascii	"Jq\226\340{\277\213\036\300\0047\326\243&^i\250\347"
 141      7BBF8B1E 
 141      C00437D6 
 141      A3265E69 
 141      A8E7
 142 0136 8E1122F8 		.ascii	"\216\021\"\370q|\003\257\005x\010P=\332H\351z\326\261"
 142      717C03AF 
 142      05780850 
 142      3DDA48E9 
 142      7AD6B1
 143 0149 FD65E055 		.ascii	"\375e\340U\256\327\315h\214\322\301\3023\243\233C\224"
 143      AED7CD68 
 143      8CD2C1C2 
 143      33A39B43 
 143      94
 144 015a D6113C86 		.ascii	"\326\021<\206\353\241\357z\214\321mh78\035\244\364\037"
 144      EBA1EF7A 
 144      8CD16D68 
 144      37381DA4 
 144      F41F
 145 016c B718A8F4 		.ascii	"\267\030\250\364 \270\266\276\344\232\340\337\342\333"
 145      20B8B6BE 
 145      E49AE0DF 
 145      E2DB
 146 017a 90E5893F 		.ascii	"\220\345\211?\266+l\262]\353\320\262\274\360\312\322"
 146      B62B6CB2 
 146      5DEBD0B2 
 146      BCF0CAD2 
 147 018a 800360A0 		.ascii	"\200\003`\240\255\340U \260\343\007h\027\245[!\024c"
 147      ADE05520 
 147      B0E30768 
 147      17A55B21 
 147      1463
 148 019c B369CE10 		.ascii	"\263i\316\020\334v\361V\243xnY=6\266\325\225>m\266\213"
 148      DC76F156 
 148      A3786E59 
 148      3D36B6D5 
 148      953E6DB6 
 149 01b1 6EE37EBA 		.ascii	"n\343~\272!t\013\032g\261\336L7\314\300<\324\310\356"
 149      21740B1A 
 149      67B1DE4C 
 149      37CCC03C 
 149      D4C8EE
 150 01c4 A548DD8D 		.ascii	"\245H\335\215\225\220Xc\226?x\274a\260\277P,\316\365"
 150      95905863 
 150      963F78BC 
 150      61B0BF50 
 150      2CCEF5
 151 01d7 3F6013EA 		.ascii	"?`\023\352\200Y4<a\331S6,t\233\320F\360^\240C\360\276"
 151      8059343C 
 151      61D95336 
 151      2C749BD0 
ARM GAS  /tmp/cctevvtP.s 			page 11


 151      46F05EA0 
 152 01ee 6FA46D9F 		.ascii	"o\244m\237W\333\376\262\332\376#\264Y\223\314@\307\312"
 152      57DBFEB2 
 152      DAFE23B4 
 152      5993CC40 
 152      C7CA
 153 0200 B39222FE 		.ascii	"\263\222\"\376\026o1\351k\240\256\272b\236\342b\246"
 153      166F31E9 
 153      6BA0AEBA 
 153      629EE262 
 153      A6
 154 0211 E8A61133 		.ascii	"\350\246\0213\351\025s\250\254\230#/9b&\270\230s\345"
 154      E91573A8 
 154      AC98232F 
 154      396226B8 
 154      9873E5
 155 0224 C56CF186 		.ascii	"\305l\361\206\370\3507bu\324\313\352\230\312\212/\323"
 155      F8E83762 
 155      75D4CBEA 
 155      98CA8A2F 
 155      D3
 156 0235 015A18A7 		.ascii	"\001Z\030\247\263\206\334eZ'\034\260]B,\323\363\377"
 156      B386DC65 
 156      5A271CB0 
 156      5D422CD3 
 156      F3FF
 157 0247 336099DA 		.ascii	"3`\231\332\353\272R\007\202\363\370f\260X]\224\270\336"
 157      EBBA5207 
 157      82F3F866 
 157      B0585D94 
 157      B8DE
 158 0259 AD14319B 		.ascii	"\255\0241\233]\227<\322\3556\022\333) f\242A&\271i\250"
 158      5D973CD2 
 158      ED3612DB 
 158      292066A2 
 158      4126B969 
 159 026e 91E067E1 		.ascii	"\221\340g\341\236\315\206^+\350\\\264vK\271\335s\025"
 159      9ECD865E 
 159      2BE85CB4 
 159      764BB9DD 
 159      7315
 160 0280 DA11FC22 		.ascii	"\332\021\374\"\236\351\306\205\332\333\027o\242[F\177"
 160      9EE9C685 
 160      DADB176F 
 160      A25B467F 
 161 0290 B439DBB7 		.ascii	"\2649\333\267\235\312\005\254(\021\315\320uh\013\347"
 161      9DCA05AC 
 161      2811CDD0 
 161      75680BE7 
 162 02a0 22ED8AB9 		.ascii	"\"\355\212\271\002\026\275\036\232\343F\374\263G_[\314"
 162      0216BD1E 
 162      9AE346FC 
 162      B3475F5B 
 162      CC
 163 02b1 37C6E3F8 		.ascii	"7\306\343\370:\210\326^C\215\226\017 \346\370\025\350"
 163      3A88D65E 
 163      438D960F 
ARM GAS  /tmp/cctevvtP.s 			page 12


 163      20E6F815 
 163      E8
 164 02c2 6C75E3B0 		.ascii	"lu\343\2604_<\323@\203\326}\244\000*\307M(G\037\352"
 164      345F3CD3 
 164      4083D67D 
 164      A4002AC7 
 164      4D28471F 
 165 02d7 CF6F1BDE 		.ascii	"\317o\033\336\201i\356y,\"\370r\243=c*m\354\004\217"
 165      8169EE79 
 165      2C22F872 
 165      A33D632A 
 165      6DEC048F 
 166 02eb F30930F5 		.ascii	"\363\0110\365\256,\006\302\020\335\233\224\361b\241"
 166      AE2C06C2 
 166      10DD9B94 
 166      F162A1
 167 02fa 1F93C6CB 		.ascii	"\037\223\306\313\323\214\340?W=\\\257i\206\253V\031"
 167      D38CE03F 
 167      573D5CAF 
 167      6986AB56 
 167      19
 168 030b 2DD10AC2 		.ascii	"-\321\012\302>\311\303\316\242U\226\205\203#@\033\235"
 168      3EC9C3CE 
 168      A2559685 
 168      8323401B 
 168      9D
 169 031c 29CC4208 		.ascii	")\314B\010\361\336\376\340 \321\011\232&\372\257\260"
 169      F1DEFEE0 
 169      20D1099A 
 169      26FAAFB0 
 170 032c 1D9FAE5A 		.ascii	"\035\237\256Z\320_4\202\276\207\204\202#%\012\024\267"
 170      D05F3482 
 170      BE878482 
 170      23250A14 
 170      B7
 171 033d 4A484B15 		.ascii	"JHK\025\300$\3705( \370$P3\320\213\276\302A\261>\036"
 171      C024F835 
 171      2820F824 
 171      5033D08B 
 171      BEC241B1 
 172 0353 431CED34 		.ascii	"C\034\3554G{\305\027\265\234\016\015\270\015K\334N\373"
 172      477BC517 
 172      B59C0E0D 
 172      B80D4BDC 
 172      4EFB
 173 0365 E366E8B9 		.ascii	"\343f\350\271\355\224\270\235\361\307M\207\006\334F"
 173      ED94B89D 
 173      F1C74D87 
 173      06DC46
 174 0374 246EE7FC 		.ascii	"$n\347\374q\013\350\271MH\334\376\345\217\233\016\015"
 174      710BE8B9 
 174      4D48DCFE 
 174      E58F9B0E 
 174      0D
 175 0385 B8ED97B8 		.ascii	"\270\355\227\270]\364\307-\250\347v\260\302\034o\024"
 175      5DF4C72D 
 175      A8E776B0 
ARM GAS  /tmp/cctevvtP.s 			page 13


 175      C21C6F14 
 176 0395 0005B1C9 		.ascii	"\000\005\261\311\276_\365$\377@3\311\357v&\371g%\032"
 176      BE5FF524 
 176      FF4033C9 
 176      EF7626F9 
 176      67251A
 177 03a8 54BF2224 		.ascii	"T\277\"$:\021\020\222C\017N\254 \370\005\036\222b\011"
 177      3A111092 
 177      430F4EAC 
 177      20F8051E 
 177      926209
 178 03bb 9CFAAE10 		.ascii	"\234\372\256\0201\231\246\217\311\341\0121\031u\366"
 178      3199A68F 
 178      C9E10A31 
 178      1975F6
 179 03ca E9C1EB6D 		.ascii	"\351\301\353m\211\037W\035\224\177k\2022P\343De}\300"
 179      891F571D 
 179      947F6B82 
 179      3250E344 
 179      657DC0
 180 03dd 2BC3E359 		.ascii	"+\303\343Yh\252\325\205e \177\344\355\0066U^\345\211"
 180      68AAD585 
 180      65207FE4 
 180      ED063655 
 180      5EE589
 181 03f0 D5262FA0 		.ascii	"\325&/\240\302JDeN\031\264r\207\374v\"\370O\374\245"
 181      C24A4465 
 181      4E19B472 
 181      87FC7622 
 181      F84FFCA5 
 182 0404 7102DF04 		.ascii	"q\002\337\004\366un\337\344\366\014\267oq{\226\333w"
 182      F6756EDF 
 182      E4F60CB7 
 182      6F717B96 
 182      DB77
 183 0416 B97D8FDB 		.ascii	"\271}\217\333s\334\376\223\333\017\271=\317\355'`\235"
 183      73DCFE93 
 183      DB0FB93D 
 183      CFED2760 
 183      9D
 184 0427 633AFA95 		.ascii	"c:\372\225\373k\304z\241\352\242z\001O\027\2754\351"
 184      FB6BC47A 
 184      A1EAA27A 
 184      014F17BD 
 184      34E9
 185 0439 C50AD1A5 		.ascii	"\305\012\321\245\241\244\325s\332V\004\177Z\365\000"
 185      A1A4D573 
 185      DA56047F 
 185      5AF500
 186 0448 5FD20CB0 		.ascii	"_\322\014\260CPiU.!(8\211\331&7\225\313\177z\0267\021"
 186      43506955 
 186      2E212838 
 186      89D92637 
 186      95CB7F7A 
 187 045f 7C996715 		.ascii	"|\231g\025[\002Sf\025\036\020\346\363\2127\251\330v"
 187      5B025366 
 187      151E10E6 
ARM GAS  /tmp/cctevvtP.s 			page 14


 187      F38A37A9 
 187      D876
 188 0471 96271557 		.ascii	"\226'\025W\246N*\266\017\344\037\373\315\216\331,\251"
 188      A64E2AB6 
 188      0FE41FFB 
 188      CD8ED92C 
 188      A9
 189 0482 705289FC 		.ascii	"pR\211\374\267\220J\030h\230K\271Ryn\"\375D\037:+M\364"
 189      B7904A18 
 189      68984BB9 
 189      52796E22 
 189      FD441F3A 
 190 0499 5CD5604D 		.ascii	"\\\325`M\012\330\260\0146\356\007\254N\317l\247\014"
 190      0AD8B00C 
 190      36EE07AC 
 190      4ECF6CA7 
 190      0C
 191 04aa B6A76A30 		.ascii	"\266\247j0\225\331\210\0146\341\007l\206\236\331\204"
 191      95D9880C 
 191      36E1076C 
 191      869ED984 
 192 04ba 0C76B06A 		.ascii	"\014v\260j0\231\031\274\223\226\263\015\370\"\337\200"
 192      309919BC 
 192      9396B30D 
 192      F822DF80 
 193 04ca 0F7BB194 		.ascii	"\017{\261\224\365dWg\351\211\035\224\211\035\363C\254"
 193      F5645767 
 193      E9891D94 
 193      891DF343 
 193      AC
 194 04db 491FB243 		.ascii	"I\037\262C2\330\363~\300n\3253;,\203\275T5\230\312\354"
 194      32D8F37E 
 194      C06ED533 
 194      3B2C83BD 
 194      543598CA 
 195 04f0 880C76D2 		.ascii	"\210\014v\322\017X\213\236\3311\031\354\365\252\301"
 195      0F588B9E 
 195      D93119EC 
 195      F5AAC1
 196 04ff 54667F90 		.ascii	"Tf\177\220\301\316\370\001\273G\317\354\224\014\366"
 196      C1CEF801 
 196      BB47CFEC 
 196      940CF6
 197 050e 4ED56012 		.ascii	"N\325`\022\263\355\375\371\323\313\235\027sn!\333\202"
 197      B3EDFDF9 
 197      D3CB9D17 
 197      736E21DB 
 197      82
 198 051f BF7077ED 		.ascii	"\277pw\355\205\352\002R\232\215i\233\021\374\230Q\355"
 198      85EA0252 
 198      9A8D699B 
 198      11FC9851 
 198      ED
 199 0530 E63E6494 		.ascii	"\346>d\224\337\334\325\237\215\242\025\313 \275\262"
 199      DFDCD59F 
 199      8DA215CB 
 199      20BDB2
ARM GAS  /tmp/cctevvtP.s 			page 15


 200 053f 15127675 		.ascii	"\025\022vu\241&\206\260\353\276a\305\360\013\036\303"
 200      A12686B0 
 200      EBBE61C5 
 200      F00B1EC3 
 201 054f 0FFCC4B0 		.ascii	"\017\374\304\260]\017\366W\031\354|\325`\352\200\374"
 201      5D0FF657 
 201      19EC7CD5 
 201      60EA80FC 
 202 055f 6DB99A29 		.ascii	"m\271\232)I\343A\235te\206< %\011\225\247\031\301\271"
 202      49E3419D 
 202      7465863C 
 202      20250995 
 202      A719C1B9 
 203 0573 AA076454 		.ascii	"\252\007dT3 \356\3670\271\025\310\376\304+[eaW;uA\354"
 203      3320EEF7 
 203      30B915C8 
 203      FEC42B5B 
 203      6561573B 
 204 058a CFBFADD7 		.ascii	"\317\277\255\327\235s\240\256\257\244\333\333\014^\227"
 204      9D73A0AE 
 204      AFA4DBDB 
 204      0C5E97
 205 0599 55EB7E42 		.ascii	"U\353~B\243;\250\350~\302\325}\311\253[eaWWhtC\262\360"
 205      A33BA8E8 
 205      7EC2D57D 
 205      C9AB5B65 
 205      61575768 
 206 05b1 CE723677 		.ascii	"\316r6w\030S\202\337\340\037\267\246\002[\255\231<\260"
 206      185382DF 
 206      E01FB7A6 
 206      025BAD99 
 206      3CB0
 207 05c3 35FC5DDE 		.ascii	"5\374]\336\032>\3673\0237\226\3739Y\356\220\363\034"
 207      1A3EF733 
 207      133796FB 
 207      3959EE90 
 207      F31C
 208 05d5 823FE789 		.ascii	"\202?\347\211\310\177yr\371%\267W\271-r\333o0;\300\355"
 208      C87F7972 
 208      F925B757 
 208      B92D72DB 
 208      6F303BC0 
 209 05ea 066E7FC9 		.ascii	"\006n\177\311\355\303\334>\302\355fn\037\345v\013\267"
 209      EDC3DC3E 
 209      C2ED666E 
 209      1FE5760B 
 209      B7
 210 05fb DBB8DDC1 		.ascii	"\333\270\335\301\3550\267;\271\035\341v\027\267\277"
 210      ED30B73B 
 210      B91DE176 
 210      17B7BF
 211 060a E376B7A1 		.ascii	"\343v\267\241Og/WHg\367\032N\266\370}4JO\235*l\2700"
 211      4F672F57 
 211      4867F71A 
 211      4EB6F87D 
 211      344A4F9D 
 212 0622 843716E8 		.ascii	"\2047\026\350 \375\272X\304n\362\352|\330\313W\376\022"
ARM GAS  /tmp/cctevvtP.s 			page 16


 212      20FDBA58 
 212      C46EF2EA 
 212      7CD8CB57 
 212      FE12
 213 0634 C83ECB1B 		.ascii	"\310>\313\033\322W\300Y\345\333\022\274\317`\361\232"
 213      D257C059 
 213      E5DB12BC 
 213      CF60F19A 
 214 0644 90669755 		.ascii	"\220f\227U\0275\353\033\340\325\200\347\037\032n\360"
 214      1735EB1B 
 214      E0D580E7 
 214      1F1A6EF0 
 215 0654 2B77B59D 		.ascii	"+w\265\235~\344L\227\033\225\205\302\262q\326T\323\214"
 215      7EE44C97 
 215      1B9585C2 
 215      B271D654 
 215      D38C
 216 0666 E0FD552F 		.ascii	"\340\375U/\224\003\232\2052Ga}\300](\353\203\236\257"
 216      94039A85 
 216      3247617D 
 216      C05D28EB 
 216      839EAF
 217 0679 D05E1606 		.ascii	"\320^\026\006z$(R\352kX\345\366\346\346\220\365\227"
 217      7A242852 
 217      EA6B58E5 
 217      F6E6E690 
 217      F597
 218 068b EE0B7593 		.ascii	"\356\013u\223\236\320\352t&\333\027J\244{{\323\251P"
 218      9ED0EA74 
 218      26DB174A 
 218      A47B7BD3 
 218      A950
 219 069d 38D611E9 		.ascii	"8\326\021\351X\033J\375<\231hN\240x\250;\335k\206~\266"
 219      581B4AFD 
 219      3C99684E 
 219      A078A83B 
 219      DD6B867E 
 220 06b2 A6274952 		.ascii	"\246'IR\241\216\266\373\302\241>\263\327\354\313f\314"
 220      A18EB6FB 
 220      C2A13EB3 
 220      D7ECCB66 
 220      CC
 221 06c3 AEE4DA50 		.ascii	"\256\344\332P[\357Jser\025\340\220L\357\035\363[\346"
 221      5BEF4A73 
 221      657215E0 
 221      904CEF1D 
 221      F35BE6
 222 06d6 2D689E37 		.ascii	"-h\2367\217\327S\351\224y\207IV&C\311T\242g\315*3\324"
 222      8FD753E9 
 222      94798749 
 222      562643C9 
 222      54A267CD 
 223 06ed 975D954C 		.ascii	"\227]\225Le\233\273Q\335\0328/\230\337\225\235v\337"
 223      659BBB51 
 223      DD1A382F 
 223      98DF959D 
 223      76DF
ARM GAS  /tmp/cctevvtP.s 			page 17


 224 06ff FD4B9B22 		.ascii	"\375K\233\"h\006\363\325\226\"+{\314ef\"\233\316\340"
 224      6806F3D5 
 224      96222B7B 
 224      CC656622 
 224      9BCEE0
 225 0712 54707526 		.ascii	"Tpu&\231\236\311\356\267&\373\334\007s\330\235\270\231"
 225      999EC9EE 
 225      B726FBDC 
 225      0773D89D 
 225      B899
 226 0724 8DAFEBCB 		.ascii	"\215\257\353\313\232\275\355$\265\252\307\314tB\323"
 226      9ABDED24 
 226      B5AAC7CC 
 226      7442D3
 227 0733 4C32BBAE 		.ascii	"L2\273\256\266\333\272\346p\221\036\223d:\315\024\270"
 227      B6DBBAE6 
 227      70911E93 
 227      643ACD14 
 227      B8
 228 0744 FC692DF3 		.ascii	"\374i-\363wOW\266E\326m\2535\327fC\221\216x4\356\320"
 228      774F57B6 
 228      45D66DAB 
 228      35D76643 
 228      918E7834 
 229 075a 4CA4415A 		.ascii	"L\244AZ\242w\001\020\255\277\177Y4\322\265d\335j3\030"
 229      A2770110 
 229      ADBF7F59 
 229      34D2B564 
 229      DD6A3318 
 230 076e 8DB7C5EA 		.ascii	"\215\267\305\352cm`\227\265\265\266\004\243\221\266"
 230      636D6097 
 230      B5B5B604 
 230      A391B6
 231 077d 585DCCBA 		.ascii	"X]\314\272\232\007\017;\335\207\363\341\241t\271 \030"
 231      9A070F3B 
 231      DD87F3E1 
 231      A174B920 
 231      18
 232 078e 0D2F722F 		.ascii	"\015/r/\3574\242\235\316\305]\301\370\222h\254.\036"
 232      EF34A29D 
 232      CEC55DC1 
 232      F89268AC 
 232      2E1E
 233 07a0 59C49DD4 		.ascii	"Y\304\235\324D:\227F[\241{<\026\\\266\344\307\261\232"
 233      443A9746 
 233      5BA17B3C 
 233      165CB6E4 
 233      C7B19A
 234 07b3 70341689 		.ascii	"p4\026\211\005\342P\"\354\334\336Y\023og\017#\213\301"
 234      05E25022 
 234      ECDCDE59 
 234      136F670F 
 234      238BC1
 235 07c6 B433D30A 		.ascii	"\2643\323\012\246\246\243cq8"
 235      A6A6A363 
 235      7138
 236 07d0 165CC44C 		.ascii	"\026\\\304L\030\256\003\235\213c\201V(\341\326X\020"
ARM GAS  /tmp/cctevvtP.s 			page 18


 236      18AE039D 
 236      8B638156 
 236      28E1D658 
 236      10
 237 07e1 9EC5805F 		.ascii	"\236\305\200_8\006\340\341H,\230\350&\231\272\256\256"
 237      3806E0E1 
 237      482C98E8 
 237      2699BAAE 
 237      AE
 238 07f2 9FAC4925 		.ascii	"\237\254I%\272\272\276#*\315?\272\353\356\226\377\003"
 238      BABABE23 
 238      2ACD3FBA 
 238      EBEE96FF 
 238      03
 239 0803 A95D26D2 		.ascii	"\251]&\322"
 240              		.text
 241              		.section	.gnu.lto_.symtab.33665e3f51b8b7d5,"",%progbits
 242 0000 6E766963 		.ascii	"nvicEnableVector\000\000\000\000\000\000\000\000\000"
 242      456E6162 
 242      6C655665 
 242      63746F72 
 242      00000000 
 243 0019 000000A1 		.ascii	"\000\000\000\241\000\000\000nvicDisableVector\000\000"
 243      0000006E 
 243      76696344 
 243      69736162 
 243      6C655665 
 244 0033 00000000 		.ascii	"\000\000\000\000\000\000\000\000\000\000\257\000\000"
 244      00000000 
 244      0000AF00 
 244      00
 245 0040 006E7669 		.ascii	"\000nvicSetSystemHandlerPriority\000\000\000\000\000"
 245      63536574 
 245      53797374 
 245      656D4861 
 245      6E646C65 
 246 0062 00000000 		.ascii	"\000\000\000\000\000\000\000\265\000\000\000nvicCle"
 246      000000B5 
 246      0000006E 
 246      76696343 
 246      6C65
 247 0074 61725065 		.ascii	"arPending\000\000\000\000\000\000\000\000\000\000\000"
 247      6E64696E 
 247      67000000 
 247      00000000 
 247      00000000 
 248 0088 00BB0000 		.ascii	"\000\273\000\000\000"
 248      00
 249              		.text
 250              		.section	.gnu.lto_.opts,"",%progbits
 251 0000 272D6D63 		.ascii	"'-mcpu=cortex-m3' '-mno-thumb-interwork' '-mthumb' "
 251      70753D63 
 251      6F727465 
 251      782D6D33 
 251      2720272D 
 252 0033 272D6767 		.ascii	"'-ggdb' '-O2' '-fomit-frame-pointer' '-falign-funct"
 252      64622720 
ARM GAS  /tmp/cctevvtP.s 			page 19


 252      272D4F32 
 252      2720272D 
 252      666F6D69 
 253 0066 696F6E73 		.ascii	"ions=16' '-ffunction-sections' '-fdata-sections' '-"
 253      3D313627 
 253      20272D66 
 253      66756E63 
 253      74696F6E 
 254 0099 666E6F2D 		.ascii	"fno-common' '-flto'\000"
 254      636F6D6D 
 254      6F6E2720 
 254      272D666C 
 254      746F2700 
 255              		.text
 256              		.cfi_sections	.debug_frame
 257              		.section	.text.nvicEnableVector,"ax",%progbits
 258              		.align	2
 259              		.p2align 4,,15
 260              		.global	nvicEnableVector
 261              		.thumb
 262              		.thumb_func
 263              		.type	nvicEnableVector, %function
 264              	nvicEnableVector:
 265              	.LFB219:
 266              		.file 1 "../../../os/hal/ports/common/ARMCMx/nvic.c"
 267              		.loc 1 57 0
 268              		.cfi_startproc
 269              		@ args = 0, pretend = 0, frame = 0
 270              		@ frame_needed = 0, uses_anonymous_args = 0
 271              		@ link register save eliminated.
 272              	.LVL0:
 273              		.loc 1 65 0
 274 0000 00F01F03 		and	r3, r0, #31
 275 0004 0122     		movs	r2, #1
 276 0006 02FA03F3 		lsl	r3, r2, r3
 277 000a 4209     		lsrs	r2, r0, #5
 278 000c 9200     		lsls	r2, r2, #2
 279              		.loc 1 63 0
 280 000e 0901     		lsls	r1, r1, #4
 281              	.LVL1:
 282 0010 00F16040 		add	r0, r0, #-536870912
 283              	.LVL2:
 284 0014 02F16042 		add	r2, r2, #-536870912
 285 0018 02F56142 		add	r2, r2, #57600
 286 001c C9B2     		uxtb	r1, r1
 287 001e 00F56140 		add	r0, r0, #57600
 288              	.LVL3:
 289 0022 80F80013 		strb	r1, [r0, #768]
 290              		.loc 1 65 0
 291 0026 C2F88031 		str	r3, [r2, #384]
 292              		.loc 1 66 0
 293 002a 1360     		str	r3, [r2]
 294 002c 7047     		bx	lr
 295              		.cfi_endproc
 296              	.LFE219:
 297              		.size	nvicEnableVector, .-nvicEnableVector
 298 002e 00BF     		.section	.text.nvicDisableVector,"ax",%progbits
ARM GAS  /tmp/cctevvtP.s 			page 20


 299              		.align	2
 300              		.p2align 4,,15
 301              		.global	nvicDisableVector
 302              		.thumb
 303              		.thumb_func
 304              		.type	nvicDisableVector, %function
 305              	nvicDisableVector:
 306              	.LFB220:
 307              		.loc 1 74 0
 308              		.cfi_startproc
 309              		@ args = 0, pretend = 0, frame = 0
 310              		@ frame_needed = 0, uses_anonymous_args = 0
 311              		@ link register save eliminated.
 312              	.LVL4:
 313 0000 10B4     		push	{r4}
 314              		.cfi_def_cfa_offset 4
 315              		.cfi_offset 4, -4
 316              		.loc 1 76 0
 317 0002 00F01F03 		and	r3, r0, #31
 318 0006 0124     		movs	r4, #1
 319 0008 9C40     		lsls	r4, r4, r3
 320 000a 4FF46143 		mov	r3, #57600
 321 000e 4109     		lsrs	r1, r0, #5
 322 0010 CEF20003 		movt	r3, 57344
 323 0014 2031     		adds	r1, r1, #32
 324              		.loc 1 80 0
 325 0016 1844     		add	r0, r0, r3
 326              	.LVL5:
 327 0018 0022     		movs	r2, #0
 328              		.loc 1 76 0
 329 001a 43F82140 		str	r4, [r3, r1, lsl #2]
 330              		.loc 1 80 0
 331 001e 80F80023 		strb	r2, [r0, #768]
 332              		.loc 1 82 0
 333 0022 5DF8044B 		ldr	r4, [sp], #4
 334 0026 7047     		bx	lr
 335              		.cfi_endproc
 336              	.LFE220:
 337              		.size	nvicDisableVector, .-nvicDisableVector
 338 0028 AFF30080 		.section	.text.nvicSetSystemHandlerPriority,"ax",%progbits
 338      AFF30080 
 339              		.align	2
 340              		.p2align 4,,15
 341              		.global	nvicSetSystemHandlerPriority
 342              		.thumb
 343              		.thumb_func
 344              		.type	nvicSetSystemHandlerPriority, %function
 345              	nvicSetSystemHandlerPriority:
 346              	.LFB221:
 347              		.loc 1 90 0
 348              		.cfi_startproc
 349              		@ args = 0, pretend = 0, frame = 0
 350              		@ frame_needed = 0, uses_anonymous_args = 0
 351              		@ link register save eliminated.
 352              	.LVL6:
 353              		.loc 1 100 0
 354 0000 0901     		lsls	r1, r1, #4
ARM GAS  /tmp/cctevvtP.s 			page 21


 355              	.LVL7:
 356 0002 00F16040 		add	r0, r0, #-536870912
 357              	.LVL8:
 358 0006 C9B2     		uxtb	r1, r1
 359 0008 00F56D40 		add	r0, r0, #60672
 360              	.LVL9:
 361 000c 0176     		strb	r1, [r0, #24]
 362 000e 7047     		bx	lr
 363              		.cfi_endproc
 364              	.LFE221:
 365              		.size	nvicSetSystemHandlerPriority, .-nvicSetSystemHandlerPriority
 366              		.section	.text.nvicClearPending,"ax",%progbits
 367              		.align	2
 368              		.p2align 4,,15
 369              		.global	nvicClearPending
 370              		.thumb
 371              		.thumb_func
 372              		.type	nvicClearPending, %function
 373              	nvicClearPending:
 374              	.LFB222:
 375              		.loc 1 109 0
 376              		.cfi_startproc
 377              		@ args = 0, pretend = 0, frame = 0
 378              		@ frame_needed = 0, uses_anonymous_args = 0
 379              		@ link register save eliminated.
 380              	.LVL10:
 381              		.loc 1 111 0
 382 0000 00F01F03 		and	r3, r0, #31
 383 0004 0122     		movs	r2, #1
 384 0006 9A40     		lsls	r2, r2, r3
 385 0008 4009     		lsrs	r0, r0, #5
 386              	.LVL11:
 387 000a 4FF46143 		mov	r3, #57600
 388 000e 6030     		adds	r0, r0, #96
 389 0010 CEF20003 		movt	r3, 57344
 390 0014 43F82020 		str	r2, [r3, r0, lsl #2]
 391 0018 7047     		bx	lr
 392              		.cfi_endproc
 393              	.LFE222:
 394              		.size	nvicClearPending, .-nvicClearPending
 395 001a 00BFAFF3 		.text
 395      0080
 396              	.Letext0:
 397              		.file 2 "/home/julian/MEGA/semestre_ix/Embebidos/arm-2013.11/arm-none-eabi/include/stdint.h"
 398              		.file 3 "../../../os/common/ports/ARMCMx/compilers/GCC/chtypes.h"
 399              		.file 4 "../../../os/rt/include/chsystypes.h"
 400              		.file 5 "../../../os/rt/include/chschd.h"
 401              		.file 6 "../../../os/common/ext/CMSIS/include/core_cm3.h"
 402              		.file 7 "../../../os/common/ports/ARMCMx/chcore.h"
 403              		.file 8 "../../../os/common/ports/ARMCMx/chcore_v7m.h"
 404              		.file 9 "../../../os/rt/include/chsem.h"
 405              		.file 10 "../../../os/rt/include/chmtx.h"