ARM GAS  /tmp/ccF5nXKa.s 			page 1


   1              		.syntax unified
   2              		.cpu cortex-m3
   3              		.fpu softvfp
   4              		.eabi_attribute 20, 1
   5              		.eabi_attribute 21, 1
   6              		.eabi_attribute 23, 3
   7              		.eabi_attribute 24, 1
   8              		.eabi_attribute 25, 1
   9              		.eabi_attribute 26, 1
  10              		.eabi_attribute 30, 2
  11              		.eabi_attribute 34, 1
  12              		.eabi_attribute 18, 4
  13              		.thumb
  14              		.file	"SFR02main.c"
  15              		.text
  16              	.Ltext0:
  17              		.section	.gnu.lto_.jmpfuncs.ccf8af29b23512b6,"",%progbits
  18 0000 789C6362 		.ascii	"x\234cb`b\300\006\226020\210\003i \305\310\024\301\230"
  18      6062C006 
  18      96303230 
  18      88036920 
  18      C5C814C1 
  19 0015 C9C8F085 		.ascii	"\311\310\360\205\231\201\201\231\251\232\341WCG\203"
  19      99818199 
  19      A99AE157 
  19      434783
  20 0024 40262363 		.ascii	"@&#c.#X!Xd\006H\204I\216\201qn\303\014\207LFf\250!\214"
  20      2E235821 
  20      58640648 
  20      84498E81 
  20      716EC30C 
  21 003f 08E52CB9 		.ascii	"\010\345,\271\214`\365\254\230B`\343Y\013\240F\201\245"
  21      8C60F5AC 
  21      984260E3 
  21      590BA046 
  21      81A5
  22 0051 D8721999 		.ascii	"\330r\031\231\340R\354LP\006\303\377\377\314X\015\305"
  22      E052EC4C 
  22      5006C3FF 
  22      FFCC580D 
  22      C5
  23 0062 22C44EAC 		.ascii	"\"\304N\254=\314\010{\030\241\014\016\270\010\003a\233"
  23      3DCC087B 
  23      18A10C0E 
  23      B8080361 
  23      9B
  24 0073 C1D26E94 		.ascii	"\301\322n\224\271\201\005\323\257$\270\201A\3145G\241"
  24      B98105D3 
  24      AF24B881 
  24      41CC3547 
  24      A1
  25 0084 28B5B834 		.ascii	"(\265\2704\247$1%_!\265\330VA5\205\213\227\001\000\300"
  25      A7243125 
  25      5F21B5D8 
  25      56413585 
  25      8B970100 
  26 0099 125501   		.ascii	"\022U\001"
ARM GAS  /tmp/ccF5nXKa.s 			page 2


  27              		.text
  28              		.section	.gnu.lto_.inline.ccf8af29b23512b6,"",%progbits
  29 0000 789C6362 		.ascii	"x\234cb`b\300\006\012\2414#\003\203\311|FF\006&\276"
  29      6062C006 
  29      0AA13423 
  29      0383C97C 
  29      46460626 
  30 0015 0DB90C6C 		.ascii	"\015\271\014l\013\344\301\252\231\270A\022,\274\014"
  30      0BE4C1AA 
  30      99B84112 
  30      2CBC0C
  31 0024 0CCC0C0C 		.ascii	"\014\314\014\014\023\374 \\6~\006\006V\006\2044\204"
  31      13FC205C 
  31      367E0606 
  31      56068434 
  31      84
  32 0035 E4106460 		.ascii	"\344\020d``\207\232\205,\216K\226\001\000\307\326\004"
  32      60879A85 
  32      2C8E4B96 
  32      0100C7D6 
  32      04
  33 0046 FC       		.ascii	"\374"
  34              		.text
  35              		.section	.gnu.lto_.pureconst.ccf8af29b23512b6,"",%progbits
  36 0000 789C6362 		.ascii	"x\234cb`b`f\200\000F\006\011\000\000\203\000!"
  36      60626066 
  36      80004606 
  36      09000083 
  36      0021
  37              		.text
  38              		.section	.gnu.lto_Sfr02Start.ccf8af29b23512b6,"",%progbits
  39 0000 789CAD54 		.ascii	"x\234\255TKL\023a\020\236\331\205\272\"\320\002m\241"
  39      4B4C1361 
  39      109ED985 
  39      BA22D002 
  39      6DA1
  40 0012 10B5317A 		.ascii	"\020\2651zR\300\030.\036\214^\344\340I\021\023=\326"
  40      52C0182E 
  40      1E8C5EE4 
  40      E0491113 
  40      3DD6
  41 0024 05EB2614 		.ascii	"\005\353&\024I[\342\301\003\177\201\003\211\030\033"
  41      495BE2C1 
  41      037F8103 
  41      89181B
  42 0033 B8101A0D 		.ascii	"\270\020\032\015D\023/\032O&z\353\311\320DEcL<hlLL$"
  42      44132F1A 
  42      4F267AEB 
  42      C9D04445 
  42      634C3C68 
  43 004b 1535C603 		.ascii	"\0255\306\003>\302:\263\377n\351\203G\254n\322\3771"
  43      3EC23AB3 
  43      FF6EE983 
  43      47AC6ED2 
  43      FF31
  44 005d 33DF378F 		.ascii	"3\3377\217\177\246\012(P\372\005\350\367\321\005p\202"
  44      7FA60A28 
ARM GAS  /tmp/ccF5nXKa.s 			page 3


  44      50FA05E8 
  44      F7D10570 
  44      82
  45 006e 76540195 		.ascii	"vT\001\225\3443\200\204\246 \362\001\020F\024\0349\207"
  45      E4338084 
  45      A620F201 
  45      1046141C 
  45      3987
  46 0080 6C8A7B60 		.ascii	"l\212{`^\210d\366\303\324\265\0261\227H\212U\323D\003"
  46      5E8864F6 
  46      C3D4B516 
  46      3197488A 
  46      55D34403 
  47 0094 89742782 		.ascii	"\211t'\202\216p\226.\350\2616\245\304\321}%\2355\315"
  47      8E70962E 
  47      E8B136A5 
  47      C4D17D25 
  47      9D35CD
  48 00a7 C9CCD5D5 		.ascii	"\311\314\325\325\000\006\334`\240\352\241\245\252\201"
  48      0006DC60 
  48      A0EAA1A5 
  48      AA81
  49 00b5 97465AA0 		.ascii	"\227FZ\240\211e^>\371 \204\363\344\312\317:\202V\303"
  49      89655E3E 
  49      F92084F3 
  49      E4CACF3A 
  49      8256C3
  50 00c8 38390D4A 		.ascii	"89\015J\337\351\351\245\005\024S\"\361\3254\335\006"
  50      DFE9E9A5 
  50      05145322 
  50      F1D534DD 
  50      06
  51 00d9 562BB077 		.ascii	"V+\260w\315uP\272\256*v-\331v\303M\221M\246S\217381"
  51      CD7550BA 
  51      AE2A762D 
  51      D976C34D 
  51      914DA653 
  52 00f1 257E9BA6 		.ascii	"%~\233\246J\364.\005\366[\360b\373;X\022\275\264\350"
  52      4AF42E05 
  52      F65BF062 
  52      FB3B5812 
  52      BDB4E8
  53 0104 A5956B72 		.ascii	"\245\225kr\206\324\264\253\031\030\315f\272Bx\013\253"
  53      86D4B4AB 
  53      1918CD66 
  53      BA42780B 
  53      AB
  54 0115 09749B9C 		.ascii	"\011t\233\234\260\373ml\372\024F\037\276~\351\223\272"
  54      B0FB6D6C 
  54      FA14461F 
  54      BE7EE993 
  54      BA
  55 0126 76B82BE8 		.ascii	"v\270+\350;j\240\226\202\331\204\020\036\003\267_\201"
  55      3B6AA096 
  55      82D98410 
  55      1E03B75F 
  55      81
ARM GAS  /tmp/ccF5nXKa.s 			page 4


  56 0137 9F62824F 		.ascii	"\237b\202O5\021\213\234\2415\340\234\326R\340\233\346"
  56      35118B9C 
  56      A135E09C 
  56      D652E09B 
  56      E6
  57 0148 50AEFC0B 		.ascii	"P\256\374\013%\026Q\236\262)'\374E\214\2077d\304\255"
  57      2516519E 
  57      B22927FC 
  57      458C8737 
  57      64C4AD
  58 015b 82E49A2D 		.ascii	"\202\344\232-\302x\366m\217d\004\310\303w\350(\275\263"
  58      C278F66D 
  58      8F6404C8 
  58      C377E828 
  58      BDB3
  59 016d 4433B036 		.ascii	"D3\2606\202\212md`\035\303f\305\247\234\253\014W\257"
  59      828A6D64 
  59      601DC366 
  59      C5A79CAB 
  59      0C57AF
  60 0180 DB2F2125 		.ascii	"\333/!%\"\205EXv\353\036r\224\277Pf^\240\364(\326\326"
  60      22854558 
  60      76EB1E72 
  60      94BF5066 
  60      5EA0F428 
  61 0196 60DFE4D6 		.ascii	"`\337\344\326(\337\276\011\200\0360\335V\370~`\247\360"
  61      28DFBE09 
  61      801E30DD 
  61      56F87E60 
  61      A7F0
  62 01a8 6EDD14D4 		.ascii	"n\335\024\324\315S\030\317.ie0\257n\227\311\362\334"
  62      CD5318CF 
  62      2E696530 
  62      AF6E97C9 
  62      F2DC
  63 01ba 4DB63E69 		.ascii	"M\266>i\233\253\254JO\226\377O\225\260\260JXY\225\226"
  63      9BABAC4A 
  63      4F96FF4F 
  63      95B0B04A 
  63      58599596 
  64 01ce 2BABD297 		.ascii	"+\253\322\227\223\025d>#&\027\353\313p~\335\272\257"
  64      9315643E 
  64      232617EB 
  64      CB707EDD 
  64      BAAF
  65 01e0 872BCEFA 		.ascii	"\207+\316\372\225\314Z-\357\015;\317f\031\333\217uc"
  65      95CC5A2D 
  65      EF0D3BCF 
  65      6619DB8F 
  65      7563
  66 01f2 DB34251A 		.ascii	"\3334%\032\2427+\357\027l\3520\272\333\341\300\206C"
  66      A2372BEF 
  66      176CEA30 
  66      BADBE1C0 
  66      8643
  67 0204 A46E3244 		.ascii	"\244n2D\026\325\347\261o\3500y\210\214\205c\367\362"
  67      16D5E7B1 
ARM GAS  /tmp/ccF5nXKa.s 			page 5


  67      6FE83079 
  67      888C8563 
  67      F7F2
  68 0216 E40D24B5 		.ascii	"\344\015$\265P\2324\317\215\015:\252\3060\277 G\363"
  68      509A34CF 
  68      8D0D3AAA 
  68      C630BF20 
  68      47F3
  69 0228 BCD99135 		.ascii	"\274\331\2215\375e,X\022K\236\334\033\346N\240P\036"
  69      FD652C58 
  69      124B9EDC 
  69      1BE64EA0 
  69      501E
  70 023a E543F159 		.ascii	"\345C\361Y.\275\334\037\212\323\035\374G\033\346\016"
  70      2EBDDC1F 
  70      8AD31DFC 
  70      471BE60E 
  71 024a B7D00F6A 		.ascii	"\267\320\017j\035[\177X\266}y\357\266\350\350*\354\335"
  71      1D5B7F58 
  71      B67D79EF 
  71      B6E8E82A 
  71      ECDD
  72 025c CB060622 		.ascii	"\313\006\006\"Xe\333\261pF\210i\212\255u\027t\335\020"
  72      5865DBB1 
  72      70468869 
  72      8AAD7517 
  72      74DD10
  73 026f 33C70C6C 		.ascii	"3\307\014ls&\234x\015F\363\303]\327\267\030\275\357"
  73      73269C78 
  73      0D46F3C3 
  73      5DD7B718 
  73      BDEF
  74 0281 AA9CBD17 		.ascii	"\252\234\275\027\220\230K9}`\177\275\324}\364\207\316"
  74      90984B39 
  74      7D607FBD 
  74      D47DF487 
  74      CE
  75 0292 43D4DAD1 		.ascii	"C\324\332\3219\034\353\217\016\030\347;cQ\275\363tw"
  75      391CEB8F 
  75      0E18E73B 
  75      6351BDF3 
  75      7477
  76 02a4 CFC14391 		.ascii	"\317\301C\221\2201\330\241\203+\332\037\033\036\210"
  76      9031D8A1 
  76      832BDA1F 
  76      1B1E88
  77 02b3 BB62F150 		.ascii	"\273b\361P|8\246\351\027\207\242\306`\374\202\377\370"
  77      7C38A6E9 
  77      1787A2C6 
  77      60FC82FF 
  77      F8
  78 02c4 40506A42 		.ascii	"@PjB}\227\202\375\261#\301}}5u\360\007\255[\247\355"
  78      7D9782FD 
  78      B123C17D 
  78      7D3575F0 
  78      07AD5BA7 
  79              		.text
ARM GAS  /tmp/ccF5nXKa.s 			page 6


  80              		.section	.gnu.lto_.symbol_nodes.ccf8af29b23512b6,"",%progbits
  81 0000 789C45CC 		.ascii	"x\234E\314K\016\2020\024\205\341s\372@\224E\260\324"
  81      4B0E8230 
  81      1485E173 
  81      FA409445 
  81      B0D4
  82 0012 4B42228E 		.ascii	"KB\"\216\210+\320A\227\322\271\033P\243\200\217\230"
  82      882BD041 
  82      97D2B91B 
  82      50A3808F 
  82      98
  83 0023 B006232D 		.ascii	"\260\006#-\304v\362\345\277m\257\202\302\007\313Q7\012"
  83      C476F2E5 
  83      BF6DAF82 
  83      C207CB51 
  83      370A
  84 0035 B03F0122 		.ascii	"\260?\001\"\207\035\355\205\306\210\266W\352@GB`\317"
  84      871DED85 
  84      C688B657 
  84      EA404742 
  84      60CF
  85 0047 54A1DE9C 		.ascii	"T\241\336\234^\201\017\012\347\037UE\276(*\325@\321"
  85      5E810F0A 
  85      E71F5545 
  85      BE282AD5 
  85      40D1
  86 0059 A99E1493 		.ascii	"\251\236\024\223\352N\261\251zJ\366/\215\015\352\356"
  86      EA4EB1A9 
  86      7A4AF62F 
  86      8D0DEAEE 
  87 0069 3B59C045 		.ascii	";Y\300Es\014\321\014\365v,\303\275\213\026\360\321\034"
  87      730CD10C 
  87      F5762CC3 
  87      BD8B16F0 
  87      D11C
  88 007b 75B3CCA3 		.ascii	"u\263\314\243k\370f\236\017\321\025\\;\036MX\340\333"
  88      6BF8669E 
  88      0FD1155C 
  88      3B1E4D58 
  88      E0DB
  89 008d B1C40F4C 		.ascii	"\261\304\017L\373C\212"
  89      FB438A
  90              		.text
  91              		.section	.gnu.lto_.refs.ccf8af29b23512b6,"",%progbits
  92 0000 789C2D85 		.ascii	"x\234-\205\011\021\0000\010\200\020]\201\225\260\177"
  92      09110030 
  92      0880105D 
  92      8195B07F 
  93 0010 C3BD7007 		.ascii	"\303\275p\007\"\315c\022\007\315m\334\246\376\227IQ"
  93      22CD6312 
  93      07CD6DDC 
  93      A6FE9749 
  93      51
  94 0021 0E161059 		.ascii	"\016\026\020Y\000\216"
  94      008E
  95              		.text
  96              		.section	.gnu.lto_.decls.ccf8af29b23512b6,"",%progbits
ARM GAS  /tmp/ccF5nXKa.s 			page 7


  97 0000 789CB55C 		.ascii	"x\234\265\\\013p\024U\272\356\307<2$\204\200\217u\367"
  97      0B701455 
  97      BAEEC73C 
  97      32248480 
  97      8F75F7
  98 0013 7ACBAC77 		.ascii	"z\313\254w\275\345jIH\364\272X\345\2121A\315\256\210"
  98      BDE56A49 
  98      48F4BA58 
  98      E58A3141 
  98      CDAE88
  99 0026 950996D6 		.ascii	"\225\011\226\326\255[c3i\310\350d&\364t \334\332*\233"
  99      AD5B6333 
  99      69C8E864 
  99      26F47420 
  99      DCDA2A9B 
 100 003a 80110242 		.ascii	"\200\021\002BB@\202`x\310K@\014 `\000a\340\256$\006"
 100      42408260 
 100      78C84B40 
 100      0C206000 
 100      61E0AE24 
 101 004f 05F28060 		.ascii	"\005\362\200`\242\030D\024\324{\327\310C\036!\271\347"
 101      A2184414 
 101      D47BD7C8 
 101      431E21B9 
 101      E7
 102 0060 FCDD3DD3 		.ascii	"\374\335=\323\335\323=\323=\270S\351\177\316\234\351"
 102      DDD33DD3 
 102      3DB853E9 
 102      7FCE9CE9 
 103 0070 F39DFF75 		.ascii	"\363\235\377u\376s\376szB\021\0241\232$\210A\364\342"
 103      FE73FE73 
 103      7A421114 
 103      319A2488 
 103      41F4E2
 104 0083 5E2088BD 		.ascii	"^ \210\275.\002\325\020\304c\350BE\202F\327*t\015A\225"
 104      2E02D510 
 104      C463E842 
 104      458246D7 
 104      2A740D41 
 105 0098 A9E81A8A 		.ascii	"\251\350\032\212\256\"t\255A\327VT\177\220\020_Nt\255"
 105      AE2274AD 
 105      41D75654 
 105      7F90105F 
 105      4E74AD
 106 00ab 47759BD0 		.ascii	"Gu\233\320\365>\272\266\241k'\272\366\241+\214.;\372"
 106      F53EBAB6 
 106      A16B27BA 
 106      F6A12B8C 
 106      2E3BFA
 107 00be BE15BD7F 		.ascii	"\276\025\275\177\212\256#\350:\206\256v\212P\275p\373"
 107      8AAE23E8 
 107      3A86AE76 
 107      8A50BD70 
 107      FB
 108 00cf 3B09B1FF 		.ascii	";\011\261\377tt\245\241\013\261F\330\320\325\202\256"
 108      7474A5A1 
 108      0BB146D8 
ARM GAS  /tmp/ccF5nXKa.s 			page 8


 108      D0D582AE 
 109 00df 46F48503 		.ascii	"F\364\205\003\2757\241k\255\304C\247\304\323vt\035\227"
 109      BD37A16B 
 109      ADC443A7 
 109      C4D37674 
 109      1D97
 110 00f1 7893F9C2 		.ascii	"x\223\371\302\274\037@\237O\240k3\272\272\320\265\013"
 110      BC1F409F 
 110      4FA06B33 
 110      BABAD0B5 
 110      0B
 111 0102 5D2729B5 		.ascii	"]')\265LJ\376e~\267I\262\354\224\344\301\374\267K|\313"
 111      4C4AFE65 
 111      7EB749B2 
 111      EC94E4C1 
 111      FCB74B7C 
 112 0117 32B46AF8 		.ascii	"2\264j\370O%\252\005\241RXY%<\335\222>\202\250\025\320"
 112      4F25AA05 
 112      A1525859 
 112      253CDD92 
 112      3E82A815 
 113 012c 2BB30549 		.ascii	"+\263\005I\362\002\311\220\351.\242\327\011\2454\027"
 113      F202C990 
 113      E92EA2D7 
 113      09A53417 
 114 013c F13774F7 		.ascii	"\3617t\367=\304\032A\250\351]\373\3639Z\020R\030r59"
 114      3DC41A41 
 114      A8E95DFB 
 114      F3395A10 
 114      52187235 
 115 0151 02497E2F 		.ascii	"\002I~/I\334G\274\213\032\326\010\302\352\177!b_\011"
 115      49DC47BC 
 115      8B1AD608 
 115      C2EA7F21 
 115      625F09
 116 0164 7119720D 		.ascii	"q\031r\015I!\272\016\3411\344Z\362>\261'!\374\313\353"
 116      4921BA0E 
 116      E131E45A 
 116      F23EB127 
 116      21FCCBEB 
 117 0178 69824DAC 		.ascii	"i\202M\254'\244ot^\277'V\"!\302\327\233\327\374VXy\220"
 117      27A46F74 
 117      5EBF2756 
 117      2221C2D7 
 117      9BD7FC56 
 118 018f D49309DD 		.ascii	"\324\223\011\335@*\272\027(\271\373L0\336\243\244\036"
 118      402ABA17 
 118      28B9FB4C 
 118      30DEA3A4 
 118      1E
 119 01a0 93EABB18 		.ascii	"\223\352\273\030r\0230\271Y\313d\233\310\344fSLv4\177"
 119      721330B9 
 119      59CB649B 
 119      C8E46653 
 119      4C76347F 
 120 01b4 420A0BD3 		.ascii	"B\012\013\323T<\336N,\006\036\253\020\223\274\213\230"
 120      543CDE4E 
ARM GAS  /tmp/ccF5nXKa.s 			page 9


 120      2C061EAB 
 120      1093BC8B 
 120      98
 121 01c5 1DFD26C2 		.ascii	"\035\375&\302J\246\314\211-j\206\246\252\023\027\310"
 121      4AA6CC89 
 121      2D6A86A6 
 121      AA1317C8 
 122 01d5 4AD48621 		.ascii	"J\324\206!\267\222.$\305\026\222T\365\317\220v\227\222"
 122      B7922E24 
 122      C5169254 
 122      F5CF9076 
 122      9792
 123 01e7 05F82CDF 		.ascii	"\005\370,\337\200\361\340k\251\200G\3230\375\376p\313"
 123      80F1E06B 
 123      A98047D3 
 123      30FDFE70 
 123      CB
 124 01f8 46F27628 		.ascii	"F\362v(\321\340\352\250bL\252\\V\311\"\261\337\2736"
 124      D1E0EAA8 
 124      624CAA5C 
 124      56C922B1 
 124      DFBB36
 125 020b 7C477D94 		.ascii	"|G}\224\375\024\031\216\214\262\337=\367\001\301\026"
 125      FD14198E 
 125      8CB2DF3D 
 125      F701C116 
 126 021b B95D30BC 		.ascii	"\271]0\274\235!?$\357A\224T\363N\272\242\205A\022\033"
 126      9D213F24 
 126      EF419454 
 126      F34EBAA2 
 126      8541121B 
 127 022f 710EA515 		.ascii	"q\016\245\025\237\324\210\237\000\302H\366\235\310\245"
 127      9FD4889F 
 127      00C248F6 
 127      9DC8A5
 128 023e A2AF8806 		.ascii	"\242\257\210\006\266\212\360\0149\201\216|i\004\361"
 128      B68AF00C 
 128      39818E7C 
 128      6904F1
 129 024d 7E148222 		.ascii	"~\024\202\"j\201Q\354/z\267KE\025\236\312\207z\327^"
 129      6A8151EC 
 129      2F7AB74B 
 129      45159ECA 
 129      877AD75E 
 130 0261 AB8F7574 		.ascii	"\253\217ut\225\023\211\314\0311\263\337\244-\031\262"
 130      951389CC 
 130      1931B3DF 
 130      A42D19B2 
 131 0271 290ECAC1 		.ascii	")\016\312\301\233\327\312>\245V\226X\326J\246R+\302"
 131      9BD7CA3E 
 131      A5569658 
 131      D64AA652 
 131      2BC2
 132 0283 36417039 		.ascii	"6Ap9\022\214+\301\314\270\272\332\376\3676r&\214\253"
 132      128C2BC1 
 132      CCB8BADA 
 132      FEF73672 
ARM GAS  /tmp/ccF5nXKa.s 			page 10


 132      268CAB
 133 0296 161857C7 		.ascii	"\026\030W\3075\216e\036\252\347\360\3216i\210\036\006"
 133      358E651E 
 133      AAE7F0D1 
 133      3669881E 
 133      06
 134 02a7 A89E181F 		.ascii	"\250\236\030\037uh|\324\241\366Q\364\021\367u\005\017"
 134      75687CD4 
 134      A1F651F4 
 134      11F77505 
 134      0F
 135 02b8 4FF255A9 		.ascii	"O\362U\251\006\177p\022I\26732G\263\261_\210\256`\326"
 135      067F7012 
 135      49B73332 
 135      47B3B15F 
 135      88AE60D6 
 136 02cc AE879476 		.ascii	"\256\207\224v=c\306\256)7\347\355-q\374\264CG*SR\264"
 136      3D63C6AE 
 136      2937E7ED 
 136      2D71FCB4 
 136      43472A53 
 137 02e2 2BA5F8CE 		.ascii	"+\245\370\316\262\024\226\2743\276\010'M\030F\372,\005"
 137      B21496BC 
 137      33BE0827 
 137      4D1846FA 
 137      2C05
 138 02f4 54A14AB8 		.ascii	"T\241J\270wC\32473dD*\352\233\273\272v\336\007\263\370"
 138      7743D437 
 138      3364442A 
 138      EA9BBBBA 
 138      76DE07B3 
 139 0309 17E09935 		.ascii	"\027\340\2315\264\216\223\233\002\352\231\273k4\000"
 139      B48E939B 
 139      02EA99BB 
 139      6B3400
 140 0318 7D05406F 		.ascii	"}\005@o\321Z\027\2475.N\253]\225vE\013\203\2034a\371"
 140      D15A17A7 
 140      352E4EAB 
 140      5D957645 
 140      0B838334 
 141 032e 6653D6EC 		.ascii	"fS\326\354RZ\363\035\332\20453\376y>y6\236A\277\260"
 141      525AF31D 
 141      DA843533 
 141      FE793E79 
 141      369E41BF 
 142 0343 30D2BE51 		.ascii	"0\322\276QJ\265\301\262T\026}4\336\244\362C<\221\244"
 142      4AB5C1B2 
 142      54167D34 
 142      DEA4F243 
 142      3C91A4
 143 0356 19543B49 		.ascii	"\031T;I$%\362\367J\221\3373#\362\035\206\206\2749\221"
 143      2425F2F7 
 143      4A91DF33 
 143      23F21D86 
 143      86BC3991 
 144 036a 2FC413F9 		.ascii	"/\304\023\371\340\257(\362\317J\221?\260,r&\241~\311"
 144      E0AF28F2 
ARM GAS  /tmp/ccF5nXKa.s 			page 11


 144      CF4A913F 
 144      B02C7226 
 144      A17EC9
 145 037d E38921B7 		.ascii	"\343\211!\267\220\277G\364#\240\037\003m\003z\002\350"
 145      90BF47F4 
 145      23A01F03 
 145      6D037A02 
 145      E8
 146 038e 19A0E781 		.ascii	"\031\240\347\201\366!\232\220\317w\225|\356\006>\327"
 146      F6219A90 
 146      CF77957C 
 146      EE063ED7 
 147 039e 25B9CA11 		.ascii	"%\271\312\021\302\375\315i5\214\274|w$\230h\373\227"
 147      C2FDCD69 
 147      358CBC7C 
 147      77249868 
 147      FB97
 148 03b0 1D252106 		.ascii	"\035%!\006]\207\224\344\264&\006%\204\241\210\237\240"
 148      5D8794E4 
 148      B4260625 
 148      84A1889F 
 148      A0
 149 03c1 C9807671 		.ascii	"\311\200vq\277\243\352V\274\270\0370\265\270\337U\365"
 149      BFA3EA56 
 149      BCB81F30 
 149      B5B8DF55 
 149      F5
 150 03d2 B66106A2 		.ascii	"\266a\006\242L,V\222r\337\267FD\010\177~\203\314d\310"
 150      4C2C5692 
 150      72DFB746 
 150      44087F7E 
 150      83CC64C8 
 151 03e6 9914E6FF 		.ascii	"\231\024\346\377\206>\377\306\030\0241\337\206\233T"
 151      863EFFC6 
 151      181431DF 
 151      869B54
 152 03f5 511AFE2F 		.ascii	"Q\032\376/0\231bmb\356/\235\207\324\204!+\251T\004\370"
 152      3099626D 
 152      62EE2F9D 
 152      87D48421 
 152      2BA95404 
 153 040a 760430A9 		.ascii	"v\0040\251Uj\370\032\3332*\241\"l2P~\324\226;\273\306"
 153      556AF81A 
 153      DB322AA1 
 153      226C3250 
 153      7ED4963B 
 154 0420 6095BF01 		.ascii	"`\225\277\001\232XmK\254\011\025\010El\202&5\032M\364"
 154      9A586D4B 
 154      AC091508 
 154      456C8226 
 154      351A4DF4 
 155 0434 F69C3976 		.ascii	"\366\2349v\177\275 d\210_%R\007\312=[\227\223\330\230"
 155      7FBD2064 
 155      885F2552 
 155      07CA3D5B 
 155      9793D898 
 156 0448 3A3D3EAE 		.ascii	":=>\256\234\360\345\351tIg-9\013\226z\213\200\363\023"
ARM GAS  /tmp/ccF5nXKa.s 			page 12


 156      9CF0E5E9 
 156      7449672D 
 156      390B967A 
 156      8B80F313 
 157 045c FA9CAF7C 		.ascii	"\372\234\257|\334\010\210\"\276\205&Kb9\277\362G\221"
 157      DC088822 
 157      BE85264B 
 157      6239BFF2 
 157      4791
 158 046e F325A60C 		.ascii	"\363%\246\014\331V-\272!C\316\243\360Z\247\232\242$"
 158      D9562DBA 
 158      2143CEA3 
 158      F05AA79A 
 158      A224
 159 0480 D8E42CD9 		.ascii	"\330\344,\331\336\212F\242\010F\021\277Dx\264\270L\327"
 159      DE8A46A2 
 159      084611BF 
 159      4478B4B8 
 159      4CD7
 160 0492 7B298565 		.ascii	"{)\205e\310\245\024\316\363\336\242p\274YF)\342\015"
 160      C8A514CE 
 160      F3DEA270 
 160      BC594629 
 160      E20D
 161 04a4 45F4476C 		.ascii	"E\364Gl\252\247\271\304\"\\m]\016*1\237]_]\030\311\002"
 161      AAA7B9C4 
 161      225C6D5D 
 161      0E2A319F 
 161      5D5F5D18 
 162 04ba 5650785D 		.ascii	"VPx]Si\327] \231\311\002\346v\366IY\300j\200\252\266"
 162      5369D75D 
 162      2099C902 
 162      E676F649 
 162      59C06A80 
 163 04d0 6B97484E 		.ascii	"k\227HN\315\022\311\251^\3658]\321\202\224\250[\274"
 163      CD12C9A9 
 163      5EF5385D 
 163      D18294A8 
 163      5BBC
 164 04e2 9D22EAEC 		.ascii	"\235\"\352\354\032\025ZZ\207c/<w\177\023\232/\3478L"
 164      1A155A5A 
 164      87632F3C 
 164      777F139A 
 164      2FE7384C 
 165 04f6 44D37AE8 		.ascii	"D\323z\350l\275\326\223\227\375\320\"y\362zS\236\274"
 165      6CBDD693 
 165      97FDD022 
 165      79F27A53 
 165      9EBC
 166 0508 A37589B9 		.ascii	"\243u\211\271\200\032\331\251\371\003t\177\024\272\337"
 166      801AD9A9 
 166      F903747F 
 166      14BADF
 167 0517 ACEDFE97 		.ascii	"\254\355\376\227\377k\371O\261\373\315\246\272o\352"
 167      FF6BF94F 
 167      B1FBCDA6 
 167      BA6FEA
ARM GAS  /tmp/ccF5nXKa.s 			page 13


 168 0526 5A14DB3D 		.ascii	"Z\024\333=C>v[<k/\373\341\334\235+\240\223F\0300s\034"
 168      433E765B 
 168      3C6B2FFB 
 168      E1DC9D2B 
 168      A0934618 
 169 053d 5A638F51 		.ascii	"Zc\217Q&\316rB\022\271\201\"\026:d\356\223\032\257H"
 169      26CE7242 
 169      12B98122 
 169      163A64EE 
 169      931AAF48 
 170 0551 CC73FFF5 		.ascii	"\314s\377\365.XJ\346a\261e\304L\225\"\366vA\004\020"
 170      2E584AE6 
 170      61B165C4 
 170      4C9522F6 
 170      76410410 
 171 0565 C1EACD80 		.ascii	"\301\352\315\200\031't\341}J\260e\226\301\324\234\035"
 171      192774E1 
 171      7D4AB065 
 171      96C1D49C 
 171      1D
 172 0576 53823598 		.ascii	"S\2025\230\0013^\326\207\333\225`\253,\203\2519\353"
 172      01335ED6 
 172      87DB9560 
 172      AB2C83A9 
 172      39EB
 173 0588 5482AD31 		.ascii	"T\202\2551\003f\274N\015\237P\202m\260\014\246\346\354"
 173      0366BC4E 
 173      0D9F5082 
 173      6DB00CA6 
 173      E6EC
 174 059a A4126CB3 		.ascii	"\244\022l\263\031\260L\035\316\"/\243\325\340&J\261"
 174      19B04C1D 
 174      CE222FA3 
 174      D5E0264A 
 174      B1
 175 05ab 1A7CDF21 		.ascii	"\032|\337!\007\004\213>MD1\2669\254F0\225\334x\036\275"
 175      07048B3E 
 175      4D4431B6 
 175      39AC4630 
 175      95DC781E 
 176 05c0 7FB7342E 		.ascii	"\177\2674.\304\311l\247\031\3048\016SsX13\356\265\014"
 176      C4C96CA7 
 176      19C4380E 
 176      53735831 
 176      33EEB50C 
 177 05d4 A6364B03 		.ascii	"\2466K\003\006Kj3\025\357\274S\212\255\324;\364\357"
 177      064B6A33 
 177      15EFBC53 
 177      8AADD43B 
 177      F4EF
 178 05e6 65C8CF60 		.ascii	"e\310\317`\206=B\271\"\\\210e\271$n\244\036t\2201\332"
 178      863D42B9 
 178      225C8865 
 178      B9246EA4 
 178      1E749031 
 179 05fb 976C1ABF 		.ascii	"\227l\032\277\251\221'\034VzB\263\0315\305\031\012\307"
 179      A991271C 
ARM GAS  /tmp/ccF5nXKa.s 			page 14


 179      567A42B3 
 179      1935C519 
 179      0AC7
 180 060d 8CD414AE 		.ascii	"\214\324\024\256\022f\2233\266\336\031w\231\206\242"
 180      12669333 
 180      B6DE1977 
 180      9986A2
 181 061c F3BF6E84 		.ascii	"\363\277n\204\350\334\001S\361\247\016\335Y\335\024"
 181      E8DC0153 
 181      F1A70EDD 
 181      59DD14
 182 062b 56CFDCFE 		.ascii	"V\317\334\376\003\322\022\341\004\200u\305\204z\227"
 182      03D212E1 
 182      048075C5 
 182      847A97
 183 063a 665E77A9 		.ascii	"f^w\251'j\227+Z\030\224_j\345\233nc\244\374v\245\362"
 183      276A972B 
 183      5A18945F 
 183      6AE59B6E 
 183      63A4FC76 
 184 0650 7B2D2B5F 		.ascii	"{-+_;\204\316\215l\332\"\0103\035&v\356#\373\251\373"
 184      3B84CE8D 
 184      6CDA2208 
 184      331D2676 
 184      EE23FBA9 
 185 0665 FE0CB959 		.ascii	"\376\014\271Y\017(\351\273\030%5Y\334\247G\311\232V"
 185      0F28E9BB 
 185      18253559 
 185      DCA747C9 
 185      9A56
 186 0677 0C55BF71 		.ascii	"\014U\277q\202VD\214\226,\313b,\224\304\350\0051.\377"
 186      8256448C 
 186      962CCB62 
 186      2C94C4E8 
 186      05312EFF 
 187 068b 0A620C58 		.ascii	"\012b\014X\026#E#\306OI\210\261_\024\343,\2101\313y"
 187      16234523 
 187      C64F4988 
 187      B15F14E3 
 187      2C8831CB 
 188 06a0 F362CC73 		.ascii	"\363b\314sZ\025#C!\006\3447\005\342\312\362\026ba\374"
 188      5A152343 
 188      2106E437 
 188      05E2CAF2 
 188      166261FC 
 189 06b4 95256C00 		.ascii	"\225%l\000Q\267\250s\334\343Gp\346\214\253\023gu\027"
 189      51B7A873 
 189      DCE34770 
 189      E68CAB13 
 189      677517
 190 06c7 8E2C9772 		.ascii	"\216,\227r#qo\277\026x\307m\223Yk\011\341\232\2430\003"
 190      23716FBF 
 190      1678C76D 
 190      93596B09 
 190      E19AA330 
 191 06dc 8860F537 		.ascii	"\210`\3657\005V\031^\261@N\334\306\300\012\344&\341"
 191      0556195E 
ARM GAS  /tmp/ccF5nXKa.s 			page 15


 191      B1404EDC 
 191      C6C00AE4 
 191      26E1
 192 06ee F61ED546 		.ascii	"\366\036\325FJ\315B\366\015\2038\020Ii\017\035\220\362"
 192      4ACD42F6 
 192      0D833810 
 192      49690F1D 
 192      90F2
 193 0700 968BE2C2 		.ascii	"\226\213\342\302#\306Y\346Q\232\265\254\230qFn1\262"
 193      23C659E6 
 193      519AB5AC 
 193      9871466E 
 193      31B2
 194 0712 E1056550 		.ascii	"\341\005eP\332ss6@\376s\362\261&i^\027\015q\340&5wu"
 194      DA737336 
 194      40FE73F2 
 194      B126695E 
 194      170D71E0 
 195 072a 81B98D9C 		.ascii	"\201\271\215\234\227d\2544\020\344\023\350\266_\233"
 195      9764AC34 
 195      10E413E8 
 195      B65F9B
 196 0739 767C39D0 		.ascii	"v|9\320[%\351\261\337\324\326C\317Y\027l\304,\002\244"
 196      5B25E9B1 
 196      DFD4D643 
 196      CF59176C 
 196      C42C02A4 
 197 074d B7217DEF 		.ascii	"\267!}\357O2\367\025\302\247\330\226QVN\277\016\311"
 197      4F32F715 
 197      C2A7D896 
 197      51564EBF 
 197      0EC9
 198 075f 79EF0C1A 		.ascii	"y\357\014\032\002]\214\321\017k#\204\205\263'\224\312"
 198      025D8CD1 
 198      0F6B2384 
 198      85B32794 
 198      CA
 199 0770 47946476 		.ascii	"G\224dv\025\247}\0319\325u\245S\011)7\345\002x\246{"
 199      15A77D19 
 199      39D575A5 
 199      53092937 
 199      E50278A6 
 200 0785 5A5C2C26 		.ascii	"Z\\,&r\002!\262\023\227\001=\277\016=\317\2465^\320"
 200      720221B2 
 200      1397013D 
 200      BF0E3DCF 
 200      A6355ED0 
 201 0799 B6FA93D7 		.ascii	"\266\372\223\327\311\031\240X\374]b/\270\244\343\005"
 201      C919A058 
 201      FC5D622F 
 201      B8A4E305 
 202 07a9 B865325E 		.ascii	"\270e2^\200\\Z\336\335\023\027\253\215\021&-ZA\202\353"
 202      805C5ADE 
 202      DD1317AB 
 202      8D11262D 
 202      5A4182EB 
 203 07bd 37B1BBA7 		.ascii	"7\261\273\247V\214\274\315y\026\007\353\032\032o\221"
ARM GAS  /tmp/ccF5nXKa.s 			page 16


 203      568CBCCD 
 203      791607EB 
 203      1A1A6F91 
 204 07cd ED4CD1   		.ascii	"\355L\321"
 205 07d0 BA96A819 		.ascii	"\272\226\250\031\205kE\325\310\220\3254^\275\316\245"
 205      856B45D5 
 205      C890D534 
 205      5EBDCEA5 
 206 07e0 F1FED03C 		.ascii	"\361\376\320<\240\363i\023\273\322\013\350\324(^\265"
 206      A0F36913 
 206      BBD20BE8 
 206      D4285EB5 
 207 07f0 568D6673 		.ascii	"V\215fs\210\204\335\274N+\274o\337Mz_\367\231s\005K"
 207      8884DDBC 
 207      4E2BBC6F 
 207      DF4D7A5F 
 207      F7997305 
 208 0805 85F02CDA 		.ascii	"\205\360,\332\302\206U\373\307\362\300]\014\003\367"
 208      C28655FB 
 208      C7F2C05D 
 208      0C03F7
 209 0814 E318EDAE 		.ascii	"\343\030\355\256\246,o3QD[\262\242D^\024q2\305\304\262"
 209      A62C6F33 
 209      51445BB2 
 209      A2445E14 
 209      7132C5C4 
 210 0829 335347EB 		.ascii	"3SG\353\221\010\337\373\027\223{O\221\323\315OgH\333"
 210      9108DFFB 
 210      17937B4F 
 210      91D3CD4F 
 210      6748DB
 211 083c B1CBC0D7 		.ascii	"\261\313\300\327\2725\3320\261\211u\036\2324h\007r\317"
 211      BA35DA30 
 211      B189751E 
 211      9A346807 
 211      72CF
 212 084e 99B0B489 		.ascii	"\231\260\264\211\325`b\034W\206\267\353n\3076\304w\301"
 212      D560621C 
 212      5786B7EB 
 212      6EC736C4 
 212      77C1
 213 0860 B80A55D9 		.ascii	"\270\012U\331\260A1BV\302\010Y\245\034\025\024q\325"
 213      B0413142 
 213      56C20859 
 213      A51C1514 
 213      71D5
 214 0872 8CF2EF35 		.ascii	"\214\362\3575\362E\024\207\332\305\215pyc{\206\313\304"
 214      F2451487 
 214      DAC58D70 
 214      79637B86 
 214      CBC4
 215 0884 5EAC0A4F 		.ascii	"^\254\012OiL\2244w\300\222It\322j-\230\036s\243\214"
 215      694C9434 
 215      77C09249 
 215      74D26A2D 
 215      981E73A3 
 216 0899 C156D4C9 		.ascii	"\301V\324\311\312\305\343\217\"\352\314\340\2156\022"
ARM GAS  /tmp/ccF5nXKa.s 			page 17


 216      CAC5E38F 
 216      22EACCE0 
 216      8D3612
 217 08a8 B632BCAB 		.ascii	"\2662\274\253C^\037\212\273\276\313,\343\251\371;^\247"
 217      435E1F8A 
 217      BBBECB2C 
 217      E3A9F93B 
 217      5EA7
 218 08ba 5AD2AD31 		.ascii	"Z\322\2551\003\367\270i\333G\0179\030r!\344\366u\260"
 218      03F7B869 
 218      DB470F39 
 218      187221E4 
 218      F675B0
 219 08cd 7BDE0074 		.ascii	"{\336\000t\035\320C@[\200\266\002m\003\332\015\364+"
 219      1DD04340 
 219      5B80B602 
 219      6D03DA0D 
 219      F42B
 220 08df A0DF003D 		.ascii	"\240\337\000=\017\364-\210\254\357\000]\013t=\320w\201"
 220      0FF42D88 
 220      ACEF005D 
 220      0B743DD0 
 220      7781
 221 08f1 6E321371 		.ascii	"n2\023q5\213@\212\330\350\262z\226\244\322b\357\215"
 221      358B408A 
 221      D8E8B27A 
 221      96A4D262 
 221      EF8D
 222 0903 9EFD8F40 		.ascii	"\236\375\217@8\224\335f\273\031\3008\323\327\302C\310"
 222      3894DD66 
 222      BB19C038 
 222      D3D7C243 
 222      C8
 223 0914 07AD1C06 		.ascii	"\007\255\034\006D\026E[\241\377\335\256_!\2662\344\031"
 223      4416455B 
 223      A1FFDDAE 
 223      5F21B632 
 223      E419
 224 0926 080556C4 		.ascii	"\010\005V\304\320\352\345\343Z\262n\246\3202Jf\254\331"
 224      D0EAE5E3 
 224      5AB26EA6 
 224      D0324A66 
 224      ACD9
 225 0938 8C62F476 		.ascii	"\214b\364v\264\364\035\254J\341`\263\301\301\346\200"
 225      B4F41DAC 
 225      4AE160B3 
 225      C1C1E680 
 226 0948 93CC05BA 		.ascii	"\223\314\005\272\005\\\242\021\350\007f\034\243\222"
 226      055CA211 
 226      E807661C 
 226      A392
 227 0956 8A998A07 		.ascii	"\212\231\212\007\254\037\020\353\263\032=\272eH\001"
 227      AC1F10EB 
 227      B31A3DBA 
 227      654801
 228 0965 589DA13E 		.ascii	"X\235\241>C:\342\262z \255V\366\307\203\365\277\021"
 228      433AE2B2 
ARM GAS  /tmp/ccF5nXKa.s 			page 18


 228      7A20AD56 
 228      F6C783F5 
 228      BF11
 229 0977 7AC3A493 		.ascii	"z\303\244\223\250\202\\\373\265\312\004\271v\370\212"
 229      A8825CFB 
 229      B5CA04B9 
 229      76F88A
 230 0986 8362C80F 		.ascii	"\203b\310\017i'\352\274S\3430&@\260P{PcU\256\333W5\014"
 230      6927EABC 
 230      53E33026 
 230      40B0507B 
 230      506355AE 
 231 099e 1F8EE2FA 		.ascii	"\037\216\342\37283\017<e@\021\247\\\342\012\314\346"
 231      38330F3C 
 231      654011A7 
 231      5CE20ACC 
 231      E6
 232 09af 8AD69D8B 		.ascii	"\212\326\235\213\326\221\212[\177\212V\313\217\010\343"
 232      D6918A5B 
 232      7F8A56CB 
 232      8F08E3
 233 09be 8FDA645F 		.ascii	"\217\332d_\245\361(s\014\271\027f\236\217hZ\267\031"
 233      A5F12873 
 233      0CB91766 
 233      9E8F685A 
 233      B719
 234 09d0 439EA228 		.ascii	"C\236\242(\265\362\365\366\010\214O\237\3027\232\361"
 234      B5F2F5F6 
 234      088C4F9F 
 234      C2379AF1 
 235 09e0 6238E1D1 		.ascii	"b8\341\321\2174^/\274\337v\327f\230\242\377\016\223"
 235      8F345E2F 
 235      BCDF76D7 
 235      6698A2FF 
 235      0E93
 236 09f2 FF8A2189 		.ascii	"\377\212!\211O\221up\302;`\261\332\014\030\357Y\305"
 236      4F917570 
 236      C23B60B1 
 236      DA0C18EF 
 236      59C5
 237 0a04 A0880FA1 		.ascii	"\240\210\017\241I+\255}\252\031\237\311\267\232\312"
 237      492BAD7D 
 237      AA199FC9 
 237      B79ACA
 238 0a13 01AE2A72 		.ascii	"\001\256*r\000\224\326F\360\222\310\001f\315\204#y\010"
 238      0094D646 
 238      F092C801 
 238      66CD8423 
 238      7908
 239 0a25 7A33E306 		.ascii	"z3\343\006=\206\334\006O\334&~Z\230\"\016kY\262\030"
 239      3D86DC06 
 239      4FDC267E 
 239      5A98220E 
 239      6B59B218 
 240 0a39 886FC869 		.ascii	"\210o\310i\011N\266)\342\270e8\325\030\015\017\2608"
 240      094EB629 
 240      E2B86538 
ARM GAS  /tmp/ccF5nXKa.s 			page 19


 240      D5180D0F 
 240      B038
 241 0a4b 148A58A7 		.ascii	"\024\212X\247\314`\305\331\334\2079B\006\373\3062\230"
 241      CC60C5D9 
 241      DC873942 
 241      06FBC632 
 241      98
 242 0a5c 9AB1454A 		.ascii	"\232\261EJ\260\037\315\200\305\331\002_rhy\302\307\317"
 242      B01FCD80 
 242      C5D9025F 
 242      726879C2 
 242      C7CF
 243 0a6e 0C0E29E1 		.ascii	"\014\016)\341\321#Z\365\334\222fS\250\331\200-\030\305"
 243      D1235AF5 
 243      DC926653 
 243      A8D9802D 
 243      18C5
 244 0a80 CA542AC1 		.ascii	"\312T*\301\203K\322\020\352X\205\207P\017,\316.j\206"
 244      834BD210 
 244      EA588587 
 244      500F2CCE 
 244      2E6A86
 245 0a93 90A667CC 		.ascii	"\220\246g\314\227Q\317\247\351T\203\301\022\363\035"
 245      9751CFA7 
 245      E95483C1 
 245      12F31D
 246 0aa2 450C58D6 		.ascii	"E\014X\326\257\332XK\253T\213\266\327SM\300e\352\230"
 246      AFDA584B 
 246      AB548BB6 
 246      D7534DC0 
 246      65EA98
 247 0ab5 4BEFA58C 		.ascii	"K\357\245\214\007\014\371)\204\315\317`\006=\012\264"
 247      070CF929 
 247      84CDCF60 
 247      063D0AB4 
 248 0ac5 1D6827D0 		.ascii	"\035h'\320\023@O\002\355\006zF9\313\376sP)b~\252f\242"
 248      13404F02 
 248      ED067A46 
 248      39CBFE73 
 248      5029627E 
 249 0adc 54C7B544 		.ascii	"T\307\265D\243P\3003\245\321\2433F\341\372\0211\\\177"
 249      A350C033 
 249      A5D1A333 
 249      46E1FA11 
 249      315C7F
 250 0aef 07A17671 		.ascii	"\007\241vq\252vu\325\254\335\027\370\025\305]cJ\\U\016"
 250      AA7675D5 
 250      ACDD17F8 
 250      15C55D63 
 250      4A5C550E 
 251 0b03 42C48A8B 		.ascii	"B\304\212\213\026\006\303\211\032\020\267^\375\344\274"
 251      1606C389 
 251      1A10B75E 
 251      FDE4BC
 252 0b12 7A1B0433 		.ascii	"z\033\0043\377#=\034J\252]9\270\303\310\375\377\227"
 252      FF233D1C 
 252      4AAA5D39 
ARM GAS  /tmp/ccF5nXKa.s 			page 20


 252      B8C3C8FD 
 252      FF97
 253 0b24 8E9EBBA5 		.ascii	"\216\236\273\245\271\242\205a\021)6i\245Pw+\025\237"
 253      B9A28561 
 253      11293669 
 253      A550772B 
 253      159F
 254 0b36 33341A7E 		.ascii	"34\032~\326\227v\210\274Q\304\026Sh/\031\241\351=X\251"
 254      D6977688 
 254      BC51C416 
 254      53682F19 
 254      A1E93D58 
 255 0b4b F72BA008 		.ascii	"\367+\240\010\350\235Qgh\337\323W-\355\223]\000o\370"
 255      E89D5167 
 255      68DFD357 
 255      2DED935D 
 255      006FF8
 256 0b5e 5EE30D09 		.ascii	"^\343\015\011\201\260\302.k'\335=_\267\210O\010^N<\361"
 256      81B0C22E 
 256      6B27DD3D 
 256      5FB7884F 
 256      085E4E3C 
 257 0b73 A2A972FF 		.ascii	"\242\251r\377\327-Tt\003&\321|\371\016\2547\315\354"
 257      D72D5474 
 257      0326D17C 
 257      F90EAC37 
 257      CDEC
 258 0b85 A65C0161 		.ascii	"\246\\\001a.[O\376%\276\216a1\360|y\025\226\373\327"
 258      2E5B4FFE 
 258      25BE8E61 
 258      31F07C79 
 258      1596FBD7 
 259 0b99 2DC365AA 		.ascii	"-\303e\252\340\332\325p\003f\340\214fs\004\327\251\206"
 259      E0DAD570 
 259      0366E08C 
 259      667304D7 
 259      A986
 260 0bab AB4CB30A 		.ascii	"\253L\263\012\247\346\356\204\032\256\312\014\234\321"
 260      A7E6EE84 
 260      1AAECA0C 
 260      9CD1
 261 0bb9 848EE04E 		.ascii	"\204\216\340N\252\341\252-\303\251\271\353V\303\315"
 261      AAE1AA2D 
 261      C3A9B9EB 
 261      56C3CD
 262 0bc8 3703A737 		.ascii	"7\003\2477\251\353\275\224\016\314\220\277@\200\273"
 262      A9EBBD94 
 262      0ECC90BF 
 262      4080BB
 263 0bd7 02C1EB3A 		.ascii	"\002\301\353:\320\033@\007\201\316\260a:\023\350k6\023"
 263      D01B4007 
 263      81CEB061 
 263      3A13E86B 
 263      3613
 264 0be9 59D8CFCA 		.ascii	"Y\330\317\312\235\312\2724\023YQ\231\201\026\024Y\221"
 264      9DCABA34 
 264      13595199 
ARM GAS  /tmp/ccF5nXKa.s 			page 21


 264      81161459 
 264      91
 265 0bfa 18F22862 		.ascii	"\030\362(b\251\026Oo\241_aZ\015\353\024Y\335zX\225n"
 265      A9164F6F 
 265      A15F615A 
 265      0DEB1459 
 265      DD7A5895 
 266 0c0f 80E791AF 		.ascii	"\200\347\221\257\001\335\005\012\370\037\240\337\002"
 266      01DD050A 
 266      F81FA0DF 
 266      02
 267 0c1c FD01E83F 		.ascii	"\375\001\350?\200\366\001\235mF%\253\242O.\253\202\226"
 267      80F6019D 
 267      6D4625AB 
 267      A24F2EAB 
 267      8296
 268 0c2e 32A4E3A7 		.ascii	"2\244\343\247\034\244\366\215\221xs\273\0040\327f5\244"
 268      1CA4F68D 
 268      917873BB 
 268      0430D766 
 268      35A4
 269 0c40 CFB3E987 		.ascii	"\317\263\351\207\364\333\022\260Zm\323gU',\206i\271"
 269      F4DB12B0 
 269      5A6DD367 
 269      55272C86 
 269      69B9
 270 0c52 31DEA192 		.ascii	"1\336\241\222\342k\355\231\317_\336\015\223\355|\033"
 270      E26BED99 
 270      CF5FDE0D 
 270      93ED7C1B 
 271 0c62 0EAFC7D3 		.ascii	"\016\257\307\323\022\206W5\016C\326\330p2Wk\323\204"
 271      12865735 
 271      0E43D6D8 
 271      7032576B 
 271      D384
 272 0c74 D8BEB7E0 		.ascii	"\330\276\267\340\207\220\270>\361\256\350\325\356\006"
 272      8790B83E 
 272      F1AEE8D5 
 272      EE06
 273 0c82 6BD974EF 		.ascii	"k\331t\357\340\267\237\377N\334\203Yd\303)u\345\320"
 273      E0B79FFF 
 273      4EDC8359 
 273      64C32975 
 273      E5D0
 274 0c94 A452EA25 		.ascii	"\244R\352%6MJ\335$\246\324\270>qJ\375\306\320\330\224"
 274      364D4ADD 
 274      24A6D4B8 
 274      3E714AFD 
 274      C6D0D894 
 275 0ca8 BA7EA86E 		.ascii	"\272~\250nJ\275j\250:\245\226\2527E\253iEuS\264\332"
 275      4ABD6AA8 
 275      3AA596AA 
 275      3745AB69 
 275      457553B4 
 276 0cbd A6A86E8E 		.ascii	"\246\250n\216V\333\025\216\0217/\217J\310\220\3656<"
 276      56DB158E 
 276      11372F8F 
ARM GAS  /tmp/ccF5nXKa.s 			page 22


 276      4AC890F5 
 276      363C
 277 0ccf 6696DAE2 		.ascii	"f\226\332\342\347\345\330dq\206\253\312!UfD\336t\300"
 277      E7E5D864 
 277      7186ABCA 
 277      21556644 
 277      DE74C0
 278 0ce2 BFCFF098 		.ascii	"\277\317\360\230l\245\372g\267/\311\200i\021\253\206"
 278      6CA5FA67 
 278      B72FC980 
 278      6911AB86 
 279 0cf2 3FEA2633 		.ascii	"?\352&3\023\235\254\242A\217\304Ht\027\276o\243\326"
 279      139DACA2 
 279      418FC448 
 279      7417BE6F 
 279      A3D6
 280 0d04 27DFEE06 		.ascii	"'\337\356\006\237\334h\312'\267v/\266\270\303\323\327"
 280      9FDC68CA 
 280      27B7762F 
 280      B6B8C3D3 
 280      D7
 281 0d15 85B39BF7 		.ascii	"\205\263\233\367\300\037\333\223\363\307F\255?~\276"
 281      C01FDB93 
 281      F3C746AD 
 281      3F7EBE
 282 0d24 04FCB1D1 		.ascii	"\004\374\261\321\224?\236R\372\236Tw^\337\361nh\034"
 282      943F9E52 
 282      FA9E5477 
 282      5EDFF16E 
 282      681C
 283 0d36 CF8C2B35 		.ascii	"\317\214+5*\\i+\270\3226\003W\242\210\005\351\244d\201"
 283      2A5C692B 
 283      B8D23603 
 283      57A28805 
 283      E9A46481 
 284 0d4a A45C29BC 		.ascii	"\244\\)\274\275{\261\224u\211OI/\321\342Y\333\257\013"
 284      BD7BB194 
 284      75894F49 
 284      2FD1E259 
 284      DBAF0B
 285 0d5d 7FD89DDA 		.ascii	"\177\330\235\332\370\222yS\326ucS\356\005S\276\223\236"
 285      F8927953 
 285      D6756353 
 285      EE0553BE 
 285      939E
 286 0d6f 9429F76B 		.ascii	"\224)\367kMy]4\345~S\246\334\226\036k\312\003\351\272"
 286      4D795D34 
 286      E57E53A6 
 286      DC961E6B 
 286      CA03E9BA 
 287 0d83 A6EC48B7 		.ascii	"\246\354H\267n\312\375\012S\206\301\224\007\014My\316"
 287      6ECAFD0A 
 287      5386C194 
 287      070C4D79 
 287      CE
 288 0d94 8C29E39E 		.ascii	"\214)\343\236\321\313=m\202\2366\303\342\244\011\350"
 288      D1CB3D6D 
ARM GAS  /tmp/ccF5nXKa.s 			page 23


 288      829E36C3 
 288      E2A409E8 
 289 0da4 1EE57C4C 		.ascii	"\036\345|L\021\0274\252\226\307\252\002):\250\211xX"
 289      111734AA 
 289      96C7AA02 
 289      293AA889 
 289      7858
 290 0db6 4613E63A 		.ascii	"F\023\346:\233b\271s\003\272\253M\332\251\226\3664X"
 290      9B62B973 
 290      03BAAB4D 
 290      DAA996F6 
 290      3458
 291 0dc8 FB214178 		.ascii	"\373!Ax\377\222\333\260\017\034\006\023\316\032\366"
 291      FF92DBB0 
 291      0F1C0613 
 291      CE1AF6
 292 0dd7 AB9CC92E 		.ascii	"\253\234\311.\030fB\2128\273\251\333{\032\244#=\361"
 292      1866428A 
 292      38BBA9DB 
 292      7B1AA423 
 292      3DF1
 293 0de9 20FE4D2D 		.ascii	" \376M-\236n\272\027g\337\255\263\007\266\267\304\307"
 293      9E6EBA17 
 293      67DFADB3 
 293      07B6B7C4 
 293      C7
 294 0dfa 84969BE1 		.ascii	"\204\226\233\341.\316\366\313\027\313\322\216\275d\372"
 294      2ECEF6CB 
 294      17CBD28E 
 294      BD64FA
 295 0e09 F7A7E11D 		.ascii	"\367\247\341\035\242\202;A\301\357\304(\370+\355\323"
 295      A2823B41 
 295      C1EFC428 
 295      F82BEDD3 
 296 0e19 2A897E51 		.ascii	"*\211~QJ\021\357i\005Pu+\0253\215\324[\031\276$9\211"
 296      4A11EF69 
 296      0550752B 
 296      15338DD4 
 296      5B19BE24 
 297 0e2f 1CC9B699 		.ascii	"\034\311\266\231Q\210\012O\255\220~Q\273\"\330^3`\206"
 297      51880A4F 
 297      AD907E51 
 297      BB22D85E 
 297      336086
 298 0e42 C7B995E1 		.ascii	"\307\271\225\341\305\015+\314\376\233\014\275\337\251"
 298      C50D2BCC 
 298      FE9B0CBD 
 298      DFA9
 299 0e50 F5BE3DD0 		.ascii	"\365\276=\320\367g\274\014K\370\2334\244z\375Y[}\033"
 299      F767BC0C 
 299      4BF89B34 
 299      A47AFD59 
 299      5B7D1B
 300 0e63 ECE069A7 		.ascii	"\354\340i\247\355\245Ga\332>mj\332^\026\347i-\343\237"
 300      EDA54761 
 300      DA3E6D6A 
 300      DA5E16E7 
ARM GAS  /tmp/ccF5nXKa.s 			page 24


 300      692DE39F 
 301 0e77 5B49E274 		.ascii	"[I\342t\3549\375\214\270\252<\013\313\341\253\303t\227"
 301      EC39FD8C 
 301      B8AA3C0B 
 301      CBE1ABC3 
 301      7497
 302 0e89 C3C63898 		.ascii	"\303\3068\230\277sZ\376k;\200\377s\211\371G\211\344"
 302      BF735AFE 
 302      6B3B80FF 
 302      7389F947 
 302      89E4
 303 0e9b E28E4592 		.ascii	"\342\216E\222\273\210\231\344k\031\244\204i6F\251\361"
 303      BB8899E4 
 303      6B19A484 
 303      693646A9 
 303      F1
 304 0eac DE140FD8 		.ascii	"\336\024\017\330E\2609\226\3012\365X\225\007OTR\206"
 304      45B03996 
 304      C132F558 
 304      95074F54 
 304      5286
 305 0ebe 3C0FB1FD 		.ascii	"<\017\261\375{\210\304?\232\211\304\337(#\361|`\354"
 305      7B88C43F 
 305      9A89C4DF 
 305      2823F17C 
 305      60EC
 306 0ed0 747252A2 		.ascii	"trR\242\225'\362\303G\223y@+b\367\276\277\212v\357\003"
 306      9527F2C3 
 306      47937940 
 306      2B62F7BE 
 306      BF8A76EF 
 307 0ee5 BB2FCC48 		.ascii	"\273/\314H\230\006\305n\344]\214I\201\332\301\356\027"
 307      9806C56E 
 307      E45D8C49 
 307      81DAC1EE 
 307      17
 308 0ef6 4DD9FD52 		.ascii	"M\331\375R\273\332\356\353\200\205\213I\333\375r\273"
 308      BBDAEEEB 
 308      80858B49 
 308      DBFD72BB 
 309 0f06 C2EE1B2D 		.ascii	"\302\356\033-\203e\252\300\256(\301\032\315\200\305"
 309      8365AAC0 
 309      AE28C11A 
 309      CD80C5
 310 0f15 D917BAA6 		.ascii	"\331\027\272\246\004\333a\031,\256G^Tx\344%\360\310"
 310      04DB6119 
 310      2CAE475E 
 310      5478E425 
 310      F0C8
 311 0f27 CBE09157 		.ascii	"\313\340\221W\200^\003\332o\306;\177Rz\347n\313\336"
 311      805E03DA 
 311      6FC63B7F 
 311      527AE76E 
 311      CBDE
 312 0f39 A9501F78 		.ascii	"\251P\037x\347\325G\345gR\305\270}\320\014b\234\223"
 312      E7D547E5 
 312      6752C5B8 
ARM GAS  /tmp/ccF5nXKa.s 			page 25


 312      7DD00C62 
 312      9C93
 313 0f4b B2ED7A51 		.ascii	"\262\355zQN\324\251\221D\225v\205D-\226\373WI\024\336"
 313      4ED4A991 
 313      44957685 
 313      442D96FB 
 313      574914DE 
 314 0f5f 7174B96A 		.ascii	"qt\271j\243\347\210\026Oo\215\030\347x\355\303\243h"
 314      A3E78816 
 314      4F6F8D18 
 314      E778EDC3 
 314      A368
 315 0f71 792E8375 		.ascii	"y.\203uZ\006S=\011\037\336\255\004;e\031,#\306\253D"
 315      5A06533D 
 315      091FDEAD 
 315      043B6519 
 315      2C23C6AB 
 316 0f86 7FFA1AFC 		.ascii	"\177\372\032\374\351\014\370\320?\200\016\002\235a\307"
 316      E90CF8D0 
 316      3F800E02 
 316      9D61C7
 317 0f95 7416D02A 		.ascii	"t\026\320*\240\263\355\252U\355\331"
 317      A0B3EDAA 
 317      55EDD9
 318 0fa0 0CED32E4 		.ascii	"\014\3552\344\264vU{Z\265\252\265\334\207\221\315\277"
 318      B476557B 
 318      5AB5AAB5 
 318      DC8791CD 
 318      BF
 319 0fb1 547AF195 		.ascii	"Tz\361\225\014\253k\005\265\027\327\236\351\253\330"
 319      0CAB6B05 
 319      B517D79E 
 319      E9ABD8
 320 0fc0 27793106 		.ascii	"'y1\006\246\210\0013\210\206g%\225\341\017Ni\237I7{"
 320      A6880133 
 320      88866725 
 320      95E10F4E 
 320      699F4937 
 321 0fd5 48D4B1E7 		.ascii	"H\324\261\347\223\0221`\327\330q\300\2365\334\342y<"
 321      93123160 
 321      D7D871C0 
 321      9E35DCE2 
 321      793C
 322 0fe7 D64E9D5D 		.ascii	"\326N\235]\023\260\277\354\202\200\215\353\023\007\354"
 322      13B0BFEC 
 322      82808DEB 
 322      1307EC
 323 0ff6 BE2E65C0 		.ascii	"\276.e\300fH\001\366\301p"
 323      664801F6 
 323      C170
 324 1000 DBE402F6 		.ascii	"\333\344\002\366\317]\221\260\210\006\253e\260L\025"
 324      CF5D91B0 
 324      8806AB65 
 324      B04C15
 325 100f D8C52E45 		.ascii	"\330\305.E\214\255\001\345$\000\213\023\260/+\301\026"
 325      8CAD01E5 
 325      24008B13 
ARM GAS  /tmp/ccF5nXKa.s 			page 26


 325      B02F2BC1 
 325      16
 326 1020 5B065373 		.ascii	"[\006SsvE)f?mB\3148\233\370\327\224\234\275e\206\263"
 326      76452966 
 326      3F6D42CC 
 326      389BF8D7 
 326      949CBD65 
 327 1036 385BF8FD 		.ascii	"8[\370\375J\260\0063`F\247\362\010l@)\346/f\254i\224"
 327      4AB00633 
 327      6046A7F2 
 327      086C4029 
 327      E62F66AC 
 328 104c 0321B09A 		.ascii	"\003!\260\232n\005g\253\315p\226\251\303\231\336K9\010"
 328      6E0567AB 
 328      CD7096A9 
 328      C399DE4B 
 328      3908
 329 105e 1872911D 		.ascii	"\030r\221\035G\270\305\020_\336\004\272\004\350R\240"
 329      47B8C510 
 329      5FDE04BA 
 329      04E852A0 
 330 106e CB802E07 		.ascii	"\313\200.\007\332\000t%\320Uf\"\321\002\345\354\263"
 330      DA007425 
 330      D0556622 
 330      D102E5EC 
 330      B3
 331 107f 61B8D5B8 		.ascii	"a\270\325\270\221\031O\204Z\305\244\277\020\202t\035"
 331      91194F84 
 331      5AC5A4BF 
 331      1082741D 
 332 108f 04CDB540 		.ascii	"\004\315\265@[\201\036\005\332\006\264\003\350I\240"
 332      5B811E05 
 332      DA06B403 
 332      E849A0
 333 109e DD40BF00 		.ascii	"\335@\277\000:\017\304\231oF\2347\014\366\335\245#\202"
 333      3A0FC499 
 333      6F469C37 
 333      0CF6DDA5 
 333      2382
 334 10b0 958F6B8E 		.ascii	"\225\217k\216}c\222\204\265v\253G\004\353\354\372G\004"
 334      7D639284 
 334      B576AB47 
 334      04EBECFA 
 334      4704
 335 10c2 CE04ACAE 		.ascii	"\316\004\254\256\211j\376.\242AX\331\333\333\264\351"
 335      896AFE2E 
 335      A24158D9 
 335      DBDBB4E9 
 336 10d2 60313ECE 		.ascii	"`1>\316\024\006\007_%\314?)\262\301.\237o\310\017{P"
 336      1406075F 
 336      25CC3F29 
 336      B2C12E9F 
 336      6FC80F7B 
 337 10e7 44B326EE 		.ascii	"D\263&\356\022\304\277\023k1\236\260A\240\001\015\337"
 337      12C4BF13 
 337      6B319EB0 
 337      41A0010D 
ARM GAS  /tmp/ccF5nXKa.s 			page 27


 337      DF
 338 10f8 BFDE7E97 		.ascii	"\277\336~\227\332b\357\332U\377z\022\363\325[\323{|"
 338      DA62EFDA 
 338      55FF7A12 
 338      F3D55BD3 
 338      7B7C
 339 110a 4B6B41FD 		.ascii	"KkA\3756a\326\034a`\360U\322<c\233\355\232\177\275\363"
 339      3661D61C 
 339      6160F055 
 339      D23C639B 
 339      ED9A7FBD 
 340 111f 05FC4A4D 		.ascii	"\005\374JM\361H\012E\\\216aT\274u\213.'M\233\276\277"
 340      F1480A45 
 340      5C8E6154 
 340      BC758B2E 
 340      274D9BBE 
 341 1134 A36EE6CA 		.ascii	"\243n\346\312\026\341'\274\307\242\341\304fl\243F\211"
 341      16E127BC 
 341      C7A2E1C4 
 341      666CA346 
 341      89
 342 1145 9348B733 		.ascii	"\223H\2673F\250w\336\360M[u\273\034\374\366\363\373"
 342      46A877DE 
 342      F04D5B75 
 342      BB1CFCF6 
 342      F3FB
 343 1157 93117EBB 		.ascii	"\223\021~\273Vx\354\232\032\341\253G\350\013\277C\217"
 343      5678EC9A 
 343      1AE1AB47 
 343      E80BBF43 
 343      8F
 344 1168 93704FEB 		.ascii	"\223pO\353\274\337\012\253*\303\203\203c\264\242\307"
 344      BCDF0AAB 
 344      2AC38383 
 344      63B4A2C7 
 345 1178 FB3756BB 		.ascii	"\3737V\273\364\030\211|\350\024\017\270n\352?\"QD\275"
 345      F418897C 
 345      E8140FB8 
 345      6EEA3F22 
 345      5144BD
 346 118b 81201FE9 		.ascii	"\201 \037\351\012r\251:*\210\250(\224\274\030 \354\327"
 346      0A72A93A 
 346      2A88A828 
 346      94BC1820 
 346      ECD7
 347 119d 45684B4E 		.ascii	"EhKN\025\007,\251\"\321\377\303JNU\373\014\004\375D"
 347      15072CA9 
 347      22D1FFC3 
 347      4A4E55FB 
 347      0C04FD44 
 348 11b1 2DE8DDC4 		.ascii	"-\350\335\304*\354}_\355\274\366\302{\225\330\373\204"
 348      2AEC7D5F 
 348      EDBCF6C2 
 348      7B95D8FB 
 348      84
 349 11c2 2B83E420 		.ascii	"+\203\344 -\377;\327\332[d\024IV\365\377j\305\200\207"
 349      2DFF3BD7 
ARM GAS  /tmp/ccF5nXKa.s 			page 28


 349      DA5B6414 
 349      4956F5FF 
 349      6AC58087 
 350 11d6 A3801258 		.ascii	"\243\200\022X\355\231\003\177\333\250\002\023\017\027"
 350      ED99037F 
 350      DBA80213 
 350      0F17
 351 11e4 176BC1D4 		.ascii	"\027k\301\324G\211\030\35435X\370\030\032\212\255\225"
 351      478918EC 
 351      333558F8 
 351      181A8AAD 
 351      95
 352 11f5 E4424168 		.ascii	"\344BAhA\353\263\301A\362.1tR\3042-XL\210=\252\305\012"
 352      41EBB3C1 
 352      41F22E31 
 352      7452C432 
 352      2D584C88 
 353 120d 9FB08928 		.ascii	"\237\260\211(cd\220\365\011A\332b@:\265 [\023\202tD"
 353      636490F5 
 353      0941DA62 
 353      403AB520 
 353      5B138274 
 354 1222 4134091B 		.ascii	"A4\011\033vJ#/\352\264\353\3171\242\177\031\265:n\330"
 354      764A232F 
 354      EAB4EBCF 
 354      31A27F19 
 354      B53A6ED8 
 355 1236 6A739C56 		.ascii	"js\234V'\014[\355\212\323\252\313\260Uc\234V'\243\255"
 355      270C5BED 
 355      8AD3AACB 
 355      B055639C 
 355      5627A3AD 
 356 124a 887B468E 		.ascii	"\210{F\216\314\022\377\202\241\254\022\306\237\345\013"
 356      CC12FF82 
 356      A1AC12C6 
 356      9FE50B
 357 1259 78FDE5C5 		.ascii	"x\375\345\305,.{B,\347c\374#K\21047\224\3629\337T\226"
 357      2C2E7B42 
 357      2CE763FC 
 357      234B8834 
 357      3794F239 
 358 1270 733CF5EC 		.ascii	"s<\365\354\204\314<b\230\262\356\371qELVI\260\224\315"
 358      84CC3C62 
 358      98B2EEF9 
 358      71454C56 
 358      49B094CD 
 359 1284 7AB9DCEF 		.ascii	"z\271\334\357c\002Y\343\306>\225\233\025bK\331\020\317"
 359      630259E3 
 359      C63E959B 
 359      15624BD9 
 359      10CF
 360 1296 B11E5F45 		.ascii	"\261\036_E\326\330\322\211\354D_1\352\205\341J\037\310"
 360      D6D8D289 
 360      EC445F31 
 360      EA85E14A 
 360      1FC8
 361 12a8 1995FDE0 		.ascii	"\031\225\375\340\310\354\354,\277ob\326d\257\027\352"
ARM GAS  /tmp/ccF5nXKa.s 			page 29


 361      C8ECEC2C 
 361      BF6F62D6 
 361      64AF17EA 
 362 12b8 02C100FB 		.ascii	"\002\301\000\373\000\313L\364e=4r\364\310\354\010'!"
 362      00CB4CF4 
 362      653D3472 
 362      F4C8EC08 
 362      2721
 363 12ca BEB8989D 		.ascii	"\276\270\230\235\204\270p\204|\377\315zxw2\035\251;"
 363      84B87084 
 363      7CFFCD7A 
 363      7877321D 
 363      A93B
 364 12dc 5040FB02 		.ascii	"P@\373\002<\202v\226\243\367\321\036\336>\215\363\361"
 364      3C827696 
 364      A3F7D11E 
 364      DE3E8DF3 
 364      F1
 365 12ed AC8D6399 		.ascii	"\254\215c\231\342\321J\315x\203\245\245\301@VY\220\343"
 365      E2D14ACD 
 365      7883A5A5 
 365      C1405659 
 365      90E3
 366 12ff 4359B985 		.ascii	"CY\271\205\343\362\306U\340\2722\237\237\345BYO\345"
 366      E3F2C655 
 366      E0BA329F 
 366      9FE54259 
 366      4FE5
 367 1311 E565794B 		.ascii	"\345eyK\370\351el\010a\331KC\223=\274\023\001>\230\343"
 367      F8E9656C 
 367      0861D94B 
 367      43933DBC 
 367      13013E98 
 368 1326 E1E9B272 		.ascii	"\341\351\262r\236\236\314\362\177P\302q|\204\005oIh"
 368      9E9ECCF2 
 368      7F50C271 
 368      7C84056F 
 368      4968
 369 1338 7A486EEA 		.ascii	"zHn\352\302e_)\0222\0053\224\375\260\207\267\241\366"
 369      C2655F29 
 369      12320533 
 369      94FDB087 
 369      B7A1F6
 370 134b BC0D01F0 		.ascii	"\274\015\001\360\016\340\215\267c\346xzj)\177\267!$"
 370      0EE08DB7 
 370      63E6787A 
 370      6A297FB7 
 370      2124
 371 135d 3B950DF0 		.ascii	";\225\015\360\0300\035J\236P\260\234\363\"\3244\345"
 371      18301D4A 
 371      9E50B09C 
 371      F322D434 
 371      E5
 372 136e C70CF183 		.ascii	"\307\014\361\203\337\027\342\331\000\313y\370tu\205"
 372      DF17E2D9 
 372      00CB79F8 
 372      747585
ARM GAS  /tmp/ccF5nXKa.s 			page 30


 373 137d 2DC056F0 		.ascii	"-\300V\360)|\011\356\317\303\273\274%\036\261\234i,"
 373      297C09EE 
 373      CFC3BBBC 
 373      251EB19C 
 373      692C
 374 138f 89B7A418 		.ascii	"\211\267\244\030u:L\274/\344\231R\316\226\243^3\"M\245"
 374      753A4CBC 
 374      2FE49952 
 374      CE96A35E 
 374      33224DA5 
 375 13a3 2A5B19C7 		.ascii	"*[\031\307N\265C\321\311\227q\276\240$/\326\227\015"
 375      4EB543D1 
 375      C99771BE 
 375      A0242FD6 
 375      970D
 376 13b5 7F4EC38A 		.ascii	"\177N\303\212\366x\203\001\036\261\360\307\204\206("
 376      F6788301 
 376      1EB1F0C7 
 376      848628
 377 13c4 F1063916 		.ascii	"\361\0069\026u\234\012\315\020\220\227\257x\300\\+\317"
 377      759C0ACD 
 377      109097AF 
 377      78C05C2B 
 377      CF
 378 13d5 D43F95A2 		.ascii	"\324?\225\242\226)\034;\031\271\210\207\247\270\207"
 378      96291C3B 
 378      19B98887 
 378      A7B887
 379 13e4 28EE3F28 		.ascii	"(\356?(\356a\212\373\023\305\215\246\270Gh.{\024\272"
 379      EE618AFB 
 379      13C58DA6 
 379      B847682E 
 379      7B14BA
 380 13f7 B2293F47 		.ascii	"\262)?G\205\312h\004m\017\260\323X\316\036\364\027#"
 380      85CA6804 
 380      6D0FB0D3 
 380      58CE1EF4 
 380      1723
 381 1409 25794B18 		.ascii	"%yK\030\244)\246\224\035\022\342_a\374\276\311\001I"
 381      A429A694 
 381      1D12E25F 
 381      61FCBEC9 
 381      0149
 382 141b 98871FF2 		.ascii	"\230\207\037\362 \2231\023\231\020\233\302\207x\206"
 382      20933113 
 382      99109BC2 
 382      877886
 383 142a 479AB0C3 		.ascii	"G\232\260\303\273\223/\015\026\343O\223\374\314\344"
 383      BB932F0D 
 383      16E34F93 
 383      FCCCE4
 384 1439 9013F9ED 		.ascii	"\220\023\371\355\244\020\022\034\2779\270\342\351\310"
 384      A410121C 
 384      BF39B8E2 
 384      E9C8
 385 1447 7D52D80A 		.ascii	"}R\330\012\037\357E79\246\361\301\211/\227\215\220\254"
 385      1FEF4537 
ARM GAS  /tmp/ccF5nXKa.s 			page 31


 385      39A6F1C1 
 385      892F978D 
 385      90AC
 386 1459 806E6139 		.ascii	"\200na96\200Mi\237\306\363\\\2313\204,\206\032\244!"
 386      36804D69 
 386      9FC6F35C 
 386      9933842C 
 386      861AA421 
 387 146d 15A341C0 		.ascii	"\025\243A\300\224\225 \231\35626\020\213\205\265{\221"
 387      94952099 
 387      EE323610 
 387      8B85B57B 
 387      91
 388 147e 95791A51 		.ascii	"\225y\032Q\004\217\252\312RP\353\322r\244k\343\226\245"
 388      048FAACA 
 388      5250EBD2 
 388      72A46BE3 
 388      96A5
 389 1490 7C056E19 		.ascii	"|\005n\031\234\206\034\303\011\367b\351xT]\226\012n"
 389      9C861CC3 
 389      09F762E9 
 389      78545D96 
 389      0A6E
 390 14a2 53CA845E 		.ascii	"S\312\204^AU\3544\\ \313\323e\203co\362\360\303\024"
 390      4155EC34 
 390      5C20CBD3 
 390      6583636F 
 390      F2F0C314 
 391 14b6 2E806B9C 		.ascii	".\200k\234\323\030\037\357\013LNA\274\203\037\244\260"
 391      D3181FEF 
 391      0B4C4E41 
 391      BC831FA4 
 391      B0
 392 14c7 656C000D 		.ascii	"el\000\015\306\311N\004\211\357@\026a\374\330\027\354"
 392      C6C94E04 
 392      89EF4016 
 392      61FCD817 
 392      EC
 393 14d8 A565C1A0 		.ascii	"\245e\301\240?E\366J\207\350\333\242'\203\0021#P\260"
 393      3F45F64A 
 393      87E8DBA2 
 393      27830231 
 393      2350B0
 394 14eb 439D2B54 		.ascii	"C\235+T,i\333\345\316\367Lx\266\340\331\202\"'*\271"
 394      2C69DBE5 
 394      CEF74C78 
 394      B6E0D982 
 394      22272AB9 
 395 14ff 8BC63F97 		.ascii	"\213\306?\227\202\336\013\307\346\346\277\0307\354\001"
 395      82DE0BC7 
 395      E6E6BF18 
 395      37EC01
 396 150e 4378F40C 		.ascii	"Cx\364\014\365\005\320\350\223\335x\010\362S\251\230"
 396      F505D0E8 
 396      93DD7808 
 396      F253A998 
 397 151e 22175D53 		.ascii	"\"\027]S<\222$\250\344\015\226#\207\345R\246x&\226O"
ARM GAS  /tmp/ccF5nXKa.s 			page 32


 397      3C9224A8 
 397      E40D9623 
 397      87E552A6 
 397      7826964F 
 398 1532 4286B24F 		.ascii	"B\206\262O\361\360\3012'\272\205+\3439\364\316\025\243"
 398      F1F0C132 
 398      27BA852B 
 398      E339F4CE 
 398      15A3
 399 1544 77D79440 		.ascii	"w\327\224@\220\367M\232\216P\246x\304\242c\012RJ\340"
 399      90F74D9A 
 399      8E50A678 
 399      C4A2630A 
 399      524AE0
 400 1557 15870F30 		.ascii	"\025\207\0170\323\203\345\274\242[G\020\012\224o\"\025"
 400      D383E5BC 
 400      A25B4710 
 400      0A946F22 
 400      15
 401 1568 9CA81794 		.ascii	"\234\250\027\224\320\020\311\312\033\347.pg\271\213"
 401      D010C9CA 
 401      1BE72E70 
 401      67B98B
 402 1577 D0DFB807 		.ascii	"\320\337\270\007s\236\314\256\250@\261\255\364\301\234"
 402      739ECCAE 
 402      A840B1AD 
 402      F4C19C
 403 1586 49D9A346 		.ascii	"I\331\243FUL\304\242Lp\347\026\026y\212P\240\311g'Q"
 403      554CC4A2 
 403      4C70E716 
 403      16798A50 
 403      A0C96727 
 404 159b EE422ABF 		.ascii	"\356B*\277\220~\242\260\220\316+\314FW\016\272\036\264"
 404      907EA2B0 
 404      90CE2BCC 
 404      46570EBA 
 404      1EB4
 405 15ad 3D55F45C 		.ascii	"=U\364\\\241\275<\304p\274\203\253\300v|H\253&q\004"
 405      A1BD3CC4 
 405      70BC83AB 
 405      C0767C48 
 405      AB267104 
 406 15c1 412759CF 		.ascii	"A'Y\317<\223\237U\220\22375\033\224\346\313\361z\374"
 406      3C939F55 
 406      90933735 
 406      1B94E6CB 
 406      F17AFC
 407 15d4 7E3CFC5D 		.ascii	"~<\374]\250R\234\025\356\216\247e\324\000\335<\004\275"
 407      A8529C15 
 407      EE8EA765 
 407      D400DD3C 
 407      04BD
 408 15e6 49E61A82 		.ascii	"I\346\032\202\332I\366J\301El0\214%Zl(.\345\346\025"
 408      DA49F64A 
 408      C1456C30 
 408      8C255A6C 
 408      282EE5E6 
ARM GAS  /tmp/ccF5nXKa.s 			page 33


 409 15fb 153C3FD6 		.ascii	"\025<?\326S\364\202\362S\341\013\320\362\231\361y\177"
 409      53F482F2 
 409      53E10BD0 
 409      F299F179 
 409      7F
 410 160c 1D9B9F8A 		.ascii	"\035\233\237\212\360\202e\342\370\0322\376\271q\343"
 410      F08265E2 
 410      F81A32FE 
 410      B971E3
 411 161b F3C77AD0 		.ascii	"\363\307z\320\267\267HE\367\270'&\270=\371c\237/\310"
 411      B7B74845 
 411      F7B82726 
 411      B83DF963 
 411      9F2FC8
 412 162e 1B3B5C55 		.ascii	"\033;\\U\367\364xw\2213X\346\301MS\275\376\240\367\025"
 412      F7F47877 
 412      913358E6 
 412      C14D53BD 
 412      FEA0F715 
 413 1642 4FA88C65 		.ascii	"O\250\214e\213\323\021`q9?\335;\335\353G\230\351\356"
 413      8BD31160 
 413      71393FDD 
 413      3BDDEB47 
 413      98E9EE
 414 1655 A27C4FFE 		.ascii	"\242|O\376\204\242\027=y/\346=3v\370\223\271\356\"\305"
 414      84A2173D 
 414      792FE63D 
 414      3376F893 
 414      B9EE22C5 
 415 1669 674FCEAD 		.ascii	"gO\316\255\332\032\024\304\037\031\202\021<\000\201"
 415      DA1A14C4 
 415      1F198211 
 415      3C0081
 416 1678 25CA0B06 		.ascii	"%\312\013\006&\371&;\274\360\2065 \3731\313qA.d\207"
 416      26F9263B 
 416      BCF08635 
 416      20FB31CB 
 416      71412E64 
 417 168d F1E510C7 		.ascii	"\361\345\020\307\213\013}\315\024\027\243\360l\303o"
 417      8B0B7DCD 
 417      1417A3F0 
 417      6CC36F
 418 169c 2EAEA2B8 		.ascii	".\256\242\270\224\301L\272x\271\224\223\310J\371\343"
 418      94C14CBA 
 418      78B99493 
 418      C84AF9E3 
 419 16ac 729195C0 		.ascii	"r\221\225\300!<\250\015\216\224\250Jv\006\272\300]h"
 419      213CA80D 
 419      8E94A84A 
 419      7606BAC0 
 419      5D68
 420 16be 2B7832AF 		.ascii	"+x2\257\220F\337\335\202\277\310+a\002\001\326\037\271"
 420      9046DFDD 
 420      82BFC82B 
 420      610201D6 
 420      1FB9
 421 16d0 212FAFD0 		.ascii	"!/\257\320\236\367l~Q\241-\357\271\\D\306\345\026:\275"
ARM GAS  /tmp/ccF5nXKa.s 			page 34


 421      9EF76C7E 
 421      51A12DEF 
 421      B95C44C6 
 421      E5163ABD 
 422 16e4 E23D762F 		.ascii	"\342=v/\366\023\2737\304\3729{\250\3047\011\215?\326"
 422      F613BB37 
 422      C4FA397B 
 422      A8C43709 
 422      8D3FD6
 423 16f7 3FC91728 		.ascii	"?\311\027(F\022Le\275|\220\033\021\351\330\203\347h"
 423      46124C65 
 423      BD7C901B 
 423      11E9D883 
 423      E768
 424 1709 0645593B 		.ascii	"\006EY;\372\300U`\312W\244b\343I=\331\306\347\026fc"
 424      FAC05560 
 424      CA57A462 
 424      E3493DD9 
 424      C6E71666 
 425 171e 9243BB91 		.ascii	"\222C\273\221_\272\013s\354E\205\005\356\2614R\302\357"
 425      5FBA0B73 
 425      EC458505 
 425      EEB13452 
 425      C2EF
 426 1730 466695A3 		.ascii	"Ff\225\243\005\011^1\2048o\226\373\311\302Q9\245\214"
 426      05095E31 
 426      84386F96 
 426      FBC9C251 
 426      39A58C
 427 1743 2F30D24B 		.ascii	"/0\322K\014qO\342F\345\270y\344\270\377f\030\301\244"
 427      0C714FE2 
 427      46E5B879 
 427      E4B8FF66 
 427      18C1A4
 428 1756 F0837DCE 		.ascii	"\360\203}\316[RTR\354\366\263,\216|(\306\240@2\024\365"
 428      5B525452 
 428      ECF6B32C 
 428      8E7C28C6 
 428      A0403214 
 429 176b 50C8FA59 		.ascii	"P\310\372Y\024\255\237(\017\375\006}\032\307\240\200"
 429      14AD9F28 
 429      0FFD067D 
 429      1AC7A080 
 430 177b C315B25E 		.ascii	"\303\025\262^\026\271r\021\232\224\321\260\304w\345"
 430      16B97211 
 430      9A94D1B0 
 430      C477E5
 431 178a 7AA794FB 		.ascii	"z\247\224\3738|\327\035\221\273\2128&\020*\365\361\322"
 431      387CD71D 
 431      91BB8A38 
 431      26102AF5 
 431      F1D2
 432 179c 6D8F2432 		.ascii	"m\217$2\010\014Fi\340\210\213,i\354\320\356\374\034"
 432      080C4669 
 432      E0888B2C 
 432      69ECD0EE 
 432      FC1C
ARM GAS  /tmp/ccF5nXKa.s 			page 35


 433 17ae 3B1E3FD9 		.ascii	";\036?\331\251\356\374\\\017W\341)fx\306\205\313S\031"
 433      A9EEFC5C 
 433      0F57E129 
 433      6678C685 
 433      CB5319
 434 17c1 7F390BB5 		.ascii	"\1779\013\265\274X\373\377\007\216\3013"
 434      BC58FBFF 
 434      078EC133 
 435              		.text
 436              		.section	.gnu.lto_.symtab.ccf8af29b23512b6,"",%progbits
 437 0000 53667230 		.ascii	"Sfr02Start\000\000\000\000\000\000\000\000\000\000\000"
 437      32537461 
 437      72740000 
 437      00000000 
 437      00000000 
 438 0015 00A70200 		.ascii	"\000\247\002\000\000I2CD1\000\000\002\000\000\000\000"
 438      00493243 
 438      44310000 
 438      02000000 
 438      00
 439 0026 00000000 		.ascii	"\000\000\000\000\000\314\002\000\000SD2\000\000\002"
 439      00CC0200 
 439      00534432 
 439      000002
 440 0035 00000000 		.ascii	"\000\000\000\000\000\000\000\000\000\312\002\000\000"
 440      00000000 
 440      00CA0200 
 440      00
 441 0042 63685468 		.ascii	"chThdSleep\000\000\002\000\000\000\000\000\000\000\000"
 441      64536C65 
 441      65700000 
 441      02000000 
 441      00000000 
 442 0057 00AB0200 		.ascii	"\000\253\002\000\000chprintf\000\000\002\000\000\000"
 442      00636870 
 442      72696E74 
 442      66000002 
 442      000000
 443 006a 00000000 		.ascii	"\000\000\000\000\000\000\257\002\000\000i2cReleaseB"
 443      0000AF02 
 443      00006932 
 443      6352656C 
 443      65617365 
 444 007f 75730000 		.ascii	"us\000\000\002\000\000\000\000\000\000\000\000\000\262"
 444      02000000 
 444      00000000 
 444      0000B2
 445 008e 02000069 		.ascii	"\002\000\000i2cMasterReceiveTimeout\000\000\002\000"
 445      32634D61 
 445      73746572 
 445      52656365 
 445      69766554 
 446 00ac 00000000 		.ascii	"\000\000\000\000\000\000\000\000\266\002\000\000i2c"
 446      00000000 
 446      B6020000 
 446      693263
 447 00bb 41637175 		.ascii	"AcquireBus\000\000\002\000\000\000\000\000\000\000\000"
ARM GAS  /tmp/ccF5nXKa.s 			page 36


 447      69726542 
 447      75730000 
 447      02000000 
 447      00000000 
 448 00d0 00BE0200 		.ascii	"\000\276\002\000\000i2cMasterTransmitTimeout\000\000"
 448      00693263 
 448      4D617374 
 448      65725472 
 448      616E736D 
 449 00ef 02000000 		.ascii	"\002\000\000\000\000\000\000\000\000\000\300\002\000"
 449      00000000 
 449      0000C002 
 449      00
 450 00fc 00       		.ascii	"\000"
 451              		.text
 452              		.section	.gnu.lto_.opts,"",%progbits
 453 0000 272D6D63 		.ascii	"'-mcpu=cortex-m3' '-mno-thumb-interwork' '-mthumb' "
 453      70753D63 
 453      6F727465 
 453      782D6D33 
 453      2720272D 
 454 0033 272D6767 		.ascii	"'-ggdb' '-O2' '-fomit-frame-pointer' '-falign-funct"
 454      64622720 
 454      272D4F32 
 454      2720272D 
 454      666F6D69 
 455 0066 696F6E73 		.ascii	"ions=16' '-ffunction-sections' '-fdata-sections' '-"
 455      3D313627 
 455      20272D66 
 455      66756E63 
 455      74696F6E 
 456 0099 666E6F2D 		.ascii	"fno-common' '-flto'\000"
 456      636F6D6D 
 456      6F6E2720 
 456      272D666C 
 456      746F2700 
 457              		.text
 458              		.cfi_sections	.debug_frame
 459              		.section	.text.Sfr02Start,"ax",%progbits
 460              		.align	2
 461              		.p2align 4,,15
 462              		.global	Sfr02Start
 463              		.thumb
 464              		.thumb_func
 465              		.type	Sfr02Start, %function
 466              	Sfr02Start:
 467              	.LFB219:
 468              		.file 1 "./userlib/src/SFR02main.c"
 469              		.loc 1 32 0
 470              		.cfi_startproc
 471              		@ args = 0, pretend = 0, frame = 0
 472              		@ frame_needed = 0, uses_anonymous_args = 0
 473              	.LVL0:
 474 0000 2DE9F043 		push	{r4, r5, r6, r7, r8, r9, lr}
 475              		.cfi_def_cfa_offset 28
 476              		.cfi_offset 4, -28
 477              		.cfi_offset 5, -24
ARM GAS  /tmp/ccF5nXKa.s 			page 37


 478              		.cfi_offset 6, -20
 479              		.cfi_offset 7, -16
 480              		.cfi_offset 8, -12
 481              		.cfi_offset 9, -8
 482              		.cfi_offset 14, -4
 483              		.loc 1 45 0
 484 0004 40F20004 		movw	r4, #:lower16:I2CD1
 485 0008 C0F20004 		movt	r4, #:upper16:I2CD1
 486              		.loc 1 38 0
 487 000c 40F20006 		movw	r6, #:lower16:.LANCHOR0
 488              		.loc 1 40 0
 489 0010 40F20007 		movw	r7, #:lower16:.LANCHOR1
 490              		.loc 1 32 0
 491 0014 85B0     		sub	sp, sp, #20
 492              		.cfi_def_cfa_offset 48
 493              		.loc 1 38 0
 494 0016 0025     		movs	r5, #0
 495 0018 C0F20006 		movt	r6, #:upper16:.LANCHOR0
 496              		.loc 1 40 0
 497 001c 4FF00209 		mov	r9, #2
 498              		.loc 1 46 0
 499 0020 4FF6FF78 		movw	r8, #65535
 500              		.loc 1 45 0
 501 0024 2046     		mov	r0, r4
 502              		.loc 1 39 0
 503 0026 5123     		movs	r3, #81
 504              		.loc 1 40 0
 505 0028 C0F20007 		movt	r7, #:upper16:.LANCHOR1
 506              		.loc 1 39 0
 507 002c 7370     		strb	r3, [r6, #1]
 508              		.loc 1 38 0
 509 002e 3570     		strb	r5, [r6]
 510              		.loc 1 40 0
 511 0030 87F80090 		strb	r9, [r7]
 512              		.loc 1 45 0
 513 0034 FFF7FEFF 		bl	i2cAcquireBus
 514              	.LVL1:
 515              		.loc 1 46 0
 516 0038 3246     		mov	r2, r6
 517 003a 4B46     		mov	r3, r9
 518 003c 7021     		movs	r1, #112
 519 003e 0095     		str	r5, [sp]
 520 0040 0195     		str	r5, [sp, #4]
 521 0042 2046     		mov	r0, r4
 522 0044 CDF80880 		str	r8, [sp, #8]
 523 0048 FFF7FEFF 		bl	i2cMasterTransmitTimeout
 524              	.LVL2:
 525              		.loc 1 47 0
 526 004c 2046     		mov	r0, r4
 527 004e FFF7FEFF 		bl	i2cReleaseBus
 528              	.LVL3:
 529              		.loc 1 49 0
 530 0052 4620     		movs	r0, #70
 531 0054 FFF7FEFF 		bl	chThdSleep
 532              	.LVL4:
 533              		.loc 1 51 0
 534 0058 2046     		mov	r0, r4
ARM GAS  /tmp/ccF5nXKa.s 			page 38


 535 005a FFF7FEFF 		bl	i2cAcquireBus
 536              	.LVL5:
 537              		.loc 1 52 0
 538 005e 3A46     		mov	r2, r7
 539 0060 7021     		movs	r1, #112
 540 0062 0123     		movs	r3, #1
 541 0064 0095     		str	r5, [sp]
 542 0066 0195     		str	r5, [sp, #4]
 543 0068 CDF80880 		str	r8, [sp, #8]
 544 006c 2046     		mov	r0, r4
 545 006e FFF7FEFF 		bl	i2cMasterTransmitTimeout
 546              	.LVL6:
 547              		.loc 1 56 0
 548 0072 40F20005 		movw	r5, #:lower16:.LANCHOR2
 549              		.loc 1 53 0
 550 0076 2046     		mov	r0, r4
 551 0078 FFF7FEFF 		bl	i2cReleaseBus
 552              	.LVL7:
 553              		.loc 1 56 0
 554 007c C0F20005 		movt	r5, #:upper16:.LANCHOR2
 555              		.loc 1 55 0
 556 0080 2046     		mov	r0, r4
 557 0082 FFF7FEFF 		bl	i2cAcquireBus
 558              	.LVL8:
 559              		.loc 1 56 0
 560 0086 4B46     		mov	r3, r9
 561 0088 2A46     		mov	r2, r5
 562 008a 7021     		movs	r1, #112
 563 008c CDF80080 		str	r8, [sp]
 564 0090 2046     		mov	r0, r4
 565 0092 FFF7FEFF 		bl	i2cMasterReceiveTimeout
 566              	.LVL9:
 567              		.loc 1 57 0
 568 0096 2046     		mov	r0, r4
 569 0098 FFF7FEFF 		bl	i2cReleaseBus
 570              	.LVL10:
 571              		.loc 1 67 0
 572 009c 2A78     		ldrb	r2, [r5]	@ zero_extendqisi2
 573 009e 6B78     		ldrb	r3, [r5, #1]	@ zero_extendqisi2
 574              		.loc 1 69 0
 575 00a0 40F20000 		movw	r0, #:lower16:SD2
 576              		.loc 1 67 0
 577 00a4 43EA0222 		orr	r2, r3, r2, lsl #8
 578              		.loc 1 69 0
 579 00a8 40F20001 		movw	r1, #:lower16:.LC0
 580 00ac 12B2     		sxth	r2, r2
 581 00ae C0F20001 		movt	r1, #:upper16:.LC0
 582 00b2 C0F20000 		movt	r0, #:upper16:SD2
 583 00b6 FFF7FEFF 		bl	chprintf
 584              	.LVL11:
 585              		.loc 1 71 0
 586 00ba 4FF4FA70 		mov	r0, #500
 587              		.loc 1 79 0
 588 00be 05B0     		add	sp, sp, #20
 589              		@ sp needed
 590 00c0 BDE8F043 		pop	{r4, r5, r6, r7, r8, r9, lr}
 591              		.loc 1 71 0
ARM GAS  /tmp/ccF5nXKa.s 			page 39


 592 00c4 FFF7FEBF 		b	chThdSleep
 593              	.LVL12:
 594              		.cfi_endproc
 595              	.LFE219:
 596              		.size	Sfr02Start, .-Sfr02Start
 597 00c8 AFF30080 		.section	.bss.SDA_rx_data,"aw",%nobits
 597      AFF30080 
 598              		.align	2
 599              		.set	.LANCHOR2,. + 0
 600              		.type	SDA_rx_data, %object
 601              		.size	SDA_rx_data, 8
 602              	SDA_rx_data:
 603 0000 00000000 		.space	8
 603      00000000 
 604              		.section	.bss.SDA_value,"aw",%nobits
 605              		.align	2
 606              		.set	.LANCHOR1,. + 0
 607              		.type	SDA_value, %object
 608              		.size	SDA_value, 8
 609              	SDA_value:
 610 0000 00000000 		.space	8
 610      00000000 
 611              		.section	.rodata.str1.4,"aMS",%progbits,1
 612              		.align	2
 613              	.LC0:
 614 0000 456C2072 		.ascii	"El resultado es= %d\012\015\000"
 614      6573756C 
 614      7461646F 
 614      2065733D 
 614      2025640A 
 615 0016 0000     		.section	.bss.SDA_tx_data,"aw",%nobits
 616              		.align	2
 617              		.set	.LANCHOR0,. + 0
 618              		.type	SDA_tx_data, %object
 619              		.size	SDA_tx_data, 8
 620              	SDA_tx_data:
 621 0000 00000000 		.space	8
 621      00000000 
 622              		.text
 623              	.Letext0:
 624              		.file 2 "/home/julian/MEGA/semestre_ix/Embebidos/arm-2013.11/lib/gcc/arm-none-eabi/4.8.1/include/s
 625              		.file 3 "/home/julian/MEGA/semestre_ix/Embebidos/arm-2013.11/arm-none-eabi/include/stdint.h"
 626              		.file 4 "../../../os/common/ports/ARMCMx/compilers/GCC/chtypes.h"
 627              		.file 5 "../../../os/rt/include/chsystypes.h"
 628              		.file 6 "../../../os/rt/include/chschd.h"
 629              		.file 7 "../../../os/common/ext/CMSIS/ST/STM32F1xx/stm32f100xb.h"
 630              		.file 8 "../../../os/common/ports/ARMCMx/chcore.h"
 631              		.file 9 "../../../os/common/ports/ARMCMx/chcore_v7m.h"
 632              		.file 10 "../../../os/rt/include/chsem.h"
 633              		.file 11 "../../../os/rt/include/chmtx.h"
 634              		.file 12 "../../../os/rt/include/chevents.h"
 635              		.file 13 "../../../os/hal/ports/STM32/LLD/DMAv1/stm32_dma.h"
 636              		.file 14 "../../../os/hal/include/hal_channels.h"
 637              		.file 15 "../../../os/hal/include/hal_queues.h"
 638              		.file 16 "../../../os/hal/include/hal_i2c.h"
 639              		.file 17 "../../../os/hal/ports/STM32/LLD/I2Cv1/hal_i2c_lld.h"
 640              		.file 18 "../../../os/hal/include/hal_serial.h"
ARM GAS  /tmp/ccF5nXKa.s 			page 40


 641              		.file 19 "../../../os/common/ext/CMSIS/include/core_cm3.h"
 642              		.file 20 "../../../os/hal/ports/STM32/LLD/USARTv1/hal_serial_lld.h"
 643              		.file 21 "../../../os/rt/include/chthreads.h"