ARM GAS  /tmp/ccF5nXKa.s 			page 1


   1              		.syntax unified
   2              		.cpu cortex-m3
   3              		.fpu softvfp
   4              		.eabi_attribute 20, 1
   5              		.eabi_attribute 21, 1
   6              		.eabi_attribute 23, 3
   7              		.eabi_attribute 24, 1
   8              		.eabi_attribute 25, 1
   9              		.eabi_attribute 26, 1
  10              		.eabi_attribute 30, 2
  11              		.eabi_attribute 34, 1
  12              		.eabi_attribute 18, 4
  13              		.thumb
  14              		.file	"SFR02main.c"
  15              		.text
  16              	.Ltext0:
  17              		.section	.gnu.lto_.jmpfuncs.ccf8af29b23512b6,"",%progbits
  18 0000 789C6362 		.ascii	"x\234cb`b\300\006\226020\210\003i \305\310\024\301\230"
  18      6062C006 
  18      96303230 
  18      88036920 
  18      C5C814C1 
  19 0015 C9C8F085 		.ascii	"\311\310\360\205\231\201\201\231\251\232\341WCG\203"
  19      99818199 
  19      A99AE157 
  19      434783
  20 0024 40262363 		.ascii	"@&#c.#X!Xd\006H\204I\216\201qn\303\014\207LFf\250!\214"
  20      2E235821 
  20      58640648 
  20      84498E81 
  20      716EC30C 
  21 003f 08E52CB9 		.ascii	"\010\345,\271\214`\365\254\230B`\343Y\013\240F\201\245"
  21      8C60F5AC 
  21      984260E3 
  21      590BA046 
  21      81A5
  22 0051 D8721999 		.ascii	"\330r\031\231\340R\354LP\006\303\377\377\314X\015\305"
  22      E052EC4C 
  22      5006C3FF 
  22      FFCC580D 
  22      C5
  23 0062 22C44EAC 		.ascii	"\"\304N\254=\314\010{\030\241\014\016\270\010\003a\233"
  23      3DCC087B 
  23      18A10C0E 
  23      B8080361 
  23      9B
  24 0073 C1D26E94 		.ascii	"\301\322n\224\271\201\005\323\257$\270\201A\3145G\241"
  24      B98105D3 
  24      AF24B881 
  24      41CC3547 
  24      A1
  25 0084 28B5B834 		.ascii	"(\265\2704\247$1%_!\265\330VA5\205\213\227\001\000\300"
  25      A7243125 
  25      5F21B5D8 
  25      56413585 
  25      8B970100 
  26 0099 125501   		.ascii	"\022U\001"
ARM GAS  /tmp/ccF5nXKa.s 			page 2


  27              		.text
  28              		.section	.gnu.lto_.inline.ccf8af29b23512b6,"",%progbits
  29 0000 789C6362 		.ascii	"x\234cb`b\300\006\012\2414#\003\203\311|FF\006&\276"
  29      6062C006 
  29      0AA13423 
  29      0383C97C 
  29      46460626 
  30 0015 0DB90C6C 		.ascii	"\015\271\014l\013\344\301\252\231\270A\022,\274\014"
  30      0BE4C1AA 
  30      99B84112 
  30      2CBC0C
  31 0024 0CCC0C0C 		.ascii	"\014\314\014\014\023\374 \\6~\006\006V\006\2044\204"
  31      13FC205C 
  31      367E0606 
  31      56068434 
  31      84
  32 0035 E4106460 		.ascii	"\344\020d``\207\232\205,\216K\226\001\000\307\326\004"
  32      60879A85 
  32      2C8E4B96 
  32      0100C7D6 
  32      04
  33 0046 FC       		.ascii	"\374"
  34              		.text
  35              		.section	.gnu.lto_.pureconst.ccf8af29b23512b6,"",%progbits
  36 0000 789C6362 		.ascii	"x\234cb`b`f\200\000F\006\011\000\000\203\000!"
  36      60626066 
  36      80004606 
  36      09000083 
  36      0021
  37              		.text
  38              		.section	.gnu.lto_Sfr02Start.ccf8af29b23512b6,"",%progbits
  39 0000 789CAD54 		.ascii	"x\234\255TKL\023a\020\236\331\205\272\"\320\002m\241"
  39      4B4C1361 
  39      109ED985 
  39      BA22D002 
  39      6DA1
  40 0012 10B5317A 		.ascii	"\020\2651zR\300\030.\036\214^\344\340I\021\023=\326"
  40      52C0182E 
  40      1E8C5EE4 
  40      E0491113 
  40      3DD6
  41 0024 05EB2614 		.ascii	"\005\353&\024I[\342\301\003\177\201\003\211\030\033"
  41      495BE2C1 
  41      037F8103 
  41      89181B
  42 0033 B8101A0D 		.ascii	"\270\020\032\015D\023/\032O&z\353\311\320DEcL<hlLL$"
  42      44132F1A 
  42      4F267AEB 
  42      C9D04445 
  42      634C3C68 
  43 004b 1535C603 		.ascii	"\0255\306\003>\302:\263\377n\351\203G\254n\322\3771"
  43      3EC23AB3 
  43      FF6EE983 
  43      47AC6ED2 
  43      FF31
  44 005d 33DF378F 		.ascii	"3\3377\217\177\246\012(P\372\005\350\367\321\005p\202"
  44      7FA60A28 
ARM GAS  /tmp/ccF5nXKa.s 			page 3


  44      50FA05E8 
  44      F7D10570 
  44      82
  45 006e 76540195 		.ascii	"vT\001\225\3443\200\204\246 \362\001\020F\024\0349\207"
  45      E4338084 
  45      A620F201 
  45      1046141C 
  45      3987
  46 0080 6C8A7B60 		.ascii	"l\212{`^\210d\366\303\324\265\0261\227H\212U\323D\003"
  46      5E8864F6 
  46      C3D4B516 
  46      3197488A 
  46      55D34403 
  47 0094 89742782 		.ascii	"\211t'\202\216p\226.\350\2616\245\304\321}%\2355\315"
  47      8E70962E 
  47      E8B136A5 
  47      C4D17D25 
  47      9D35CD
  48 00a7 C9CCD5D5 		.ascii	"\311\314\325\325\000\006\334`\240\352\241\245\252\201"
  48      0006DC60 
  48      A0EAA1A5 
  48      AA81
  49 00b5 97465AA0 		.ascii	"\227FZ\240\211e^>\371 \204\363\344\312\317:\202V\303"
  49      89655E3E 
  49      F92084F3 
  49      E4CACF3A 
  49      8256C3
  50 00c8 38390D4A 		.ascii	"89\015J\337\351\351\245\005\024S\"\361\3254\335\006"
  50      DFE9E9A5 
  50      05145322 
  50      F1D534DD 
  50      06
  51 00d9 562BB077 		.ascii	"V+\260w\315uP\272\256*v-\331v\303M\221M\246S\217381"
  51      CD7550BA 
  51      AE2A762D 
  51      D976C34D 
  51      914DA653 
  52 00f1 257E9BA6 		.ascii	"%~\233\246J\364.\005\366[\360b\373;X\022\275\264\350"
  52      4AF42E05 
  52      F65BF062 
  52      FB3B5812 
  52      BDB4E8
  53 0104 A5956B72 		.ascii	"\245\225kr\206\324\264\253\031\030\315f\272Bx\013\253"
  53      86D4B4AB 
  53      1918CD66 
  53      BA42780B 
  53      AB
  54 0115 09749B9C 		.ascii	"\011t\233\234\260\373ml\372\024F\037\276~\351\223\272"
  54      B0FB6D6C 
  54      FA14461F 
  54      BE7EE993 
  54      BA
  55 0126 76B82BE8 		.ascii	"v\270+\350;j\240\226\202\331\204\020\036\003\267_\201"
  55      3B6AA096 
  55      82D98410 
  55      1E03B75F 
  55      81
ARM GAS  /tmp/ccF5nXKa.s 			page 4


  56 0137 9F62824F 		.ascii	"\237b\202O5\021\213\234\2415\340\234\326R\340\233\346"
  56      35118B9C 
  56      A135E09C 
  56      D652E09B 
  56      E6
  57 0148 50AEFC0B 		.ascii	"P\256\374\013%\026Q\236\262)'\374E\214\2077d\304\255"
  57      2516519E 
  57      B22927FC 
  57      458C8737 
  57      64C4AD
  58 015b 82E49A2D 		.ascii	"\202\344\232-\302x\366m\217d\004\310\303w\350(\275\263"
  58      C278F66D 
  58      8F6404C8 
  58      C377E828 
  58      BDB3
  59 016d 4433B036 		.ascii	"D3\2606\202\212md`\035\303f\305\247\234\253\014W\257"
  59      828A6D64 
  59      601DC366 
  59      C5A79CAB 
  59      0C57AF
  60 0180 DB2F2125 		.ascii	"\333/!%\"\205EXv\353\036r\224\277Pf^\240\364(\326\326"
  60      22854558 
  60      76EB1E72 
  60      94BF5066 
  60      5EA0F428 
  61 0196 60DFE4D6 		.ascii	"`\337\344\326(\337\276\011\200\0360\335V\370~`\247\360"
  61      28DFBE09 
  61      801E30DD 
  61      56F87E60 
  61      A7F0
  62 01a8 6EDD14D4 		.ascii	"n\335\024\324\315S\030\317.ie0\257n\227\311\362\334"
  62      CD5318CF 
  62      2E696530 
  62      AF6E97C9 
  62      F2DC
  63 01ba 4DB63E69 		.ascii	"M\266>i\233\253\254JO\226\377O\225\260\260JXY\225\226"
  63      9BABAC4A 
  63      4F96FF4F 
  63      95B0B04A 
  63      58599596 
  64 01ce 2BABD297 		.ascii	"+\253\322\227\223\025d>#&\027\353\313p~\335\272\257"
  64      9315643E 
  64      232617EB 
  64      CB707EDD 
  64      BAAF
  65 01e0 872BCEFA 		.ascii	"\207+\316\372\225\314Z-\357\015;\317f\031\333\217uc"
  65      95CC5A2D 
  65      EF0D3BCF 
  65      6619DB8F 
  65      7563
  66 01f2 DB34251A 		.ascii	"\3334%\032\2427+\357\027l\3520\272\333\341\300\206C"
  66      A2372BEF 
  66      176CEA30 
  66      BADBE1C0 
  66      8643
  67 0204 A46E3244 		.ascii	"\244n2D\026\325\347\261o\3500y\210\214\205c\367\362"
  67      16D5E7B1 
ARM GAS  /tmp/ccF5nXKa.s 			page 5


  67      6FE83079 
  67      888C8563 
  67      F7F2
  68 0216 E40D24B5 		.ascii	"\344\015$\265P\2324\317\215\015:\252\3060\277 G\363"
  68      509A34CF 
  68      8D0D3AAA 
  68      C630BF20 
  68      47F3
  69 0228 BCD99135 		.ascii	"\274\331\2215\375e,X\022K\236\334\033\346N\240P\036"
  69      FD652C58 
  69      124B9EDC 
  69      1BE64EA0 
  69      501E
  70 023a E543F159 		.ascii	"\345C\361Y.\275\334\037\212\323\035\374G\033\346\016"
  70      2EBDDC1F 
  70      8AD31DFC 
  70      471BE60E 
  71 024a B7D00F6A 		.ascii	"\267\320\017j\035[\177X\266}y\357\266\350\350*\354\335"
  71      1D5B7F58 
  71      B67D79EF 
  71      B6E8E82A 
  71      ECDD
  72 025c CB060622 		.ascii	"\313\006\006\"Xe\333\261pF\210i\212\255u\027t\335\020"
  72      5865DBB1 
  72      70468869 
  72      8AAD7517 
  72      74DD10
  73 026f 33C70C6C 		.ascii	"3\307\014ls&\234x\015F\363\303]\327\267\030\275\357"
  73      73269C78 
  73      0D46F3C3 
  73      5DD7B718 
  73      BDEF
  74 0281 AA9CBD17 		.ascii	"\252\234\275\027\220\230K9}`\177\275\324}\364\207\316"
  74      90984B39 
  74      7D607FBD 
  74      D47DF487 
  74      CE
  75 0292 43D4DAD1 		.ascii	"C\324\332\3219\034\353\217\016\030\347;cQ\275\363tw"
  75      391CEB8F 
  75      0E18E73B 
  75      6351BDF3 
  75      7477
  76 02a4 CFC14391 		.ascii	"\317\301C\221\2201\330\241\203+\332\037\033\036\210"
  76      9031D8A1 
  76      832BDA1F 
  76      1B1E88
  77 02b3 BB62F150 		.ascii	"\273b\361P|8\246\351\027\207\242\306`\374\202\377\370"
  77      7C38A6E9 
  77      1787A2C6 
  77      60FC82FF 
  77      F8
  78 02c4 40506A42 		.ascii	"@PjB}\227\202\375\261#\301}}5u\360\007\255[\247\355"
  78      7D9782FD 
  78      B123C17D 
  78      7D3575F0 
  78      07AD5BA7 
  79              		.text
ARM GAS  /tmp/ccF5nXKa.s 			page 6


  80              		.section	.gnu.lto_.symbol_nodes.ccf8af29b23512b6,"",%progbits
  81 0000 789C45CC 		.ascii	"x\234E\314K\016\2020\024\205\341s\372@\224E\260\324"
  81      4B0E8230 
  81      1485E173 
  81      FA409445 
  81      B0D4
  82 0012 4B42228E 		.ascii	"KB\"\216\210+\320A\227\322\271\033P\243\200\217\230"
  82      882BD041 
  82      97D2B91B 
  82      50A3808F 
  82      98
  83 0023 B006232D 		.ascii	"\260\006#-\304v\362\345\277m\257\202\302\007\313Q7\012"
  83      C476F2E5 
  83      BF6DAF82 
  83      C207CB51 
  83      370A
  84 0035 B03F0122 		.ascii	"\260?\001\"\207\035\355\205\306\210\266W\352@GB`\317"
  84      871DED85 
  84      C688B657 
  84      EA404742 
  84      60CF
  85 0047 54A1DE9C 		.ascii	"T\241\336\234^\201\017\012\347\037UE\276(*\325@\321"
  85      5E810F0A 
  85      E71F5545 
  85      BE282AD5 
  85      40D1
  86 0059 A99E1493 		.ascii	"\251\236\024\223\352N\261\251zJ\366/\215\015\352\356"
  86      EA4EB1A9 
  86      7A4AF62F 
  86      8D0DEAEE 
  87 0069 3B59C045 		.ascii	";Y\300Es\014\321\014\365v,\303\275\213\026\360\321\034"
  87      730CD10C 
  87      F5762CC3 
  87      BD8B16F0 
  87      D11C
  88 007b 75B3CCA3 		.ascii	"u\263\314\243k\370f\236\017\321\025\\;\036MX\340\333"
  88      6BF8669E 
  88      0FD1155C 
  88      3B1E4D58 
  88      E0DB
  89 008d B1C40F4C 		.ascii	"\261\304\017L\373C\212"
  89      FB438A
  90              		.text
  91              		.section	.gnu.lto_.refs.ccf8af29b23512b6,"",%progbits
  92 0000 789C2D85 		.ascii	"x\234-\205\011\021\0000\010\200\020]\201\225\260\177"
  92      09110030 
  92      0880105D 
  92      8195B07F 
  93 0010 C3BD7007 		.ascii	"\303\275p\007\"\315c\022\007\315m\334\246\376\227IQ"
  93      22CD6312 
  93      07CD6DDC 
  93      A6FE9749 
  93      51
  94 0021 0E161059 		.ascii	"\016\026\020Y\000\216"
  94      008E
  95              		.text
  96              		.section	.gnu.lto_.decls.ccf8af29b23512b6,"",%progbits
ARM GAS  /tmp/ccF5nXKa.s 			page 7


  97 0000 789CB55C 		.ascii	"x\234\265\\\013p\024U\272\356\307<2$\204\200\217u\367"
  97      0B701455 
  97      BAEEC73C 
  97      32248480 
  97      8F75F7
  98 0013 7ACBAC77 		.ascii	"z\313\254w\275\345jIH\364\272X\345\2121A\315\256\210"
  98      BDE56A49 
  98      48F4BA58 
  98      E58A3141 
  98      CDAE88
  99 0026 950996D6 		.ascii	"\225\011\226\326\255[c3i\310\350d&\364t \334\332*\233"
  99      AD5B6333 
  99      69C8E864 
  99      26F47420 
  99      DCDA2A9B 
 100 003a 80110242 		.ascii	"\200\021\002BB@\202`x\310K@\014 `\000a\340\256$\006"
 100      42408260 
 100      78C84B40 
 100      0C206000 
 100      61E0AE24 
 101 004f 05F28060 		.ascii	"\005\362\200`\242\030D\024\324{\327\310C\036!\271\347"
 101      A2184414 
 101      D47BD7C8 
 101      431E21B9 
 101      E7
 102 0060 FCDD3DD3 		.ascii	"\374\335=\323\335\323=\323=\270S\351\177\316\234\351"
 102      DDD33DD3 
 102      3DB853E9 
 102      7FCE9CE9 
 103 0070 F39DFF75 		.ascii	"\363\235\377u\376s\376szB\021\0241\232$\210A\364\342"
 103      FE73FE73 
 103      7A421114 
 103      319A2488 
 103      41F4E2
 104 0083 5E2088BD 		.ascii	"^ \210\275.\002\325\020\304c\350BE\202F\327*t\015A\225"
 104      2E02D510 
 104      C463E842 
 104      458246D7 
 104      2A740D41 
 105 0098 A9E81A8A 		.ascii	"\251\350\032\212\256\"t\255A\327VT\177\220\020_Nt\255"
 105      AE2274AD 
 105      41D75654 
 105      7F90105F 
 105      4E74AD
 106 00ab 47759BD0 		.ascii	"Gu\233\320\365>\272\266\241k'\272\366\241+\214.;\372"
 106      F53EBAB6 
 106      A16B27BA 
 106      F6A12B8C 
 106      2E3BFA
 107 00be BE15BD7F 		.ascii	"\276\025\275\177\212\256#\350:\206\256v\212P\275p\373"
 107      8AAE23E8 
 107      3A86AE76 
 107      8A50BD70 
 107      FB
 108 00cf 3B09B1FF 		.ascii	";\011\261\377tt\245\241\013\261F\330\320\325\202\256"
 108      7474A5A1 
 108      0BB146D8 
ARM GAS  /tmp/ccF5nXKa.s 			page 8


 108      D0D582AE 
 109 00df 46F48503 		.ascii	"F\364\205\003\2757\241k\255\304C\247\304\323vt\035\227"
 109      BD37A16B 
 109      ADC443A7 
 109      C4D37674 
 109      1D97
 110 00f1 7893F9C2 		.ascii	"x\223\371\302\274\037@\237O\240k3\272\272\320\265\013"
 110      BC1F409F 
 110      4FA06B33 
 110      BABAD0B5 
 110      0B
 111 0102 5D2729B5 		.ascii	"]')\265LJ\376e~\267I\262\354\224\344\301\374\267K|\313"
 111      4C4AFE65 
 111      7EB749B2 
 111      EC94E4C1 
 111      FCB74B7C 
 112 0117 32B46AF8 		.ascii	"2\264j\370O%\252\005\241RXY%<\335\222>\202\250\025\320"
 112      4F25AA05 
 112      A1525859 
 112      253CDD92 
 112      3E82A815 
 113 012c 2BB30549 		.ascii	"+\263\005I\362\002\311\220\351.\242\327\011\2454\027"
 113      F202C990 
 113      E92EA2D7 
 113      09A53417 
 114 013c F13774F7 		.ascii	"\3617t\367=\304\032A\250\351]\373\3639Z\020R\030r59"
 114      3DC41A41 
 114      A8E95DFB 
 114      F3395A10 
 114      52187235 
 115 0151 02497E2F 		.ascii	"\002I~/I\334G\274\213\032\326\010\302\352\177!b_\011"
 115      49DC47BC 
 115      8B1AD608 
 115      C2EA7F21 
 115      625F09
 116 0164 7119720D 		.ascii	"q\031r\015I!\272\016\3411\344Z\362>\261'!\374\313\353"
 116      4921BA0E 
 116      E131E45A 
 116      F23EB127 
 116      21FCCBEB 
 117 0178 69824DAC 		.ascii	"i\202M\254'\244ot^\277'V\"!\302\327\233\327\374VXy\220"
 117      27A46F74 
 117      5EBF2756 
 117      2221C2D7 
 117      9BD7FC56 
 118 018f D49309DD 		.ascii	"\324\223\011\335@*\272\027(\271\373L0\336\243\244\036"
 118      402ABA17 
 118      28B9FB4C 
 118      30DEA3A4 
 118      1E
 119 01a0 93EABB18 		.ascii	"\223\352\273\030r\0230\271Y\313d\233\310\344fSLv4\177"
 119      721330B9 
 119      59CB649B 
 119      C8E46653 
 119      4C76347F 
 120 01b4 420A0BD3 		.ascii	"B\012\013\323T<\336N,\006\036\253\020\223\274\213\230"
 120      543CDE4E 
ARM GAS  /tmp/ccF5nXKa.s 			page 9


 120      2C061EAB 
 120      1093BC8B 
 120      98
 121 01c5 1DFD26C2 		.ascii	"\035\375&\302J\246\314\211-j\206\246\252\023\027\310"
 121      4AA6CC89 
 121      2D6A86A6 
 121      AA1317C8 
 122 01d5 4AD48621 		.ascii	"J\324\206!\267\222.$\305\026\222T\365\317\220v\227\222"
 122      B7922E24 
 122      C5169254 
 122      F5CF9076 
 122      9792
 123 01e7 05F82CDF 		.ascii	"\005\370,\337\200\361\340k\251\200G\3230\375\376p\313"
 123      80F1E06B 
 123      A98047D3 
 123      30FDFE70 
 123      CB
 124 01f8 46F27628 		.ascii	"F\362v(\321\340\352\250bL\252\\V\311\"\261\337\2736"
 124      D1E0EAA8 
 124      624CAA5C 
 124      56C922B1 
 124      DFBB36
 125 020b 7C477D94 		.ascii	"|G}\224\375\024\031\216\214\262\337=\367\001\301\026"
 125      FD14198E 
 125      8CB2DF3D 
 125      F701C116 
 126 021b B95D30BC 		.ascii	"\271]0\274\235!?$\357A\224T\363N\272\242\205A\022\033"
 126      9D213F24 
 126      EF419454 
 126      F34EBAA2 
 126      8541121B 
 127 022f 710EA515 		.ascii	"q\016\245\025\237\324\210\237\000\302H\366\235\310\245"
 127      9FD4889F 
 127      00C248F6 
 127      9DC8A5
 128 023e A2AF8806 		.ascii	"\242\257\210\006\266\212\360\0149\201\216|i\004\361"
 128      B68AF00C 
 128      39818E7C 
 128      6904F1
 129 024d 7E148222 		.ascii	"~\024\202\"j\201Q\354/z\267KE\025\236\312\207z\327^"
 129      6A8151EC 
 129      2F7AB74B 
 129      45159ECA 
 129      877AD75E 
 130 0261 AB8F7574 		.ascii	"\253\217ut\225\023\211\314\0311\263\337\244-\031\262"
 130      951389CC 
 130      1931B3DF 
 130      A42D19B2 
 131 0271 290ECAC1 		.ascii	")\016\312\301\233\327\312>\245V\226X\326J\246R+\302"
 131      9BD7CA3E 
 131      A5569658 
 131      D64AA652 
 131      2BC2
 132 0283 36417039 		.ascii	"6Ap9\022\214+\301\314\270\272\332\376\3676r&\214\253"
 132      128C2BC1 
 132      CCB8BADA 
 132      FEF73672 
ARM GAS  /tmp/ccF5nXKa.s 			page 10


 132      268CAB
 133 0296 161857C7 		.ascii	"\026\030W\3075\216e\036\252\347\360\3216i\210\036\006"
 133      358E651E 
 133      AAE7F0D1 
 133      3669881E 
 133      06
 134 02a7 A89E181F 		.ascii	"\250\236\030\037uh|\324\241\366Q\364\021\367u\005\017"
 134      75687CD4 
 134      A1F651F4 
 134      11F77505 
 134      0F
 135 02b8 4FF255A9 		.ascii	"O\362U\251\006\177p\022I\26732G\263\261_\210\256`\326"
 135      067F7012 
 135      49B73332 
 135      47B3B15F 
 135      88AE60D6 
 136 02cc AE879476 		.ascii	"\256\207\224v=c\306\256)7\347\355-q\374\264CG*SR\264"
 136      3D63C6AE 
 136      2937E7ED 
 136      2D71FCB4 
 136      43472A53 
 137 02e2 2BA5F8CE 		.ascii	"+\245\370\316\262\024\226\2743\276\010'M\030F\372,\005"
 137      B21496BC 
 137      33BE0827 
 137      4D1846FA 
 137      2C05
 138 02f4 54A14AB8 		.ascii	"T\241J\270wC\32473dD*\352\233\273\272v\336\007\263\370"
 138      7743D437 
 138      3364442A 
 138      EA9BBBBA 
 138      76DE07B3 
 139 0309 17E09935 		.ascii	"\027\340\2315\264\216\223\233\002\352\231\273k4\000"
 139      B48E939B 
 139      02EA99BB 
 139      6B3400
 140 0318 7D05406F 		.ascii	"}\005@o\321Z\027\2475.N\253]\225vE\013\203\2034a\371"
 140      D15A17A7 
 140      352E4EAB 
 140      5D957645 
 140      0B838334 
 141 032e 6653D6EC 		.ascii	"fS\326\354RZ\363\035\332\20453\376y>y6\236A\277\260"
 141      525AF31D 
 141      DA843533 
 141      FE793E79 
 141      369E41BF 
 142 0343 30D2BE51 		.ascii	"0\322\276QJ\265\301\262T\026}4\336\244\362C<\221\244"
 142      4AB5C1B2 
 142      54167D34 
 142      DEA4F243 
 142      3C91A4
 143 0356 19543B49 		.ascii	"\031T;I$%\362\367J\221\3373#\362\035\206\206\2749\221"
 143      2425F2F7 
 143      4A91DF33 
 143      23F21D86 
 143      86BC3991 
 144 036a 2FC413F9 		.ascii	"/\304\023\371\340\257(\362\317J\221?\260,r&\241~\311"
 144      E0AF28F2 
ARM GAS  /tmp/ccF5nXKa.s 			page 11


 144      CF4A913F 
 144      B02C7226 
 144      A17EC9
 145 037d E38921B7 		.ascii	"\343\211!\267\220\277G\364#\240\037\003m\003z\002\350"
 145      90BF47F4 
 145      23A01F03 
 145      6D037A02 
 145      E8
 146 038e 19A0E781 		.ascii	"\031\240\347\201\366!\232\220\317w\225|\356\006>\327"
 146      F6219A90 
 146      CF77957C 
 146      EE063ED7 
 147 039e 25B9CA11 		.ascii	"%\271\312\021\302\375\315i5\214\274|w$\230h\373\227"
 147      C2FDCD69 
 147      358CBC7C 
 147      77249868 
 147      FB97
 148 03b0 1D252106 		.ascii	"\035%!\006]\207\224\344\264&\006%\204\241\210\237\240"
 148      5D8794E4 
 148      B4260625 
 148      84A1889F 
 148      A0
 149 03c1 C9807671 		.ascii	"\311\200vq\277\243\352V\274\270\0370\265\270\337U\365"
 149      BFA3EA56 
 149      BCB81F30 
 149      B5B8DF55 
 149      F5
 150 03d2 B66106A2 		.ascii	"\266a\006\242L,V\222r\337\267FD\010\177~\203\314d\310"
 150      4C2C5692 
 150      72DFB746 
 150      44087F7E 
 150      83CC64C8 
 151 03e6 9914E6FF 		.ascii	"\231\024\346\377\206>\377\306\030\0241\337\206\233T"
 151      863EFFC6 
 151      181431DF 
 151      869B54
 152 03f5 511AFE2F 		.ascii	"Q\032\376/0\231bmb\356/\235\207\324\204!+\251T\004\370"
 152      3099626D 
 152      62EE2F9D 
 152      87D48421 
 152      2BA95404 
 153 040a 760430A9 		.ascii	"v\0040\251Uj\370\032\3332*\241\"l2P~\324\226;\273\306"
 153      556AF81A 
 153      DB322AA1 
 153      226C3250 
 153      7ED4963B 
 154 0420 6095BF01 		.ascii	"`\225\277\001\232XmK\254\011\025\010El\202&5\032M\364"
 154      9A586D4B 
 154      AC091508 
 154      456C8226 
 154      351A4DF4 
 155 0434 F69C3976 		.ascii	"\366\2349v\177\275 d\210_%R\007\312=[\227\223\330\230"
 155      7FBD2064 
 155      885F2552 
 155      07CA3D5B 
 155      9793D898 
 156 0448 3A3D3EAE 		.ascii	":=>\256\234\360\345\351tIg-9\013\226z\213\200\363\023"
ARM GAS  /tmp/ccF5nXKa.s 			page 12


 156      9CF0E5E9 
 156      7449672D 
 156      390B967A 
 156      8B80F313 
 157 045c FA9CAF7C 		.ascii	"\372\234\257|\334\010\210\"\276\205&Kb9\277\362G\221"
 157      DC088822 
 157      BE85264B 
 157      6239BFF2 
 157      4791
 158 046e F325A60C 		.ascii	"\363%\246\014\331V-\272!C\316\243\360Z\247\232\242$"
 158      D9562DBA 
 158      2143CEA3 
 158      F05AA79A 
 158      A224
 159 0480 D8E42CD9 		.ascii	"\330\344,\331\336\212F\242\010F\021\277Dx\264\270L\327"
 159      DE8A46A2 
 159      084611BF 
 159      4478B4B8 
 159      4CD7
 160 0492 7B298565 		.ascii	"{)\205e\310\245\024\316\363\336\242p\274YF)\342\015"
 160      C8A514CE 
 160      F3DEA270 
 160      BC594629 
 160      E20D
 161 04a4 45F4476C 		.ascii	"E\364Gl\252\247\271\304\"\\m]\016*1\237]_]\030\311\002"
 161      AAA7B9C4 
 161      225C6D5D 
 161      0E2A319F 
 161      5D5F5D18 
 162 04ba 5650785D 		.ascii	"VPx]Si\327] \231\311\002\346v\366IY\300j\200\252\266"
 162      5369D75D 
 162      2099C902 
 162      E676F649 
 162      59C06A80 
 163 04d0 6B97484E 		.ascii	"k\227HN\315\022\311\251^\3658]\321\202\224\250[\274"
 163      CD12C9A9 
 163      5EF5385D 
 163      D18294A8 
 163      5BBC
 164 04e2 9D22EAEC 		.ascii	"\235\"\352\354\032\025ZZ\207c/<w\177\023\232/\3478L"
 164      1A155A5A 
 164      87632F3C 
 164      777F139A 
 164      2FE7384C 
 165 04f6 44D37AE8 		.ascii	"D\323z\350l\275\326\223\227\375\320\"y\362zS\236\274"
 165      6CBDD693 
 165      97FDD022 
 165      79F27A53 
 165      9EBC
 166 0508 A37589B9 		.ascii	"\243u\211\271\200\032\331\251\371\003t\177\024\272\337"
 166      801AD9A9 
 166      F903747F 
 166      14BADF
 167 0517 ACEDFE97 		.ascii	"\254\355\376\227\377k\371O\261\373\315\246\272o\352"
 167      FF6BF94F 
 167      B1FBCDA6 
 167      BA6FEA
ARM GAS  /tmp/ccF5nXKa.s 			page 13


 168 0526 5A14DB3D 		.ascii	"Z\024\333=C>v[<k/\373\341\334\235+\240\223F\0300s\034"
 168      433E765B 
 168      3C6B2FFB 
 168      E1DC9D2B 
 168      A0934618 
 169 053d 5A638F51 		.ascii	"Zc\217Q&\316rB\022\271\201\"\026:d\356\223\032\257H"
 169      26CE7242 
 169      12B98122 
 169      163A64EE 
 169      931AAF48 
 170 0551 CC73FFF5 		.ascii	"\314s\377\365.XJ\346a\261e\304L\225\"\366vA\004\020"
 170      2E584AE6 
 170      61B165C4 
 170      4C9522F6 
 170      76410410 
 171 0565 C1EACD80 		.ascii	"\301\352\315\200\031't\341}J\260e\226\301\324\234\035"
 171      192774E1 
 171      7D4AB065 
 171      96C1D49C 
 171      1D
 172 0576 53823598 		.ascii	"S\2025\230\0013^\326\207\333\225`\253,\203\2519\353"
 172      01335ED6 
 172      87DB9560 
 172      AB2C83A9 
 172      39EB
 173 0588 5482AD31 		.ascii	"T\202\2551\003f\274N\015\237P\202m\260\014\246\346\354"
 173      0366BC4E 
 173      0D9F5082 
 173      6DB00CA6 
 173      E6EC
 174 059a A4126CB3 		.ascii	"\244\022l\263\031\260L\035\316\"/\243\325\340&J\261"
 174      19B04C1D 
 174      CE222FA3 
 174      D5E0264A 
 174      B1
 175 05ab 1A7CDF21 		.ascii	"\032|\337!\007\004\213>MD1\2669\254F0\225\334x\036\275"
 175      07048B3E 
 175      4D4431B6 
 175      39AC4630 
 175      95DC781E 
 176 05c0 7FB7342E 		.ascii	"\177\2674.\304\311l\247\031\3048\016SsX13\356\265\014"
 176      C4C96CA7 
 176      19C4380E 
 176      53735831 
 176      33EEB50C 
 177 05d4 A6364B03 		.ascii	"\2466K\003\006Kj3\025\357\274S\212\255\324;\364\357"
 177      064B6A33 
 177      15EFBC53 
 177      8AADD43B 
 177      F4EF
 178 05e6 65C8CF60 		.ascii	"e\310\317`\206=B\271\"\\\210e\271$n\244\036t\2201\332"
 178      863D42B9 
 178      225C8865 
 178      B9246EA4 
 178      1E749031 
 179 05fb 976C1ABF 		.ascii	"\227l\032\277\251\221'\034VzB\263\0315\305\031\012\307"
 179      A991271C 
ARM GAS  /tmp/ccF5nXKa.s 			page 14


 179      567A42B3 
 179      1935C519 
 179      0AC7
 180 060d 8CD414AE 		.ascii	"\214\324\024\256\022f\2233\266\336\031w\231\206\242"
 180      12669333 
 180      B6DE1977 
 180      9986A2
 181 061c F3BF6E84 		.ascii	"\363\277n\204\350\334\001S\361\247\016\335Y\335\024"
 181      E8DC0153 
 181      F1A70EDD 
 181      59DD14
 182 062b 56CFDCFE 		.ascii	"V\317\334\376\003\322\022\341\004\200u\305\204z\227"
 182      03D212E1 
 182      048075C5 
 182      847A97
 183 063a 665E77A9 		.ascii	"f^w\251'j\227+Z\030\224_j\345\233nc\244\374v\245\362"
 183      276A972B 
 183      5A18945F 
 183      6AE59B6E 
 183      63A4FC76 
 184 0650 7B2D2B5F 		.ascii	"{-+_;\204\316\215l\332\"\0103\035&v\356#\373\251\373"
 184      3B84CE8D 
 184      6CDA2208 
 184      331D2676 
 184      EE23FBA9 
 185 0665 FE0CB959 		.ascii	"\376\014\271Y\017(\351\273\030%5Y\334\247G\311\232V"
 185      0F28E9BB 
 185      18253559 
 185      DCA747C9 
 185      9A56
 186 0677 0C55BF71 		.ascii	"\014U\277q\202VD\214\226,\313b,\224\304\350\0051.\377"
 186      8256448C 
 186      962CCB62 
 186      2C94C4E8 
 186      05312EFF 
 187 068b 0A620C58 		.ascii	"\012b\014X\026#E#\306OI\210\261_\024\343,\2101\313y"
 187      16234523 
 187      C64F4988 
 187      B15F14E3 
 187      2C8831CB 
 188 06a0 F362CC73 		.ascii	"\363b\314sZ\025#C!\006\3447\005\342\312\362\026ba\374"
 188      5A152343 
 188      2106E437 
 188      05E2CAF2 
 188      166261FC 
 189 06b4 95256C00 		.ascii	"\225%l\000Q\267\250s\334\343Gp\346\214\253\023gu\027"
 189      51B7A873 
 189      DCE34770 
 189      E68CAB13 
 189      677517
 190 06c7 8E2C9772 		.ascii	"\216,\227r#qo\277\026x\307m\223Yk\011\341\232\2430\003"
 190      23716FBF 
 190      1678C76D 
 190      93596B09 
 190      E19AA330 
 191 06dc 8860F537 		.ascii	"\210`\3657\005V\031^\261@N\334\306\300\012\344&\341"
 191      0556195E 
ARM GAS  /tmp/ccF5nXKa.s 			page 15


 191      B1404EDC 
 191      C6C00AE4 
 191      26E1
 192 06ee F61ED546 		.ascii	"\366\036\325FJ\315B\366\015\2038\020Ii\017\035\220\362"
 192      4ACD42F6 
 192      0D833810 
 192      49690F1D 
 192      90F2
 193 0700 968BE2C2 		.ascii	"\226\213\342\302#\306Y\346Q\232\265\254\230qFn1\262"
 193      23C659E6 
 193      519AB5AC 
 193      9871466E 
 193      31B2
 194 0712 E1056550 		.ascii	"\341\005eP\332ss6@\376s\362\261&i^\027\015q\340&5wu"
 194      DA737336 
 194      40FE73F2 
 194      B126695E 
 194      170D71E0 
 195 072a 81B98D9C 		.ascii	"\201\271\215\234\227d\2544\020\344\023\350\266_\233"
 195      9764AC34 
 195      10E413E8 
 195      B65F9B
 196 0739 767C39D0 		.ascii	"v|9\320[%\351\261\337\324\326C\317Y\027l\304,\002\244"
 196      5B25E9B1 
 196      DFD4D643 
 196      CF59176C 
 196      C42C02A4 
 197 074d B7217DEF 		.ascii	"\267!}\357O2\367\025\302\247\330\226QVN\277\016\311"
 197      4F32F715 
 197      C2A7D896 
 197      51564EBF 
 197      0EC9
 198 075f 79EF0C1A 		.ascii	"y\357\014\032\002]\214\321\017k#\204\205\263'\224\312"
 198      025D8CD1 
 198      0F6B2384 
 198      85B32794 
 198      CA
 199 0770 47946476 		.ascii	"G\224dv\025\247}\0319\325u\245S\011)7\345\002x\246{"
 199      15A77D19 
 199      39D575A5 
 199      53092937 
 199      E50278A6 
 200 0785 5A5C2C26 		.ascii	"Z\\,&r\002!\262\023\227\001=\277\016=\317\2465^\320"
 200      720221B2 
 200      1397013D 
 200      BF0E3DCF 
 200      A6355ED0 
 201 0799 B6FA93D7 		.ascii	"\266\372\223\327\311\031\240X\374]b/\270\244\343\005"
 201      C919A058 
 201      FC5D622F 
 201      B8A4E305 
 202 07a9 B865325E 		.ascii	"\270e2^\200\\Z\336\335\023\027\253\215\021&-ZA\202\353"
 202      805C5ADE 
 202      DD1317AB 
 202      8D11262D 
 202      5A4182EB 
 203 07bd 37B1BBA7 		.ascii	"7\261\273\247V\214\274\315y\026\007\353\032\032o\221"
ARM GAS  /tmp/ccF5nXKa.s 			page 16


 203      568CBCCD 
 203      791607EB 
 203      1A1A6F91 
 204 07cd ED4CD1   		.ascii	"\355L\321"
 205 07d0 BA96A819 		.ascii	"\272\226\250\031\205kE\325\310\220\3254^\275\316\245"
 205      856B45D5 
 205      C890D534 
 205      5EBDCEA5 
 206 07e0 F1FED03C 		.ascii	"\361\376\320<\240\363i\023\273\322\013\350\324(^\265"
 206      A0F36913 
 206      BBD20BE8 
 206      D4285EB5 
 207 07f0 568D6673 		.ascii	"V\215fs\210\204\335\274N+\274o\337Mz_\367\231s\005K"
 207      8884DDBC 
 207      4E2BBC6F 
 207      DF4D7A5F 
 207      F7997305 
 208 0805 85F02CDA 		.ascii	"\205\360,\332\302\206U\373\307\362\300]\014\003\367"
 208      C28655FB 
 208      C7F2C05D 
 208      0C03F7
 209 0814 E318EDAE 		.ascii	"\343\030\355\256\246,o3QD[\262\242D^\024q2\305\304\262"
 209      A62C6F33 
 209      51445BB2 
 209      A2445E14 
 209      7132C5C4 
 210 0829 335347EB 		.ascii	"3SG\353\221\010\337\373\027\223{O\221\323\315OgH\333"
 210      9108DFFB 
 210      17937B4F 
 210      91D3CD4F 
 210      6748DB
 211 083c B1CBC0D7 		.ascii	"\261\313\300\327\2725\3320\261\211u\036\2324h\007r\317"
 211      BA35DA30 
 211      B189751E 
 211      9A346807 
 211      72CF
 212 084e 99B0B489 		.ascii	"\231\260\264\211\325`b\034W\206\267\353n\3076\304w\301"
 212      D560621C 
 212      5786B7EB 
 212      6EC736C4 
 212      77C1
 213 0860 B80A55D9 		.ascii	"\270\012U\331\260A1BV\302\010Y\245\034\025\024q\325"
 213      B0413142 
 213      56C20859 
 213      A51C1514 
 213      71D5
 214 0872 8CF2EF35 		.ascii	"\214\362\3575\362E\024\207\332\305\215pyc{\206\313\304"
 214      F2451487 
 214      DAC58D70 
 214      79637B86 
 214      CBC4
 215 0884 5EAC0A4F 		.ascii	"^\254\012OiL\2244w\300\222It\322j-\230\036s\243\214"
 215      694C9434 
 215      77C09249 
 215      74D26A2D 
 215      981E73A3 
 216 0899 C156D4C9 		.ascii	"\301V\324\311\312\305\343\217\"\352\314\340\2156\022"
ARM GAS  /tmp/ccF5nXKa.s 			page 17


 216      CAC5E38F 
 216      22EACCE0 
 216      8D3612
 217 08a8 B632BCAB 		.ascii	"\2662\274\253C^\037\212\273\276\313,\343\251\371;^\247"
 217      435E1F8A 
 217      BBBECB2C 
 217      E3A9F93B 
 217      5EA7
 218 08ba 5AD2AD31 		.ascii	"Z\322\2551\003\367\270i\333G\0179\030r!\344\366u\260"
 218      03F7B869 
 218      DB470F39 
 218      187221E4 
 218      F675B0
 219 08cd 7BDE0074 		.ascii	"{\336\000t\035\320C@[\200\266\002m\003\332\015\364+"
 219      1DD04340 
 219      5B80B602 
 219      6D03DA0D 
 219      F42B
 220 08df A0DF003D 		.ascii	"\240\337\000=\017\364-\210\254\357\000]\013t=\320w\201"
 220      0FF42D88 
 220      ACEF005D 
 220      0B743DD0 
 220      7781
 221 08f1 6E321371 		.ascii	"n2\023q5\213@\212\330\350\262z\226\244\322b\357\215"
 221      358B408A 
 221      D8E8B27A 
 221      96A4D262 
 221      EF8D
 222 0903 9EFD8F40 		.ascii	"\236\375\217@8\224\335f\273\031\3008\323\327\302C\310"
 222      3894DD66 
 222      BB19C038 
 222      D3D7C243 
 222      C8
 223 0914 07AD1C06 		.ascii	"\007\255\034\006D\026E[\241\377\335\256_!\2662\344\031"
 223      4416455B 
 223      A1FFDDAE 
 223      5F21B632 
 223      E419
 224 0926 080556C4 		.ascii	"\010\005V\304\320\352\345\343Z\262n\246\3202Jf\254\331"
 224      D0EAE5E3 
 224      5AB26EA6 
 224      D0324A66 
 224      ACD9
 225 0938 8C62F476 		.ascii	"\214b\364v\264\364\035\254J\341`\263\301\301\346\200"
 225      B4F41DAC 
 225      4AE160B3 
 225      C1C1E680 
 226 0948 93CC05BA 		.ascii	"\223\314\005\272\005\\\242\021\350\007f\034\243\222"
 226      055CA211 
 226      E807661C 
 226      A392
 227 0956 8A998A07 		.ascii	"\212\231\212\007\254\037\020\353\263\032=\272eH\001"
 227      AC1F10EB 
 227      B31A3DBA 
 227      654801
 228 0965 589DA13E 		.ascii	"X\235\241>C:\342\262z \255V\366\307\203\365\277\021"
 228      433AE2B2 
ARM GAS  /tmp/ccF5nXKa.s 			page 18


 228      7A20AD56 
 228      F6C783F5 
 228      BF11
 229 0977 7AC3A493 		.ascii	"z\303\244\223\250\202\\\373\265\312\004\271v\370\212"
 229      A8825CFB 
 229      B5CA04B9 
 229      76F88A
 230 0986 8362C80F 		.ascii	"\203b\310\017i'\352\274S\3430&@\260P{PcU\256\333W5\014"
 230      6927EABC 
 230      53E33026 
 230      40B0507B 
 230      506355AE 
 231 099e 1F8EE2FA 		.ascii	"\037\216\342\37283\017<e@\021\247\\\342\012\314\346"
 231      38330F3C 
 231      654011A7 
 231      5CE20ACC 
 231      E6
 232 09af 8AD69D8B 		.ascii	"\212\326\235\213\326\221\212[\177\212V\313\217\010\343"
 232      D6918A5B 
 232      7F8A56CB 
 232      8F08E3
 233 09be 8FDA645F 		.ascii	"\217\332d_\245\361(s\014\271\027f\236\217hZ\267\031"
 233      A5F12873 
 233      0CB91766 
 233      9E8F685A 
 233      B719
 234 09d0 439EA228 		.ascii	"C\236\242(\265\362\365\366\010\214O\237\3027\232\361"
 234      B5F2F5F6 
 234      088C4F9F 
 234      C2379AF1 
 235 09e0 6238E1D1 		.ascii	"b8\341\321\2174^/\274\337v\327f\230\242\377\016\223"
 235      8F345E2F 
 235      BCDF76D7 
 235      6698A2FF 
 235      0E93
 236 09f2 FF8A2189 		.ascii	"\377\212!\211O\221up\302;`\261\332\014\030\357Y\305"
 236      4F917570 
 236      C23B60B1 
 236      DA0C18EF 
 236      59C5
 237 0a04 A0880FA1 		.ascii	"\240\210\017\241I+\255}\252\031\237\311\267\232\312"
 237      492BAD7D 
 237      AA199FC9 
 237      B79ACA
 238 0a13 01AE2A72 		.ascii	"\001\256*r\000\224\326F\360\222\310\001f\315\204#y\010"
 238      0094D646 
 238      F092C801 
 238      66CD8423 
 238      7908
 239 0a25 7A33E306 		.ascii	"z3\343\006=\206\334\006O\334&~Z\230\"\016kY\262\030"
 239      3D86DC06 
 239      4FDC267E 
 239      5A98220E 
 239      6B59B218 
 240 0a39 886FC869 		.ascii	"\210o\310i\011N\266)\342\270e8\325\030\015\017\2608"
 240      094EB629 
 240      E2B86538 
ARM GAS  /tmp/ccF5nXKa.s 			page 19


 240      D5180D0F 
 240      B038
 241 0a4b 148A58A7 		.ascii	"\024\212X\247\314`\305\331\334\2079B\006\373\3062\230"
 241      CC60C5D9 
 241      DC873942 
 241      06FBC632 
 241      98
 242 0a5c 9AB1454A 		.ascii	"\232\261EJ\260\037\315\200\305\331\002_rhy\302\307\317"
 242      B01FCD80 
 242      C5D9025F 
 242      726879C2 
 242      C7CF
 243 0a6e 0C0E29E1 		.ascii	"\014\016)\341\321#Z\365\334\222fS\250\331\200-\030\305"
 243      D1235AF5 
 243      DC926653 
 243      A8D9802D 
 243      18C5
 244 0a80 CA542AC1 		.ascii	"\312T*\301\203K\322\020\352X\205\207P\017,\316.j\206"
 244      834BD210 
 244      EA588587 
 244      500F2CCE 
 244      2E6A86
 245 0a93 90A667CC 		.ascii	"\220\246g\314\227Q\317\247\351T\203\301\022\363\035"
 245      9751CFA7 
 245      E95483C1 
 245      12F31D
 246 0aa2 450C58D6 		.ascii	"E\014X\326\257\332XK\253T\213\266\327SM\300e\352\230"
 246      AFDA584B 
 246      AB548BB6 
 246      D7534DC0 
 246      65EA98
 247 0ab5 4BEFA58C 		.ascii	"K\357\245\214\007\014\371)\204\315\317`\006=\012\264"
 247      070CF929 
 247      84CDCF60 
 247      063D0AB4 
 248 0ac5 1D6827D0 		.ascii	"\035h'\320\023@O\002\355\006zF9\313\376sP)b~\252f\242"
 248      13404F02 
 248      ED067A46 
 248      39CBFE73 
 248      5029627E 
 249 0adc 54C7B544 		.ascii	"T\307\265D\243P\3003\245\321\2433F\341\372\0211\\\177"
 249      A350C033 
 249      A5D1A333 
 249      46E1FA11 
 249      315C7F
 250 0aef 07A17671 		.ascii	"\007\241vq\252vu\325\254\335\027\370\025\305]cJ\\U\016"
 250      AA7675D5 
 250      ACDD17F8 
 250      15C55D63 
 250      4A5C550E 
 251 0b03 42C48A8B 		.ascii	"B\304\212\213\026\006\303\211\032\020\267^\375\344\274"
 251      1606C389 
 251      1A10B75E 
 251      FDE4BC
 252 0b12 7A1B0433 		.ascii	"z\033\0043\377#=\034J\252]9\270\303\310\375\377\227"
 252      FF233D1C 
 252      4AAA5D39 
ARM GAS  /tmp/ccF5nXKa.s 			page 20


 252      B8C3C8FD 
 252      FF97
 253 0b24 8E9EBBA5 		.ascii	"\216\236\273\245\271\242\205a\021)6i\245Pw+\025\237"
 253      B9A28561 
 253      11293669 
 253      A550772B 
 253      159F
 254 0b36 33341A7E 		.ascii	"34\032~\326\227v\210\274Q\304\026Sh/\031\241\351=X\251"
 254      D6977688 
 254      BC51C416 
 254      53682F19 
 254      A1E93D58 
 255 0b4b F72BA008 		.ascii	"\367+\240\010\350\235Qgh\337\323W-\355\223]\000o\370"
 255      E89D5167 
 255      68DFD357 
 255      2DED935D 
 255      006FF8
 256 0b5e 5EE30D09 		.ascii	"^\343\015\011\201\260\302.k'\335=_\267\210O\010^N<\361"
 256      81B0C22E 
 256      6B27DD3D 
 256      5FB7884F 
 256      085E4E3C 
 257 0b73 A2A972FF 		.ascii	"\242\251r\377\327-Tt\003&\321|\371\016\2547\315\354"
 257      D72D5474 
 257      0326D17C 
 257      F90EAC37 
 257      CDEC
 258 0b85 A65C0161 		.ascii	"\246\\\001a.[O\376%\276\216a1\360|y\025\226\373\327"
 258      2E5B4FFE 
 258      25BE8E61 
 258      31F07C79 
 258      1596FBD7 
 259 0b99 2DC365AA 		.ascii	"-\303e\252\340\332\325p\003f\340\214fs\004\327\251\206"
 259      E0DAD570 
 259      0366E08C 
 259      667304D7 
 259      A986
 260 0bab AB4CB30A 		.ascii	"\253L\263\012\247\346\356\204\032\256\312\014\234\321"
 260      A7E6EE84 
 260      1AAECA0C 
 260      9CD1
 261 0bb9 848EE04E 		.ascii	"\204\216\340N\252\341\252-\303\251\271\353V\303\315"
 261      AAE1AA2D 
 261      C3A9B9EB 
 261      56C3CD
 262 0bc8 3703A737 		.ascii	"7\003\2477\251\353\275\224\016\314\220\277@\200\273"
 262      A9EBBD94 
 262      0ECC90BF 
 262      4080BB
 263 0bd7 02C1EB3A 		.ascii	"\002\301\353:\320\033@\007\201\316\260a:\023\350k6\023"
 263      D01B4007 
 263      81CEB061 
 263      3A13E86B 
 263      3613
 264 0be9 59D8CFCA 		.ascii	"Y\330\317\312\235\312\2724\023YQ\231\201\026\024Y\221"
 264      9DCABA34 
 264      13595199 
ARM GAS  /tmp/ccF5nXKa.s 			page 21


 264      81161459 
 264      91
 265 0bfa 18F22862 		.ascii	"\030\362(b\251\026Oo\241_aZ\015\353\024Y\335zX\225n"
 265      A9164F6F 
 265      A15F615A 
 265      0DEB1459 
 265      DD7A5895 
 266 0c0f 80E791AF 		.ascii	"\200\347\221\257\001\335\005\012\370\037\240\337\002"
 266      01DD050A 
 266      F81FA0DF 
 266      02
 267 0c1c FD01E83F 		.ascii	"\375\001\350?\200\366\001\235mF%\253\242O.\253\202\226"
 267      80F6019D 
 267      6D4625AB 
 267      A24F2EAB 
 267      8296
 268 0c2e 32A4E3A7 		.ascii	"2\244\343\247\034\244\366\215\221xs\273\0040\327f5\244"
 268      1CA4F68D 
 268      917873BB 
 268      0430D766 
 268      35A4
 269 0c40 CFB3E987 		.ascii	"\317\263\351\207\364\333\022\260Zm\323gU',\206i\271"
 269      F4DB12B0 
 269      5A6DD367 
 269      55272C86 
 269      69B9
 270 0c52 31DEA192 		.ascii	"1\336\241\222\342k\355\231\317_\336\015\223\355|\033"
 270      E26BED99 
 270      CF5FDE0D 
 270      93ED7C1B 
 271 0c62 0EAFC7D3 		.ascii	"\016\257\307\323\022\206W5\016C\326\330p2Wk\323\204"
 271      12865735 
 271      0E43D6D8 
 271      7032576B 
 271      D384
 272 0c74 D8BEB7E0 		.ascii	"\330\276\267\340\207\220\270>\361\256\350\325\356\006"
 272      8790B83E 
 272      F1AEE8D5 
 272      EE06
 273 0c82 6BD974EF 		.ascii	"k\331t\357\340\267\237\377N\334\203Yd\303)u\345\320"
 273      E0B79FFF 
 273      4EDC8359 
 273      64C32975 
 273      E5D0
 274 0c94 A452EA25 		.ascii	"\244R\352%6MJ\335$\246\324\270>qJ\375\306\320\330\224"
 274      364D4ADD 
 274      24A6D4B8 
 274      3E714AFD 
 274      C6D0D894 
 275 0ca8 BA7EA86E 		.ascii	"\272~\250nJ\275j\250:\245\226\2527E\253iEuS\264\332"
 275      4ABD6AA8 
 275      3AA596AA 
 275      3745AB69 
 275      457553B4 
 276 0cbd A6A86E8E 		.ascii	"\246\250n\216V\333\025\216\0217/\217J\310\220\3656<"
 276      56DB158E 
 276      11372F8F 
ARM GAS  /tmp/ccF5nXKa.s 			page 22


 276      4AC890F5 
 276      363C
 277 0ccf 6696DAE2 		.ascii	"f\226\332\342\347\345\330dq\206\253\312!UfD\336t\300"
 277      E7E5D864 
 277      7186ABCA 
 277      21556644 
 277      DE74C0
 278 0ce2 BFCFF098 		.ascii	"\277\317\360\230l\245\372g\267/\311\200i\021\253\206"
 278      6CA5FA67 
 278      B72FC980 
 278      6911AB86 
 279 0cf2 3FEA2633 		.ascii	"?\352&3\023\235\254\242A\217\304Ht\027\276o\243\326"
 279      139DACA2 
 279      418FC448 
 279      7417BE6F 
 279      A3D6
 280 0d04 27DFEE06 		.ascii	"'\337\356\006\237\334h\312'\267v/\266\270\303\323\327"
 280      9FDC68CA 
 280      27B7762F 
 280      B6B8C3D3 
 280      D7
 281 0d15 85B39BF7 		.ascii	"\205\263\233\367\300\037\333\223\363\307F\255?~\276"
 281      C01FDB93 
 281      F3C746AD 
 281      3F7EBE
 282 0d24 04FCB1D1 		.ascii	"\004\374\261\321\224?\236R\372\236Tw^\337\361nh\034"
 282      943F9E52 
 282      FA9E5477 
 282      5EDFF16E 
 282      681C
 283 0d36 CF8C2B35 		.ascii	"\317\214+5*\\i+\270\3226\003W\242\210\005\351\244d\201"
 283      2A5C692B 
 283      B8D23603 
 283      57A28805 
 283      E9A46481 
 284 0d4a A45C29BC 		.ascii	"\244\\)\274\275{\261\224u\211OI/\321\342Y\333\257\013"
 284      BD7BB194 
 284      75894F49 
 284      2FD1E259 
 284      DBAF0B
 285 0d5d 7FD89DDA 		.ascii	"\177\330\235\332\370\222yS\326ucS\356\005S\276\223\236"
 285      F8927953 
 285      D6756353 
 285      EE0553BE 
 285      939E
 286 0d6f 9429F76B 		.ascii	"\224)\367kMy]4\345~S\246\334\226\036k\312\003\351\272"
 286      4D795D34 
 286      E57E53A6 
 286      DC961E6B 
 286      CA03E9BA 
 287 0d83 A6EC48B7 		.ascii	"\246\354H\267n\312\375\012S\206\301\224\007\014My\316"
 287      6ECAFD0A 
 287      5386C194 
 287      070C4D79 
 287      CE
 288 0d94 8C29E39E 		.ascii	"\214)\343\236\321\313=m\202\2366\303\342\244\011\350"
 288      D1CB3D6D 
ARM GAS  /tmp/ccF5nXKa.s 			page 23


 288      829E36C3 
 288      E2A409E8 
 289 0da4 1EE57C4C 		.ascii	"\036\345|L\021\0274\252\226\307\252\002):\250\211xX"
 289      111734AA 
 289      96C7AA02 
 289      293AA889 
 289      7858
 290 0db6 4613E63A 		.ascii	"F\023\346:\233b\271s\003\272\253M\332\251\226\3664X"
 290      9B62B973 
 290      03BAAB4D 
 290      DAA996F6 
 290      3458
 291 0dc8 FB214178 		.ascii	"\373!Ax\377\222\333\260\017\034\006\023\316\032\366"
 291      FF92DBB0 
 291      0F1C0613 
 291      CE1AF6
 292 0dd7 AB9CC92E 		.ascii	"\253\234\311.\030fB\2128\273\251\333{\032\244#=\361"
 292      1866428A 
 292      38BBA9DB 
 292      7B1AA423 
 292      3DF1
 293 0de9 20FE4D2D 		.ascii	" \376M-\236n\272\027g\337\255\263\007\266\267\304\307"
 293      9E6EBA17 
 293      67DFADB3 
 293      07B6B7C4 
 293      C7
 294 0dfa 84969BE1 		.ascii	"\204\226\233\341.\316\366\313\027\313\322\216\275d\372"
 294      2ECEF6CB 
 294      17CBD28E 
 294      BD64FA
 295 0e09 F7A7E11D 		.ascii	"\367\247\341\035\242\202;A\301\357\304(\370+\355\323"
 295      A2823B41 
 295      C1EFC428 
 295      F82BEDD3 
 296 0e19 2A897E51 		.ascii	"*\211~QJ\021\357i\005Pu+\0253\215\324[\031\276$9\211"
 296      4A11EF69 
 296      0550752B 
 296      15338DD4 
 296      5B19BE24 
 297 0e2f 1CC9B699 		.ascii	"\034\311\266\231Q\210\012O\255\220~Q\273\"\330^3`\206"
 297      51880A4F 
 297      AD907E51 
 297      BB22D85E 
 297      336086
 298 0e42 C7B995E1 		.ascii	"\307\271\225\341\305\015+\314\376\233\014\275\337\251"
 298      C50D2BCC 
 298      FE9B0CBD 
 298      DFA9
 299 0e50 F5BE3DD0 		.ascii	"\365\276=\320\367g\274\014K\370\2334\244z\375Y[}\033"
 299      F767BC0C 
 299      4BF89B34 
 299      A47AFD59 
 299      5B7D1B
 300 0e63 ECE069A7 		.ascii	"\354\340i\247\355\245Ga\332>mj\332^\026\347i-\343\237"
 300      EDA54761 
 300      DA3E6D6A 
 300      DA5E16E7 
ARM GAS  /tmp/ccF5nXKa.s 			page 24


 300      692DE39F 
 301 0e77 5B49E274 		.ascii	"[I\342t\3549\375\214\270\252<\013\313\341\253\303t\227"
 301      EC39FD8C 
 301      B8AA3C0B 
 301      CBE1ABC3 
 301      7497
 302 0e89 C3C63898 		.ascii	"\303\3068\230\277sZ\376k;\200\377s\211\371G\211\344"
 302      BF735AFE 
 302      6B3B80FF 
 302      7389F947 
 302      89E4
 303 0e9b E28E4592 		.ascii	"\342\216E\222\273\210\231\344k\031\244\204i6F\251\361"
 303      BB8899E4 
 303      6B19A484 
 303      693646A9 
 303      F1
 304 0eac DE140FD8 		.ascii	"\336\024\017\330E\2609\226\3012\365X\225\007OTR\206"
 304      45B03996 
 304      C132F558 
 304      95074F54 
 304      5286
 305 0ebe 3C0FB1FD 		.ascii	"<\017\261\375{\210\304?\232\211\304\337(#\361|`\354"
 305      7B88C43F 
 305      9A89C4DF 
 305      2823F17C 
 305      60EC
 306 0ed0 747252A2 		.ascii	"trR\242\225'\362\303G\223y@+b\367\276\277\212v\357\003"
 306      9527F2C3 
 306      47937940 
 306      2B62F7BE 
 306      BF8A76EF 
 307 0ee5 BB2FCC48 		.ascii	"\273/\314H\230\006\305n\344]\214I\201\332\301\356\027"
 307      9806C56E 
 307      E45D8C49 
 307      81DAC1EE 
 307      17
 308 0ef6 4DD9FD52 		.ascii	"M\331\375R\273\332\356\353\200\205\213I\333\375r\273"
 308      BBDAEEEB 
 308      80858B49 
 308      DBFD72BB 
 309 0f06 C2EE1B2D 		.ascii	"\302\356\033-\203e\252\300\256(\301\032\315\200\305"
 309      8365AAC0 
 309      AE28C11A 
 309      CD80C5
 310 0f15 D917BAA6 		.ascii	"\331\027\272\246\004\333a\031,\256G^Tx\344%\360\310"
 310      04DB6119 
 310      2CAE475E 
 310      5478E425 
 310      F0C8
 311 0f27 CBE09157 		.ascii	"\313\340\221W\200^\003\332o\306;\177Rz\347n\313\336"
 311      805E03DA 
 311      6FC63B7F 
 311      527AE76E 
 311      CBDE
 312 0f39 A9501F78 		.ascii	"\251P\037x\347\325G\345gR\305\270}\320\014b\234\223"
 312      E7D547E5 
 312      6752C5B8 
ARM GAS  /tmp/ccF5nXKa.s 			page 25


 312      7DD00C62 
 312      9C93
 313 0f4b B2ED7A51 		.ascii	"\262\355zQN\324\251\221D\225v\205D-\226\373WI\024\336"
 313      4ED4A991 
 313      44957685 
 313      442D96FB 
 313      574914DE 
 314 0f5f 7174B96A 		.ascii	"qt\271j\243\347\210\026Oo\215\030\347x\355\303\243h"
 314      A3E78816 
 314      4F6F8D18 
 314      E778EDC3 
 314      A368
 315 0f71 792E8375 		.ascii	"y.\203uZ\006S=\011\037\336\255\004;e\031,#\306\253D"
 315      5A06533D 
 315      091FDEAD 
 315      043B6519 
 315      2C23C6AB 
 316 0f86 7FFA1AFC 		.ascii	"\177\372\032\374\351\014\370\320?\200\016\002\235a\307"
 316      E90CF8D0 
 316      3F800E02 
 316      9D61C7
 317 0f95 7416D02A 		.ascii	"t\026\320*\240\263\355\252U\355\331"
 317      A0B3EDAA 
 317      55EDD9
 318 0fa0 0CED32E4 		.ascii	"\014\3552\344\264vU{Z\265\252\265\334\207\221\315\277"
 318      B476557B 
 318      5AB5AAB5 
 318      DC8791CD 
 318      BF
 319 0fb1 547AF195 		.ascii	"Tz\361\225\014\253k\005\265\027\327\236\351\253\330"
 319      0CAB6B05 
 319      B517D79E 
 319      E9ABD8
 320 0fc0 27793106 		.ascii	"'y1\006\246\210\0013\210\206g%\225\341\017Ni\237I7{"
 320      A6880133 
 320      88866725 
 320      95E10F4E 
 320      699F4937 
 321 0fd5 48D4B1E7 		.ascii	"H\324\261\347\223\0221`\327\330q\300\2365\334\342y<"
 321      93123160 
 321      D7D871C0 
 321      9E35DCE2 
 321      793C
 322 0fe7 D64E9D5D 		.ascii	"\326N\235]\023\260\277\354\202\200\215\353\023\007\354"
 322      13B0BFEC 
 322      82808DEB 
 322      1307EC
 323 0ff6 BE2E65C0 		.ascii	"\276.e\300fH\001\366\301p"
 323      664801F6 
 323      C170
 324 1000 DBE402F6 		.ascii	"\333\344\002\366\317]\221\260\210\006\253e\260L\025"
 324      CF5D91B0 
 324      8806AB65 
 324      B04C15
 325 100f D8C52E45 		.ascii	"\330\305.E\214\255\001\345$\000\213\023\260/+\301\026"
 325      8CAD01E5 
 325      24008B13 
ARM GAS  /tmp/ccF5nXKa.s 			page 26


 325      B02F2BC1 
 325      16
 326 1020 5B065373 		.ascii	"[\006SsvE)f?mB\3148\233\370\327\224\234\275e\206\263"
 326      76452966 
 326      3F6D42CC 
 326      389BF8D7 
 326      949CBD65 
 327 1036 385BF8FD 		.ascii	"8[\370\375J\260\0063`F\247\362\010l@)\346/f\254i\224"
 327      4AB00633 
 327      6046A7F2 
 327      086C4029 
 327      E62F66AC 
 328 104c 0321B09A 		.ascii	"\003!\260\232n\005g\253\315p\226\251\303\231\336K9\010"
 328      6E0567AB 
 328      CD7096A9 
 328      C399DE4B 
 328      3908
 329 105e 1872911D 		.ascii	"\030r\221\035G\270\305\020_\336\004\272\004\350R\240"
 329      47B8C510 
 329      5FDE04BA 
 329      04E852A0 
 330 106e CB802E07 		.ascii	"\313\200.\007\332\000t%\320Uf\"\321\002\345\354\263"
 330      DA007425 
 330      D0556622 
 330      D102E5EC 
 330      B3
 331 107f 61B8D5B8 		.ascii	"a\270\325\270\221\031O\204Z\305\244\277\020\202t\035"
 331      91194F84 
 331      5AC5A4BF 
 331      1082741D 
 332 108f 04CDB540 		.ascii	"\004\315\265@[\201\036\005\332\006\264\003\350I\240"
 332      5B811E05 
 332      DA06B403 
 332      E849A0
 333 109e DD40BF00 		.ascii	"\335@\277\000:\017\304\231oF\2347\014\366\335\245#\202"
 333      3A0FC499 
 333      6F469C37 
 333      0CF6DDA5 
 333      2382
 334 10b0 958F6B8E 		.ascii	"\225\217k\216}c\222\204\265v\253G\004\353\354\372G\004"
 334      7D639284 
 334      B576AB47 
 334      04EBECFA 
 334      4704
 335 10c2 CE04ACAE 		.ascii	"\316\004\254\256\211j\376.\242AX\331\333\333\264\351"
 335      896AFE2E 
 335      A24158D9 
 335      DBDBB4E9 
 336 10d2 60313ECE 		.ascii	"`1>\316\024\006\007_%\314?)\262\301.\237o\310\017{P"
 336      1406075F 
 336      25CC3F29 
 336      B2C12E9F 
 336      6FC80F7B 
 337 10e7 44B326EE 		.ascii	"D\263&\356\022\304\277\023k1\236\260A\240\001\015\337"
 337      12C4BF13 
 337      6B319EB0 
 337      41A0010D 
ARM GAS  /tmp/ccF5nXKa.s 			page 27


 337      DF
 338 10f8 BFDE7E97 		.ascii	"\277\336~\227\332b\357\332U\377z\022\363\325[\323{|"
 338      DA62EFDA 
 338      55FF7A12 
 338      F3D55BD3 
 338      7B7C
 339 110a 4B6B41FD 		.ascii	"KkA\3756a\326\034a`\360U\322<c\233\355\232\177\275\363"
 339      3661D61C 
 339      6160F055 
 339      D23C639B 
 339      ED9A7FBD 
 340 111f 05FC4A4D 		.ascii	"\005\374JM\361H\012E\\\216aT\274u\213.'M\233\276\277"
 340      F1480A45 
 340      5C8E6154 
 340      BC758B2E 
 340      274D9BBE 
 341 1134 A36EE6CA 		.ascii	"\243n\346\312\026\341'\274\307\242\341\304fl\243F\211"
 341      16E127BC 
 341      C7A2E1C4 
 341      666CA346 
 341      89
 342 1145 9348B733 		.ascii	"\223H\2673F\250w\336\360M[u\273\034\374\366\363\373"
 342      46A877DE 
 342      F04D5B75 
 342      BB1CFCF6 
 342      F3FB
 343 1157 93117EBB 		.ascii	"\223\021~\273Vx\354\232\032\341\253G\350\013\277C\217"
 343      5678EC9A 
 343      1AE1AB47 
 343      E80BBF43 
 343      8F
 344 1168 93704FEB 		.ascii	"\223pO\353\274\337\012\253*\303\203\203c\264\242\307"
 344      BCDF0AAB 
 344      2AC38383 
 344      63B4A2C7 
 345 1178 FB3756BB 		.ascii	"\3737V\273\364\030\211|\350\024\017\270n\352?\"QD\275"
 345      F418897C 
 345      E8140FB8 
 345      6EEA3F22 
 345      5144BD
 346 118b 81201FE9 		.ascii	"\201 \037\351\012r\251:*\210\250(\224\274\030 \354\327"
 346      0A72A93A 
 346      2A88A828 
 346      94BC1820 
 346      ECD7
 347 119d 45684B4E 		.ascii	"EhKN\025\007,\251\"\321\377\303JNU\373\014\004\375D"
 347      15072CA9 
 347      22D1FFC3 
 347      4A4E55FB 
 347      0C04FD44 
 348 11b1 2DE8DDC4 		.ascii	"-\350\335\304*\354}_\355\274\366\302{\225\330\373\204"
 348      2AEC7D5F 
 348      EDBCF6C2 
 348      7B95D8FB 
 348      84
 349 11c2 2B83E420 		.ascii	"+\203\344 -\377;\327\332[d\024IV\365\377j\305\200\207"
 349      2DFF3BD7 
ARM GAS  /tmp/ccF5nXKa.s 			page 28


 349      DA5B6414 
 349      4956F5FF 
 349      6AC58087 
 350 11d6 A3801258 		.ascii	"\243\200\022X\355\231\003\177\333\250\002\023\017\027"
 350      ED99037F 
 350      DBA80213 
 350      0F17
 351 11e4 176BC1D4 		.ascii	"\027k\301\324G\211\030\35435X\370\030\032\212\255\225"
 351      478918EC 
 351      333558F8 
 351      181A8AAD 
 351      95
 352 11f5 E4424168 		.ascii	"\344BAhA\353\263\301A\362.1tR\3042-XL\210=\252\305\012"
 352      41EBB3C1 
 352      41F22E31 
 352      7452C432 
 352      2D584C88 
 353 120d 9FB08928 		.ascii	"\237\260\211(cd\220\365\011A\332b@:\265 [\023\202tD"
 353      636490F5 
 353      0941DA62 
 353      403AB520 
 353      5B138274 
 354 1222 4134091B 		.ascii	"A4\011\033vJ#/\352\264\353\3171\242\177\031\265:n\330"
 354      764A232F 
 354      EAB4EBCF 
 354      31A27F19 
 354      B53A6ED8 
 355 1236 6A739C56 		.ascii	"js\234V'\014[\355\212\323\252\313\260Uc\234V'\243\255"
 355      270C5BED 
 355      8AD3AACB 
 355      B055639C 
 355      5627A3AD 
 356 124a 887B468E 		.ascii	"\210{F\216\314\022\377\202\241\254\022\306\237\345\013"
 356      CC12FF82 
 356      A1AC12C6 
 356      9FE50B
 357 1259 78FDE5C5 		.ascii	"x\375\345\305,.{B,\347c\374#K\21047\224\3629\337T\226"
 357      2C2E7B42 
 357      2CE763FC 
 357      234B8834 
 357      3794F239 
 358 1270 733CF5EC 		.ascii	"s<\365\354\204\314<b\230\262\356\371qELVI\260\224\315"
 358      84CC3C62 
 358      98B2EEF9 
 358      71454C56 
 358      49B094CD 
 359 1284 7AB9DCEF 		.ascii	"z\271\334\357c\002Y\343\306>\225\233\025bK\331\020\317"
 359      630259E3 
 359      C63E959B 
 359      15624BD9 
 359      10CF
 360 1296 B11E5F45 		.ascii	"\261\036_E\326\330\322\211\354D_1\352\205\341J\037\310"
 360      D6D8D289 
 360      EC445F31 
 360      EA85E14A 
 360      1FC8
 361 12a8 1995FDE0 		.ascii	"\031\225\375\340\310\354\354,\277ob\326d\257\027\352"
ARM GAS  /tmp/ccF5nXKa.s 			page 29


 361      C8ECEC2C 
 361      BF6F62D6 
 361      64AF17EA 
 362 12b8 02C100FB 		.ascii	"\002\301\000\373\000\313L\364e=4r\364\310\354\010'!"
 362      00CB4CF4 
 362      653D3472 
 362      F4C8EC08 
 362      2721
 363 12ca BEB8989D 		.ascii	"\276\270\230\235\204\270p\204|\377\315zxw2\035\251;"
 363      84B87084 
 363      7CFFCD7A 
 363      7877321D 
 363      A93B
 364 12dc 5040FB02 		.ascii	"P@\373\002<\202v\226\243\367\321\036\336>\215\363\361"
 364      3C827696 
 364      A3F7D11E 
 364      DE3E8DF3 
 364      F1
 365 12ed AC8D6399 		.ascii	"\254\215c\231\342\321J\315x\203\245\245\301@VY\220\343"
 365      E2D14ACD 
 365      7883A5A5 
 365      C1405659 
 365      90E3
 366 12ff 4359B985 		.ascii	"CY\271\205\343\362\306U\340\2722\237\237\345BYO\345"
 366      E3F2C655 
 366      E0BA329F 
 366      9FE54259 
 366      4FE5
 367 1311 E565794B 		.ascii	"\345eyK\370\351el\010a\331KC\223=\274\023\001>\230\343"
 367      F8E9656C 
 367      0861D94B 
 367      43933DBC 
 367      13013E98 
 368 1326 E1E9B272 		.ascii	"\341\351\262r\236\236\314\362\177P\302q|\204\005oIh"
 368      9E9ECCF2 
 368      7F50C271 
 368      7C84056F 
 368      4968
 369 1338 7A486EEA 		.ascii	"zHn\352\302e_)\0222\0053\224\375\260\207\267\241\366"
 369      C2655F29 
 369      12320533 
 369      94FDB087 
 369      B7A1F6
 370 134b BC0D01F0 		.ascii	"\274\015\001\360\016\340\215\267c\346xzj)\177\267!$"
 370      0EE08DB7 
 370      63E6787A 
 370      6A297FB7 
 370      2124
 371 135d 3B950DF0 		.ascii	";\225\015\360\0300\035J\236P\260\234\363\"\3244\345"
 371      18301D4A 
 371      9E50B09C 
 371      F322D434 
 371      E5
 372 136e C70CF183 		.ascii	"\307\014\361\203\337\027\342\331\000\313y\370tu\205"
 372      DF17E2D9 
 372      00CB79F8 
 372      747585
ARM GAS  /tmp/ccF5nXKa.s 			page 30


 373 137d 2DC056F0 		.ascii	"-\300V\360)|\011\356\317\303\273\274%\036\261\234i,"
 373      297C09EE 
 373      CFC3BBBC 
 373      251EB19C 
 373      692C
 374 138f 89B7A418 		.ascii	"\211\267\244\030u:L\274/\344\231R\316\226\243^3\"M\245"
 374      753A4CBC 
 374      2FE49952 
 374      CE96A35E 
 374      33224DA5 
 375 13a3 2A5B19C7 		.ascii	"*[\031\307N\265C\321\311\227q\276\240$/\326\227\015"
 375      4EB543D1 
 375      C99771BE 
 375      A0242FD6 
 375      970D
 376 13b5 7F4EC38A 		.ascii	"\177N\303\212\366x\203\001\036\261\360\307\204\206("
 376      F6788301 
 376      1EB1F0C7 
 376      848628
 377 13c4 F1063916 		.ascii	"\361\0069\026u\234\012\315\020\220\227\257x\300\\+\317"
 377      759C0ACD 
 377      109097AF 
 377      78C05C2B 
 377      CF
 378 13d5 D43F95A2 		.ascii	"\324?\225\242\226)\034;\031\271\210\207\247\270\207"
 378      96291C3B 
 378      19B98887 
 378      A7B887
 379 13e4 28EE3F28 		.ascii	"(\356?(\356a\212\373\023\305\215\246\270Gh.{\024\272"
 379      EE618AFB 
 379      13C58DA6 
 379      B847682E 
 379      7B14BA
 380 13f7 B2293F47 		.ascii	"\262)?G\205\312h\004m\017\260\323X\316\036\364\027#"
 380      85CA6804 
 380      6D0FB0D3 
 380      58CE1EF4 
 380      1723
 381 1409 25794B18 		.ascii	"%yK\030\244)\246\224\035\022\342_a\374\276\311\001I"
 381      A429A694 
 381      1D12E25F 
 381      61FCBEC9 
 381      0149
 382 141b 98871FF2 		.ascii	"\230\207\037\362 \2231\023\231\020\233\302\207x\206"
 382      20933113 
 382      99109BC2 
 382      877886
 383 142a 479AB0C3 		.ascii	"G\232\260\303\273\223/\015\026\343O\223\374\314\344"
 383      BB932F0D 
 383      16E34F93 
 383      FCCCE4
 384 1439 9013F9ED 		.ascii	"\220\023\371\355\244\020\022\034\2779\270\342\351\310"
 384      A410121C 
 384      BF39B8E2 
 384      E9C8
 385 1447 7D52D80A 		.ascii	"}R\330\012\037\357E79\246\361\301\211/\227\215\220\254"
 385      1FEF4537 
ARM GAS  /tmp/ccF5nXKa.s 			page 31


 385      39A6F1C1 
 385      892F978D 
 385      90AC
 386 1459 806E6139 		.ascii	"\200na96\200Mi\237\306\363\\\2313\204,\206\032\244!"
 386      36804D69 
 386      9FC6F35C 
 386      9933842C 
 386      861AA421 
 387 146d 15A341C0 		.ascii	"\025\243A\300\224\225 \231\35626\020\213\205\265{\221"
 387      94952099 
 387      EE323610 
 387      8B85B57B 
 387      91
 388 147e 95791A51 		.ascii	"\225y\032Q\004\217\252\312RP\353\322r\244k\343\226\245"
 388      048FAACA 
 388      5250EBD2 
 388      72A46BE3 
 388      96A5
 389 1490 7C056E19 		.ascii	"|\005n\031\234\206\034\303\011\367b\351xT]\226\012n"
 389      9C861CC3 
 389      09F762E9 
 389      78545D96 
 389      0A6E
 390 14a2 53CA845E 		.ascii	"S\312\204^AU\3544\\ \313\323e\203co\362\360\303\024"
 390      4155EC34 
 390      5C20CBD3 
 390      6583636F 
 390      F2F0C314 
 391 14b6 2E806B9C 		.ascii	".\200k\234\323\030\037\357\013LNA\274\203\037\244\260"
 391      D3181FEF 
 391      0B4C4E41 
 391      BC831FA4 
 391      B0
 392 14c7 656C000D 		.ascii	"el\000\015\306\311N\004\211\357@\026a\374\330\027\354"
 392      C6C94E04 
 392      89EF4016 
 392      61FCD817 
 392      EC
 393 14d8 A565C1A0 		.ascii	"\245e\301\240?E\366J\207\350\333\242'\203\0021#P\260"
 393      3F45F64A 
 393      87E8DBA2 
 393      27830231 
 393      2350B0
 394 14eb 439D2B54 		.ascii	"C\235+T,i\333\345\316\367Lx\266\340\331\202\"'*\271"
 394      2C69DBE5 
 394      CEF74C78 
 394      B6E0D982 
 394      22272AB9 
 395 14ff 8BC63F97 		.ascii	"\213\306?\227\202\336\013\307\346\346\277\0307\354\001"
 395      82DE0BC7 
 395      E6E6BF18 
 395      37EC01
 396 150e 4378F40C 		.ascii	"Cx\364\014\365\005\320\350\223\335x\010\362S\251\230"
 396      F505D0E8 
 396      93DD7808 
 396      F253A998 
 397 151e 22175D53 		.ascii	"\"\027]S<\222$\250\344\015\226#\207\345R\246x&\226O"
ARM GAS  /tmp/ccF5nXKa.s 			page 32


 397      3C9224A8 
 397      E40D9623 
 397      87E552A6 
 397      7826964F 
 398 1532 4286B24F 		.ascii	"B\206\262O\361\360\3012'\272\205+\3439\364\316\025\243"
 398      F1F0C132 
 398      27BA852B 
 398      E339F4CE 
 398      15A3
 399 1544 77D79440 		.ascii	"w\327\224@\220\367M\232\216P\246x\304\242c\012RJ\340"
 399      90F74D9A 
 399      8E50A678 
 399      C4A2630A 
 399      524AE0
 400 1557 15870F30 		.ascii	"\025\207\0170\323\203\345\274\242[G\020\012\224o\"\025"
 400      D383E5BC 
 400      A25B4710 
 400      0A946F22 
 400      15
 401 1568 9CA81794 		.ascii	"\234\250\027\224\320\020\311\312\033\347.pg\271\213"
 401      D010C9CA 
 401      1BE72E70 
 401      67B98B
 402 1577 D0DFB807 		.ascii	"\320\337\270\007s\236\314\256\250@\261\255\364\301\234"
 402      739ECCAE 
 402      A840B1AD 
 402      F4C19C
 403 1586 49D9A346 		.ascii	"I\331\243FUL\304\242Lp\347\026\026y\212P\240\311g'Q"
 403      554CC4A2 
 403      4C70E716 
 403      16798A50 
 403      A0C96727 
 404 159b EE422ABF 		.ascii	"\356B*\277\220~\242\260\220\316+\314FW\016\272\036\264"
 404      907EA2B0 
 404      90CE2BCC 
 404      46570EBA 
 404      1EB4
 405 15ad 3D55F45C 		.ascii	"=U\364\\\241\275<\304p\274\203\253\300v|H\253&q\004"
 405      A1BD3CC4 
 405      70BC83AB 
 405      C0767C48 
 405      AB267104 
 406 15c1 412759CF 		.ascii	"A'Y\317<\223\237U\220\22375\033\224\346\313\361z\374"
 406      3C939F55 
 406      90933735 
 406      1B94E6CB 
 406      F17AFC
 407 15d4 7E3CFC5D 		.ascii	"~<\374]\250R\234\025\356\216\247e\324\000\335<\004\275"
 407      A8529C15 
 407      EE8EA765 
 407      D400DD3C 
 407      04BD
 408 15e6 49E61A82 		.ascii	"I\346\032\202\332I\366J\301El0\214%Zl(.\345\346\025"
 408      DA49F64A 
 408      C1456C30 
 408      8C255A6C 
 408      282EE5E6 
ARM GAS  /tmp/ccF5nXKa.s 			page 33


 409 15fb 153C3FD6 		.ascii	"\025<?\326S\364\202\362S\341\013\320\362\231\361y\177"
 409      53F482F2 
 409      53E10BD0 
 409      F299F179 
 409      7F
 410 160c 1D9B9F8A 		.ascii	"\035\233\237\212\360\202e\342\370\0322\376\271q\343"
 410      F08265E2 
 410      F81A32FE 
 410      B971E3
 411 161b F3C77AD0 		.ascii	"\363\307z\320\267\267HE\367\270'&\270=\371c\237/\310"
 411      B7B74845 
 411      F7B82726 
 411      B83DF963 
 411      9F2FC8
 412 162e 1B3B5C55 		.ascii	"\033;\\U\367\364xw\2213X\346\301MS\275\376\240\367\025"
 412      F7F47877 
 412      913358E6 
 412      C14D53BD 
 412      FEA0F715 
 413 1642 4FA88C65 		.ascii	"O\250\214e\213\323\021`q9?\335;\335\353G\230\351\356"
 413      8BD31160 
 413      71393FDD 
 413      3BDDEB47 
 413      98E9EE
 414 1655 A27C4FFE 		.ascii	"\242|O\376\204\242\027=y/\346=3v\370\223\271\356\"\305"
 414      84A2173D 
 414      792FE63D 
 414      3376F893 
 414      B9EE22C5 
 415 1669 674FCEAD 		.ascii	"gO\316\255\332\032\024\304\037\031\202\021<\000\201"
 415      DA1A14C4 
 415      1F198211 
 415      3C0081
 416 1678 25CA0B06 		.ascii	"%\312\013\006&\371&;\274\360\2065 \3731\313qA.d\207"
 416      26F9263B 
 416      BCF08635 
 416      20FB31CB 
 416      71412E64 
 417 168d F1E510C7 		.ascii	"\361\345\020\307\213\013}\315\024\027\243\360l\303o"
 417      8B0B7DCD 
 417      1417A3F0 
 417      6CC36F
 418 169c 2EAEA2B8 		.ascii	".\256\242\270\224\301L\272x\271\224\223\310J\371\343"
 418      94C14CBA 
 418      78B99493 
 418      C84AF9E3 
 419 16ac 729195C0 		.ascii	"r\221\225\300!<\250\015\216\224\250Jv\006\272\300]h"
 419      213CA80D 
 419      8E94A84A 
 419      7606BAC0 
 419      5D68
 420 16be 2B7832AF 		.ascii	"+x2\257\220F\337\335\202\277\310+a\002\001\326\037\271"
 420      9046DFDD 
 420      82BFC82B 
 420      610201D6 
 420      1FB9
 421 16d0 212FAFD0 		.ascii	"!/\257\320\236\367l~Q\241-\357\271\\D\306\345\026:\275"
ARM GAS  /tmp/ccF5nXKa.s 			page 34


 421      9EF76C7E 
 421      51A12DEF 
 421      B95C44C6 
 421      E5163ABD 
 422 16e4 E23D762F 		.ascii	"\342=v/\366\023\2737\304\3729{\250\3047\011\215?\326"
 422      F613BB37 
 422      C4FA397B 
 422      A8C43709 
 422      8D3FD6
 423 16f7 3FC91728 		.ascii	"?\311\027(F\022Le\275|\220\033\021\351\330\203\347h"
 423      46124C65 
 423      BD7C901B 
 423      11E9D883 
 423      E768
 424 1709 0645593B 		.ascii	"\006EY;\372\300U`\312W\244b\343I=\331\306\347\026fc"
 424      FAC05560 
 424      CA57A462 
 424      E3493DD9 
 424      C6E71666 
 425 171e 9243BB91 		.ascii	"\222C\273\221_\272\013s\354E\205\005\356\2614R\302\357"
 425      5FBA0B73 
 425      EC458505 
 425      EEB13452 
 425      C2EF
 426 1730 466695A3 		.ascii	"Ff\225\243\005\011^1\2048o\226\373\311\302Q9\245\214"
 426      05095E31 
 426      84386F96 
 426      FBC9C251 
 426      39A58C
 427 1743 2F30D24B 		.ascii	"/0\322K\014qO\342F\345\270y\344\270\377f\030\301\244"
 427      0C714FE2 
 427      46E5B879 
 427      E4B8FF66 
 427      18C1A4
 428 1756 F0837DCE 		.ascii	"\360\203}\316[RTR\354\366\263,\216|(\306\240@2\024\365"
 428      5B525452 
 428      ECF6B32C 
 428      8E7C28C6 
 428      A0403214 
 429 176b 50C8FA59 		.ascii	"P\310\372Y\024\255\237(\017\375\006}\032\307\240\200"
 429      14AD9F28 
 429      0FFD067D 
 429      1AC7A080 
 430 177b C315B25E 		.ascii	"\303\025\262^\026\271r\021\232\224\321\260\304w\345"
 430      16B97211 
 430      9A94D1B0 
 430      C477E5
 431 178a 7AA794FB 		.ascii	"z\247\224\3738|\327\035\221\273\2128&\020*\365\361\322"
 431      387CD71D 
 431      91BB8A38 
 431      26102AF5 
 431      F1D2
 432 179c 6D8F2432 		.ascii	"m\217$2\010\014Fi\340\210\213,i\354\320\356\374\034"
 432      080C4669 
 432      E0888B2C 
 432      69ECD0EE 
 432      FC1C
ARM GAS  /tmp/ccF5nXKa.s 			page 35


 433 17ae 3B1E3FD9 		.ascii	";\036?\331\251\356\374\\\017W\341)fx\306\205\313S\031"
 433      A9EEFC5C 
 433      0F57E129 
 433      6678C685 
 433      CB5319
 434 17c1 7F390BB5 		.ascii	"\1779\013\265\274X\373\377\007\216\3013"
 434      BC58FBFF 
 434      078EC133 
 435              		.text
 436              		.section	.gnu.lto_.symtab.ccf8af29b23512b6,"",%progbits
 437 0000 53667230 		.ascii	"Sfr02Start\000\000\000\000\000\000\000\000\000\000\000"
 437      32537461 
 437      72740000 
 437      00000000 
 437      00000000 
 438 0015 00A70200 		.ascii	"\000\247\002\000\000I2CD1\000\000\002\000\000\000\000"
 438      00493243 
 438      44310000 
 438      02000000 
 438      00
 439 0026 00000000 		.ascii	"\000\000\000\000\000\314\002\000\000SD2\000\000\002"
 439      00CC0200 
 439      00534432 
 439      000002
 440 0035 00000000 		.ascii	"\000\000\000\000\000\000\000\000\000\312\002\000\000"
 440      00000000 
 440      00CA0200 
 440      00
 441 0042 63685468 		.ascii	"chThdSleep\000\000\002\000\000\000\000\000\000\000\000"
 441      64536C65 
 441      65700000 
 441      02000000 
 441      00000000 
 442 0057 00AB0200 		.ascii	"\000\253\002\000\000chprintf\000\000\002\000\000\000"
 442      00636870 
 442      72696E74 
 442      66000002 
 442      000000
 443 006a 00000000 		.ascii	"\000\000\000\000\000\000\257\002\000\000i2cReleaseB"
 443      0000AF02 
 443      00006932 
 443      6352656C 
 443      65617365 
 444 007f 75730000 		.ascii	"us\000\000\002\000\000\000\000\000\000\000\000\000\262"
 444      02000000 
 444      00000000 
 444      0000B2
 445 008e 02000069 		.ascii	"\002\000\000i2cMasterReceiveTimeout\000\000\002\000"
 445      32634D61 
 445      73746572 
 445      52656365 
 445      69766554 
 446 00ac 00000000 		.ascii	"\000\000\000\000\000\000\000\000\266\002\000\000i2c"
 446      00000000 
 446      B6020000 
 446      693263
 447 00bb 41637175 		.ascii	"AcquireBus\000\000\002\000\000\000\000\000\000\000\000"
ARM GAS  /tmp/ccF5nXKa.s 			page 36


 447      69726542 
 447      75730000 
 447      02000000 
 447      00000000 
 448 00d0 00BE0200 		.ascii	"\000\276\002\000\000i2cMasterTransmitTimeout\000\000"
 448      00693263 
 448      4D617374 
 448      65725472 
 448      616E736D 
 449 00ef 02000000 		.ascii	"\002\000\000\000\000\000\000\000\000\000\300\002\000"
 449      00000000 
 449      0000C002 
 449      00
 450 00fc 00       		.ascii	"\000"
 451              		.text
 452              		.section	.gnu.lto_.opts,"",%progbits
 453 0000 272D6D63 		.ascii	"'-mcpu=cortex-m3' '-mno-thumb-interwork' '-mthumb' "
 453      70753D63 
 453      6F727465 
 453      782D6D33 
 453      2720272D 
 454 0033 272D6767 		.ascii	"'-ggdb' '-O2' '-fomit-frame-pointer' '-falign-funct"
 454      64622720 
 454      272D4F32 
 454      2720272D 
 454      666F6D69 
 455 0066 696F6E73 		.ascii	"ions=16' '-ffunction-sections' '-fdata-sections' '-"
 455      3D313627 
 455      20272D66 
 455      66756E63 
 455      74696F6E 
 456 0099 666E6F2D 		.ascii	"fno-common' '-flto'\000"
 456      636F6D6D 
 456      6F6E2720 
 456      272D666C 
 456      746F2700 
 457              		.text
 458              		.cfi_sections	.debug_frame
 459              		.section	.text.Sfr02Start,"ax",%progbits
 460              		.align	2
 461              		.p2align 4,,15
 462              		.global	Sfr02Start
 463              		.thumb
 464              		.thumb_func
 465              		.type	Sfr02Start, %function
 466              	Sfr02Start:
 467              	.LFB219:
 468              		.file 1 "./userlib/src/SFR02main.c"
 469              		.loc 1 32 0
 470              		.cfi_startproc
 471              		@ args = 0, pretend = 0, frame = 0
 472              		@ frame_needed = 0, uses_anonymous_args = 0
 473              	.LVL0:
 474 0000 2DE9F043 		push	{r4, r5, r6, r7, r8, r9, lr}
 475              		.cfi_def_cfa_offset 28
 476              		.cfi_offset 4, -28
 477              		.cfi_offset 5, -24
ARM GAS  /tmp/ccF5nXKa.s 			page 37


 478              		.cfi_offset 6, -20
 479              		.cfi_offset 7, -16
 480              		.cfi_offset 8, -12
 481              		.cfi_offset 9, -8
 482              		.cfi_offset 14, -4
 483              		.loc 1 45 0
 484 0004 40F20004 		movw	r4, #:lower16:I2CD1
 485 0008 C0F20004 		movt	r4, #:upper16:I2CD1
 486              		.loc 1 38 0
 487 000c 40F20006 		movw	r6, #:lower16:.LANCHOR0
 488              		.loc 1 40 0
 489 0010 40F20007 		movw	r7, #:lower16:.LANCHOR1
 490              		.loc 1 32 0
 491 0014 85B0     		sub	sp, sp, #20
 492              		.cfi_def_cfa_offset 48
 493              		.loc 1 38 0
 494 0016 0025     		movs	r5, #0
 495 0018 C0F20006 		movt	r6, #:upper16:.LANCHOR0
 496              		.loc 1 40 0
 497 001c 4FF00209 		mov	r9, #2
 498              		.loc 1 46 0
 499 0020 4FF6FF78 		movw	r8, #65535
 500              		.loc 1 45 0
 501 0024 2046     		mov	r0, r4
 502              		.loc 1 39 0
 503 0026 5123     		movs	r3, #81
 504              		.loc 1 40 0
 505 0028 C0F20007 		movt	r7, #:upper16:.LANCHOR1
 506              		.loc 1 39 0
 507 002c 7370     		strb	r3, [r6, #1]
 508              		.loc 1 38 0
 509 002e 3570     		strb	r5, [r6]
 510              		.loc 1 40 0
 511 0030 87F80090 		strb	r9, [r7]
 512              		.loc 1 45 0
 513 0034 FFF7FEFF 		bl	i2cAcquireBus
 514              	.LVL1:
 515              		.loc 1 46 0
 516 0038 3246     		mov	r2, r6
 517 003a 4B46     		mov	r3, r9
 518 003c 7021     		movs	r1, #112
 519 003e 0095     		str	r5, [sp]
 520 0040 0195     		str	r5, [sp, #4]
 521 0042 2046     		mov	r0, r4
 522 0044 CDF80880 		str	r8, [sp, #8]
 523 0048 FFF7FEFF 		bl	i2cMasterTransmitTimeout
 524              	.LVL2:
 525              		.loc 1 47 0
 526 004c 2046     		mov	r0, r4
 527 004e FFF7FEFF 		bl	i2cReleaseBus
 528              	.LVL3:
 529              		.loc 1 49 0
 530 0052 4620     		movs	r0, #70
 531 0054 FFF7FEFF 		bl	chThdSleep
 532              	.LVL4:
 533              		.loc 1 51 0
 534 0058 2046     		mov	r0, r4
ARM GAS  /tmp/ccF5nXKa.s 			page 38


 535 005a FFF7FEFF 		bl	i2cAcquireBus
 536              	.LVL5:
 537              		.loc 1 52 0
 538 005e 3A46     		mov	r2, r7
 539 0060 7021     		movs	r1, #112
 540 0062 0123     		movs	r3, #1
 541 0064 0095     		str	r5, [sp]
 542 0066 0195     		str	r5, [sp, #4]
 543 0068 CDF80880 		str	r8, [sp, #8]
 544 006c 2046     		mov	r0, r4
 545 006e FFF7FEFF 		bl	i2cMasterTransmitTimeout
 546              	.LVL6:
 547              		.loc 1 56 0
 548 0072 40F20005 		movw	r5, #:lower16:.LANCHOR2
 549              		.loc 1 53 0
 550 0076 2046     		mov	r0, r4
 551 0078 FFF7FEFF 		bl	i2cReleaseBus
 552              	.LVL7:
 553              		.loc 1 56 0
 554 007c C0F20005 		movt	r5, #:upper16:.LANCHOR2
 555              		.loc 1 55 0
 556 0080 2046     		mov	r0, r4
 557 0082 FFF7FEFF 		bl	i2cAcquireBus
 558              	.LVL8:
 559              		.loc 1 56 0
 560 0086 4B46     		mov	r3, r9
 561 0088 2A46     		mov	r2, r5
 562 008a 7021     		movs	r1, #112
 563 008c CDF80080 		str	r8, [sp]
 564 0090 2046     		mov	r0, r4
 565 0092 FFF7FEFF 		bl	i2cMasterReceiveTimeout
 566              	.LVL9:
 567              		.loc 1 57 0
 568 0096 2046     		mov	r0, r4
 569 0098 FFF7FEFF 		bl	i2cReleaseBus
 570              	.LVL10:
 571              		.loc 1 67 0
 572 009c 2A78     		ldrb	r2, [r5]	@ zero_extendqisi2
 573 009e 6B78     		ldrb	r3, [r5, #1]	@ zero_extendqisi2
 574              		.loc 1 69 0
 575 00a0 40F20000 		movw	r0, #:lower16:SD2
 576              		.loc 1 67 0
 577 00a4 43EA0222 		orr	r2, r3, r2, lsl #8
 578              		.loc 1 69 0
 579 00a8 40F20001 		movw	r1, #:lower16:.LC0
 580 00ac 12B2     		sxth	r2, r2
 581 00ae C0F20001 		movt	r1, #:upper16:.LC0
 582 00b2 C0F20000 		movt	r0, #:upper16:SD2
 583 00b6 FFF7FEFF 		bl	chprintf
 584              	.LVL11:
 585              		.loc 1 71 0
 586 00ba 4FF4FA70 		mov	r0, #500
 587              		.loc 1 79 0
 588 00be 05B0     		add	sp, sp, #20
 589              		@ sp needed
 590 00c0 BDE8F043 		pop	{r4, r5, r6, r7, r8, r9, lr}
 591              		.loc 1 71 0
ARM GAS  /tmp/ccF5nXKa.s 			page 39


 592 00c4 FFF7FEBF 		b	chThdSleep
 593              	.LVL12:
 594              		.cfi_endproc
 595              	.LFE219:
 596              		.size	Sfr02Start, .-Sfr02Start
 597 00c8 AFF30080 		.section	.bss.SDA_rx_data,"aw",%nobits
 597      AFF30080 
 598              		.align	2
 599              		.set	.LANCHOR2,. + 0
 600              		.type	SDA_rx_data, %object
 601              		.size	SDA_rx_data, 8
 602              	SDA_rx_data:
 603 0000 00000000 		.space	8
 603      00000000 
 604              		.section	.bss.SDA_value,"aw",%nobits
 605              		.align	2
 606              		.set	.LANCHOR1,. + 0
 607              		.type	SDA_value, %object
 608              		.size	SDA_value, 8
 609              	SDA_value:
 610 0000 00000000 		.space	8
 610      00000000 
 611              		.section	.rodata.str1.4,"aMS",%progbits,1
 612              		.align	2
 613              	.LC0:
 614 0000 456C2072 		.ascii	"El resultado es= %d\012\015\000"
 614      6573756C 
 614      7461646F 
 614      2065733D 
 614      2025640A 
 615 0016 0000     		.section	.bss.SDA_tx_data,"aw",%nobits
 616              		.align	2
 617              		.set	.LANCHOR0,. + 0
 618              		.type	SDA_tx_data, %object
 619              		.size	SDA_tx_data, 8
 620              	SDA_tx_data:
 621 0000 00000000 		.space	8
 621      00000000 
 622              		.text
 623              	.Letext0:
 624              		.file 2 "/home/julian/MEGA/semestre_ix/Embebidos/arm-2013.11/lib/gcc/arm-none-eabi/4.8.1/include/s
 625              		.file 3 "/home/julian/MEGA/semestre_ix/Embebidos/arm-2013.11/arm-none-eabi/include/stdint.h"
 626              		.file 4 "../../../os/common/ports/ARMCMx/compilers/GCC/chtypes.h"
 627              		.file 5 "../../../os/rt/include/chsystypes.h"
 628              		.file 6 "../../../os/rt/include/chschd.h"
 629              		.file 7 "../../../os/common/ext/CMSIS/ST/STM32F1xx/stm32f100xb.h"
 630              		.file 8 "../../../os/common/ports/ARMCMx/chcore.h"
 631              		.file 9 "../../../os/common/ports/ARMCMx/chcore_v7m.h"
 632              		.file 10 "../../../os/rt/include/chsem.h"
 633              		.file 11 "../../../os/rt/include/chmtx.h"
 634              		.file 12 "../../../os/rt/include/chevents.h"
 635              		.file 13 "../../../os/hal/ports/STM32/LLD/DMAv1/stm32_dma.h"
 636              		.file 14 "../../../os/hal/include/hal_channels.h"
 637              		.file 15 "../../../os/hal/include/hal_queues.h"
 638              		.file 16 "../../../os/hal/include/hal_i2c.h"
 639              		.file 17 "../../../os/hal/ports/STM32/LLD/I2Cv1/hal_i2c_lld.h"
 640              		.file 18 "../../../os/hal/include/hal_serial.h"
ARM GAS  /tmp/ccF5nXKa.s 			page 40


 641              		.file 19 "../../../os/common/ext/CMSIS/include/core_cm3.h"
 642              		.file 20 "../../../os/hal/ports/STM32/LLD/USARTv1/hal_serial_lld.h"
 643              		.file 21 "../../../os/rt/include/chthreads.h"
 644              		.section	.debug_info,"",%progbits
 645              	.Ldebug_info0:
 646 0000 0B100000 		.4byte	0x100b
 647 0004 0400     		.2byte	0x4
 648 0006 00000000 		.4byte	.Ldebug_abbrev0
 649 000a 04       		.byte	0x4
 650 000b 01       		.uleb128 0x1
 651 000c C5030000 		.4byte	.LASF188
 652 0010 01       		.byte	0x1
 653 0011 56010000 		.4byte	.LASF189
 654 0015 F0000000 		.4byte	.LASF190
 655 0019 00000000 		.4byte	.Ldebug_ranges0+0
 656 001d 00000000 		.4byte	0
 657 0021 00000000 		.4byte	.Ldebug_line0
 658 0025 02       		.uleb128 0x2
 659 0026 04       		.byte	0x4
 660 0027 05       		.byte	0x5
 661 0028 696E7400 		.ascii	"int\000"
 662 002c 03       		.uleb128 0x3
 663 002d 5C030000 		.4byte	.LASF2
 664 0031 02       		.byte	0x2
 665 0032 D4       		.byte	0xd4
 666 0033 37000000 		.4byte	0x37
 667 0037 04       		.uleb128 0x4
 668 0038 04       		.byte	0x4
 669 0039 07       		.byte	0x7
 670 003a 96000000 		.4byte	.LASF0
 671 003e 04       		.uleb128 0x4
 672 003f 01       		.byte	0x1
 673 0040 06       		.byte	0x6
 674 0041 1D080000 		.4byte	.LASF1
 675 0045 03       		.uleb128 0x3
 676 0046 F7040000 		.4byte	.LASF3
 677 004a 03       		.byte	0x3
 678 004b 2A       		.byte	0x2a
 679 004c 50000000 		.4byte	0x50
 680 0050 04       		.uleb128 0x4
 681 0051 01       		.byte	0x1
 682 0052 08       		.byte	0x8
 683 0053 8C070000 		.4byte	.LASF4
 684 0057 04       		.uleb128 0x4
 685 0058 02       		.byte	0x2
 686 0059 05       		.byte	0x5
 687 005a 4C060000 		.4byte	.LASF5
 688 005e 03       		.uleb128 0x3
 689 005f 12060000 		.4byte	.LASF6
 690 0063 03       		.byte	0x3
 691 0064 36       		.byte	0x36
 692 0065 69000000 		.4byte	0x69
 693 0069 04       		.uleb128 0x4
 694 006a 02       		.byte	0x2
 695 006b 07       		.byte	0x7
 696 006c 38080000 		.4byte	.LASF7
 697 0070 03       		.uleb128 0x3
ARM GAS  /tmp/ccF5nXKa.s 			page 41


 698 0071 52070000 		.4byte	.LASF8
 699 0075 03       		.byte	0x3
 700 0076 4F       		.byte	0x4f
 701 0077 7B000000 		.4byte	0x7b
 702 007b 04       		.uleb128 0x4
 703 007c 04       		.byte	0x4
 704 007d 05       		.byte	0x5
 705 007e 5D060000 		.4byte	.LASF9
 706 0082 03       		.uleb128 0x3
 707 0083 21020000 		.4byte	.LASF10
 708 0087 03       		.byte	0x3
 709 0088 50       		.byte	0x50
 710 0089 8D000000 		.4byte	0x8d
 711 008d 04       		.uleb128 0x4
 712 008e 04       		.byte	0x4
 713 008f 07       		.byte	0x7
 714 0090 2D070000 		.4byte	.LASF11
 715 0094 04       		.uleb128 0x4
 716 0095 08       		.byte	0x8
 717 0096 05       		.byte	0x5
 718 0097 3F050000 		.4byte	.LASF12
 719 009b 03       		.uleb128 0x3
 720 009c B8060000 		.4byte	.LASF13
 721 00a0 03       		.byte	0x3
 722 00a1 78       		.byte	0x78
 723 00a2 A6000000 		.4byte	0xa6
 724 00a6 04       		.uleb128 0x4
 725 00a7 08       		.byte	0x8
 726 00a8 07       		.byte	0x7
 727 00a9 AB020000 		.4byte	.LASF14
 728 00ad 03       		.uleb128 0x3
 729 00ae EF050000 		.4byte	.LASF15
 730 00b2 04       		.byte	0x4
 731 00b3 3C       		.byte	0x3c
 732 00b4 45000000 		.4byte	0x45
 733 00b8 03       		.uleb128 0x3
 734 00b9 C0040000 		.4byte	.LASF16
 735 00bd 04       		.byte	0x4
 736 00be 3D       		.byte	0x3d
 737 00bf 45000000 		.4byte	0x45
 738 00c3 03       		.uleb128 0x3
 739 00c4 25070000 		.4byte	.LASF17
 740 00c8 04       		.byte	0x4
 741 00c9 3E       		.byte	0x3e
 742 00ca 45000000 		.4byte	0x45
 743 00ce 03       		.uleb128 0x3
 744 00cf 8B020000 		.4byte	.LASF18
 745 00d3 04       		.byte	0x4
 746 00d4 40       		.byte	0x40
 747 00d5 82000000 		.4byte	0x82
 748 00d9 03       		.uleb128 0x3
 749 00da 75050000 		.4byte	.LASF19
 750 00de 04       		.byte	0x4
 751 00df 41       		.byte	0x41
 752 00e0 70000000 		.4byte	0x70
 753 00e4 03       		.uleb128 0x3
 754 00e5 55020000 		.4byte	.LASF20
ARM GAS  /tmp/ccF5nXKa.s 			page 42


 755 00e9 04       		.byte	0x4
 756 00ea 43       		.byte	0x43
 757 00eb 82000000 		.4byte	0x82
 758 00ef 03       		.uleb128 0x3
 759 00f0 C6050000 		.4byte	.LASF21
 760 00f4 04       		.byte	0x4
 761 00f5 44       		.byte	0x44
 762 00f6 82000000 		.4byte	0x82
 763 00fa 03       		.uleb128 0x3
 764 00fb EA020000 		.4byte	.LASF22
 765 00ff 04       		.byte	0x4
 766 0100 45       		.byte	0x45
 767 0101 70000000 		.4byte	0x70
 768 0105 03       		.uleb128 0x3
 769 0106 61000000 		.4byte	.LASF23
 770 010a 05       		.byte	0x5
 771 010b 35       		.byte	0x35
 772 010c 5E000000 		.4byte	0x5e
 773 0110 03       		.uleb128 0x3
 774 0111 4E030000 		.4byte	.LASF24
 775 0115 05       		.byte	0x5
 776 0116 3F       		.byte	0x3f
 777 0117 1B010000 		.4byte	0x11b
 778 011b 05       		.uleb128 0x5
 779 011c 20050000 		.4byte	.LASF42
 780 0120 44       		.byte	0x44
 781 0121 06       		.byte	0x6
 782 0122 9A       		.byte	0x9a
 783 0123 F9010000 		.4byte	0x1f9
 784 0127 06       		.uleb128 0x6
 785 0128 4C070000 		.4byte	.LASF25
 786 012c 06       		.byte	0x6
 787 012d 9B       		.byte	0x9b
 788 012e 2E020000 		.4byte	0x22e
 789 0132 00       		.byte	0
 790 0133 06       		.uleb128 0x6
 791 0134 78040000 		.4byte	.LASF26
 792 0138 06       		.byte	0x6
 793 0139 9C       		.byte	0x9c
 794 013a CE000000 		.4byte	0xce
 795 013e 08       		.byte	0x8
 796 013f 07       		.uleb128 0x7
 797 0140 63747800 		.ascii	"ctx\000"
 798 0144 06       		.byte	0x6
 799 0145 9D       		.byte	0x9d
 800 0146 92050000 		.4byte	0x592
 801 014a 0C       		.byte	0xc
 802 014b 06       		.uleb128 0x6
 803 014c 86070000 		.4byte	.LASF27
 804 0150 06       		.byte	0x6
 805 0151 9F       		.byte	0x9f
 806 0152 04020000 		.4byte	0x204
 807 0156 10       		.byte	0x10
 808 0157 06       		.uleb128 0x6
 809 0158 6F080000 		.4byte	.LASF28
 810 015c 06       		.byte	0x6
 811 015d A0       		.byte	0xa0
ARM GAS  /tmp/ccF5nXKa.s 			page 43


 812 015e 04020000 		.4byte	0x204
 813 0162 14       		.byte	0x14
 814 0163 06       		.uleb128 0x6
 815 0164 E0060000 		.4byte	.LASF29
 816 0168 06       		.byte	0x6
 817 0169 A7       		.byte	0xa7
 818 016a F7060000 		.4byte	0x6f7
 819 016e 18       		.byte	0x18
 820 016f 06       		.uleb128 0x6
 821 0170 B1040000 		.4byte	.LASF30
 822 0174 06       		.byte	0x6
 823 0175 B0       		.byte	0xb0
 824 0176 09070000 		.4byte	0x709
 825 017a 1C       		.byte	0x1c
 826 017b 06       		.uleb128 0x6
 827 017c F2070000 		.4byte	.LASF31
 828 0180 06       		.byte	0x6
 829 0181 B5       		.byte	0xb5
 830 0182 B8000000 		.4byte	0xb8
 831 0186 20       		.byte	0x20
 832 0187 06       		.uleb128 0x6
 833 0188 5B000000 		.4byte	.LASF32
 834 018c 06       		.byte	0x6
 835 018d B9       		.byte	0xb9
 836 018e AD000000 		.4byte	0xad
 837 0192 21       		.byte	0x21
 838 0193 06       		.uleb128 0x6
 839 0194 D5000000 		.4byte	.LASF33
 840 0198 06       		.byte	0x6
 841 0199 BE       		.byte	0xbe
 842 019a C3000000 		.4byte	0xc3
 843 019e 22       		.byte	0x22
 844 019f 08       		.uleb128 0x8
 845 01a0 7500     		.ascii	"u\000"
 846 01a2 06       		.byte	0x6
 847 01a3 0F01     		.2byte	0x10f
 848 01a5 2C060000 		.4byte	0x62c
 849 01a9 24       		.byte	0x24
 850 01aa 09       		.uleb128 0x9
 851 01ab A8070000 		.4byte	.LASF34
 852 01af 06       		.byte	0x6
 853 01b0 1401     		.2byte	0x114
 854 01b2 0A020000 		.4byte	0x20a
 855 01b6 28       		.byte	0x28
 856 01b7 09       		.uleb128 0x9
 857 01b8 17050000 		.4byte	.LASF35
 858 01bc 06       		.byte	0x6
 859 01bd 1A01     		.2byte	0x11a
 860 01bf 2E020000 		.4byte	0x22e
 861 01c3 2C       		.byte	0x2c
 862 01c4 09       		.uleb128 0x9
 863 01c5 8D000000 		.4byte	.LASF36
 864 01c9 06       		.byte	0x6
 865 01ca 2001     		.2byte	0x120
 866 01cc E4000000 		.4byte	0xe4
 867 01d0 34       		.byte	0x34
 868 01d1 09       		.uleb128 0x9
ARM GAS  /tmp/ccF5nXKa.s 			page 44


 869 01d2 10030000 		.4byte	.LASF37
 870 01d6 06       		.byte	0x6
 871 01d7 2701     		.2byte	0x127
 872 01d9 F1060000 		.4byte	0x6f1
 873 01dd 38       		.byte	0x38
 874 01de 09       		.uleb128 0x9
 875 01df 6B000000 		.4byte	.LASF38
 876 01e3 06       		.byte	0x6
 877 01e4 2B01     		.2byte	0x12b
 878 01e6 CE000000 		.4byte	0xce
 879 01ea 3C       		.byte	0x3c
 880 01eb 09       		.uleb128 0x9
 881 01ec 91080000 		.4byte	.LASF39
 882 01f0 06       		.byte	0x6
 883 01f1 3201     		.2byte	0x132
 884 01f3 E1020000 		.4byte	0x2e1
 885 01f7 40       		.byte	0x40
 886 01f8 00       		.byte	0
 887 01f9 03       		.uleb128 0x3
 888 01fa 94040000 		.4byte	.LASF40
 889 01fe 05       		.byte	0x5
 890 01ff 44       		.byte	0x44
 891 0200 04020000 		.4byte	0x204
 892 0204 0A       		.uleb128 0xa
 893 0205 04       		.byte	0x4
 894 0206 10010000 		.4byte	0x110
 895 020a 03       		.uleb128 0x3
 896 020b BE000000 		.4byte	.LASF41
 897 020f 05       		.byte	0x5
 898 0210 49       		.byte	0x49
 899 0211 15020000 		.4byte	0x215
 900 0215 05       		.uleb128 0x5
 901 0216 00000000 		.4byte	.LASF43
 902 021a 04       		.byte	0x4
 903 021b 06       		.byte	0x6
 904 021c 88       		.byte	0x88
 905 021d 2E020000 		.4byte	0x22e
 906 0221 06       		.uleb128 0x6
 907 0222 A3000000 		.4byte	.LASF44
 908 0226 06       		.byte	0x6
 909 0227 89       		.byte	0x89
 910 0228 04020000 		.4byte	0x204
 911 022c 00       		.byte	0
 912 022d 00       		.byte	0
 913 022e 03       		.uleb128 0x3
 914 022f 00030000 		.4byte	.LASF45
 915 0233 05       		.byte	0x5
 916 0234 50       		.byte	0x50
 917 0235 39020000 		.4byte	0x239
 918 0239 05       		.uleb128 0x5
 919 023a A3010000 		.4byte	.LASF46
 920 023e 08       		.byte	0x8
 921 023f 06       		.byte	0x6
 922 0240 8F       		.byte	0x8f
 923 0241 5E020000 		.4byte	0x25e
 924 0245 06       		.uleb128 0x6
 925 0246 A3000000 		.4byte	.LASF44
ARM GAS  /tmp/ccF5nXKa.s 			page 45


 926 024a 06       		.byte	0x6
 927 024b 90       		.byte	0x90
 928 024c 04020000 		.4byte	0x204
 929 0250 00       		.byte	0
 930 0251 06       		.uleb128 0x6
 931 0252 9E010000 		.4byte	.LASF47
 932 0256 06       		.byte	0x6
 933 0257 91       		.byte	0x91
 934 0258 04020000 		.4byte	0x204
 935 025c 04       		.byte	0x4
 936 025d 00       		.byte	0
 937 025e 03       		.uleb128 0x3
 938 025f 3F070000 		.4byte	.LASF48
 939 0263 05       		.byte	0x5
 940 0264 57       		.byte	0x57
 941 0265 69020000 		.4byte	0x269
 942 0269 0B       		.uleb128 0xb
 943 026a 84010000 		.4byte	.LASF49
 944 026e 1C       		.byte	0x1c
 945 026f 06       		.byte	0x6
 946 0270 6A01     		.2byte	0x16a
 947 0272 C5020000 		.4byte	0x2c5
 948 0276 09       		.uleb128 0x9
 949 0277 4C070000 		.4byte	.LASF25
 950 027b 06       		.byte	0x6
 951 027c 6B01     		.2byte	0x16b
 952 027e 2E020000 		.4byte	0x22e
 953 0282 00       		.byte	0
 954 0283 09       		.uleb128 0x9
 955 0284 78040000 		.4byte	.LASF26
 956 0288 06       		.byte	0x6
 957 0289 6C01     		.2byte	0x16c
 958 028b CE000000 		.4byte	0xce
 959 028f 08       		.byte	0x8
 960 0290 08       		.uleb128 0x8
 961 0291 63747800 		.ascii	"ctx\000"
 962 0295 06       		.byte	0x6
 963 0296 6E01     		.2byte	0x16e
 964 0298 92050000 		.4byte	0x592
 965 029c 0C       		.byte	0xc
 966 029d 09       		.uleb128 0x9
 967 029e 86070000 		.4byte	.LASF27
 968 02a2 06       		.byte	0x6
 969 02a3 7101     		.2byte	0x171
 970 02a5 04020000 		.4byte	0x204
 971 02a9 10       		.byte	0x10
 972 02aa 09       		.uleb128 0x9
 973 02ab 6F080000 		.4byte	.LASF28
 974 02af 06       		.byte	0x6
 975 02b0 7201     		.2byte	0x172
 976 02b2 04020000 		.4byte	0x204
 977 02b6 14       		.byte	0x14
 978 02b7 09       		.uleb128 0x9
 979 02b8 5B080000 		.4byte	.LASF50
 980 02bc 06       		.byte	0x6
 981 02bd 7501     		.2byte	0x175
 982 02bf 04020000 		.4byte	0x204
ARM GAS  /tmp/ccF5nXKa.s 			page 46


 983 02c3 18       		.byte	0x18
 984 02c4 00       		.byte	0
 985 02c5 03       		.uleb128 0x3
 986 02c6 CD010000 		.4byte	.LASF51
 987 02ca 05       		.byte	0x5
 988 02cb 5C       		.byte	0x5c
 989 02cc D0020000 		.4byte	0x2d0
 990 02d0 0A       		.uleb128 0xa
 991 02d1 04       		.byte	0x4
 992 02d2 D6020000 		.4byte	0x2d6
 993 02d6 0C       		.uleb128 0xc
 994 02d7 E1020000 		.4byte	0x2e1
 995 02db 0D       		.uleb128 0xd
 996 02dc E1020000 		.4byte	0x2e1
 997 02e0 00       		.byte	0
 998 02e1 0E       		.uleb128 0xe
 999 02e2 04       		.byte	0x4
 1000 02e3 03       		.uleb128 0x3
 1001 02e4 81050000 		.4byte	.LASF52
 1002 02e8 05       		.byte	0x5
 1003 02e9 61       		.byte	0x61
 1004 02ea EE020000 		.4byte	0x2ee
 1005 02ee 0B       		.uleb128 0xb
 1006 02ef 93020000 		.4byte	.LASF53
 1007 02f3 14       		.byte	0x14
 1008 02f4 06       		.byte	0x6
 1009 02f5 4501     		.2byte	0x145
 1010 02f7 3D030000 		.4byte	0x33d
 1011 02fb 09       		.uleb128 0x9
 1012 02fc A3000000 		.4byte	.LASF44
 1013 0300 06       		.byte	0x6
 1014 0301 4601     		.2byte	0x146
 1015 0303 0F070000 		.4byte	0x70f
 1016 0307 00       		.byte	0
 1017 0308 09       		.uleb128 0x9
 1018 0309 9E010000 		.4byte	.LASF47
 1019 030d 06       		.byte	0x6
 1020 030e 4701     		.2byte	0x147
 1021 0310 0F070000 		.4byte	0x70f
 1022 0314 04       		.byte	0x4
 1023 0315 09       		.uleb128 0x9
 1024 0316 29080000 		.4byte	.LASF54
 1025 031a 06       		.byte	0x6
 1026 031b 4801     		.2byte	0x148
 1027 031d 05010000 		.4byte	0x105
 1028 0321 08       		.byte	0x8
 1029 0322 09       		.uleb128 0x9
 1030 0323 92010000 		.4byte	.LASF55
 1031 0327 06       		.byte	0x6
 1032 0328 4901     		.2byte	0x149
 1033 032a C5020000 		.4byte	0x2c5
 1034 032e 0C       		.byte	0xc
 1035 032f 08       		.uleb128 0x8
 1036 0330 70617200 		.ascii	"par\000"
 1037 0334 06       		.byte	0x6
 1038 0335 4B01     		.2byte	0x14b
 1039 0337 E1020000 		.4byte	0x2e1
ARM GAS  /tmp/ccF5nXKa.s 			page 47


 1040 033b 10       		.byte	0x10
 1041 033c 00       		.byte	0
 1042 033d 03       		.uleb128 0x3
 1043 033e B0070000 		.4byte	.LASF56
 1044 0342 05       		.byte	0x5
 1045 0343 66       		.byte	0x66
 1046 0344 48030000 		.4byte	0x348
 1047 0348 0B       		.uleb128 0xb
 1048 0349 18030000 		.4byte	.LASF57
 1049 034d 0C       		.byte	0xc
 1050 034e 06       		.byte	0x6
 1051 034f 5501     		.2byte	0x155
 1052 0351 8A030000 		.4byte	0x38a
 1053 0355 09       		.uleb128 0x9
 1054 0356 A3000000 		.4byte	.LASF44
 1055 035a 06       		.byte	0x6
 1056 035b 5601     		.2byte	0x156
 1057 035d 0F070000 		.4byte	0x70f
 1058 0361 00       		.byte	0
 1059 0362 09       		.uleb128 0x9
 1060 0363 9E010000 		.4byte	.LASF47
 1061 0367 06       		.byte	0x6
 1062 0368 5801     		.2byte	0x158
 1063 036a 0F070000 		.4byte	0x70f
 1064 036e 04       		.byte	0x4
 1065 036f 09       		.uleb128 0x9
 1066 0370 29080000 		.4byte	.LASF54
 1067 0374 06       		.byte	0x6
 1068 0375 5A01     		.2byte	0x15a
 1069 0377 05010000 		.4byte	0x105
 1070 037b 08       		.byte	0x8
 1071 037c 09       		.uleb128 0x9
 1072 037d AF060000 		.4byte	.LASF58
 1073 0381 06       		.byte	0x6
 1074 0382 6201     		.2byte	0x162
 1075 0384 05010000 		.4byte	0x105
 1076 0388 0A       		.byte	0xa
 1077 0389 00       		.byte	0
 1078 038a 03       		.uleb128 0x3
 1079 038b 30050000 		.4byte	.LASF59
 1080 038f 05       		.byte	0x5
 1081 0390 6B       		.byte	0x6b
 1082 0391 95030000 		.4byte	0x395
 1083 0395 0B       		.uleb128 0xb
 1084 0396 E3010000 		.4byte	.LASF60
 1085 039a 04       		.byte	0x4
 1086 039b 06       		.byte	0x6
 1087 039c 7C01     		.2byte	0x17c
 1088 039e B0030000 		.4byte	0x3b0
 1089 03a2 09       		.uleb128 0x9
 1090 03a3 D3050000 		.4byte	.LASF61
 1091 03a7 06       		.byte	0x6
 1092 03a8 8401     		.2byte	0x184
 1093 03aa 15070000 		.4byte	0x715
 1094 03ae 00       		.byte	0
 1095 03af 00       		.byte	0
 1096 03b0 03       		.uleb128 0x3
ARM GAS  /tmp/ccF5nXKa.s 			page 48


 1097 03b1 04080000 		.4byte	.LASF62
 1098 03b5 05       		.byte	0x5
 1099 03b6 70       		.byte	0x70
 1100 03b7 BB030000 		.4byte	0x3bb
 1101 03bb 0B       		.uleb128 0xb
 1102 03bc 9B060000 		.4byte	.LASF63
 1103 03c0 70       		.byte	0x70
 1104 03c1 06       		.byte	0x6
 1105 03c2 9C01     		.2byte	0x19c
 1106 03c4 FD030000 		.4byte	0x3fd
 1107 03c8 09       		.uleb128 0x9
 1108 03c9 C1060000 		.4byte	.LASF64
 1109 03cd 06       		.byte	0x6
 1110 03ce A001     		.2byte	0x1a0
 1111 03d0 5E020000 		.4byte	0x25e
 1112 03d4 00       		.byte	0
 1113 03d5 09       		.uleb128 0x9
 1114 03d6 4F010000 		.4byte	.LASF65
 1115 03da 06       		.byte	0x6
 1116 03db A401     		.2byte	0x1a4
 1117 03dd 3D030000 		.4byte	0x33d
 1118 03e1 1C       		.byte	0x1c
 1119 03e2 08       		.uleb128 0x8
 1120 03e3 64626700 		.ascii	"dbg\000"
 1121 03e7 06       		.byte	0x6
 1122 03e8 A801     		.2byte	0x1a8
 1123 03ea 8A030000 		.4byte	0x38a
 1124 03ee 28       		.byte	0x28
 1125 03ef 09       		.uleb128 0x9
 1126 03f0 F7050000 		.4byte	.LASF66
 1127 03f4 06       		.byte	0x6
 1128 03f5 AC01     		.2byte	0x1ac
 1129 03f7 10010000 		.4byte	0x110
 1130 03fb 2C       		.byte	0x2c
 1131 03fc 00       		.byte	0
 1132 03fd 04       		.uleb128 0x4
 1133 03fe 04       		.byte	0x4
 1134 03ff 07       		.byte	0x7
 1135 0400 1C070000 		.4byte	.LASF67
 1136 0404 0F       		.uleb128 0xf
 1137 0405 82000000 		.4byte	0x82
 1138 0409 10       		.uleb128 0x10
 1139 040a 10       		.byte	0x10
 1140 040b 07       		.byte	0x7
 1141 040c 1801     		.2byte	0x118
 1142 040e 47040000 		.4byte	0x447
 1143 0412 08       		.uleb128 0x8
 1144 0413 43435200 		.ascii	"CCR\000"
 1145 0417 07       		.byte	0x7
 1146 0418 1A01     		.2byte	0x11a
 1147 041a 04040000 		.4byte	0x404
 1148 041e 00       		.byte	0
 1149 041f 09       		.uleb128 0x9
 1150 0420 DD010000 		.4byte	.LASF68
 1151 0424 07       		.byte	0x7
 1152 0425 1B01     		.2byte	0x11b
 1153 0427 04040000 		.4byte	0x404
ARM GAS  /tmp/ccF5nXKa.s 			page 49


 1154 042b 04       		.byte	0x4
 1155 042c 09       		.uleb128 0x9
 1156 042d 3E030000 		.4byte	.LASF69
 1157 0431 07       		.byte	0x7
 1158 0432 1C01     		.2byte	0x11c
 1159 0434 04040000 		.4byte	0x404
 1160 0438 08       		.byte	0x8
 1161 0439 09       		.uleb128 0x9
 1162 043a EB000000 		.4byte	.LASF70
 1163 043e 07       		.byte	0x7
 1164 043f 1D01     		.2byte	0x11d
 1165 0441 04040000 		.4byte	0x404
 1166 0445 0C       		.byte	0xc
 1167 0446 00       		.byte	0
 1168 0447 11       		.uleb128 0x11
 1169 0448 70010000 		.4byte	.LASF71
 1170 044c 07       		.byte	0x7
 1171 044d 1E01     		.2byte	0x11e
 1172 044f 09040000 		.4byte	0x409
 1173 0453 10       		.uleb128 0x10
 1174 0454 08       		.byte	0x8
 1175 0455 07       		.byte	0x7
 1176 0456 2001     		.2byte	0x120
 1177 0458 77040000 		.4byte	0x477
 1178 045c 08       		.uleb128 0x8
 1179 045d 49535200 		.ascii	"ISR\000"
 1180 0461 07       		.byte	0x7
 1181 0462 2201     		.2byte	0x122
 1182 0464 04040000 		.4byte	0x404
 1183 0468 00       		.byte	0
 1184 0469 09       		.uleb128 0x9
 1185 046a 56080000 		.4byte	.LASF72
 1186 046e 07       		.byte	0x7
 1187 046f 2301     		.2byte	0x123
 1188 0471 04040000 		.4byte	0x404
 1189 0475 04       		.byte	0x4
 1190 0476 00       		.byte	0
 1191 0477 11       		.uleb128 0x11
 1192 0478 91050000 		.4byte	.LASF73
 1193 047c 07       		.byte	0x7
 1194 047d 2401     		.2byte	0x124
 1195 047f 53040000 		.4byte	0x453
 1196 0483 10       		.uleb128 0x10
 1197 0484 24       		.byte	0x24
 1198 0485 07       		.byte	0x7
 1199 0486 7601     		.2byte	0x176
 1200 0488 01050000 		.4byte	0x501
 1201 048c 08       		.uleb128 0x8
 1202 048d 43523100 		.ascii	"CR1\000"
 1203 0491 07       		.byte	0x7
 1204 0492 7801     		.2byte	0x178
 1205 0494 04040000 		.4byte	0x404
 1206 0498 00       		.byte	0
 1207 0499 08       		.uleb128 0x8
 1208 049a 43523200 		.ascii	"CR2\000"
 1209 049e 07       		.byte	0x7
 1210 049f 7901     		.2byte	0x179
ARM GAS  /tmp/ccF5nXKa.s 			page 50


 1211 04a1 04040000 		.4byte	0x404
 1212 04a5 04       		.byte	0x4
 1213 04a6 09       		.uleb128 0x9
 1214 04a7 81030000 		.4byte	.LASF74
 1215 04ab 07       		.byte	0x7
 1216 04ac 7A01     		.2byte	0x17a
 1217 04ae 04040000 		.4byte	0x404
 1218 04b2 08       		.byte	0x8
 1219 04b3 09       		.uleb128 0x9
 1220 04b4 86030000 		.4byte	.LASF75
 1221 04b8 07       		.byte	0x7
 1222 04b9 7B01     		.2byte	0x17b
 1223 04bb 04040000 		.4byte	0x404
 1224 04bf 0C       		.byte	0xc
 1225 04c0 08       		.uleb128 0x8
 1226 04c1 445200   		.ascii	"DR\000"
 1227 04c4 07       		.byte	0x7
 1228 04c5 7C01     		.2byte	0x17c
 1229 04c7 04040000 		.4byte	0x404
 1230 04cb 10       		.byte	0x10
 1231 04cc 08       		.uleb128 0x8
 1232 04cd 53523100 		.ascii	"SR1\000"
 1233 04d1 07       		.byte	0x7
 1234 04d2 7D01     		.2byte	0x17d
 1235 04d4 04040000 		.4byte	0x404
 1236 04d8 14       		.byte	0x14
 1237 04d9 08       		.uleb128 0x8
 1238 04da 53523200 		.ascii	"SR2\000"
 1239 04de 07       		.byte	0x7
 1240 04df 7E01     		.2byte	0x17e
 1241 04e1 04040000 		.4byte	0x404
 1242 04e5 18       		.byte	0x18
 1243 04e6 08       		.uleb128 0x8
 1244 04e7 43435200 		.ascii	"CCR\000"
 1245 04eb 07       		.byte	0x7
 1246 04ec 7F01     		.2byte	0x17f
 1247 04ee 04040000 		.4byte	0x404
 1248 04f2 1C       		.byte	0x1c
 1249 04f3 09       		.uleb128 0x9
 1250 04f4 0B050000 		.4byte	.LASF76
 1251 04f8 07       		.byte	0x7
 1252 04f9 8001     		.2byte	0x180
 1253 04fb 04040000 		.4byte	0x404
 1254 04ff 20       		.byte	0x20
 1255 0500 00       		.byte	0
 1256 0501 11       		.uleb128 0x11
 1257 0502 D0070000 		.4byte	.LASF77
 1258 0506 07       		.byte	0x7
 1259 0507 8101     		.2byte	0x181
 1260 0509 83040000 		.4byte	0x483
 1261 050d 10       		.uleb128 0x10
 1262 050e 1C       		.byte	0x1c
 1263 050f 07       		.byte	0x7
 1264 0510 0D02     		.2byte	0x20d
 1265 0512 70050000 		.4byte	0x570
 1266 0516 08       		.uleb128 0x8
 1267 0517 535200   		.ascii	"SR\000"
ARM GAS  /tmp/ccF5nXKa.s 			page 51


 1268 051a 07       		.byte	0x7
 1269 051b 0F02     		.2byte	0x20f
 1270 051d 04040000 		.4byte	0x404
 1271 0521 00       		.byte	0
 1272 0522 08       		.uleb128 0x8
 1273 0523 445200   		.ascii	"DR\000"
 1274 0526 07       		.byte	0x7
 1275 0527 1002     		.2byte	0x210
 1276 0529 04040000 		.4byte	0x404
 1277 052d 04       		.byte	0x4
 1278 052e 08       		.uleb128 0x8
 1279 052f 42525200 		.ascii	"BRR\000"
 1280 0533 07       		.byte	0x7
 1281 0534 1102     		.2byte	0x211
 1282 0536 04040000 		.4byte	0x404
 1283 053a 08       		.byte	0x8
 1284 053b 08       		.uleb128 0x8
 1285 053c 43523100 		.ascii	"CR1\000"
 1286 0540 07       		.byte	0x7
 1287 0541 1202     		.2byte	0x212
 1288 0543 04040000 		.4byte	0x404
 1289 0547 0C       		.byte	0xc
 1290 0548 08       		.uleb128 0x8
 1291 0549 43523200 		.ascii	"CR2\000"
 1292 054d 07       		.byte	0x7
 1293 054e 1302     		.2byte	0x213
 1294 0550 04040000 		.4byte	0x404
 1295 0554 10       		.byte	0x10
 1296 0555 08       		.uleb128 0x8
 1297 0556 43523300 		.ascii	"CR3\000"
 1298 055a 07       		.byte	0x7
 1299 055b 1402     		.2byte	0x214
 1300 055d 04040000 		.4byte	0x404
 1301 0561 14       		.byte	0x14
 1302 0562 09       		.uleb128 0x9
 1303 0563 02020000 		.4byte	.LASF78
 1304 0567 07       		.byte	0x7
 1305 0568 1502     		.2byte	0x215
 1306 056a 04040000 		.4byte	0x404
 1307 056e 18       		.byte	0x18
 1308 056f 00       		.byte	0
 1309 0570 11       		.uleb128 0x11
 1310 0571 AE030000 		.4byte	.LASF79
 1311 0575 07       		.byte	0x7
 1312 0576 1602     		.2byte	0x216
 1313 0578 0D050000 		.4byte	0x50d
 1314 057c 03       		.uleb128 0x3
 1315 057d 3C000000 		.4byte	.LASF80
 1316 0581 08       		.byte	0x8
 1317 0582 65       		.byte	0x65
 1318 0583 E1020000 		.4byte	0x2e1
 1319 0587 03       		.uleb128 0x3
 1320 0588 4B080000 		.4byte	.LASF81
 1321 058c 08       		.byte	0x8
 1322 058d 6D       		.byte	0x6d
 1323 058e 9B000000 		.4byte	0x9b
 1324 0592 05       		.uleb128 0x5
ARM GAS  /tmp/ccF5nXKa.s 			page 52


 1325 0593 07020000 		.4byte	.LASF82
 1326 0597 04       		.byte	0x4
 1327 0598 08       		.byte	0x8
 1328 0599 89       		.byte	0x89
 1329 059a AA050000 		.4byte	0x5aa
 1330 059e 07       		.uleb128 0x7
 1331 059f 737000   		.ascii	"sp\000"
 1332 05a2 08       		.byte	0x8
 1333 05a3 8A       		.byte	0x8a
 1334 05a4 26060000 		.4byte	0x626
 1335 05a8 00       		.byte	0
 1336 05a9 00       		.byte	0
 1337 05aa 0B       		.uleb128 0xb
 1338 05ab 66060000 		.4byte	.LASF83
 1339 05af 24       		.byte	0x24
 1340 05b0 09       		.byte	0x9
 1341 05b1 5901     		.2byte	0x159
 1342 05b3 26060000 		.4byte	0x626
 1343 05b7 08       		.uleb128 0x8
 1344 05b8 723400   		.ascii	"r4\000"
 1345 05bb 09       		.byte	0x9
 1346 05bc 6C01     		.2byte	0x16c
 1347 05be 7C050000 		.4byte	0x57c
 1348 05c2 00       		.byte	0
 1349 05c3 08       		.uleb128 0x8
 1350 05c4 723500   		.ascii	"r5\000"
 1351 05c7 09       		.byte	0x9
 1352 05c8 6D01     		.2byte	0x16d
 1353 05ca 7C050000 		.4byte	0x57c
 1354 05ce 04       		.byte	0x4
 1355 05cf 08       		.uleb128 0x8
 1356 05d0 723600   		.ascii	"r6\000"
 1357 05d3 09       		.byte	0x9
 1358 05d4 6E01     		.2byte	0x16e
 1359 05d6 7C050000 		.4byte	0x57c
 1360 05da 08       		.byte	0x8
 1361 05db 08       		.uleb128 0x8
 1362 05dc 723700   		.ascii	"r7\000"
 1363 05df 09       		.byte	0x9
 1364 05e0 6F01     		.2byte	0x16f
 1365 05e2 7C050000 		.4byte	0x57c
 1366 05e6 0C       		.byte	0xc
 1367 05e7 08       		.uleb128 0x8
 1368 05e8 723800   		.ascii	"r8\000"
 1369 05eb 09       		.byte	0x9
 1370 05ec 7001     		.2byte	0x170
 1371 05ee 7C050000 		.4byte	0x57c
 1372 05f2 10       		.byte	0x10
 1373 05f3 08       		.uleb128 0x8
 1374 05f4 723900   		.ascii	"r9\000"
 1375 05f7 09       		.byte	0x9
 1376 05f8 7101     		.2byte	0x171
 1377 05fa 7C050000 		.4byte	0x57c
 1378 05fe 14       		.byte	0x14
 1379 05ff 08       		.uleb128 0x8
 1380 0600 72313000 		.ascii	"r10\000"
 1381 0604 09       		.byte	0x9
ARM GAS  /tmp/ccF5nXKa.s 			page 53


 1382 0605 7201     		.2byte	0x172
 1383 0607 7C050000 		.4byte	0x57c
 1384 060b 18       		.byte	0x18
 1385 060c 08       		.uleb128 0x8
 1386 060d 72313100 		.ascii	"r11\000"
 1387 0611 09       		.byte	0x9
 1388 0612 7301     		.2byte	0x173
 1389 0614 7C050000 		.4byte	0x57c
 1390 0618 1C       		.byte	0x1c
 1391 0619 08       		.uleb128 0x8
 1392 061a 6C7200   		.ascii	"lr\000"
 1393 061d 09       		.byte	0x9
 1394 061e 7401     		.2byte	0x174
 1395 0620 7C050000 		.4byte	0x57c
 1396 0624 20       		.byte	0x20
 1397 0625 00       		.byte	0
 1398 0626 0A       		.uleb128 0xa
 1399 0627 04       		.byte	0x4
 1400 0628 AA050000 		.4byte	0x5aa
 1401 062c 12       		.uleb128 0x12
 1402 062d 04       		.byte	0x4
 1403 062e 06       		.byte	0x6
 1404 062f D2       		.byte	0xd2
 1405 0630 8F060000 		.4byte	0x68f
 1406 0634 13       		.uleb128 0x13
 1407 0635 63030000 		.4byte	.LASF84
 1408 0639 06       		.byte	0x6
 1409 063a D9       		.byte	0xd9
 1410 063b D9000000 		.4byte	0xd9
 1411 063f 13       		.uleb128 0x13
 1412 0640 75080000 		.4byte	.LASF85
 1413 0644 06       		.byte	0x6
 1414 0645 E0       		.byte	0xe0
 1415 0646 D9000000 		.4byte	0xd9
 1416 064a 13       		.uleb128 0x13
 1417 064b 48010000 		.4byte	.LASF86
 1418 064f 06       		.byte	0x6
 1419 0650 E7       		.byte	0xe7
 1420 0651 E1020000 		.4byte	0x2e1
 1421 0655 13       		.uleb128 0x13
 1422 0656 17080000 		.4byte	.LASF87
 1423 065a 06       		.byte	0x6
 1424 065b EE       		.byte	0xee
 1425 065c 8F060000 		.4byte	0x68f
 1426 0660 13       		.uleb128 0x13
 1427 0661 3F020000 		.4byte	.LASF88
 1428 0665 06       		.byte	0x6
 1429 0666 F3       		.byte	0xf3
 1430 0667 D9000000 		.4byte	0xd9
 1431 066b 13       		.uleb128 0x13
 1432 066c 10080000 		.4byte	.LASF89
 1433 0670 06       		.byte	0x6
 1434 0671 FC       		.byte	0xfc
 1435 0672 BA060000 		.4byte	0x6ba
 1436 0676 14       		.uleb128 0x14
 1437 0677 35000000 		.4byte	.LASF90
 1438 067b 06       		.byte	0x6
ARM GAS  /tmp/ccF5nXKa.s 			page 54


 1439 067c 0501     		.2byte	0x105
 1440 067e F1060000 		.4byte	0x6f1
 1441 0682 14       		.uleb128 0x14
 1442 0683 97010000 		.4byte	.LASF91
 1443 0687 06       		.byte	0x6
 1444 0688 0D01     		.2byte	0x10d
 1445 068a E4000000 		.4byte	0xe4
 1446 068e 00       		.byte	0
 1447 068f 0A       		.uleb128 0xa
 1448 0690 04       		.byte	0x4
 1449 0691 F9010000 		.4byte	0x1f9
 1450 0695 05       		.uleb128 0x5
 1451 0696 78020000 		.4byte	.LASF92
 1452 069a 0C       		.byte	0xc
 1453 069b 0A       		.byte	0xa
 1454 069c 34       		.byte	0x34
 1455 069d BA060000 		.4byte	0x6ba
 1456 06a1 06       		.uleb128 0x6
 1457 06a2 4C070000 		.4byte	.LASF25
 1458 06a6 0A       		.byte	0xa
 1459 06a7 35       		.byte	0x35
 1460 06a8 2E020000 		.4byte	0x22e
 1461 06ac 00       		.byte	0
 1462 06ad 07       		.uleb128 0x7
 1463 06ae 636E7400 		.ascii	"cnt\000"
 1464 06b2 0A       		.byte	0xa
 1465 06b3 37       		.byte	0x37
 1466 06b4 FA000000 		.4byte	0xfa
 1467 06b8 08       		.byte	0x8
 1468 06b9 00       		.byte	0
 1469 06ba 0A       		.uleb128 0xa
 1470 06bb 04       		.byte	0x4
 1471 06bc 95060000 		.4byte	0x695
 1472 06c0 05       		.uleb128 0x5
 1473 06c1 8B030000 		.4byte	.LASF93
 1474 06c5 10       		.byte	0x10
 1475 06c6 0B       		.byte	0xb
 1476 06c7 39       		.byte	0x39
 1477 06c8 F1060000 		.4byte	0x6f1
 1478 06cc 06       		.uleb128 0x6
 1479 06cd 4C070000 		.4byte	.LASF25
 1480 06d1 0B       		.byte	0xb
 1481 06d2 3A       		.byte	0x3a
 1482 06d3 2E020000 		.4byte	0x22e
 1483 06d7 00       		.byte	0
 1484 06d8 06       		.uleb128 0x6
 1485 06d9 FA020000 		.4byte	.LASF94
 1486 06dd 0B       		.byte	0xb
 1487 06de 3C       		.byte	0x3c
 1488 06df 04020000 		.4byte	0x204
 1489 06e3 08       		.byte	0x8
 1490 06e4 06       		.uleb128 0x6
 1491 06e5 A3000000 		.4byte	.LASF44
 1492 06e9 0B       		.byte	0xb
 1493 06ea 3E       		.byte	0x3e
 1494 06eb 25070000 		.4byte	0x725
 1495 06ef 0C       		.byte	0xc
ARM GAS  /tmp/ccF5nXKa.s 			page 55


 1496 06f0 00       		.byte	0
 1497 06f1 0A       		.uleb128 0xa
 1498 06f2 04       		.byte	0x4
 1499 06f3 C0060000 		.4byte	0x6c0
 1500 06f7 0A       		.uleb128 0xa
 1501 06f8 04       		.byte	0x4
 1502 06f9 FD060000 		.4byte	0x6fd
 1503 06fd 15       		.uleb128 0x15
 1504 06fe 02070000 		.4byte	0x702
 1505 0702 04       		.uleb128 0x4
 1506 0703 01       		.byte	0x1
 1507 0704 08       		.byte	0x8
 1508 0705 7D040000 		.4byte	.LASF95
 1509 0709 0A       		.uleb128 0xa
 1510 070a 04       		.byte	0x4
 1511 070b 87050000 		.4byte	0x587
 1512 070f 0A       		.uleb128 0xa
 1513 0710 04       		.byte	0x4
 1514 0711 E3020000 		.4byte	0x2e3
 1515 0715 0F       		.uleb128 0xf
 1516 0716 F7060000 		.4byte	0x6f7
 1517 071a 03       		.uleb128 0x3
 1518 071b 7E070000 		.4byte	.LASF96
 1519 071f 0B       		.byte	0xb
 1520 0720 34       		.byte	0x34
 1521 0721 C0060000 		.4byte	0x6c0
 1522 0725 0A       		.uleb128 0xa
 1523 0726 04       		.byte	0x4
 1524 0727 1A070000 		.4byte	0x71a
 1525 072b 03       		.uleb128 0x3
 1526 072c 10000000 		.4byte	.LASF97
 1527 0730 0C       		.byte	0xc
 1528 0731 34       		.byte	0x34
 1529 0732 36070000 		.4byte	0x736
 1530 0736 05       		.uleb128 0x5
 1531 0737 53050000 		.4byte	.LASF98
 1532 073b 14       		.byte	0x14
 1533 073c 0C       		.byte	0xc
 1534 073d 39       		.byte	0x39
 1535 073e 7F070000 		.4byte	0x77f
 1536 0742 06       		.uleb128 0x6
 1537 0743 A3000000 		.4byte	.LASF44
 1538 0747 0C       		.byte	0xc
 1539 0748 3A       		.byte	0x3a
 1540 0749 7F070000 		.4byte	0x77f
 1541 074d 00       		.byte	0
 1542 074e 06       		.uleb128 0x6
 1543 074f 45000000 		.4byte	.LASF99
 1544 0753 0C       		.byte	0xc
 1545 0754 3D       		.byte	0x3d
 1546 0755 04020000 		.4byte	0x204
 1547 0759 04       		.byte	0x4
 1548 075a 06       		.uleb128 0x6
 1549 075b E4000000 		.4byte	.LASF100
 1550 075f 0C       		.byte	0xc
 1551 0760 3F       		.byte	0x3f
 1552 0761 E4000000 		.4byte	0xe4
ARM GAS  /tmp/ccF5nXKa.s 			page 56


 1553 0765 08       		.byte	0x8
 1554 0766 06       		.uleb128 0x6
 1555 0767 5B000000 		.4byte	.LASF32
 1556 076b 0C       		.byte	0xc
 1557 076c 41       		.byte	0x41
 1558 076d EF000000 		.4byte	0xef
 1559 0771 0C       		.byte	0xc
 1560 0772 06       		.uleb128 0x6
 1561 0773 56060000 		.4byte	.LASF101
 1562 0777 0C       		.byte	0xc
 1563 0778 43       		.byte	0x43
 1564 0779 EF000000 		.4byte	0xef
 1565 077d 10       		.byte	0x10
 1566 077e 00       		.byte	0
 1567 077f 0A       		.uleb128 0xa
 1568 0780 04       		.byte	0x4
 1569 0781 2B070000 		.4byte	0x72b
 1570 0785 05       		.uleb128 0x5
 1571 0786 4E000000 		.4byte	.LASF102
 1572 078a 04       		.byte	0x4
 1573 078b 0C       		.byte	0xc
 1574 078c 4A       		.byte	0x4a
 1575 078d 9E070000 		.4byte	0x79e
 1576 0791 06       		.uleb128 0x6
 1577 0792 A3000000 		.4byte	.LASF44
 1578 0796 0C       		.byte	0xc
 1579 0797 4B       		.byte	0x4b
 1580 0798 7F070000 		.4byte	0x77f
 1581 079c 00       		.byte	0
 1582 079d 00       		.byte	0
 1583 079e 03       		.uleb128 0x3
 1584 079f D0020000 		.4byte	.LASF103
 1585 07a3 0C       		.byte	0xc
 1586 07a4 4E       		.byte	0x4e
 1587 07a5 85070000 		.4byte	0x785
 1588 07a9 04       		.uleb128 0x4
 1589 07aa 01       		.byte	0x1
 1590 07ab 02       		.byte	0x2
 1591 07ac 74030000 		.4byte	.LASF104
 1592 07b0 0A       		.uleb128 0xa
 1593 07b1 04       		.byte	0x4
 1594 07b2 45000000 		.4byte	0x45
 1595 07b6 16       		.uleb128 0x16
 1596 07b7 14       		.byte	0x14
 1597 07b8 0D       		.byte	0xd
 1598 07b9 E4       		.byte	0xe4
 1599 07ba 13080000 		.4byte	0x813
 1600 07be 07       		.uleb128 0x7
 1601 07bf 646D6100 		.ascii	"dma\000"
 1602 07c3 0D       		.byte	0xd
 1603 07c4 E5       		.byte	0xe5
 1604 07c5 13080000 		.4byte	0x813
 1605 07c9 00       		.byte	0
 1606 07ca 06       		.uleb128 0x6
 1607 07cb 1B060000 		.4byte	.LASF105
 1608 07cf 0D       		.byte	0xd
 1609 07d0 E6       		.byte	0xe6
ARM GAS  /tmp/ccF5nXKa.s 			page 57


 1610 07d1 19080000 		.4byte	0x819
 1611 07d5 04       		.byte	0x4
 1612 07d6 06       		.uleb128 0x6
 1613 07d7 11050000 		.4byte	.LASF106
 1614 07db 0D       		.byte	0xd
 1615 07dc E7       		.byte	0xe7
 1616 07dd 82000000 		.4byte	0x82
 1617 07e1 08       		.byte	0x8
 1618 07e2 06       		.uleb128 0x6
 1619 07e3 85020000 		.4byte	.LASF107
 1620 07e7 0D       		.byte	0xd
 1621 07e8 E9       		.byte	0xe9
 1622 07e9 1F080000 		.4byte	0x81f
 1623 07ed 0C       		.byte	0xc
 1624 07ee 06       		.uleb128 0x6
 1625 07ef 6C020000 		.4byte	.LASF108
 1626 07f3 0D       		.byte	0xd
 1627 07f4 EA       		.byte	0xea
 1628 07f5 45000000 		.4byte	0x45
 1629 07f9 10       		.byte	0x10
 1630 07fa 06       		.uleb128 0x6
 1631 07fb 7E080000 		.4byte	.LASF109
 1632 07ff 0D       		.byte	0xd
 1633 0800 EC       		.byte	0xec
 1634 0801 45000000 		.4byte	0x45
 1635 0805 11       		.byte	0x11
 1636 0806 06       		.uleb128 0x6
 1637 0807 C2020000 		.4byte	.LASF110
 1638 080b 0D       		.byte	0xd
 1639 080c ED       		.byte	0xed
 1640 080d 45000000 		.4byte	0x45
 1641 0811 12       		.byte	0x12
 1642 0812 00       		.byte	0
 1643 0813 0A       		.uleb128 0xa
 1644 0814 04       		.byte	0x4
 1645 0815 77040000 		.4byte	0x477
 1646 0819 0A       		.uleb128 0xa
 1647 081a 04       		.byte	0x4
 1648 081b 47040000 		.4byte	0x447
 1649 081f 0A       		.uleb128 0xa
 1650 0820 04       		.byte	0x4
 1651 0821 04040000 		.4byte	0x404
 1652 0825 03       		.uleb128 0x3
 1653 0826 C9040000 		.4byte	.LASF111
 1654 082a 0D       		.byte	0xd
 1655 082b EE       		.byte	0xee
 1656 082c B6070000 		.4byte	0x7b6
 1657 0830 17       		.uleb128 0x17
 1658 0831 2C000000 		.4byte	0x2c
 1659 0835 49080000 		.4byte	0x849
 1660 0839 0D       		.uleb128 0xd
 1661 083a E1020000 		.4byte	0x2e1
 1662 083e 0D       		.uleb128 0xd
 1663 083f 49080000 		.4byte	0x849
 1664 0843 0D       		.uleb128 0xd
 1665 0844 2C000000 		.4byte	0x2c
 1666 0848 00       		.byte	0
ARM GAS  /tmp/ccF5nXKa.s 			page 58


 1667 0849 0A       		.uleb128 0xa
 1668 084a 04       		.byte	0x4
 1669 084b 4F080000 		.4byte	0x84f
 1670 084f 15       		.uleb128 0x15
 1671 0850 45000000 		.4byte	0x45
 1672 0854 0A       		.uleb128 0xa
 1673 0855 04       		.byte	0x4
 1674 0856 30080000 		.4byte	0x830
 1675 085a 17       		.uleb128 0x17
 1676 085b 2C000000 		.4byte	0x2c
 1677 085f 73080000 		.4byte	0x873
 1678 0863 0D       		.uleb128 0xd
 1679 0864 E1020000 		.4byte	0x2e1
 1680 0868 0D       		.uleb128 0xd
 1681 0869 B0070000 		.4byte	0x7b0
 1682 086d 0D       		.uleb128 0xd
 1683 086e 2C000000 		.4byte	0x2c
 1684 0872 00       		.byte	0
 1685 0873 0A       		.uleb128 0xa
 1686 0874 04       		.byte	0x4
 1687 0875 5A080000 		.4byte	0x85a
 1688 0879 17       		.uleb128 0x17
 1689 087a D9000000 		.4byte	0xd9
 1690 087e 8D080000 		.4byte	0x88d
 1691 0882 0D       		.uleb128 0xd
 1692 0883 E1020000 		.4byte	0x2e1
 1693 0887 0D       		.uleb128 0xd
 1694 0888 45000000 		.4byte	0x45
 1695 088c 00       		.byte	0
 1696 088d 0A       		.uleb128 0xa
 1697 088e 04       		.byte	0x4
 1698 088f 79080000 		.4byte	0x879
 1699 0893 17       		.uleb128 0x17
 1700 0894 D9000000 		.4byte	0xd9
 1701 0898 A2080000 		.4byte	0x8a2
 1702 089c 0D       		.uleb128 0xd
 1703 089d E1020000 		.4byte	0x2e1
 1704 08a1 00       		.byte	0
 1705 08a2 0A       		.uleb128 0xa
 1706 08a3 04       		.byte	0x4
 1707 08a4 93080000 		.4byte	0x893
 1708 08a8 05       		.uleb128 0x5
 1709 08a9 F3010000 		.4byte	.LASF112
 1710 08ad 20       		.byte	0x20
 1711 08ae 0E       		.byte	0xe
 1712 08af 43       		.byte	0x43
 1713 08b0 15090000 		.4byte	0x915
 1714 08b4 06       		.uleb128 0x6
 1715 08b5 4D050000 		.4byte	.LASF113
 1716 08b9 0E       		.byte	0xe
 1717 08ba 44       		.byte	0x44
 1718 08bb 54080000 		.4byte	0x854
 1719 08bf 00       		.byte	0
 1720 08c0 06       		.uleb128 0x6
 1721 08c1 61020000 		.4byte	.LASF114
 1722 08c5 0E       		.byte	0xe
 1723 08c6 44       		.byte	0x44
ARM GAS  /tmp/ccF5nXKa.s 			page 59


 1724 08c7 73080000 		.4byte	0x873
 1725 08cb 04       		.byte	0x4
 1726 08cc 07       		.uleb128 0x7
 1727 08cd 70757400 		.ascii	"put\000"
 1728 08d1 0E       		.byte	0xe
 1729 08d2 44       		.byte	0x44
 1730 08d3 8D080000 		.4byte	0x88d
 1731 08d7 08       		.byte	0x8
 1732 08d8 07       		.uleb128 0x7
 1733 08d9 67657400 		.ascii	"get\000"
 1734 08dd 0E       		.byte	0xe
 1735 08de 44       		.byte	0x44
 1736 08df A2080000 		.4byte	0x8a2
 1737 08e3 0C       		.byte	0xc
 1738 08e4 06       		.uleb128 0x6
 1739 08e5 57030000 		.4byte	.LASF115
 1740 08e9 0E       		.byte	0xe
 1741 08ea 44       		.byte	0x44
 1742 08eb 2E090000 		.4byte	0x92e
 1743 08ef 10       		.byte	0x10
 1744 08f0 06       		.uleb128 0x6
 1745 08f1 F9060000 		.4byte	.LASF116
 1746 08f5 0E       		.byte	0xe
 1747 08f6 44       		.byte	0x44
 1748 08f7 48090000 		.4byte	0x948
 1749 08fb 14       		.byte	0x14
 1750 08fc 06       		.uleb128 0x6
 1751 08fd D6010000 		.4byte	.LASF117
 1752 0901 0E       		.byte	0xe
 1753 0902 44       		.byte	0x44
 1754 0903 6C090000 		.4byte	0x96c
 1755 0907 18       		.byte	0x18
 1756 0908 06       		.uleb128 0x6
 1757 0909 7B050000 		.4byte	.LASF118
 1758 090d 0E       		.byte	0xe
 1759 090e 44       		.byte	0x44
 1760 090f 90090000 		.4byte	0x990
 1761 0913 1C       		.byte	0x1c
 1762 0914 00       		.byte	0
 1763 0915 17       		.uleb128 0x17
 1764 0916 D9000000 		.4byte	0xd9
 1765 091a 2E090000 		.4byte	0x92e
 1766 091e 0D       		.uleb128 0xd
 1767 091f E1020000 		.4byte	0x2e1
 1768 0923 0D       		.uleb128 0xd
 1769 0924 45000000 		.4byte	0x45
 1770 0928 0D       		.uleb128 0xd
 1771 0929 05010000 		.4byte	0x105
 1772 092d 00       		.byte	0
 1773 092e 0A       		.uleb128 0xa
 1774 092f 04       		.byte	0x4
 1775 0930 15090000 		.4byte	0x915
 1776 0934 17       		.uleb128 0x17
 1777 0935 D9000000 		.4byte	0xd9
 1778 0939 48090000 		.4byte	0x948
 1779 093d 0D       		.uleb128 0xd
 1780 093e E1020000 		.4byte	0x2e1
ARM GAS  /tmp/ccF5nXKa.s 			page 60


 1781 0942 0D       		.uleb128 0xd
 1782 0943 05010000 		.4byte	0x105
 1783 0947 00       		.byte	0
 1784 0948 0A       		.uleb128 0xa
 1785 0949 04       		.byte	0x4
 1786 094a 34090000 		.4byte	0x934
 1787 094e 17       		.uleb128 0x17
 1788 094f 2C000000 		.4byte	0x2c
 1789 0953 6C090000 		.4byte	0x96c
 1790 0957 0D       		.uleb128 0xd
 1791 0958 E1020000 		.4byte	0x2e1
 1792 095c 0D       		.uleb128 0xd
 1793 095d 49080000 		.4byte	0x849
 1794 0961 0D       		.uleb128 0xd
 1795 0962 2C000000 		.4byte	0x2c
 1796 0966 0D       		.uleb128 0xd
 1797 0967 05010000 		.4byte	0x105
 1798 096b 00       		.byte	0
 1799 096c 0A       		.uleb128 0xa
 1800 096d 04       		.byte	0x4
 1801 096e 4E090000 		.4byte	0x94e
 1802 0972 17       		.uleb128 0x17
 1803 0973 2C000000 		.4byte	0x2c
 1804 0977 90090000 		.4byte	0x990
 1805 097b 0D       		.uleb128 0xd
 1806 097c E1020000 		.4byte	0x2e1
 1807 0980 0D       		.uleb128 0xd
 1808 0981 B0070000 		.4byte	0x7b0
 1809 0985 0D       		.uleb128 0xd
 1810 0986 2C000000 		.4byte	0x2c
 1811 098a 0D       		.uleb128 0xd
 1812 098b 05010000 		.4byte	0x105
 1813 098f 00       		.byte	0
 1814 0990 0A       		.uleb128 0xa
 1815 0991 04       		.byte	0x4
 1816 0992 72090000 		.4byte	0x972
 1817 0996 16       		.uleb128 0x16
 1818 0997 04       		.byte	0x4
 1819 0998 0E       		.byte	0xe
 1820 0999 4E       		.byte	0x4e
 1821 099a AB090000 		.4byte	0x9ab
 1822 099e 07       		.uleb128 0x7
 1823 099f 766D7400 		.ascii	"vmt\000"
 1824 09a3 0E       		.byte	0xe
 1825 09a4 50       		.byte	0x50
 1826 09a5 AB090000 		.4byte	0x9ab
 1827 09a9 00       		.byte	0
 1828 09aa 00       		.byte	0
 1829 09ab 0A       		.uleb128 0xa
 1830 09ac 04       		.byte	0x4
 1831 09ad B1090000 		.4byte	0x9b1
 1832 09b1 15       		.uleb128 0x15
 1833 09b2 A8080000 		.4byte	0x8a8
 1834 09b6 03       		.uleb128 0x3
 1835 09b7 FF040000 		.4byte	.LASF119
 1836 09bb 0E       		.byte	0xe
 1837 09bc 52       		.byte	0x52
ARM GAS  /tmp/ccF5nXKa.s 			page 61


 1838 09bd 96090000 		.4byte	0x996
 1839 09c1 0F       		.uleb128 0xf
 1840 09c2 2C000000 		.4byte	0x2c
 1841 09c6 03       		.uleb128 0x3
 1842 09c7 74000000 		.4byte	.LASF120
 1843 09cb 0F       		.byte	0xf
 1844 09cc 2A       		.byte	0x2a
 1845 09cd D1090000 		.4byte	0x9d1
 1846 09d1 05       		.uleb128 0x5
 1847 09d2 2F080000 		.4byte	.LASF121
 1848 09d6 24       		.byte	0x24
 1849 09d7 0F       		.byte	0xf
 1850 09d8 3B       		.byte	0x3b
 1851 09d9 3E0A0000 		.4byte	0xa3e
 1852 09dd 06       		.uleb128 0x6
 1853 09de 35020000 		.4byte	.LASF122
 1854 09e2 0F       		.byte	0xf
 1855 09e3 3C       		.byte	0x3c
 1856 09e4 2E020000 		.4byte	0x22e
 1857 09e8 00       		.byte	0
 1858 09e9 06       		.uleb128 0x6
 1859 09ea EF060000 		.4byte	.LASF123
 1860 09ee 0F       		.byte	0xf
 1861 09ef 3D       		.byte	0x3d
 1862 09f0 C1090000 		.4byte	0x9c1
 1863 09f4 08       		.byte	0x8
 1864 09f5 06       		.uleb128 0x6
 1865 09f6 88080000 		.4byte	.LASF124
 1866 09fa 0F       		.byte	0xf
 1867 09fb 3E       		.byte	0x3e
 1868 09fc B0070000 		.4byte	0x7b0
 1869 0a00 0C       		.byte	0xc
 1870 0a01 06       		.uleb128 0x6
 1871 0a02 16070000 		.4byte	.LASF125
 1872 0a06 0F       		.byte	0xf
 1873 0a07 3F       		.byte	0x3f
 1874 0a08 B0070000 		.4byte	0x7b0
 1875 0a0c 10       		.byte	0x10
 1876 0a0d 06       		.uleb128 0x6
 1877 0a0e B8040000 		.4byte	.LASF126
 1878 0a12 0F       		.byte	0xf
 1879 0a13 41       		.byte	0x41
 1880 0a14 B0070000 		.4byte	0x7b0
 1881 0a18 14       		.byte	0x14
 1882 0a19 06       		.uleb128 0x6
 1883 0a1a CD000000 		.4byte	.LASF127
 1884 0a1e 0F       		.byte	0xf
 1885 0a1f 42       		.byte	0x42
 1886 0a20 B0070000 		.4byte	0x7b0
 1887 0a24 18       		.byte	0x18
 1888 0a25 06       		.uleb128 0x6
 1889 0a26 BC030000 		.4byte	.LASF128
 1890 0a2a 0F       		.byte	0xf
 1891 0a2b 43       		.byte	0x43
 1892 0a2c 3E0A0000 		.4byte	0xa3e
 1893 0a30 1C       		.byte	0x1c
 1894 0a31 06       		.uleb128 0x6
ARM GAS  /tmp/ccF5nXKa.s 			page 62


 1895 0a32 71040000 		.4byte	.LASF129
 1896 0a36 0F       		.byte	0xf
 1897 0a37 44       		.byte	0x44
 1898 0a38 E1020000 		.4byte	0x2e1
 1899 0a3c 20       		.byte	0x20
 1900 0a3d 00       		.byte	0
 1901 0a3e 03       		.uleb128 0x3
 1902 0a3f DA000000 		.4byte	.LASF130
 1903 0a43 0F       		.byte	0xf
 1904 0a44 31       		.byte	0x31
 1905 0a45 490A0000 		.4byte	0xa49
 1906 0a49 0A       		.uleb128 0xa
 1907 0a4a 04       		.byte	0x4
 1908 0a4b 4F0A0000 		.4byte	0xa4f
 1909 0a4f 0C       		.uleb128 0xc
 1910 0a50 5A0A0000 		.4byte	0xa5a
 1911 0a54 0D       		.uleb128 0xd
 1912 0a55 5A0A0000 		.4byte	0xa5a
 1913 0a59 00       		.byte	0
 1914 0a5a 0A       		.uleb128 0xa
 1915 0a5b 04       		.byte	0x4
 1916 0a5c C6090000 		.4byte	0x9c6
 1917 0a60 03       		.uleb128 0x3
 1918 0a61 D2060000 		.4byte	.LASF131
 1919 0a65 0F       		.byte	0xf
 1920 0a66 7A       		.byte	0x7a
 1921 0a67 C6090000 		.4byte	0x9c6
 1922 0a6b 03       		.uleb128 0x3
 1923 0a6c AB050000 		.4byte	.LASF132
 1924 0a70 0F       		.byte	0xf
 1925 0a71 CA       		.byte	0xca
 1926 0a72 C6090000 		.4byte	0x9c6
 1927 0a76 18       		.uleb128 0x18
 1928 0a77 01       		.byte	0x1
 1929 0a78 10       		.byte	0x10
 1930 0a79 4C       		.byte	0x4c
 1931 0a7a A30A0000 		.4byte	0xaa3
 1932 0a7e 19       		.uleb128 0x19
 1933 0a7f 6A050000 		.4byte	.LASF133
 1934 0a83 00       		.sleb128 0
 1935 0a84 19       		.uleb128 0x19
 1936 0a85 75070000 		.4byte	.LASF134
 1937 0a89 01       		.sleb128 1
 1938 0a8a 19       		.uleb128 0x19
 1939 0a8b 2B060000 		.4byte	.LASF135
 1940 0a8f 02       		.sleb128 2
 1941 0a90 19       		.uleb128 0x19
 1942 0a91 47020000 		.4byte	.LASF136
 1943 0a95 03       		.sleb128 3
 1944 0a96 19       		.uleb128 0x19
 1945 0a97 7F000000 		.4byte	.LASF137
 1946 0a9b 04       		.sleb128 4
 1947 0a9c 19       		.uleb128 0x19
 1948 0a9d 89060000 		.4byte	.LASF138
 1949 0aa1 05       		.sleb128 5
 1950 0aa2 00       		.byte	0
 1951 0aa3 03       		.uleb128 0x3
ARM GAS  /tmp/ccF5nXKa.s 			page 63


 1952 0aa4 DF020000 		.4byte	.LASF139
 1953 0aa8 10       		.byte	0x10
 1954 0aa9 53       		.byte	0x53
 1955 0aaa 760A0000 		.4byte	0xa76
 1956 0aae 11       		.uleb128 0x11
 1957 0aaf 72060000 		.4byte	.LASF140
 1958 0ab3 11       		.byte	0x11
 1959 0ab4 6A01     		.2byte	0x16a
 1960 0ab6 5E000000 		.4byte	0x5e
 1961 0aba 11       		.uleb128 0x11
 1962 0abb 43030000 		.4byte	.LASF141
 1963 0abf 11       		.byte	0x11
 1964 0ac0 6F01     		.2byte	0x16f
 1965 0ac2 82000000 		.4byte	0x82
 1966 0ac6 1A       		.uleb128 0x1a
 1967 0ac7 01       		.byte	0x1
 1968 0ac8 11       		.byte	0x11
 1969 0ac9 7401     		.2byte	0x174
 1970 0acb E20A0000 		.4byte	0xae2
 1971 0acf 19       		.uleb128 0x19
 1972 0ad0 2A020000 		.4byte	.LASF142
 1973 0ad4 01       		.sleb128 1
 1974 0ad5 19       		.uleb128 0x19
 1975 0ad6 5A070000 		.4byte	.LASF143
 1976 0ada 02       		.sleb128 2
 1977 0adb 19       		.uleb128 0x19
 1978 0adc 82040000 		.4byte	.LASF144
 1979 0ae0 03       		.sleb128 3
 1980 0ae1 00       		.byte	0
 1981 0ae2 11       		.uleb128 0x11
 1982 0ae3 B2000000 		.4byte	.LASF145
 1983 0ae7 11       		.byte	0x11
 1984 0ae8 7801     		.2byte	0x178
 1985 0aea C60A0000 		.4byte	0xac6
 1986 0aee 1A       		.uleb128 0x1a
 1987 0aef 01       		.byte	0x1
 1988 0af0 11       		.byte	0x11
 1989 0af1 7D01     		.2byte	0x17d
 1990 0af3 0A0B0000 		.4byte	0xb0a
 1991 0af7 19       		.uleb128 0x19
 1992 0af8 94030000 		.4byte	.LASF146
 1993 0afc 01       		.sleb128 1
 1994 0afd 19       		.uleb128 0x19
 1995 0afe DD050000 		.4byte	.LASF147
 1996 0b02 02       		.sleb128 2
 1997 0b03 19       		.uleb128 0x19
 1998 0b04 E2040000 		.4byte	.LASF148
 1999 0b08 03       		.sleb128 3
 2000 0b09 00       		.byte	0
 2001 0b0a 11       		.uleb128 0x11
 2002 0b0b 2F030000 		.4byte	.LASF149
 2003 0b0f 11       		.byte	0x11
 2004 0b10 8101     		.2byte	0x181
 2005 0b12 EE0A0000 		.4byte	0xaee
 2006 0b16 10       		.uleb128 0x10
 2007 0b17 0C       		.byte	0xc
 2008 0b18 11       		.byte	0x11
ARM GAS  /tmp/ccF5nXKa.s 			page 64


 2009 0b19 8601     		.2byte	0x186
 2010 0b1b 470B0000 		.4byte	0xb47
 2011 0b1f 09       		.uleb128 0x9
 2012 0b20 23060000 		.4byte	.LASF150
 2013 0b24 11       		.byte	0x11
 2014 0b25 8801     		.2byte	0x188
 2015 0b27 E20A0000 		.4byte	0xae2
 2016 0b2b 00       		.byte	0
 2017 0b2c 09       		.uleb128 0x9
 2018 0b2d BA050000 		.4byte	.LASF151
 2019 0b31 11       		.byte	0x11
 2020 0b32 8901     		.2byte	0x189
 2021 0b34 82000000 		.4byte	0x82
 2022 0b38 04       		.byte	0x4
 2023 0b39 09       		.uleb128 0x9
 2024 0b3a A3030000 		.4byte	.LASF152
 2025 0b3e 11       		.byte	0x11
 2026 0b3f 8C01     		.2byte	0x18c
 2027 0b41 0A0B0000 		.4byte	0xb0a
 2028 0b45 08       		.byte	0x8
 2029 0b46 00       		.byte	0
 2030 0b47 11       		.uleb128 0x11
 2031 0b48 F0020000 		.4byte	.LASF153
 2032 0b4c 11       		.byte	0x11
 2033 0b4d 8E01     		.2byte	0x18e
 2034 0b4f 160B0000 		.4byte	0xb16
 2035 0b53 11       		.uleb128 0x11
 2036 0b54 A8000000 		.4byte	.LASF154
 2037 0b58 11       		.byte	0x11
 2038 0b59 9301     		.2byte	0x193
 2039 0b5b 5F0B0000 		.4byte	0xb5f
 2040 0b5f 0B       		.uleb128 0xb
 2041 0b60 A8000000 		.4byte	.LASF154
 2042 0b64 38       		.byte	0x38
 2043 0b65 11       		.byte	0x11
 2044 0b66 9801     		.2byte	0x198
 2045 0b68 FC0B0000 		.4byte	0xbfc
 2046 0b6c 09       		.uleb128 0x9
 2047 0b6d F2070000 		.4byte	.LASF31
 2048 0b71 11       		.byte	0x11
 2049 0b72 9C01     		.2byte	0x19c
 2050 0b74 A30A0000 		.4byte	0xaa3
 2051 0b78 00       		.byte	0
 2052 0b79 09       		.uleb128 0x9
 2053 0b7a 7A030000 		.4byte	.LASF155
 2054 0b7e 11       		.byte	0x11
 2055 0b7f A001     		.2byte	0x1a0
 2056 0b81 FC0B0000 		.4byte	0xbfc
 2057 0b85 04       		.byte	0x4
 2058 0b86 09       		.uleb128 0x9
 2059 0b87 C9020000 		.4byte	.LASF156
 2060 0b8b 11       		.byte	0x11
 2061 0b8c A401     		.2byte	0x1a4
 2062 0b8e BA0A0000 		.4byte	0xaba
 2063 0b92 08       		.byte	0x8
 2064 0b93 09       		.uleb128 0x9
 2065 0b94 66020000 		.4byte	.LASF157
ARM GAS  /tmp/ccF5nXKa.s 			page 65


 2066 0b98 11       		.byte	0x11
 2067 0b99 A901     		.2byte	0x1a9
 2068 0b9b 1A070000 		.4byte	0x71a
 2069 0b9f 0C       		.byte	0xc
 2070 0ba0 09       		.uleb128 0x9
 2071 0ba1 6E070000 		.4byte	.LASF158
 2072 0ba5 11       		.byte	0x11
 2073 0ba6 B201     		.2byte	0x1b2
 2074 0ba8 F9010000 		.4byte	0x1f9
 2075 0bac 1C       		.byte	0x1c
 2076 0bad 09       		.uleb128 0x9
 2077 0bae E7070000 		.4byte	.LASF159
 2078 0bb2 11       		.byte	0x11
 2079 0bb3 B601     		.2byte	0x1b6
 2080 0bb5 AE0A0000 		.4byte	0xaae
 2081 0bb9 20       		.byte	0x20
 2082 0bba 09       		.uleb128 0x9
 2083 0bbb C6070000 		.4byte	.LASF160
 2084 0bbf 11       		.byte	0x11
 2085 0bc0 BA01     		.2byte	0x1ba
 2086 0bc2 82000000 		.4byte	0x82
 2087 0bc6 24       		.byte	0x24
 2088 0bc7 09       		.uleb128 0x9
 2089 0bc8 A7040000 		.4byte	.LASF161
 2090 0bcc 11       		.byte	0x11
 2091 0bcd BE01     		.2byte	0x1be
 2092 0bcf 82000000 		.4byte	0x82
 2093 0bd3 28       		.byte	0x28
 2094 0bd4 09       		.uleb128 0x9
 2095 0bd5 EC070000 		.4byte	.LASF162
 2096 0bd9 11       		.byte	0x11
 2097 0bda C201     		.2byte	0x1c2
 2098 0bdc 070C0000 		.4byte	0xc07
 2099 0be0 2C       		.byte	0x2c
 2100 0be1 09       		.uleb128 0x9
 2101 0be2 14020000 		.4byte	.LASF163
 2102 0be6 11       		.byte	0x11
 2103 0be7 C601     		.2byte	0x1c6
 2104 0be9 070C0000 		.4byte	0xc07
 2105 0bed 30       		.byte	0x30
 2106 0bee 08       		.uleb128 0x8
 2107 0bef 69326300 		.ascii	"i2c\000"
 2108 0bf3 11       		.byte	0x11
 2109 0bf4 CA01     		.2byte	0x1ca
 2110 0bf6 120C0000 		.4byte	0xc12
 2111 0bfa 34       		.byte	0x34
 2112 0bfb 00       		.byte	0
 2113 0bfc 0A       		.uleb128 0xa
 2114 0bfd 04       		.byte	0x4
 2115 0bfe 020C0000 		.4byte	0xc02
 2116 0c02 15       		.uleb128 0x15
 2117 0c03 470B0000 		.4byte	0xb47
 2118 0c07 0A       		.uleb128 0xa
 2119 0c08 04       		.byte	0x4
 2120 0c09 0D0C0000 		.4byte	0xc0d
 2121 0c0d 15       		.uleb128 0x15
 2122 0c0e 25080000 		.4byte	0x825
ARM GAS  /tmp/ccF5nXKa.s 			page 66


 2123 0c12 0A       		.uleb128 0xa
 2124 0c13 04       		.byte	0x4
 2125 0c14 01050000 		.4byte	0x501
 2126 0c18 18       		.uleb128 0x18
 2127 0c19 01       		.byte	0x1
 2128 0c1a 12       		.byte	0x12
 2129 0c1b 58       		.byte	0x58
 2130 0c1c 330C0000 		.4byte	0xc33
 2131 0c20 19       		.uleb128 0x19
 2132 0c21 E5060000 		.4byte	.LASF164
 2133 0c25 00       		.sleb128 0
 2134 0c26 19       		.uleb128 0x19
 2135 0c27 62050000 		.4byte	.LASF165
 2136 0c2b 01       		.sleb128 1
 2137 0c2c 19       		.uleb128 0x19
 2138 0c2d 09060000 		.4byte	.LASF166
 2139 0c31 02       		.sleb128 2
 2140 0c32 00       		.byte	0
 2141 0c33 03       		.uleb128 0x3
 2142 0c34 6A030000 		.4byte	.LASF167
 2143 0c38 12       		.byte	0x12
 2144 0c39 5C       		.byte	0x5c
 2145 0c3a 180C0000 		.4byte	0xc18
 2146 0c3e 03       		.uleb128 0x3
 2147 0c3f 21000000 		.4byte	.LASF168
 2148 0c43 12       		.byte	0x12
 2149 0c44 61       		.byte	0x61
 2150 0c45 490C0000 		.4byte	0xc49
 2151 0c49 05       		.uleb128 0x5
 2152 0c4a 21000000 		.4byte	.LASF168
 2153 0c4e 7C       		.byte	0x7c
 2154 0c4f 12       		.byte	0x12
 2155 0c50 7B       		.byte	0x7b
 2156 0c51 C00C0000 		.4byte	0xcc0
 2157 0c55 07       		.uleb128 0x7
 2158 0c56 766D7400 		.ascii	"vmt\000"
 2159 0c5a 12       		.byte	0x12
 2160 0c5b 7D       		.byte	0x7d
 2161 0c5c 2D0D0000 		.4byte	0xd2d
 2162 0c60 00       		.byte	0
 2163 0c61 06       		.uleb128 0x6
 2164 0c62 72020000 		.4byte	.LASF169
 2165 0c66 12       		.byte	0x12
 2166 0c67 7E       		.byte	0x7e
 2167 0c68 9E070000 		.4byte	0x79e
 2168 0c6c 04       		.byte	0x4
 2169 0c6d 06       		.uleb128 0x6
 2170 0c6e F2070000 		.4byte	.LASF31
 2171 0c72 12       		.byte	0x12
 2172 0c73 7E       		.byte	0x7e
 2173 0c74 330C0000 		.4byte	0xc33
 2174 0c78 08       		.byte	0x8
 2175 0c79 06       		.uleb128 0x6
 2176 0c7a 1A020000 		.4byte	.LASF170
 2177 0c7e 12       		.byte	0x12
 2178 0c7f 7E       		.byte	0x7e
 2179 0c80 600A0000 		.4byte	0xa60
ARM GAS  /tmp/ccF5nXKa.s 			page 67


 2180 0c84 0C       		.byte	0xc
 2181 0c85 06       		.uleb128 0x6
 2182 0c86 02060000 		.4byte	.LASF171
 2183 0c8a 12       		.byte	0x12
 2184 0c8b 7E       		.byte	0x7e
 2185 0c8c 6B0A0000 		.4byte	0xa6b
 2186 0c90 30       		.byte	0x30
 2187 0c91 07       		.uleb128 0x7
 2188 0c92 696200   		.ascii	"ib\000"
 2189 0c95 12       		.byte	0x12
 2190 0c96 7E       		.byte	0x7e
 2191 0c97 380D0000 		.4byte	0xd38
 2192 0c9b 54       		.byte	0x54
 2193 0c9c 07       		.uleb128 0x7
 2194 0c9d 6F6200   		.ascii	"ob\000"
 2195 0ca0 12       		.byte	0x12
 2196 0ca1 7E       		.byte	0x7e
 2197 0ca2 380D0000 		.4byte	0xd38
 2198 0ca6 64       		.byte	0x64
 2199 0ca7 06       		.uleb128 0x6
 2200 0ca8 2A050000 		.4byte	.LASF172
 2201 0cac 12       		.byte	0x12
 2202 0cad 7E       		.byte	0x7e
 2203 0cae 480D0000 		.4byte	0xd48
 2204 0cb2 74       		.byte	0x74
 2205 0cb3 06       		.uleb128 0x6
 2206 0cb4 45060000 		.4byte	.LASF173
 2207 0cb8 12       		.byte	0x12
 2208 0cb9 7E       		.byte	0x7e
 2209 0cba 45000000 		.4byte	0x45
 2210 0cbe 78       		.byte	0x78
 2211 0cbf 00       		.byte	0
 2212 0cc0 05       		.uleb128 0x5
 2213 0cc1 35060000 		.4byte	.LASF174
 2214 0cc5 20       		.byte	0x20
 2215 0cc6 12       		.byte	0x12
 2216 0cc7 70       		.byte	0x70
 2217 0cc8 2D0D0000 		.4byte	0xd2d
 2218 0ccc 06       		.uleb128 0x6
 2219 0ccd 4D050000 		.4byte	.LASF113
 2220 0cd1 12       		.byte	0x12
 2221 0cd2 71       		.byte	0x71
 2222 0cd3 54080000 		.4byte	0x854
 2223 0cd7 00       		.byte	0
 2224 0cd8 06       		.uleb128 0x6
 2225 0cd9 61020000 		.4byte	.LASF114
 2226 0cdd 12       		.byte	0x12
 2227 0cde 71       		.byte	0x71
 2228 0cdf 73080000 		.4byte	0x873
 2229 0ce3 04       		.byte	0x4
 2230 0ce4 07       		.uleb128 0x7
 2231 0ce5 70757400 		.ascii	"put\000"
 2232 0ce9 12       		.byte	0x12
 2233 0cea 71       		.byte	0x71
 2234 0ceb 8D080000 		.4byte	0x88d
 2235 0cef 08       		.byte	0x8
 2236 0cf0 07       		.uleb128 0x7
ARM GAS  /tmp/ccF5nXKa.s 			page 68


 2237 0cf1 67657400 		.ascii	"get\000"
 2238 0cf5 12       		.byte	0x12
 2239 0cf6 71       		.byte	0x71
 2240 0cf7 A2080000 		.4byte	0x8a2
 2241 0cfb 0C       		.byte	0xc
 2242 0cfc 06       		.uleb128 0x6
 2243 0cfd 57030000 		.4byte	.LASF115
 2244 0d01 12       		.byte	0x12
 2245 0d02 71       		.byte	0x71
 2246 0d03 2E090000 		.4byte	0x92e
 2247 0d07 10       		.byte	0x10
 2248 0d08 06       		.uleb128 0x6
 2249 0d09 F9060000 		.4byte	.LASF116
 2250 0d0d 12       		.byte	0x12
 2251 0d0e 71       		.byte	0x71
 2252 0d0f 48090000 		.4byte	0x948
 2253 0d13 14       		.byte	0x14
 2254 0d14 06       		.uleb128 0x6
 2255 0d15 D6010000 		.4byte	.LASF117
 2256 0d19 12       		.byte	0x12
 2257 0d1a 71       		.byte	0x71
 2258 0d1b 6C090000 		.4byte	0x96c
 2259 0d1f 18       		.byte	0x18
 2260 0d20 06       		.uleb128 0x6
 2261 0d21 7B050000 		.4byte	.LASF118
 2262 0d25 12       		.byte	0x12
 2263 0d26 71       		.byte	0x71
 2264 0d27 90090000 		.4byte	0x990
 2265 0d2b 1C       		.byte	0x1c
 2266 0d2c 00       		.byte	0
 2267 0d2d 0A       		.uleb128 0xa
 2268 0d2e 04       		.byte	0x4
 2269 0d2f 330D0000 		.4byte	0xd33
 2270 0d33 15       		.uleb128 0x15
 2271 0d34 C00C0000 		.4byte	0xcc0
 2272 0d38 1B       		.uleb128 0x1b
 2273 0d39 45000000 		.4byte	0x45
 2274 0d3d 480D0000 		.4byte	0xd48
 2275 0d41 1C       		.uleb128 0x1c
 2276 0d42 FD030000 		.4byte	0x3fd
 2277 0d46 0F       		.byte	0xf
 2278 0d47 00       		.byte	0
 2279 0d48 0A       		.uleb128 0xa
 2280 0d49 04       		.byte	0x4
 2281 0d4a 70050000 		.4byte	0x570
 2282 0d4e 1D       		.uleb128 0x1d
 2283 0d4f C7060000 		.4byte	.LASF191
 2284 0d53 01       		.byte	0x1
 2285 0d54 20       		.byte	0x20
 2286 0d55 00000000 		.4byte	.LFB219
 2287 0d59 C8000000 		.4byte	.LFE219-.LFB219
 2288 0d5d 01       		.uleb128 0x1
 2289 0d5e 9C       		.byte	0x9c
 2290 0d5f E90E0000 		.4byte	0xee9
 2291 0d63 1E       		.uleb128 0x1e
 2292 0d64 94060000 		.4byte	.LASF175
 2293 0d68 01       		.byte	0x1
ARM GAS  /tmp/ccF5nXKa.s 			page 69


 2294 0d69 21       		.byte	0x21
 2295 0d6a D9000000 		.4byte	0xd9
 2296 0d6e 00000000 		.4byte	.LLST0
 2297 0d72 1E       		.uleb128 0x1e
 2298 0d73 A4020000 		.4byte	.LASF176
 2299 0d77 01       		.byte	0x1
 2300 0d78 23       		.byte	0x23
 2301 0d79 57000000 		.4byte	0x57
 2302 0d7d 14000000 		.4byte	.LLST1
 2303 0d81 1F       		.uleb128 0x1f
 2304 0d82 68040000 		.4byte	.LASF182
 2305 0d86 01       		.byte	0x1
 2306 0d87 45       		.byte	0x45
 2307 0d88 25000000 		.4byte	0x25
 2308 0d8c 920D0000 		.4byte	0xd92
 2309 0d90 20       		.uleb128 0x20
 2310 0d91 00       		.byte	0
 2311 0d92 21       		.uleb128 0x21
 2312 0d93 38000000 		.4byte	.LVL1
 2313 0d97 6B0F0000 		.4byte	0xf6b
 2314 0d9b A60D0000 		.4byte	0xda6
 2315 0d9f 22       		.uleb128 0x22
 2316 0da0 01       		.uleb128 0x1
 2317 0da1 50       		.byte	0x50
 2318 0da2 02       		.uleb128 0x2
 2319 0da3 74       		.byte	0x74
 2320 0da4 00       		.sleb128 0
 2321 0da5 00       		.byte	0
 2322 0da6 21       		.uleb128 0x21
 2323 0da7 4C000000 		.4byte	.LVL2
 2324 0dab 820F0000 		.4byte	0xf82
 2325 0daf E10D0000 		.4byte	0xde1
 2326 0db3 22       		.uleb128 0x22
 2327 0db4 01       		.uleb128 0x1
 2328 0db5 53       		.byte	0x53
 2329 0db6 02       		.uleb128 0x2
 2330 0db7 79       		.byte	0x79
 2331 0db8 00       		.sleb128 0
 2332 0db9 22       		.uleb128 0x22
 2333 0dba 01       		.uleb128 0x1
 2334 0dbb 52       		.byte	0x52
 2335 0dbc 02       		.uleb128 0x2
 2336 0dbd 76       		.byte	0x76
 2337 0dbe 00       		.sleb128 0
 2338 0dbf 22       		.uleb128 0x22
 2339 0dc0 01       		.uleb128 0x1
 2340 0dc1 51       		.byte	0x51
 2341 0dc2 02       		.uleb128 0x2
 2342 0dc3 08       		.byte	0x8
 2343 0dc4 70       		.byte	0x70
 2344 0dc5 22       		.uleb128 0x22
 2345 0dc6 01       		.uleb128 0x1
 2346 0dc7 50       		.byte	0x50
 2347 0dc8 02       		.uleb128 0x2
 2348 0dc9 74       		.byte	0x74
 2349 0dca 00       		.sleb128 0
 2350 0dcb 22       		.uleb128 0x22
ARM GAS  /tmp/ccF5nXKa.s 			page 70


 2351 0dcc 02       		.uleb128 0x2
 2352 0dcd 7D       		.byte	0x7d
 2353 0dce 08       		.sleb128 8
 2354 0dcf 02       		.uleb128 0x2
 2355 0dd0 78       		.byte	0x78
 2356 0dd1 00       		.sleb128 0
 2357 0dd2 22       		.uleb128 0x22
 2358 0dd3 02       		.uleb128 0x2
 2359 0dd4 7D       		.byte	0x7d
 2360 0dd5 04       		.sleb128 4
 2361 0dd6 02       		.uleb128 0x2
 2362 0dd7 75       		.byte	0x75
 2363 0dd8 00       		.sleb128 0
 2364 0dd9 22       		.uleb128 0x22
 2365 0dda 02       		.uleb128 0x2
 2366 0ddb 7D       		.byte	0x7d
 2367 0ddc 00       		.sleb128 0
 2368 0ddd 02       		.uleb128 0x2
 2369 0dde 75       		.byte	0x75
 2370 0ddf 00       		.sleb128 0
 2371 0de0 00       		.byte	0
 2372 0de1 21       		.uleb128 0x21
 2373 0de2 52000000 		.4byte	.LVL3
 2374 0de6 B50F0000 		.4byte	0xfb5
 2375 0dea F50D0000 		.4byte	0xdf5
 2376 0dee 22       		.uleb128 0x22
 2377 0def 01       		.uleb128 0x1
 2378 0df0 50       		.byte	0x50
 2379 0df1 02       		.uleb128 0x2
 2380 0df2 74       		.byte	0x74
 2381 0df3 00       		.sleb128 0
 2382 0df4 00       		.byte	0
 2383 0df5 21       		.uleb128 0x21
 2384 0df6 58000000 		.4byte	.LVL4
 2385 0dfa C60F0000 		.4byte	0xfc6
 2386 0dfe 090E0000 		.4byte	0xe09
 2387 0e02 22       		.uleb128 0x22
 2388 0e03 01       		.uleb128 0x1
 2389 0e04 50       		.byte	0x50
 2390 0e05 02       		.uleb128 0x2
 2391 0e06 08       		.byte	0x8
 2392 0e07 46       		.byte	0x46
 2393 0e08 00       		.byte	0
 2394 0e09 21       		.uleb128 0x21
 2395 0e0a 5E000000 		.4byte	.LVL5
 2396 0e0e 6B0F0000 		.4byte	0xf6b
 2397 0e12 1D0E0000 		.4byte	0xe1d
 2398 0e16 22       		.uleb128 0x22
 2399 0e17 01       		.uleb128 0x1
 2400 0e18 50       		.byte	0x50
 2401 0e19 02       		.uleb128 0x2
 2402 0e1a 74       		.byte	0x74
 2403 0e1b 00       		.sleb128 0
 2404 0e1c 00       		.byte	0
 2405 0e1d 21       		.uleb128 0x21
 2406 0e1e 72000000 		.4byte	.LVL6
 2407 0e22 820F0000 		.4byte	0xf82
ARM GAS  /tmp/ccF5nXKa.s 			page 71


 2408 0e26 570E0000 		.4byte	0xe57
 2409 0e2a 22       		.uleb128 0x22
 2410 0e2b 01       		.uleb128 0x1
 2411 0e2c 53       		.byte	0x53
 2412 0e2d 01       		.uleb128 0x1
 2413 0e2e 31       		.byte	0x31
 2414 0e2f 22       		.uleb128 0x22
 2415 0e30 01       		.uleb128 0x1
 2416 0e31 52       		.byte	0x52
 2417 0e32 02       		.uleb128 0x2
 2418 0e33 77       		.byte	0x77
 2419 0e34 00       		.sleb128 0
 2420 0e35 22       		.uleb128 0x22
 2421 0e36 01       		.uleb128 0x1
 2422 0e37 51       		.byte	0x51
 2423 0e38 02       		.uleb128 0x2
 2424 0e39 08       		.byte	0x8
 2425 0e3a 70       		.byte	0x70
 2426 0e3b 22       		.uleb128 0x22
 2427 0e3c 01       		.uleb128 0x1
 2428 0e3d 50       		.byte	0x50
 2429 0e3e 02       		.uleb128 0x2
 2430 0e3f 74       		.byte	0x74
 2431 0e40 00       		.sleb128 0
 2432 0e41 22       		.uleb128 0x22
 2433 0e42 02       		.uleb128 0x2
 2434 0e43 7D       		.byte	0x7d
 2435 0e44 08       		.sleb128 8
 2436 0e45 02       		.uleb128 0x2
 2437 0e46 78       		.byte	0x78
 2438 0e47 00       		.sleb128 0
 2439 0e48 22       		.uleb128 0x22
 2440 0e49 02       		.uleb128 0x2
 2441 0e4a 7D       		.byte	0x7d
 2442 0e4b 04       		.sleb128 4
 2443 0e4c 02       		.uleb128 0x2
 2444 0e4d 75       		.byte	0x75
 2445 0e4e 00       		.sleb128 0
 2446 0e4f 22       		.uleb128 0x22
 2447 0e50 02       		.uleb128 0x2
 2448 0e51 7D       		.byte	0x7d
 2449 0e52 00       		.sleb128 0
 2450 0e53 02       		.uleb128 0x2
 2451 0e54 75       		.byte	0x75
 2452 0e55 00       		.sleb128 0
 2453 0e56 00       		.byte	0
 2454 0e57 21       		.uleb128 0x21
 2455 0e58 7C000000 		.4byte	.LVL7
 2456 0e5c B50F0000 		.4byte	0xfb5
 2457 0e60 6B0E0000 		.4byte	0xe6b
 2458 0e64 22       		.uleb128 0x22
 2459 0e65 01       		.uleb128 0x1
 2460 0e66 50       		.byte	0x50
 2461 0e67 02       		.uleb128 0x2
 2462 0e68 74       		.byte	0x74
 2463 0e69 00       		.sleb128 0
 2464 0e6a 00       		.byte	0
ARM GAS  /tmp/ccF5nXKa.s 			page 72


 2465 0e6b 21       		.uleb128 0x21
 2466 0e6c 86000000 		.4byte	.LVL8
 2467 0e70 6B0F0000 		.4byte	0xf6b
 2468 0e74 7F0E0000 		.4byte	0xe7f
 2469 0e78 22       		.uleb128 0x22
 2470 0e79 01       		.uleb128 0x1
 2471 0e7a 50       		.byte	0x50
 2472 0e7b 02       		.uleb128 0x2
 2473 0e7c 74       		.byte	0x74
 2474 0e7d 00       		.sleb128 0
 2475 0e7e 00       		.byte	0
 2476 0e7f 21       		.uleb128 0x21
 2477 0e80 96000000 		.4byte	.LVL9
 2478 0e84 D80F0000 		.4byte	0xfd8
 2479 0e88 AC0E0000 		.4byte	0xeac
 2480 0e8c 22       		.uleb128 0x22
 2481 0e8d 01       		.uleb128 0x1
 2482 0e8e 53       		.byte	0x53
 2483 0e8f 02       		.uleb128 0x2
 2484 0e90 79       		.byte	0x79
 2485 0e91 00       		.sleb128 0
 2486 0e92 22       		.uleb128 0x22
 2487 0e93 01       		.uleb128 0x1
 2488 0e94 52       		.byte	0x52
 2489 0e95 02       		.uleb128 0x2
 2490 0e96 75       		.byte	0x75
 2491 0e97 00       		.sleb128 0
 2492 0e98 22       		.uleb128 0x22
 2493 0e99 01       		.uleb128 0x1
 2494 0e9a 51       		.byte	0x51
 2495 0e9b 02       		.uleb128 0x2
 2496 0e9c 08       		.byte	0x8
 2497 0e9d 70       		.byte	0x70
 2498 0e9e 22       		.uleb128 0x22
 2499 0e9f 01       		.uleb128 0x1
 2500 0ea0 50       		.byte	0x50
 2501 0ea1 02       		.uleb128 0x2
 2502 0ea2 74       		.byte	0x74
 2503 0ea3 00       		.sleb128 0
 2504 0ea4 22       		.uleb128 0x22
 2505 0ea5 02       		.uleb128 0x2
 2506 0ea6 7D       		.byte	0x7d
 2507 0ea7 00       		.sleb128 0
 2508 0ea8 02       		.uleb128 0x2
 2509 0ea9 78       		.byte	0x78
 2510 0eaa 00       		.sleb128 0
 2511 0eab 00       		.byte	0
 2512 0eac 21       		.uleb128 0x21
 2513 0ead 9C000000 		.4byte	.LVL10
 2514 0eb1 B50F0000 		.4byte	0xfb5
 2515 0eb5 C00E0000 		.4byte	0xec0
 2516 0eb9 22       		.uleb128 0x22
 2517 0eba 01       		.uleb128 0x1
 2518 0ebb 50       		.byte	0x50
 2519 0ebc 02       		.uleb128 0x2
 2520 0ebd 74       		.byte	0x74
 2521 0ebe 00       		.sleb128 0
ARM GAS  /tmp/ccF5nXKa.s 			page 73


 2522 0ebf 00       		.byte	0
 2523 0ec0 21       		.uleb128 0x21
 2524 0ec1 BA000000 		.4byte	.LVL11
 2525 0ec5 01100000 		.4byte	0x1001
 2526 0ec9 D70E0000 		.4byte	0xed7
 2527 0ecd 22       		.uleb128 0x22
 2528 0ece 01       		.uleb128 0x1
 2529 0ecf 51       		.byte	0x51
 2530 0ed0 05       		.uleb128 0x5
 2531 0ed1 03       		.byte	0x3
 2532 0ed2 00000000 		.4byte	.LC0
 2533 0ed6 00       		.byte	0
 2534 0ed7 23       		.uleb128 0x23
 2535 0ed8 C8000000 		.4byte	.LVL12
 2536 0edc C60F0000 		.4byte	0xfc6
 2537 0ee0 22       		.uleb128 0x22
 2538 0ee1 01       		.uleb128 0x1
 2539 0ee2 50       		.byte	0x50
 2540 0ee3 03       		.uleb128 0x3
 2541 0ee4 0A       		.byte	0xa
 2542 0ee5 F401     		.2byte	0x1f4
 2543 0ee7 00       		.byte	0
 2544 0ee8 00       		.byte	0
 2545 0ee9 1B       		.uleb128 0x1b
 2546 0eea 45000000 		.4byte	0x45
 2547 0eee F90E0000 		.4byte	0xef9
 2548 0ef2 1C       		.uleb128 0x1c
 2549 0ef3 FD030000 		.4byte	0x3fd
 2550 0ef7 07       		.byte	0x7
 2551 0ef8 00       		.byte	0
 2552 0ef9 24       		.uleb128 0x24
 2553 0efa 63080000 		.4byte	.LASF177
 2554 0efe 01       		.byte	0x1
 2555 0eff 11       		.byte	0x11
 2556 0f00 E90E0000 		.4byte	0xee9
 2557 0f04 05       		.uleb128 0x5
 2558 0f05 03       		.byte	0x3
 2559 0f06 00000000 		.4byte	SDA_rx_data
 2560 0f0a 24       		.uleb128 0x24
 2561 0f0b F8070000 		.4byte	.LASF178
 2562 0f0f 01       		.byte	0x1
 2563 0f10 12       		.byte	0x12
 2564 0f11 E90E0000 		.4byte	0xee9
 2565 0f15 05       		.uleb128 0x5
 2566 0f16 03       		.byte	0x3
 2567 0f17 00000000 		.4byte	SDA_tx_data
 2568 0f1b 24       		.uleb128 0x24
 2569 0f1c A5060000 		.4byte	.LASF179
 2570 0f20 01       		.byte	0x1
 2571 0f21 13       		.byte	0x13
 2572 0f22 E90E0000 		.4byte	0xee9
 2573 0f26 05       		.uleb128 0x5
 2574 0f27 03       		.byte	0x3
 2575 0f28 00000000 		.4byte	SDA_value
 2576 0f2c 25       		.uleb128 0x25
 2577 0f2d 2E000000 		.4byte	.LASF192
 2578 0f31 01       		.byte	0x1
ARM GAS  /tmp/ccF5nXKa.s 			page 74


 2579 0f32 19       		.byte	0x19
 2580 0f33 020C0000 		.4byte	0xc02
 2581 0f37 26       		.uleb128 0x26
 2582 0f38 7C060000 		.4byte	.LASF180
 2583 0f3c 13       		.byte	0x13
 2584 0f3d 9606     		.2byte	0x696
 2585 0f3f 430F0000 		.4byte	0xf43
 2586 0f43 0F       		.uleb128 0xf
 2587 0f44 70000000 		.4byte	0x70
 2588 0f48 27       		.uleb128 0x27
 2589 0f49 636800   		.ascii	"ch\000"
 2590 0f4c 06       		.byte	0x6
 2591 0f4d D201     		.2byte	0x1d2
 2592 0f4f B0030000 		.4byte	0x3b0
 2593 0f53 26       		.uleb128 0x26
 2594 0f54 DC040000 		.4byte	.LASF181
 2595 0f58 11       		.byte	0x11
 2596 0f59 E001     		.2byte	0x1e0
 2597 0f5b 530B0000 		.4byte	0xb53
 2598 0f5f 27       		.uleb128 0x27
 2599 0f60 53443200 		.ascii	"SD2\000"
 2600 0f64 14       		.byte	0x14
 2601 0f65 4701     		.2byte	0x147
 2602 0f67 3E0C0000 		.4byte	0xc3e
 2603 0f6b 28       		.uleb128 0x28
 2604 0f6c 9A070000 		.4byte	.LASF183
 2605 0f70 10       		.byte	0x10
 2606 0f71 9A       		.byte	0x9a
 2607 0f72 7C0F0000 		.4byte	0xf7c
 2608 0f76 0D       		.uleb128 0xd
 2609 0f77 7C0F0000 		.4byte	0xf7c
 2610 0f7b 00       		.byte	0
 2611 0f7c 0A       		.uleb128 0xa
 2612 0f7d 04       		.byte	0x4
 2613 0f7e 530B0000 		.4byte	0xb53
 2614 0f82 29       		.uleb128 0x29
 2615 0f83 B4010000 		.4byte	.LASF186
 2616 0f87 10       		.byte	0x10
 2617 0f88 90       		.byte	0x90
 2618 0f89 D9000000 		.4byte	0xd9
 2619 0f8d B50F0000 		.4byte	0xfb5
 2620 0f91 0D       		.uleb128 0xd
 2621 0f92 7C0F0000 		.4byte	0xf7c
 2622 0f96 0D       		.uleb128 0xd
 2623 0f97 AE0A0000 		.4byte	0xaae
 2624 0f9b 0D       		.uleb128 0xd
 2625 0f9c 49080000 		.4byte	0x849
 2626 0fa0 0D       		.uleb128 0xd
 2627 0fa1 2C000000 		.4byte	0x2c
 2628 0fa5 0D       		.uleb128 0xd
 2629 0fa6 B0070000 		.4byte	0x7b0
 2630 0faa 0D       		.uleb128 0xd
 2631 0fab 2C000000 		.4byte	0x2c
 2632 0faf 0D       		.uleb128 0xd
 2633 0fb0 05010000 		.4byte	0x105
 2634 0fb4 00       		.byte	0
 2635 0fb5 28       		.uleb128 0x28
ARM GAS  /tmp/ccF5nXKa.s 			page 75


 2636 0fb6 9D050000 		.4byte	.LASF184
 2637 0fba 10       		.byte	0x10
 2638 0fbb 9B       		.byte	0x9b
 2639 0fbc C60F0000 		.4byte	0xfc6
 2640 0fc0 0D       		.uleb128 0xd
 2641 0fc1 7C0F0000 		.4byte	0xf7c
 2642 0fc5 00       		.byte	0
 2643 0fc6 2A       		.uleb128 0x2a
 2644 0fc7 DC070000 		.4byte	.LASF185
 2645 0fcb 15       		.byte	0x15
 2646 0fcc 0901     		.2byte	0x109
 2647 0fce D80F0000 		.4byte	0xfd8
 2648 0fd2 0D       		.uleb128 0xd
 2649 0fd3 05010000 		.4byte	0x105
 2650 0fd7 00       		.byte	0
 2651 0fd8 29       		.uleb128 0x29
 2652 0fd9 FE060000 		.4byte	.LASF187
 2653 0fdd 10       		.byte	0x10
 2654 0fde 95       		.byte	0x95
 2655 0fdf D9000000 		.4byte	0xd9
 2656 0fe3 01100000 		.4byte	0x1001
 2657 0fe7 0D       		.uleb128 0xd
 2658 0fe8 7C0F0000 		.4byte	0xf7c
 2659 0fec 0D       		.uleb128 0xd
 2660 0fed AE0A0000 		.4byte	0xaae
 2661 0ff1 0D       		.uleb128 0xd
 2662 0ff2 B0070000 		.4byte	0x7b0
 2663 0ff6 0D       		.uleb128 0xd
 2664 0ff7 2C000000 		.4byte	0x2c
 2665 0ffb 0D       		.uleb128 0xd
 2666 0ffc 05010000 		.4byte	0x105
 2667 1000 00       		.byte	0
 2668 1001 2B       		.uleb128 0x2b
 2669 1002 68040000 		.4byte	.LASF182
 2670 1006 01       		.byte	0x1
 2671 1007 45       		.byte	0x45
 2672 1008 25000000 		.4byte	0x25
 2673 100c 20       		.uleb128 0x20
 2674 100d 00       		.byte	0
 2675 100e 00       		.byte	0
 2676              		.section	.debug_abbrev,"",%progbits
 2677              	.Ldebug_abbrev0:
 2678 0000 01       		.uleb128 0x1
 2679 0001 11       		.uleb128 0x11
 2680 0002 01       		.byte	0x1
 2681 0003 25       		.uleb128 0x25
 2682 0004 0E       		.uleb128 0xe
 2683 0005 13       		.uleb128 0x13
 2684 0006 0B       		.uleb128 0xb
 2685 0007 03       		.uleb128 0x3
 2686 0008 0E       		.uleb128 0xe
 2687 0009 1B       		.uleb128 0x1b
 2688 000a 0E       		.uleb128 0xe
 2689 000b 55       		.uleb128 0x55
 2690 000c 17       		.uleb128 0x17
 2691 000d 11       		.uleb128 0x11
 2692 000e 01       		.uleb128 0x1
ARM GAS  /tmp/ccF5nXKa.s 			page 76


 2693 000f 10       		.uleb128 0x10
 2694 0010 17       		.uleb128 0x17
 2695 0011 00       		.byte	0
 2696 0012 00       		.byte	0
 2697 0013 02       		.uleb128 0x2
 2698 0014 24       		.uleb128 0x24
 2699 0015 00       		.byte	0
 2700 0016 0B       		.uleb128 0xb
 2701 0017 0B       		.uleb128 0xb
 2702 0018 3E       		.uleb128 0x3e
 2703 0019 0B       		.uleb128 0xb
 2704 001a 03       		.uleb128 0x3
 2705 001b 08       		.uleb128 0x8
 2706 001c 00       		.byte	0
 2707 001d 00       		.byte	0
 2708 001e 03       		.uleb128 0x3
 2709 001f 16       		.uleb128 0x16
 2710 0020 00       		.byte	0
 2711 0021 03       		.uleb128 0x3
 2712 0022 0E       		.uleb128 0xe
 2713 0023 3A       		.uleb128 0x3a
 2714 0024 0B       		.uleb128 0xb
 2715 0025 3B       		.uleb128 0x3b
 2716 0026 0B       		.uleb128 0xb
 2717 0027 49       		.uleb128 0x49
 2718 0028 13       		.uleb128 0x13
 2719 0029 00       		.byte	0
 2720 002a 00       		.byte	0
 2721 002b 04       		.uleb128 0x4
 2722 002c 24       		.uleb128 0x24
 2723 002d 00       		.byte	0
 2724 002e 0B       		.uleb128 0xb
 2725 002f 0B       		.uleb128 0xb
 2726 0030 3E       		.uleb128 0x3e
 2727 0031 0B       		.uleb128 0xb
 2728 0032 03       		.uleb128 0x3
 2729 0033 0E       		.uleb128 0xe
 2730 0034 00       		.byte	0
 2731 0035 00       		.byte	0
 2732 0036 05       		.uleb128 0x5
 2733 0037 13       		.uleb128 0x13
 2734 0038 01       		.byte	0x1
 2735 0039 03       		.uleb128 0x3
 2736 003a 0E       		.uleb128 0xe
 2737 003b 0B       		.uleb128 0xb
 2738 003c 0B       		.uleb128 0xb
 2739 003d 3A       		.uleb128 0x3a
 2740 003e 0B       		.uleb128 0xb
 2741 003f 3B       		.uleb128 0x3b
 2742 0040 0B       		.uleb128 0xb
 2743 0041 01       		.uleb128 0x1
 2744 0042 13       		.uleb128 0x13
 2745 0043 00       		.byte	0
 2746 0044 00       		.byte	0
 2747 0045 06       		.uleb128 0x6
 2748 0046 0D       		.uleb128 0xd
 2749 0047 00       		.byte	0
ARM GAS  /tmp/ccF5nXKa.s 			page 77


 2750 0048 03       		.uleb128 0x3
 2751 0049 0E       		.uleb128 0xe
 2752 004a 3A       		.uleb128 0x3a
 2753 004b 0B       		.uleb128 0xb
 2754 004c 3B       		.uleb128 0x3b
 2755 004d 0B       		.uleb128 0xb
 2756 004e 49       		.uleb128 0x49
 2757 004f 13       		.uleb128 0x13
 2758 0050 38       		.uleb128 0x38
 2759 0051 0B       		.uleb128 0xb
 2760 0052 00       		.byte	0
 2761 0053 00       		.byte	0
 2762 0054 07       		.uleb128 0x7
 2763 0055 0D       		.uleb128 0xd
 2764 0056 00       		.byte	0
 2765 0057 03       		.uleb128 0x3
 2766 0058 08       		.uleb128 0x8
 2767 0059 3A       		.uleb128 0x3a
 2768 005a 0B       		.uleb128 0xb
 2769 005b 3B       		.uleb128 0x3b
 2770 005c 0B       		.uleb128 0xb
 2771 005d 49       		.uleb128 0x49
 2772 005e 13       		.uleb128 0x13
 2773 005f 38       		.uleb128 0x38
 2774 0060 0B       		.uleb128 0xb
 2775 0061 00       		.byte	0
 2776 0062 00       		.byte	0
 2777 0063 08       		.uleb128 0x8
 2778 0064 0D       		.uleb128 0xd
 2779 0065 00       		.byte	0
 2780 0066 03       		.uleb128 0x3
 2781 0067 08       		.uleb128 0x8
 2782 0068 3A       		.uleb128 0x3a
 2783 0069 0B       		.uleb128 0xb
 2784 006a 3B       		.uleb128 0x3b
 2785 006b 05       		.uleb128 0x5
 2786 006c 49       		.uleb128 0x49
 2787 006d 13       		.uleb128 0x13
 2788 006e 38       		.uleb128 0x38
 2789 006f 0B       		.uleb128 0xb
 2790 0070 00       		.byte	0
 2791 0071 00       		.byte	0
 2792 0072 09       		.uleb128 0x9
 2793 0073 0D       		.uleb128 0xd
 2794 0074 00       		.byte	0
 2795 0075 03       		.uleb128 0x3
 2796 0076 0E       		.uleb128 0xe
 2797 0077 3A       		.uleb128 0x3a
 2798 0078 0B       		.uleb128 0xb
 2799 0079 3B       		.uleb128 0x3b
 2800 007a 05       		.uleb128 0x5
 2801 007b 49       		.uleb128 0x49
 2802 007c 13       		.uleb128 0x13
 2803 007d 38       		.uleb128 0x38
 2804 007e 0B       		.uleb128 0xb
 2805 007f 00       		.byte	0
 2806 0080 00       		.byte	0
ARM GAS  /tmp/ccF5nXKa.s 			page 78


 2807 0081 0A       		.uleb128 0xa
 2808 0082 0F       		.uleb128 0xf
 2809 0083 00       		.byte	0
 2810 0084 0B       		.uleb128 0xb
 2811 0085 0B       		.uleb128 0xb
 2812 0086 49       		.uleb128 0x49
 2813 0087 13       		.uleb128 0x13
 2814 0088 00       		.byte	0
 2815 0089 00       		.byte	0
 2816 008a 0B       		.uleb128 0xb
 2817 008b 13       		.uleb128 0x13
 2818 008c 01       		.byte	0x1
 2819 008d 03       		.uleb128 0x3
 2820 008e 0E       		.uleb128 0xe
 2821 008f 0B       		.uleb128 0xb
 2822 0090 0B       		.uleb128 0xb
 2823 0091 3A       		.uleb128 0x3a
 2824 0092 0B       		.uleb128 0xb
 2825 0093 3B       		.uleb128 0x3b
 2826 0094 05       		.uleb128 0x5
 2827 0095 01       		.uleb128 0x1
 2828 0096 13       		.uleb128 0x13
 2829 0097 00       		.byte	0
 2830 0098 00       		.byte	0
 2831 0099 0C       		.uleb128 0xc
 2832 009a 15       		.uleb128 0x15
 2833 009b 01       		.byte	0x1
 2834 009c 27       		.uleb128 0x27
 2835 009d 19       		.uleb128 0x19
 2836 009e 01       		.uleb128 0x1
 2837 009f 13       		.uleb128 0x13
 2838 00a0 00       		.byte	0
 2839 00a1 00       		.byte	0
 2840 00a2 0D       		.uleb128 0xd
 2841 00a3 05       		.uleb128 0x5
 2842 00a4 00       		.byte	0
 2843 00a5 49       		.uleb128 0x49
 2844 00a6 13       		.uleb128 0x13
 2845 00a7 00       		.byte	0
 2846 00a8 00       		.byte	0
 2847 00a9 0E       		.uleb128 0xe
 2848 00aa 0F       		.uleb128 0xf
 2849 00ab 00       		.byte	0
 2850 00ac 0B       		.uleb128 0xb
 2851 00ad 0B       		.uleb128 0xb
 2852 00ae 00       		.byte	0
 2853 00af 00       		.byte	0
 2854 00b0 0F       		.uleb128 0xf
 2855 00b1 35       		.uleb128 0x35
 2856 00b2 00       		.byte	0
 2857 00b3 49       		.uleb128 0x49
 2858 00b4 13       		.uleb128 0x13
 2859 00b5 00       		.byte	0
 2860 00b6 00       		.byte	0
 2861 00b7 10       		.uleb128 0x10
 2862 00b8 13       		.uleb128 0x13
 2863 00b9 01       		.byte	0x1
ARM GAS  /tmp/ccF5nXKa.s 			page 79


 2864 00ba 0B       		.uleb128 0xb
 2865 00bb 0B       		.uleb128 0xb
 2866 00bc 3A       		.uleb128 0x3a
 2867 00bd 0B       		.uleb128 0xb
 2868 00be 3B       		.uleb128 0x3b
 2869 00bf 05       		.uleb128 0x5
 2870 00c0 01       		.uleb128 0x1
 2871 00c1 13       		.uleb128 0x13
 2872 00c2 00       		.byte	0
 2873 00c3 00       		.byte	0
 2874 00c4 11       		.uleb128 0x11
 2875 00c5 16       		.uleb128 0x16
 2876 00c6 00       		.byte	0
 2877 00c7 03       		.uleb128 0x3
 2878 00c8 0E       		.uleb128 0xe
 2879 00c9 3A       		.uleb128 0x3a
 2880 00ca 0B       		.uleb128 0xb
 2881 00cb 3B       		.uleb128 0x3b
 2882 00cc 05       		.uleb128 0x5
 2883 00cd 49       		.uleb128 0x49
 2884 00ce 13       		.uleb128 0x13
 2885 00cf 00       		.byte	0
 2886 00d0 00       		.byte	0
 2887 00d1 12       		.uleb128 0x12
 2888 00d2 17       		.uleb128 0x17
 2889 00d3 01       		.byte	0x1
 2890 00d4 0B       		.uleb128 0xb
 2891 00d5 0B       		.uleb128 0xb
 2892 00d6 3A       		.uleb128 0x3a
 2893 00d7 0B       		.uleb128 0xb
 2894 00d8 3B       		.uleb128 0x3b
 2895 00d9 0B       		.uleb128 0xb
 2896 00da 01       		.uleb128 0x1
 2897 00db 13       		.uleb128 0x13
 2898 00dc 00       		.byte	0
 2899 00dd 00       		.byte	0
 2900 00de 13       		.uleb128 0x13
 2901 00df 0D       		.uleb128 0xd
 2902 00e0 00       		.byte	0
 2903 00e1 03       		.uleb128 0x3
 2904 00e2 0E       		.uleb128 0xe
 2905 00e3 3A       		.uleb128 0x3a
 2906 00e4 0B       		.uleb128 0xb
 2907 00e5 3B       		.uleb128 0x3b
 2908 00e6 0B       		.uleb128 0xb
 2909 00e7 49       		.uleb128 0x49
 2910 00e8 13       		.uleb128 0x13
 2911 00e9 00       		.byte	0
 2912 00ea 00       		.byte	0
 2913 00eb 14       		.uleb128 0x14
 2914 00ec 0D       		.uleb128 0xd
 2915 00ed 00       		.byte	0
 2916 00ee 03       		.uleb128 0x3
 2917 00ef 0E       		.uleb128 0xe
 2918 00f0 3A       		.uleb128 0x3a
 2919 00f1 0B       		.uleb128 0xb
 2920 00f2 3B       		.uleb128 0x3b
ARM GAS  /tmp/ccF5nXKa.s 			page 80


 2921 00f3 05       		.uleb128 0x5
 2922 00f4 49       		.uleb128 0x49
 2923 00f5 13       		.uleb128 0x13
 2924 00f6 00       		.byte	0
 2925 00f7 00       		.byte	0
 2926 00f8 15       		.uleb128 0x15
 2927 00f9 26       		.uleb128 0x26
 2928 00fa 00       		.byte	0
 2929 00fb 49       		.uleb128 0x49
 2930 00fc 13       		.uleb128 0x13
 2931 00fd 00       		.byte	0
 2932 00fe 00       		.byte	0
 2933 00ff 16       		.uleb128 0x16
 2934 0100 13       		.uleb128 0x13
 2935 0101 01       		.byte	0x1
 2936 0102 0B       		.uleb128 0xb
 2937 0103 0B       		.uleb128 0xb
 2938 0104 3A       		.uleb128 0x3a
 2939 0105 0B       		.uleb128 0xb
 2940 0106 3B       		.uleb128 0x3b
 2941 0107 0B       		.uleb128 0xb
 2942 0108 01       		.uleb128 0x1
 2943 0109 13       		.uleb128 0x13
 2944 010a 00       		.byte	0
 2945 010b 00       		.byte	0
 2946 010c 17       		.uleb128 0x17
 2947 010d 15       		.uleb128 0x15
 2948 010e 01       		.byte	0x1
 2949 010f 27       		.uleb128 0x27
 2950 0110 19       		.uleb128 0x19
 2951 0111 49       		.uleb128 0x49
 2952 0112 13       		.uleb128 0x13
 2953 0113 01       		.uleb128 0x1
 2954 0114 13       		.uleb128 0x13
 2955 0115 00       		.byte	0
 2956 0116 00       		.byte	0
 2957 0117 18       		.uleb128 0x18
 2958 0118 04       		.uleb128 0x4
 2959 0119 01       		.byte	0x1
 2960 011a 0B       		.uleb128 0xb
 2961 011b 0B       		.uleb128 0xb
 2962 011c 3A       		.uleb128 0x3a
 2963 011d 0B       		.uleb128 0xb
 2964 011e 3B       		.uleb128 0x3b
 2965 011f 0B       		.uleb128 0xb
 2966 0120 01       		.uleb128 0x1
 2967 0121 13       		.uleb128 0x13
 2968 0122 00       		.byte	0
 2969 0123 00       		.byte	0
 2970 0124 19       		.uleb128 0x19
 2971 0125 28       		.uleb128 0x28
 2972 0126 00       		.byte	0
 2973 0127 03       		.uleb128 0x3
 2974 0128 0E       		.uleb128 0xe
 2975 0129 1C       		.uleb128 0x1c
 2976 012a 0D       		.uleb128 0xd
 2977 012b 00       		.byte	0
ARM GAS  /tmp/ccF5nXKa.s 			page 81


 2978 012c 00       		.byte	0
 2979 012d 1A       		.uleb128 0x1a
 2980 012e 04       		.uleb128 0x4
 2981 012f 01       		.byte	0x1
 2982 0130 0B       		.uleb128 0xb
 2983 0131 0B       		.uleb128 0xb
 2984 0132 3A       		.uleb128 0x3a
 2985 0133 0B       		.uleb128 0xb
 2986 0134 3B       		.uleb128 0x3b
 2987 0135 05       		.uleb128 0x5
 2988 0136 01       		.uleb128 0x1
 2989 0137 13       		.uleb128 0x13
 2990 0138 00       		.byte	0
 2991 0139 00       		.byte	0
 2992 013a 1B       		.uleb128 0x1b
 2993 013b 01       		.uleb128 0x1
 2994 013c 01       		.byte	0x1
 2995 013d 49       		.uleb128 0x49
 2996 013e 13       		.uleb128 0x13
 2997 013f 01       		.uleb128 0x1
 2998 0140 13       		.uleb128 0x13
 2999 0141 00       		.byte	0
 3000 0142 00       		.byte	0
 3001 0143 1C       		.uleb128 0x1c
 3002 0144 21       		.uleb128 0x21
 3003 0145 00       		.byte	0
 3004 0146 49       		.uleb128 0x49
 3005 0147 13       		.uleb128 0x13
 3006 0148 2F       		.uleb128 0x2f
 3007 0149 0B       		.uleb128 0xb
 3008 014a 00       		.byte	0
 3009 014b 00       		.byte	0
 3010 014c 1D       		.uleb128 0x1d
 3011 014d 2E       		.uleb128 0x2e
 3012 014e 01       		.byte	0x1
 3013 014f 3F       		.uleb128 0x3f
 3014 0150 19       		.uleb128 0x19
 3015 0151 03       		.uleb128 0x3
 3016 0152 0E       		.uleb128 0xe
 3017 0153 3A       		.uleb128 0x3a
 3018 0154 0B       		.uleb128 0xb
 3019 0155 3B       		.uleb128 0x3b
 3020 0156 0B       		.uleb128 0xb
 3021 0157 27       		.uleb128 0x27
 3022 0158 19       		.uleb128 0x19
 3023 0159 11       		.uleb128 0x11
 3024 015a 01       		.uleb128 0x1
 3025 015b 12       		.uleb128 0x12
 3026 015c 06       		.uleb128 0x6
 3027 015d 40       		.uleb128 0x40
 3028 015e 18       		.uleb128 0x18
 3029 015f 9742     		.uleb128 0x2117
 3030 0161 19       		.uleb128 0x19
 3031 0162 01       		.uleb128 0x1
 3032 0163 13       		.uleb128 0x13
 3033 0164 00       		.byte	0
 3034 0165 00       		.byte	0
ARM GAS  /tmp/ccF5nXKa.s 			page 82


 3035 0166 1E       		.uleb128 0x1e
 3036 0167 34       		.uleb128 0x34
 3037 0168 00       		.byte	0
 3038 0169 03       		.uleb128 0x3
 3039 016a 0E       		.uleb128 0xe
 3040 016b 3A       		.uleb128 0x3a
 3041 016c 0B       		.uleb128 0xb
 3042 016d 3B       		.uleb128 0x3b
 3043 016e 0B       		.uleb128 0xb
 3044 016f 49       		.uleb128 0x49
 3045 0170 13       		.uleb128 0x13
 3046 0171 02       		.uleb128 0x2
 3047 0172 17       		.uleb128 0x17
 3048 0173 00       		.byte	0
 3049 0174 00       		.byte	0
 3050 0175 1F       		.uleb128 0x1f
 3051 0176 2E       		.uleb128 0x2e
 3052 0177 01       		.byte	0x1
 3053 0178 3F       		.uleb128 0x3f
 3054 0179 19       		.uleb128 0x19
 3055 017a 03       		.uleb128 0x3
 3056 017b 0E       		.uleb128 0xe
 3057 017c 3A       		.uleb128 0x3a
 3058 017d 0B       		.uleb128 0xb
 3059 017e 3B       		.uleb128 0x3b
 3060 017f 0B       		.uleb128 0xb
 3061 0180 49       		.uleb128 0x49
 3062 0181 13       		.uleb128 0x13
 3063 0182 3C       		.uleb128 0x3c
 3064 0183 19       		.uleb128 0x19
 3065 0184 01       		.uleb128 0x1
 3066 0185 13       		.uleb128 0x13
 3067 0186 00       		.byte	0
 3068 0187 00       		.byte	0
 3069 0188 20       		.uleb128 0x20
 3070 0189 18       		.uleb128 0x18
 3071 018a 00       		.byte	0
 3072 018b 00       		.byte	0
 3073 018c 00       		.byte	0
 3074 018d 21       		.uleb128 0x21
 3075 018e 898201   		.uleb128 0x4109
 3076 0191 01       		.byte	0x1
 3077 0192 11       		.uleb128 0x11
 3078 0193 01       		.uleb128 0x1
 3079 0194 31       		.uleb128 0x31
 3080 0195 13       		.uleb128 0x13
 3081 0196 01       		.uleb128 0x1
 3082 0197 13       		.uleb128 0x13
 3083 0198 00       		.byte	0
 3084 0199 00       		.byte	0
 3085 019a 22       		.uleb128 0x22
 3086 019b 8A8201   		.uleb128 0x410a
 3087 019e 00       		.byte	0
 3088 019f 02       		.uleb128 0x2
 3089 01a0 18       		.uleb128 0x18
 3090 01a1 9142     		.uleb128 0x2111
 3091 01a3 18       		.uleb128 0x18
ARM GAS  /tmp/ccF5nXKa.s 			page 83


 3092 01a4 00       		.byte	0
 3093 01a5 00       		.byte	0
 3094 01a6 23       		.uleb128 0x23
 3095 01a7 898201   		.uleb128 0x4109
 3096 01aa 01       		.byte	0x1
 3097 01ab 11       		.uleb128 0x11
 3098 01ac 01       		.uleb128 0x1
 3099 01ad 9542     		.uleb128 0x2115
 3100 01af 19       		.uleb128 0x19
 3101 01b0 31       		.uleb128 0x31
 3102 01b1 13       		.uleb128 0x13
 3103 01b2 00       		.byte	0
 3104 01b3 00       		.byte	0
 3105 01b4 24       		.uleb128 0x24
 3106 01b5 34       		.uleb128 0x34
 3107 01b6 00       		.byte	0
 3108 01b7 03       		.uleb128 0x3
 3109 01b8 0E       		.uleb128 0xe
 3110 01b9 3A       		.uleb128 0x3a
 3111 01ba 0B       		.uleb128 0xb
 3112 01bb 3B       		.uleb128 0x3b
 3113 01bc 0B       		.uleb128 0xb
 3114 01bd 49       		.uleb128 0x49
 3115 01be 13       		.uleb128 0x13
 3116 01bf 02       		.uleb128 0x2
 3117 01c0 18       		.uleb128 0x18
 3118 01c1 00       		.byte	0
 3119 01c2 00       		.byte	0
 3120 01c3 25       		.uleb128 0x25
 3121 01c4 34       		.uleb128 0x34
 3122 01c5 00       		.byte	0
 3123 01c6 03       		.uleb128 0x3
 3124 01c7 0E       		.uleb128 0xe
 3125 01c8 3A       		.uleb128 0x3a
 3126 01c9 0B       		.uleb128 0xb
 3127 01ca 3B       		.uleb128 0x3b
 3128 01cb 0B       		.uleb128 0xb
 3129 01cc 49       		.uleb128 0x49
 3130 01cd 13       		.uleb128 0x13
 3131 01ce 00       		.byte	0
 3132 01cf 00       		.byte	0
 3133 01d0 26       		.uleb128 0x26
 3134 01d1 34       		.uleb128 0x34
 3135 01d2 00       		.byte	0
 3136 01d3 03       		.uleb128 0x3
 3137 01d4 0E       		.uleb128 0xe
 3138 01d5 3A       		.uleb128 0x3a
 3139 01d6 0B       		.uleb128 0xb
 3140 01d7 3B       		.uleb128 0x3b
 3141 01d8 05       		.uleb128 0x5
 3142 01d9 49       		.uleb128 0x49
 3143 01da 13       		.uleb128 0x13
 3144 01db 3F       		.uleb128 0x3f
 3145 01dc 19       		.uleb128 0x19
 3146 01dd 3C       		.uleb128 0x3c
 3147 01de 19       		.uleb128 0x19
 3148 01df 00       		.byte	0
ARM GAS  /tmp/ccF5nXKa.s 			page 84


 3149 01e0 00       		.byte	0
 3150 01e1 27       		.uleb128 0x27
 3151 01e2 34       		.uleb128 0x34
 3152 01e3 00       		.byte	0
 3153 01e4 03       		.uleb128 0x3
 3154 01e5 08       		.uleb128 0x8
 3155 01e6 3A       		.uleb128 0x3a
 3156 01e7 0B       		.uleb128 0xb
 3157 01e8 3B       		.uleb128 0x3b
 3158 01e9 05       		.uleb128 0x5
 3159 01ea 49       		.uleb128 0x49
 3160 01eb 13       		.uleb128 0x13
 3161 01ec 3F       		.uleb128 0x3f
 3162 01ed 19       		.uleb128 0x19
 3163 01ee 3C       		.uleb128 0x3c
 3164 01ef 19       		.uleb128 0x19
 3165 01f0 00       		.byte	0
 3166 01f1 00       		.byte	0
 3167 01f2 28       		.uleb128 0x28
 3168 01f3 2E       		.uleb128 0x2e
 3169 01f4 01       		.byte	0x1
 3170 01f5 3F       		.uleb128 0x3f
 3171 01f6 19       		.uleb128 0x19
 3172 01f7 03       		.uleb128 0x3
 3173 01f8 0E       		.uleb128 0xe
 3174 01f9 3A       		.uleb128 0x3a
 3175 01fa 0B       		.uleb128 0xb
 3176 01fb 3B       		.uleb128 0x3b
 3177 01fc 0B       		.uleb128 0xb
 3178 01fd 27       		.uleb128 0x27
 3179 01fe 19       		.uleb128 0x19
 3180 01ff 3C       		.uleb128 0x3c
 3181 0200 19       		.uleb128 0x19
 3182 0201 01       		.uleb128 0x1
 3183 0202 13       		.uleb128 0x13
 3184 0203 00       		.byte	0
 3185 0204 00       		.byte	0
 3186 0205 29       		.uleb128 0x29
 3187 0206 2E       		.uleb128 0x2e
 3188 0207 01       		.byte	0x1
 3189 0208 3F       		.uleb128 0x3f
 3190 0209 19       		.uleb128 0x19
 3191 020a 03       		.uleb128 0x3
 3192 020b 0E       		.uleb128 0xe
 3193 020c 3A       		.uleb128 0x3a
 3194 020d 0B       		.uleb128 0xb
 3195 020e 3B       		.uleb128 0x3b
 3196 020f 0B       		.uleb128 0xb
 3197 0210 27       		.uleb128 0x27
 3198 0211 19       		.uleb128 0x19
 3199 0212 49       		.uleb128 0x49
 3200 0213 13       		.uleb128 0x13
 3201 0214 3C       		.uleb128 0x3c
 3202 0215 19       		.uleb128 0x19
 3203 0216 01       		.uleb128 0x1
 3204 0217 13       		.uleb128 0x13
 3205 0218 00       		.byte	0
ARM GAS  /tmp/ccF5nXKa.s 			page 85


 3206 0219 00       		.byte	0
 3207 021a 2A       		.uleb128 0x2a
 3208 021b 2E       		.uleb128 0x2e
 3209 021c 01       		.byte	0x1
 3210 021d 3F       		.uleb128 0x3f
 3211 021e 19       		.uleb128 0x19
 3212 021f 03       		.uleb128 0x3
 3213 0220 0E       		.uleb128 0xe
 3214 0221 3A       		.uleb128 0x3a
 3215 0222 0B       		.uleb128 0xb
 3216 0223 3B       		.uleb128 0x3b
 3217 0224 05       		.uleb128 0x5
 3218 0225 27       		.uleb128 0x27
 3219 0226 19       		.uleb128 0x19
 3220 0227 3C       		.uleb128 0x3c
 3221 0228 19       		.uleb128 0x19
 3222 0229 01       		.uleb128 0x1
 3223 022a 13       		.uleb128 0x13
 3224 022b 00       		.byte	0
 3225 022c 00       		.byte	0
 3226 022d 2B       		.uleb128 0x2b
 3227 022e 2E       		.uleb128 0x2e
 3228 022f 01       		.byte	0x1
 3229 0230 3F       		.uleb128 0x3f
 3230 0231 19       		.uleb128 0x19
 3231 0232 03       		.uleb128 0x3
 3232 0233 0E       		.uleb128 0xe
 3233 0234 3A       		.uleb128 0x3a
 3234 0235 0B       		.uleb128 0xb
 3235 0236 3B       		.uleb128 0x3b
 3236 0237 0B       		.uleb128 0xb
 3237 0238 49       		.uleb128 0x49
 3238 0239 13       		.uleb128 0x13
 3239 023a 3C       		.uleb128 0x3c
 3240 023b 19       		.uleb128 0x19
 3241 023c 00       		.byte	0
 3242 023d 00       		.byte	0
 3243 023e 00       		.byte	0
 3244              		.section	.debug_loc,"",%progbits
 3245              	.Ldebug_loc0:
 3246              	.LLST0:
 3247 0000 00000000 		.4byte	.LVL0
 3248 0004 4C000000 		.4byte	.LVL2
 3249 0008 0200     		.2byte	0x2
 3250 000a 30       		.byte	0x30
 3251 000b 9F       		.byte	0x9f
 3252 000c 00000000 		.4byte	0
 3253 0010 00000000 		.4byte	0
 3254              	.LLST1:
 3255 0014 9C000000 		.4byte	.LVL10
 3256 0018 B9000000 		.4byte	.LVL11-1
 3257 001c 1800     		.2byte	0x18
 3258 001e 03       		.byte	0x3
 3259 001f 00000000 		.4byte	SDA_rx_data
 3260 0023 94       		.byte	0x94
 3261 0024 01       		.byte	0x1
 3262 0025 08       		.byte	0x8
ARM GAS  /tmp/ccF5nXKa.s 			page 86


 3263 0026 FF       		.byte	0xff
 3264 0027 1A       		.byte	0x1a
 3265 0028 38       		.byte	0x38
 3266 0029 24       		.byte	0x24
 3267 002a 03       		.byte	0x3
 3268 002b 01000000 		.4byte	SDA_rx_data+1
 3269 002f 94       		.byte	0x94
 3270 0030 01       		.byte	0x1
 3271 0031 08       		.byte	0x8
 3272 0032 FF       		.byte	0xff
 3273 0033 1A       		.byte	0x1a
 3274 0034 21       		.byte	0x21
 3275 0035 9F       		.byte	0x9f
 3276 0036 00000000 		.4byte	0
 3277 003a 00000000 		.4byte	0
 3278              		.section	.debug_aranges,"",%progbits
 3279 0000 1C000000 		.4byte	0x1c
 3280 0004 0200     		.2byte	0x2
 3281 0006 00000000 		.4byte	.Ldebug_info0
 3282 000a 04       		.byte	0x4
 3283 000b 00       		.byte	0
 3284 000c 0000     		.2byte	0
 3285 000e 0000     		.2byte	0
 3286 0010 00000000 		.4byte	.LFB219
 3287 0014 C8000000 		.4byte	.LFE219-.LFB219
 3288 0018 00000000 		.4byte	0
 3289 001c 00000000 		.4byte	0
 3290              		.section	.debug_ranges,"",%progbits
 3291              	.Ldebug_ranges0:
 3292 0000 00000000 		.4byte	.LFB219
 3293 0004 C8000000 		.4byte	.LFE219
 3294 0008 00000000 		.4byte	0
 3295 000c 00000000 		.4byte	0
 3296              		.section	.debug_line,"",%progbits
 3297              	.Ldebug_line0:
 3298 0000 75030000 		.section	.debug_str,"MS",%progbits,1
 3298      02003403 
 3298      00000201 
 3298      FB0E0D00 
 3298      01010101 
 3299              	.LASF43:
 3300 0000 63685F74 		.ascii	"ch_threads_list\000"
 3300      68726561 
 3300      64735F6C 
 3300      69737400 
 3301              	.LASF97:
 3302 0010 6576656E 		.ascii	"event_listener_t\000"
 3302      745F6C69 
 3302      7374656E 
 3302      65725F74 
 3302      00
 3303              	.LASF168:
 3304 0021 53657269 		.ascii	"SerialDriver\000"
 3304      616C4472 
 3304      69766572 
 3304      00
 3305              	.LASF192:
ARM GAS  /tmp/ccF5nXKa.s 			page 87


 3306 002e 69326366 		.ascii	"i2cfg1\000"
 3306      673100
 3307              	.LASF90:
 3308 0035 77746D74 		.ascii	"wtmtxp\000"
 3308      787000
 3309              	.LASF80:
 3310 003c 72656761 		.ascii	"regarm_t\000"
 3310      726D5F74 
 3310      00
 3311              	.LASF99:
 3312 0045 6C697374 		.ascii	"listener\000"
 3312      656E6572 
 3312      00
 3313              	.LASF102:
 3314 004e 6576656E 		.ascii	"event_source\000"
 3314      745F736F 
 3314      75726365 
 3314      00
 3315              	.LASF32:
 3316 005b 666C6167 		.ascii	"flags\000"
 3316      7300
 3317              	.LASF23:
 3318 0061 73797374 		.ascii	"systime_t\000"
 3318      696D655F 
 3318      7400
 3319              	.LASF38:
 3320 006b 7265616C 		.ascii	"realprio\000"
 3320      7072696F 
 3320      00
 3321              	.LASF120:
 3322 0074 696F5F71 		.ascii	"io_queue_t\000"
 3322      75657565 
 3322      5F7400
 3323              	.LASF137:
 3324 007f 4932435F 		.ascii	"I2C_ACTIVE_RX\000"
 3324      41435449 
 3324      56455F52 
 3324      5800
 3325              	.LASF36:
 3326 008d 6570656E 		.ascii	"epending\000"
 3326      64696E67 
 3326      00
 3327              	.LASF0:
 3328 0096 756E7369 		.ascii	"unsigned int\000"
 3328      676E6564 
 3328      20696E74 
 3328      00
 3329              	.LASF44:
 3330 00a3 6E657874 		.ascii	"next\000"
 3330      00
 3331              	.LASF154:
 3332 00a8 49324344 		.ascii	"I2CDriver\000"
 3332      72697665 
 3332      7200
 3333              	.LASF145:
 3334 00b2 6932636F 		.ascii	"i2copmode_t\000"
 3334      706D6F64 
ARM GAS  /tmp/ccF5nXKa.s 			page 88


 3334      655F7400 
 3335              	.LASF41:
 3336 00be 74687265 		.ascii	"threads_list_t\000"
 3336      6164735F 
 3336      6C697374 
 3336      5F7400
 3337              	.LASF127:
 3338 00cd 715F7264 		.ascii	"q_rdptr\000"
 3338      70747200 
 3339              	.LASF33:
 3340 00d5 72656673 		.ascii	"refs\000"
 3340      00
 3341              	.LASF130:
 3342 00da 716E6F74 		.ascii	"qnotify_t\000"
 3342      6966795F 
 3342      7400
 3343              	.LASF100:
 3344 00e4 6576656E 		.ascii	"events\000"
 3344      747300
 3345              	.LASF70:
 3346 00eb 434D4152 		.ascii	"CMAR\000"
 3346      00
 3347              	.LASF190:
 3348 00f0 2F686F6D 		.ascii	"/home/julian/MEGA/semestre_ix/Crasby/ChibiOS_17.6.2"
 3348      652F6A75 
 3348      6C69616E 
 3348      2F4D4547 
 3348      412F7365 
 3349 0123 2F64656D 		.ascii	"/demos/STM32/RT3-STM32F100-DISCOVERY\000"
 3349      6F732F53 
 3349      544D3332 
 3349      2F525433 
 3349      2D53544D 
 3350              	.LASF86:
 3351 0148 77746F62 		.ascii	"wtobjp\000"
 3351      6A7000
 3352              	.LASF65:
 3353 014f 76746C69 		.ascii	"vtlist\000"
 3353      737400
 3354              	.LASF189:
 3355 0156 2E2F7573 		.ascii	"./userlib/src/SFR02main.c\000"
 3355      65726C69 
 3355      622F7372 
 3355      632F5346 
 3355      5230326D 
 3356              	.LASF71:
 3357 0170 444D415F 		.ascii	"DMA_Channel_TypeDef\000"
 3357      4368616E 
 3357      6E656C5F 
 3357      54797065 
 3357      44656600 
 3358              	.LASF49:
 3359 0184 63685F72 		.ascii	"ch_ready_list\000"
 3359      65616479 
 3359      5F6C6973 
 3359      7400
 3360              	.LASF55:
ARM GAS  /tmp/ccF5nXKa.s 			page 89


 3361 0192 66756E63 		.ascii	"func\000"
 3361      00
 3362              	.LASF91:
 3363 0197 65776D61 		.ascii	"ewmask\000"
 3363      736B00
 3364              	.LASF47:
 3365 019e 70726576 		.ascii	"prev\000"
 3365      00
 3366              	.LASF46:
 3367 01a3 63685F74 		.ascii	"ch_threads_queue\000"
 3367      68726561 
 3367      64735F71 
 3367      75657565 
 3367      00
 3368              	.LASF186:
 3369 01b4 6932634D 		.ascii	"i2cMasterTransmitTimeout\000"
 3369      61737465 
 3369      72547261 
 3369      6E736D69 
 3369      7454696D 
 3370              	.LASF51:
 3371 01cd 76746675 		.ascii	"vtfunc_t\000"
 3371      6E635F74 
 3371      00
 3372              	.LASF117:
 3373 01d6 77726974 		.ascii	"writet\000"
 3373      657400
 3374              	.LASF68:
 3375 01dd 434E4454 		.ascii	"CNDTR\000"
 3375      5200
 3376              	.LASF60:
 3377 01e3 63685F73 		.ascii	"ch_system_debug\000"
 3377      79737465 
 3377      6D5F6465 
 3377      62756700 
 3378              	.LASF112:
 3379 01f3 42617365 		.ascii	"BaseChannelVMT\000"
 3379      4368616E 
 3379      6E656C56 
 3379      4D5400
 3380              	.LASF78:
 3381 0202 47545052 		.ascii	"GTPR\000"
 3381      00
 3382              	.LASF82:
 3383 0207 706F7274 		.ascii	"port_context\000"
 3383      5F636F6E 
 3383      74657874 
 3383      00
 3384              	.LASF163:
 3385 0214 646D6174 		.ascii	"dmatx\000"
 3385      7800
 3386              	.LASF170:
 3387 021a 69717565 		.ascii	"iqueue\000"
 3387      756500
 3388              	.LASF10:
 3389 0221 75696E74 		.ascii	"uint32_t\000"
 3389      33325F74 
ARM GAS  /tmp/ccF5nXKa.s 			page 90


 3389      00
 3390              	.LASF142:
 3391 022a 4F504D4F 		.ascii	"OPMODE_I2C\000"
 3391      44455F49 
 3391      324300
 3392              	.LASF122:
 3393 0235 715F7761 		.ascii	"q_waiting\000"
 3393      6974696E 
 3393      6700
 3394              	.LASF88:
 3395 023f 73656E74 		.ascii	"sentmsg\000"
 3395      6D736700 
 3396              	.LASF136:
 3397 0247 4932435F 		.ascii	"I2C_ACTIVE_TX\000"
 3397      41435449 
 3397      56455F54 
 3397      5800
 3398              	.LASF20:
 3399 0255 6576656E 		.ascii	"eventmask_t\000"
 3399      746D6173 
 3399      6B5F7400 
 3400              	.LASF114:
 3401 0261 72656164 		.ascii	"read\000"
 3401      00
 3402              	.LASF157:
 3403 0266 6D757465 		.ascii	"mutex\000"
 3403      7800
 3404              	.LASF108:
 3405 026c 73686966 		.ascii	"shift\000"
 3405      7400
 3406              	.LASF169:
 3407 0272 6576656E 		.ascii	"event\000"
 3407      7400
 3408              	.LASF92:
 3409 0278 63685F73 		.ascii	"ch_semaphore\000"
 3409      656D6170 
 3409      686F7265 
 3409      00
 3410              	.LASF107:
 3411 0285 6373656C 		.ascii	"cselr\000"
 3411      7200
 3412              	.LASF18:
 3413 028b 74707269 		.ascii	"tprio_t\000"
 3413      6F5F7400 
 3414              	.LASF53:
 3415 0293 63685F76 		.ascii	"ch_virtual_timer\000"
 3415      69727475 
 3415      616C5F74 
 3415      696D6572 
 3415      00
 3416              	.LASF176:
 3417 02a4 72657375 		.ascii	"result\000"
 3417      6C7400
 3418              	.LASF14:
 3419 02ab 6C6F6E67 		.ascii	"long long unsigned int\000"
 3419      206C6F6E 
 3419      6720756E 
ARM GAS  /tmp/ccF5nXKa.s 			page 91


 3419      7369676E 
 3419      65642069 
 3420              	.LASF110:
 3421 02c2 76656374 		.ascii	"vector\000"
 3421      6F7200
 3422              	.LASF156:
 3423 02c9 6572726F 		.ascii	"errors\000"
 3423      727300
 3424              	.LASF103:
 3425 02d0 6576656E 		.ascii	"event_source_t\000"
 3425      745F736F 
 3425      75726365 
 3425      5F7400
 3426              	.LASF139:
 3427 02df 69326373 		.ascii	"i2cstate_t\000"
 3427      74617465 
 3427      5F7400
 3428              	.LASF22:
 3429 02ea 636E745F 		.ascii	"cnt_t\000"
 3429      7400
 3430              	.LASF153:
 3431 02f0 49324343 		.ascii	"I2CConfig\000"
 3431      6F6E6669 
 3431      6700
 3432              	.LASF94:
 3433 02fa 6F776E65 		.ascii	"owner\000"
 3433      7200
 3434              	.LASF45:
 3435 0300 74687265 		.ascii	"threads_queue_t\000"
 3435      6164735F 
 3435      71756575 
 3435      655F7400 
 3436              	.LASF37:
 3437 0310 6D74786C 		.ascii	"mtxlist\000"
 3437      69737400 
 3438              	.LASF57:
 3439 0318 63685F76 		.ascii	"ch_virtual_timers_list\000"
 3439      69727475 
 3439      616C5F74 
 3439      696D6572 
 3439      735F6C69 
 3440              	.LASF149:
 3441 032f 69326364 		.ascii	"i2cdutycycle_t\000"
 3441      75747963 
 3441      79636C65 
 3441      5F7400
 3442              	.LASF69:
 3443 033e 43504152 		.ascii	"CPAR\000"
 3443      00
 3444              	.LASF141:
 3445 0343 69326366 		.ascii	"i2cflags_t\000"
 3445      6C616773 
 3445      5F7400
 3446              	.LASF24:
 3447 034e 74687265 		.ascii	"thread_t\000"
 3447      61645F74 
 3447      00
ARM GAS  /tmp/ccF5nXKa.s 			page 92


 3448              	.LASF115:
 3449 0357 70757474 		.ascii	"putt\000"
 3449      00
 3450              	.LASF2:
 3451 035c 73697A65 		.ascii	"size_t\000"
 3451      5F7400
 3452              	.LASF84:
 3453 0363 7264796D 		.ascii	"rdymsg\000"
 3453      736700
 3454              	.LASF167:
 3455 036a 73647374 		.ascii	"sdstate_t\000"
 3455      6174655F 
 3455      7400
 3456              	.LASF104:
 3457 0374 5F426F6F 		.ascii	"_Bool\000"
 3457      6C00
 3458              	.LASF155:
 3459 037a 636F6E66 		.ascii	"config\000"
 3459      696700
 3460              	.LASF74:
 3461 0381 4F415231 		.ascii	"OAR1\000"
 3461      00
 3462              	.LASF75:
 3463 0386 4F415232 		.ascii	"OAR2\000"
 3463      00
 3464              	.LASF93:
 3465 038b 63685F6D 		.ascii	"ch_mutex\000"
 3465      75746578 
 3465      00
 3466              	.LASF146:
 3467 0394 5354445F 		.ascii	"STD_DUTY_CYCLE\000"
 3467      44555459 
 3467      5F435943 
 3467      4C4500
 3468              	.LASF152:
 3469 03a3 64757479 		.ascii	"duty_cycle\000"
 3469      5F637963 
 3469      6C6500
 3470              	.LASF79:
 3471 03ae 55534152 		.ascii	"USART_TypeDef\000"
 3471      545F5479 
 3471      70654465 
 3471      6600
 3472              	.LASF128:
 3473 03bc 715F6E6F 		.ascii	"q_notify\000"
 3473      74696679 
 3473      00
 3474              	.LASF188:
 3475 03c5 474E5520 		.ascii	"GNU C 4.8.1 -mcpu=cortex-m3 -mno-thumb-interwork -m"
 3475      4320342E 
 3475      382E3120 
 3475      2D6D6370 
 3475      753D636F 
 3476 03f8 7468756D 		.ascii	"thumb -ggdb -O2 -fomit-frame-pointer -falign-functi"
 3476      62202D67 
 3476      67646220 
 3476      2D4F3220 
ARM GAS  /tmp/ccF5nXKa.s 			page 93


 3476      2D666F6D 
 3477 042b 6F6E733D 		.ascii	"ons=16 -ffunction-sections -fdata-sections -fno-com"
 3477      3136202D 
 3477      6666756E 
 3477      6374696F 
 3477      6E2D7365 
 3478 045e 6D6F6E20 		.ascii	"mon -flto\000"
 3478      2D666C74 
 3478      6F00
 3479              	.LASF182:
 3480 0468 63687072 		.ascii	"chprintf\000"
 3480      696E7466 
 3480      00
 3481              	.LASF129:
 3482 0471 715F6C69 		.ascii	"q_link\000"
 3482      6E6B00
 3483              	.LASF26:
 3484 0478 7072696F 		.ascii	"prio\000"
 3484      00
 3485              	.LASF95:
 3486 047d 63686172 		.ascii	"char\000"
 3486      00
 3487              	.LASF144:
 3488 0482 4F504D4F 		.ascii	"OPMODE_SMBUS_HOST\000"
 3488      44455F53 
 3488      4D425553 
 3488      5F484F53 
 3488      5400
 3489              	.LASF40:
 3490 0494 74687265 		.ascii	"thread_reference_t\000"
 3490      61645F72 
 3490      65666572 
 3490      656E6365 
 3490      5F7400
 3491              	.LASF161:
 3492 04a7 7478646D 		.ascii	"txdmamode\000"
 3492      616D6F64 
 3492      6500
 3493              	.LASF30:
 3494 04b1 77616261 		.ascii	"wabase\000"
 3494      736500
 3495              	.LASF126:
 3496 04b8 715F7772 		.ascii	"q_wrptr\000"
 3496      70747200 
 3497              	.LASF16:
 3498 04c0 74737461 		.ascii	"tstate_t\000"
 3498      74655F74 
 3498      00
 3499              	.LASF111:
 3500 04c9 73746D33 		.ascii	"stm32_dma_stream_t\000"
 3500      325F646D 
 3500      615F7374 
 3500      7265616D 
 3500      5F7400
 3501              	.LASF181:
 3502 04dc 49324344 		.ascii	"I2CD1\000"
 3502      3100
ARM GAS  /tmp/ccF5nXKa.s 			page 94


 3503              	.LASF148:
 3504 04e2 46415354 		.ascii	"FAST_DUTY_CYCLE_16_9\000"
 3504      5F445554 
 3504      595F4359 
 3504      434C455F 
 3504      31365F39 
 3505              	.LASF3:
 3506 04f7 75696E74 		.ascii	"uint8_t\000"
 3506      385F7400 
 3507              	.LASF119:
 3508 04ff 42617365 		.ascii	"BaseChannel\000"
 3508      4368616E 
 3508      6E656C00 
 3509              	.LASF76:
 3510 050b 54524953 		.ascii	"TRISE\000"
 3510      4500
 3511              	.LASF106:
 3512 0511 636D6173 		.ascii	"cmask\000"
 3512      6B00
 3513              	.LASF35:
 3514 0517 6D736771 		.ascii	"msgqueue\000"
 3514      75657565 
 3514      00
 3515              	.LASF42:
 3516 0520 63685F74 		.ascii	"ch_thread\000"
 3516      68726561 
 3516      6400
 3517              	.LASF172:
 3518 052a 75736172 		.ascii	"usart\000"
 3518      7400
 3519              	.LASF59:
 3520 0530 73797374 		.ascii	"system_debug_t\000"
 3520      656D5F64 
 3520      65627567 
 3520      5F7400
 3521              	.LASF12:
 3522 053f 6C6F6E67 		.ascii	"long long int\000"
 3522      206C6F6E 
 3522      6720696E 
 3522      7400
 3523              	.LASF113:
 3524 054d 77726974 		.ascii	"write\000"
 3524      6500
 3525              	.LASF98:
 3526 0553 6576656E 		.ascii	"event_listener\000"
 3526      745F6C69 
 3526      7374656E 
 3526      657200
 3527              	.LASF165:
 3528 0562 53445F53 		.ascii	"SD_STOP\000"
 3528      544F5000 
 3529              	.LASF133:
 3530 056a 4932435F 		.ascii	"I2C_UNINIT\000"
 3530      554E494E 
 3530      495400
 3531              	.LASF19:
 3532 0575 6D73675F 		.ascii	"msg_t\000"
ARM GAS  /tmp/ccF5nXKa.s 			page 95


 3532      7400
 3533              	.LASF118:
 3534 057b 72656164 		.ascii	"readt\000"
 3534      7400
 3535              	.LASF52:
 3536 0581 76697274 		.ascii	"virtual_timer_t\000"
 3536      75616C5F 
 3536      74696D65 
 3536      725F7400 
 3537              	.LASF73:
 3538 0591 444D415F 		.ascii	"DMA_TypeDef\000"
 3538      54797065 
 3538      44656600 
 3539              	.LASF184:
 3540 059d 69326352 		.ascii	"i2cReleaseBus\000"
 3540      656C6561 
 3540      73654275 
 3540      7300
 3541              	.LASF132:
 3542 05ab 6F757470 		.ascii	"output_queue_t\000"
 3542      75745F71 
 3542      75657565 
 3542      5F7400
 3543              	.LASF151:
 3544 05ba 636C6F63 		.ascii	"clock_speed\000"
 3544      6B5F7370 
 3544      65656400 
 3545              	.LASF21:
 3546 05c6 6576656E 		.ascii	"eventflags_t\000"
 3546      74666C61 
 3546      67735F74 
 3546      00
 3547              	.LASF61:
 3548 05d3 70616E69 		.ascii	"panic_msg\000"
 3548      635F6D73 
 3548      6700
 3549              	.LASF147:
 3550 05dd 46415354 		.ascii	"FAST_DUTY_CYCLE_2\000"
 3550      5F445554 
 3550      595F4359 
 3550      434C455F 
 3550      3200
 3551              	.LASF15:
 3552 05ef 746D6F64 		.ascii	"tmode_t\000"
 3552      655F7400 
 3553              	.LASF66:
 3554 05f7 6D61696E 		.ascii	"mainthread\000"
 3554      74687265 
 3554      616400
 3555              	.LASF171:
 3556 0602 6F717565 		.ascii	"oqueue\000"
 3556      756500
 3557              	.LASF166:
 3558 0609 53445F52 		.ascii	"SD_READY\000"
 3558      45414459 
 3558      00
 3559              	.LASF6:
ARM GAS  /tmp/ccF5nXKa.s 			page 96


 3560 0612 75696E74 		.ascii	"uint16_t\000"
 3560      31365F74 
 3560      00
 3561              	.LASF105:
 3562 061b 6368616E 		.ascii	"channel\000"
 3562      6E656C00 
 3563              	.LASF150:
 3564 0623 6F705F6D 		.ascii	"op_mode\000"
 3564      6F646500 
 3565              	.LASF135:
 3566 062b 4932435F 		.ascii	"I2C_READY\000"
 3566      52454144 
 3566      5900
 3567              	.LASF174:
 3568 0635 53657269 		.ascii	"SerialDriverVMT\000"
 3568      616C4472 
 3568      69766572 
 3568      564D5400 
 3569              	.LASF173:
 3570 0645 72786D61 		.ascii	"rxmask\000"
 3570      736B00
 3571              	.LASF5:
 3572 064c 73686F72 		.ascii	"short int\000"
 3572      7420696E 
 3572      7400
 3573              	.LASF101:
 3574 0656 77666C61 		.ascii	"wflags\000"
 3574      677300
 3575              	.LASF9:
 3576 065d 6C6F6E67 		.ascii	"long int\000"
 3576      20696E74 
 3576      00
 3577              	.LASF83:
 3578 0666 706F7274 		.ascii	"port_intctx\000"
 3578      5F696E74 
 3578      63747800 
 3579              	.LASF140:
 3580 0672 69326361 		.ascii	"i2caddr_t\000"
 3580      6464725F 
 3580      7400
 3581              	.LASF180:
 3582 067c 49544D5F 		.ascii	"ITM_RxBuffer\000"
 3582      52784275 
 3582      66666572 
 3582      00
 3583              	.LASF138:
 3584 0689 4932435F 		.ascii	"I2C_LOCKED\000"
 3584      4C4F434B 
 3584      454400
 3585              	.LASF175:
 3586 0694 73746174 		.ascii	"status\000"
 3586      757300
 3587              	.LASF63:
 3588 069b 63685F73 		.ascii	"ch_system\000"
 3588      79737465 
 3588      6D00
 3589              	.LASF179:
ARM GAS  /tmp/ccF5nXKa.s 			page 97


 3590 06a5 5344415F 		.ascii	"SDA_value\000"
 3590      76616C75 
 3590      6500
 3591              	.LASF58:
 3592 06af 6C617374 		.ascii	"lasttime\000"
 3592      74696D65 
 3592      00
 3593              	.LASF13:
 3594 06b8 75696E74 		.ascii	"uint64_t\000"
 3594      36345F74 
 3594      00
 3595              	.LASF64:
 3596 06c1 726C6973 		.ascii	"rlist\000"
 3596      7400
 3597              	.LASF191:
 3598 06c7 53667230 		.ascii	"Sfr02Start\000"
 3598      32537461 
 3598      727400
 3599              	.LASF131:
 3600 06d2 696E7075 		.ascii	"input_queue_t\000"
 3600      745F7175 
 3600      6575655F 
 3600      7400
 3601              	.LASF29:
 3602 06e0 6E616D65 		.ascii	"name\000"
 3602      00
 3603              	.LASF164:
 3604 06e5 53445F55 		.ascii	"SD_UNINIT\000"
 3604      4E494E49 
 3604      5400
 3605              	.LASF123:
 3606 06ef 715F636F 		.ascii	"q_counter\000"
 3606      756E7465 
 3606      7200
 3607              	.LASF116:
 3608 06f9 67657474 		.ascii	"gett\000"
 3608      00
 3609              	.LASF187:
 3610 06fe 6932634D 		.ascii	"i2cMasterReceiveTimeout\000"
 3610      61737465 
 3610      72526563 
 3610      65697665 
 3610      54696D65 
 3611              	.LASF125:
 3612 0716 715F746F 		.ascii	"q_top\000"
 3612      7000
 3613              	.LASF67:
 3614 071c 73697A65 		.ascii	"sizetype\000"
 3614      74797065 
 3614      00
 3615              	.LASF17:
 3616 0725 74726566 		.ascii	"trefs_t\000"
 3616      735F7400 
 3617              	.LASF11:
 3618 072d 6C6F6E67 		.ascii	"long unsigned int\000"
 3618      20756E73 
 3618      69676E65 
ARM GAS  /tmp/ccF5nXKa.s 			page 98


 3618      6420696E 
 3618      7400
 3619              	.LASF48:
 3620 073f 72656164 		.ascii	"ready_list_t\000"
 3620      795F6C69 
 3620      73745F74 
 3620      00
 3621              	.LASF25:
 3622 074c 71756575 		.ascii	"queue\000"
 3622      6500
 3623              	.LASF8:
 3624 0752 696E7433 		.ascii	"int32_t\000"
 3624      325F7400 
 3625              	.LASF143:
 3626 075a 4F504D4F 		.ascii	"OPMODE_SMBUS_DEVICE\000"
 3626      44455F53 
 3626      4D425553 
 3626      5F444556 
 3626      49434500 
 3627              	.LASF158:
 3628 076e 74687265 		.ascii	"thread\000"
 3628      616400
 3629              	.LASF134:
 3630 0775 4932435F 		.ascii	"I2C_STOP\000"
 3630      53544F50 
 3630      00
 3631              	.LASF96:
 3632 077e 6D757465 		.ascii	"mutex_t\000"
 3632      785F7400 
 3633              	.LASF27:
 3634 0786 6E657765 		.ascii	"newer\000"
 3634      7200
 3635              	.LASF4:
 3636 078c 756E7369 		.ascii	"unsigned char\000"
 3636      676E6564 
 3636      20636861 
 3636      7200
 3637              	.LASF183:
 3638 079a 69326341 		.ascii	"i2cAcquireBus\000"
 3638      63717569 
 3638      72654275 
 3638      7300
 3639              	.LASF34:
 3640 07a8 77616974 		.ascii	"waiting\000"
 3640      696E6700 
 3641              	.LASF56:
 3642 07b0 76697274 		.ascii	"virtual_timers_list_t\000"
 3642      75616C5F 
 3642      74696D65 
 3642      72735F6C 
 3642      6973745F 
 3643              	.LASF160:
 3644 07c6 7278646D 		.ascii	"rxdmamode\000"
 3644      616D6F64 
 3644      6500
 3645              	.LASF77:
 3646 07d0 4932435F 		.ascii	"I2C_TypeDef\000"
ARM GAS  /tmp/ccF5nXKa.s 			page 99


 3646      54797065 
 3646      44656600 
 3647              	.LASF185:
 3648 07dc 63685468 		.ascii	"chThdSleep\000"
 3648      64536C65 
 3648      657000
 3649              	.LASF159:
 3650 07e7 61646472 		.ascii	"addr\000"
 3650      00
 3651              	.LASF162:
 3652 07ec 646D6172 		.ascii	"dmarx\000"
 3652      7800
 3653              	.LASF31:
 3654 07f2 73746174 		.ascii	"state\000"
 3654      6500
 3655              	.LASF178:
 3656 07f8 5344415F 		.ascii	"SDA_tx_data\000"
 3656      74785F64 
 3656      61746100 
 3657              	.LASF62:
 3658 0804 63685F73 		.ascii	"ch_system_t\000"
 3658      79737465 
 3658      6D5F7400 
 3659              	.LASF89:
 3660 0810 77747365 		.ascii	"wtsemp\000"
 3660      6D7000
 3661              	.LASF87:
 3662 0817 77747472 		.ascii	"wttrp\000"
 3662      7000
 3663              	.LASF1:
 3664 081d 7369676E 		.ascii	"signed char\000"
 3664      65642063 
 3664      68617200 
 3665              	.LASF54:
 3666 0829 64656C74 		.ascii	"delta\000"
 3666      6100
 3667              	.LASF121:
 3668 082f 696F5F71 		.ascii	"io_queue\000"
 3668      75657565 
 3668      00
 3669              	.LASF7:
 3670 0838 73686F72 		.ascii	"short unsigned int\000"
 3670      7420756E 
 3670      7369676E 
 3670      65642069 
 3670      6E7400
 3671              	.LASF81:
 3672 084b 73746B61 		.ascii	"stkalign_t\000"
 3672      6C69676E 
 3672      5F7400
 3673              	.LASF72:
 3674 0856 49464352 		.ascii	"IFCR\000"
 3674      00
 3675              	.LASF50:
 3676 085b 63757272 		.ascii	"current\000"
 3676      656E7400 
 3677              	.LASF177:
ARM GAS  /tmp/ccF5nXKa.s 			page 100


 3678 0863 5344415F 		.ascii	"SDA_rx_data\000"
 3678      72785F64 
 3678      61746100 
 3679              	.LASF28:
 3680 086f 6F6C6465 		.ascii	"older\000"
 3680      7200
 3681              	.LASF85:
 3682 0875 65786974 		.ascii	"exitcode\000"
 3682      636F6465 
 3682      00
 3683              	.LASF109:
 3684 087e 73656C66 		.ascii	"selfindex\000"
 3684      696E6465 
 3684      7800
 3685              	.LASF124:
 3686 0888 715F6275 		.ascii	"q_buffer\000"
 3686      66666572 
 3686      00
 3687              	.LASF39:
 3688 0891 6D706F6F 		.ascii	"mpool\000"
 3688      6C00
 3689              		.comm	__gnu_lto_v1,1,1
 3690              		.ident	"GCC: (Sourcery CodeBench Lite 2013.11-24) 4.8.1"
ARM GAS  /tmp/ccF5nXKa.s 			page 101


DEFINED SYMBOLS
                            *ABS*:00000000 SFR02main.c
     /tmp/ccF5nXKa.s:460    .text.Sfr02Start:00000000 $t
     /tmp/ccF5nXKa.s:466    .text.Sfr02Start:00000000 Sfr02Start
     /tmp/ccF5nXKa.s:617    .bss.SDA_tx_data:00000000 .LANCHOR0
     /tmp/ccF5nXKa.s:606    .bss.SDA_value:00000000 .LANCHOR1
     /tmp/ccF5nXKa.s:599    .bss.SDA_rx_data:00000000 .LANCHOR2
     /tmp/ccF5nXKa.s:613    .rodata.str1.4:00000000 .LC0
     /tmp/ccF5nXKa.s:598    .bss.SDA_rx_data:00000000 $d
     /tmp/ccF5nXKa.s:602    .bss.SDA_rx_data:00000000 SDA_rx_data
     /tmp/ccF5nXKa.s:605    .bss.SDA_value:00000000 $d
     /tmp/ccF5nXKa.s:609    .bss.SDA_value:00000000 SDA_value
     /tmp/ccF5nXKa.s:612    .rodata.str1.4:00000000 $d
     /tmp/ccF5nXKa.s:616    .bss.SDA_tx_data:00000000 $d
     /tmp/ccF5nXKa.s:620    .bss.SDA_tx_data:00000000 SDA_tx_data
                            *COM*:00000001 __gnu_lto_v1
                     .debug_frame:00000010 $d

UNDEFINED SYMBOLS
I2CD1
i2cAcquireBus
i2cMasterTransmitTimeout
i2cReleaseBus
chThdSleep
i2cMasterReceiveTimeout
SD2
chprintf
