ARM GAS  /tmp/ccCZcsMQ.s 			page 1


   1              		.syntax unified
   2              		.cpu cortex-m3
   3              		.fpu softvfp
   4              		.eabi_attribute 20, 1
   5              		.eabi_attribute 21, 1
   6              		.eabi_attribute 23, 3
   7              		.eabi_attribute 24, 1
   8              		.eabi_attribute 25, 1
   9              		.eabi_attribute 26, 1
  10              		.eabi_attribute 30, 2
  11              		.eabi_attribute 34, 1
  12              		.eabi_attribute 18, 4
  13              		.thumb
  14              		.file	"test_sequence_004.c"
  15              		.text
  16              	.Ltext0:
  17              		.section	.gnu.lto_.jmpfuncs.331f4bc9a8229f66,"",%progbits
  18 0000 789C6362 		.ascii	"x\234cb`b\300\006L\031\031\030,\2014\013\003\003\023"
  18      6062C006 
  18      4C191918 
  18      2C81340B 
  18      030313
  19 0013 2390CDC0 		.ascii	"#\220\315\300\304T\315\360\253\241\243A \223\221!\227"
  19      C454CDF0 
  19      ABA1A341 
  19      20939121 
  19      97
  20 0024 11AC8629 		.ascii	"\021\254\206)\2021\023,\307\214[\232\351\005;X\036\310"
  20      8231132C 
  20      C78C5B9A 
  20      E9053B58 
  20      1EC8
  21 0036 05299801 		.ascii	"\005)\230\001R\300,\307\3008\267a\206C&#\013D!\262$"
  21      52C02CC7 
  21      C038B761 
  21      86432623 
  21      0B4421B2 
  22 004b AB1C8328 		.ascii	"\253\034\203(D\222\015S\222]\216A\036\"\311\001\226"
  22      44920D53 
  22      925D8E41 
  22      1E22C901 
  22      96
  23 005c 6425208F 		.ascii	"d% \217\337d\\N\376\377\237\031b4\210\307y\202\011\356"
  23      DF645C4E 
  23      FEFF9F19 
  23      623488C7 
  23      798209EE 
  24 0070 7AB05AAE 		.ascii	"z\260Z\256d\250Z\270\301\334r\014\346\020\203y \201"
  24      64A85AB8 
  24      C1DC720C 
  24      E6108379 
  24      2081
  25 0082 279C5F5A 		.ascii	"'\234_Z\242\220\237\246P\222\231\233\252P\236\231\227"
  25      A2909FA6 
  25      5092999B 
  25      AA509E99 
  25      97
ARM GAS  /tmp/ccCZcsMQ.s 			page 2


  26 0093 925FCEC0 		.ascii	"\222_\316\300\231\227_\242\340\027\352\343\303 ^^\224"
  26      99975FA2 
  26      E017EAE3 
  26      C3205E5E 
  26      94
  27 00a4 9F97AE50 		.ascii	"\237\227\256P\224ZRZ\224\227\232\242\220\233Z\\\234"
  27      945A525A 
  27      94979AA2 
  27      909B5A5C 
  27      9C
  28 00b5 989ECAC0 		.ascii	"\230\236\312\300\344\310\000\000\234\273N\331"
  28      E4C80000 
  28      9CBB4ED9 
  29              		.text
  30              		.section	.gnu.lto_.inline.331f4bc9a8229f66,"",%progbits
  31 0000 789C6362 		.ascii	"x\234cb`b\300\0066Ai\026 bfd`b\272\300\317\300\266@"
  31      6062C006 
  31      36416916 
  31      20626664 
  31      6062BAC0 
  32 0018 1EAC9889 		.ascii	"\036\254\230\211\201G\015(\304\332\241\316\300\336\241"
  32      81470D28 
  32      C4DAA1CE 
  32      C0DEA1
  33 0027 0E11E266 		.ascii	"\016\021\342f``\234\340\307\310\005d3\363\200\22400"
  33      60609CE0 
  33      C7C80564 
  33      33F38094 
  33      3030
  34 0039 33285A00 		.ascii	"3(Z\000UI]\233\316\010\327\011\226g\341\005\313\263"
  34      55495D9B 
  34      CE08D709 
  34      9667E105 
  34      CBB3
  35 004b F201D54C 		.ascii	"\362\001\325L\360\233\340\007\021\000\322`\215@\232"
  35      F09BE007 
  35      1100D260 
  35      8D409A
  36 005a 9541ED00 		.ascii	"\225A\355\000\003P\253\334\275\263\330\264\"\351\200"
  36      0350ABDC 
  36      BDB3D8B4 
  36      22E980
  37 0069 1AC52E00 		.ascii	"\032\305.\0004\016\310\005\"\006\006\000hZ\022\355"
  37      340EC805 
  37      22060600 
  37      685A12ED 
  38              		.text
  39              		.section	.gnu.lto_.pureconst.331f4bc9a8229f66,"",%progbits
  40 0000 789C6362 		.ascii	"x\234cb`b\340d\200\000\026\006\011&+f+V+\000\003\366"
  40      6062E064 
  40      80001606 
  40      09262B66 
  40      2B562B00 
  41 0016 00E2     		.ascii	"\000\342"
  42              		.text
  43              		.section	.gnu.lto_test_004_001_setup.331f4bc9a8229f66,"",%progbits
  44 0000 789C6362 		.ascii	"x\234cb`b@\007\222@<\001\210\215\201\230\221\231\201"
ARM GAS  /tmp/ccCZcsMQ.s 			page 3


  44      60624007 
  44      92403C01 
  44      888D8198 
  44      919981
  45 0013 9169C239 		.ascii	"\221i\3029\006\206F\016&FF\020\203\201\221\241\236\211"
  45      0686460E 
  45      26464610 
  45      838191A1 
  45      9E89
  46 0025 B13E9211 		.ascii	"\261>\222\021\254v=\323\201\007\377\377\257\333\322"
  46      AC763DD3 
  46      8107FFFF 
  46      AFDBD2
  47 0034 B6FC0CE3 		.ascii	"\266\374\014\343L&f\240\010+CKC\303\004\005\006\206"
  47      4C2666A0 
  47      082B434B 
  47      43C30405 
  47      0686
  48 0046 64B08A10 		.ascii	"d\260\212\020 \011\322\026\312\310\004\242\231\3172"
  48      2009D216 
  48      CAC804A2 
  48      99CF32
  49 0055 34EDF8F1 		.ascii	"4\355\370\361\314\"\221q!#+\303l\206Y\215\015\015\002"
  49      CC229171 
  49      21232BC3 
  49      6C86598D 
  49      0D0D02
  50 0068 998C0CD5 		.ascii	"\231\214\014\325\014\277\032:@,\306\\\260\266\010F "
  50      0CBF1A3A 
  50      402CC65C 
  50      B0B60846 
  50      20
  51 0079 9301C602 		.ascii	"\223\001\306\0023.24>\230\243\014\321\010\003!@E@SA"
  51      332E3234 
  51      3E98A30C 
  51      D1080321 
  51      40454053 
  52 008e 7E30D4D3 		.ascii	"~0\324\323\323\207\240\222\324\342\022\375\242\022\375"
  52      D387A092 
  52      D4E212FD 
  52      A212FD
  53 009d E2FCD2A2 		.ascii	"\342\374\322\242\344T\010\027D\304\027\247\026\226\246"
  53      E4540817 
  53      44C417A7 
  53      1696A6
  54 00ac E625A7C6 		.ascii	"\346%\247\306\033\030\230\350%3\000\000\306\2027\323"
  54      1B1898E8 
  54      25330000 
  54      C68237D3 
  55              		.text
  56              		.section	.gnu.lto_thread1.331f4bc9a8229f66,"",%progbits
  57 0000 789C8552 		.ascii	"x\234\205RMh\023A\024~o6\177\032+\275*\222\206\202\340"
  57      4D681341 
  57      147E6F36 
  57      7F1A2BBD 
  57      2A928682 
  58 0015 41332914 		.ascii	"A3)\024\274I\245'\017\2714U\364\024\266\343\320\014"
ARM GAS  /tmp/ccCZcsMQ.s 			page 4


  58      BC49A527 
  58      0FB93455 
  58      F414B6E3 
  58      D00C
  59 0027 76B37537 		.ascii	"v\263u7)-=t\233\264\240\267R\020\304R\244\212BQT\360"
  59      292D3D74 
  59      9BB4A0B7 
  59      5210C452 
  59      A48A4251 
  60 003d 223DC55B 		.ascii	"\"=\305[\2134\"E\320\223\301\223\222\2237\361\022\337"
  60      8B342245 
  60      D093C193 
  60      929337F1 
  60      12DF
  61 004f EC26DBA6 		.ascii	"\354&\333\246-:\354\314\274y\357}\357{\363\3152`px\234"
  61      2D3AECCC 
  61      BC79EF7D 
  61      EF7BF3CD 
  61      32607078 
  62 0064 A1B94DEE 		.ascii	"\241\271M\356\317\264\243\001\310V\032\000\213\011\206"
  62      CFB4A301 
  62      C8561A00 
  62      8B0986
  63 0073 A80D4058 		.ascii	"\250\015@X`\270p\013\375\334\327\254\336l\267_\275{"
  63      60B8700B 
  63      FDDCD7AC 
  63      DE6CB75F 
  63      BD7B
  64 0085 F6FD0E26 		.ascii	"\366\375\016&ch!\304A\371\241(,y\336J\032@\370\307q"
  64      636821C4 
  64      41F9A128 
  64      2C79DE4A 
  64      1A40F8C7 
  65 009a 5A35FC3A 		.ascii	"Z5\374:2\275\033;PM\000\014\302\206\347\2556\277n\356"
  65      32BD1B3B 
  65      504D000C 
  65      C286E7AD 
  65      36BF6EEE 
  66 00ae BEC7D59A 		.ascii	"\276\307\325\232\267\355-\325\333m\034PHY\023\250\241"
  66      B7ED2DD5 
  66      DB6D1C50 
  66      485913A8 
  66      A1
  67 00bf 3751214B 		.ascii	"7Q!K\373\233\021\351\355S\373\220\010\240\001\325__"
  67      FB9B11E9 
  67      ED53FB90 
  67      08A001D5 
  67      5F5F
  68 00d1 6ACFCF86 		.ascii	"j\317\317\206\224\201Q\177\273\267f\\0\361\011\016\206"
  68      9481517F 
  68      BBB7665C 
  68      30F1090E 
  68      86
  69 00e2 FDD45B0F 		.ascii	"\375\324[\017~'\317\205\247\373\034\300\304\015\214"
  69      7E27CF85 
  69      A7FB1CC0 
  69      C40D8C
ARM GAS  /tmp/ccCZcsMQ.s 			page 5


  70 00f1 1295A663 		.ascii	"\022\225\246c4\015\360/\211\260E&\311`\004\022\245\340"
  70      340DF02F 
  70      89B04526 
  70      C9600412 
  70      A5E0
  71 0103 03AE7B0F 		.ascii	"\003\256{\017G\024Fz\310\367\343\215N<\032\264\367\021"
  71      4714467A 
  71      C8F7E38D 
  71      4E3C1AB4 
  71      F711
  72 0115 969BDFAE 		.ascii	"\226\233\337\256\004\325\001\346\341\217w\317\353W\030"
  72      04D501E6 
  72      E18F77CF 
  72      EB5718
  73 0124 134101DF 		.ascii	"\023A\001\337\223P\030\267\020;I\272&\211\242\360\204"
  73      935018B7 
  73      103B49BA 
  73      2689A2F0 
  73      84
  74 0135 46D79A3F 		.ascii	"F\327\232?n\034A\237\024\235\362\012\223\000\275\"\376"
  74      6E1C419F 
  74      149DF20A 
  74      9300BD22 
  74      FE
  75 0146 6C1C16D1 		.ascii	"l\034\026\321\304\247\376\225\376\253\"\374K\305\326"
  75      C4A7FE95 
  75      FEAB22FC 
  75      4BC5D6
  76 0155 BA56F14D 		.ascii	"\272V\361M\257\212\217\373R\007\336\270\343\336\031"
  76      AF8A8FFB 
  76      5207DEB8 
  76      E3DE19
  77 0164 DE9733A6 		.ascii	"\336\2273\246k\012\214\037\243\250\211\233d\204\304"
  77      6B0A8C1F 
  77      A3A8899B 
  77      6484C4
  78 0173 5D054D7C 		.ascii	"]\005M|\211\251\240\251]\250n-\277\330cA\261I\214\257"
  78      89A9A0A9 
  78      5DA86E2D 
  78      BFD86341 
  78      B1498CAF 
  79 0187 C1234A27 		.ascii	"\301#J'+\246a\247\240+q\344\210B}BkH\203P\012O\003|"
  79      2BA661A7 
  79      A02B71E4 
  79      88427D42 
  79      6B488350 
  80 019f 82C5668B 		.ascii	"\202\305f\213u\363\2021N\314\364\027j\332\241L\206\007"
  80      75F38231 
  80      4ECCF417 
  80      6ADAA14C 
  80      8607
  81 01b1 5F59BA65 		.ascii	"_Y\272e\356\224\271kW\034!\203\243^\012\256\274[\221"
  81      EE94B96B 
  81      571C2183 
  81      A35E0AAE 
  81      BC5B91
  82 01c4 25210BD9 		.ascii	"%!\013\331\354pF\300\245\020a\273\\\330\226e\227\370"
ARM GAS  /tmp/ccCZcsMQ.s 			page 6


  82      EC7046C0 
  82      A51061BB 
  82      5CD89665 
  82      97F8
  83 01d6 B4ED945D 		.ascii	"\264\355\224]~u,7\232\233\345\242(lG\026f.[\231\"Dg"
  83      7E752C37 
  83      9A9BE5A2 
  83      286C4716 
  83      662E5B99 
  84 01ed CCA98A1C 		.ascii	"\314\251\212\034:\006#g\313|4\227\277\226\347\252$\246"
  84      3A062367 
  84      CB7C3497 
  84      BF96E7AA 
  84      24A6
  85 01ff 2AB72517 		.ascii	"*\267%\027\226\253\334\302\244\020\204\0338\210\240"
  85      96ABDCC2 
  85      A410841B 
  85      3888A0
  86 020e AEC29CA2 		.ascii	"\256\302\234\242;\347R\274?\227\037KO\230\256\234v\324"
  86      3BE752BC 
  86      3F971F4B 
  86      4F98AE9C 
  86      76D4
  87 0220 C5F4F92C 		.ascii	"\305\364\371,0\007\342\226\264lg\016\376\002\011\"\345"
  87      3007E296 
  87      B46C670E 
  87      FE020922 
  87      E5
  88 0231 C4       		.ascii	"\304"
  89              		.text
  90              		.section	.gnu.lto_test_004_001_execute.part.0.331f4bc9a8229f66,"",%progbits
  91 0000 789C8D55 		.ascii	"x\234\215U]h\034U\024>gfg\177\22346\255Mb\335\216\005"
  91      5D681C55 
  91      143E6766 
  91      677F9334 
  91      36AD4D62 
  92 0017 9FD44C62 		.ascii	"\237\324Lb\013\372\"(\365%\220\365\241I@\237\302t2n"
  92      0BFA2228 
  92      F52590F5 
  92      A149409F 
  92      C274326E 
  93 002b 06B23BED 		.ascii	"\006\262;\355\314n\322\342C\356fc\211XJ\010\242\245"
  93      CC6ED2E2 
  93      43EE6663 
  93      89584A08 
  93      A2A5
  94 003d 259850AA 		.ascii	"%\230P\252V\252\205 \330\006\305E1\030\245\011}\320"
  94      56AA8520 
  94      D806C545 
  94      3118A509 
  94      7DD0
  95 004f 874A6115 		.ascii	"\207Ja\0254\021\253\255\2124Jq=w\376v\263D\223\273;"
  95      3411ABAD 
  95      8A344A71 
  95      3D77FE76 
  95      B34493BB 
  96 0064 77EEB9E7 		.ascii	"w\356\271\347\347~\347;\347\356\012 @\375\350\246g>"
ARM GAS  /tmp/ccCZcsMQ.s 			page 7


  96      E77EE73B 
  96      E7EE0A20 
  96      40FDE8A6 
  96      673E
  97 0076 0C308300 		.ascii	"\0140\203\000\030\001\014O-\323\"\214\202\363\026\004"
  97      18010C4F 
  97      2DD3228C 
  97      82F31604 
  98 0086 E91B0558 		.ascii	"\351\033\005X\\\\H\002k\020=)\344H!\224\270M!*!\362"
  98      5C5C4802 
  98      6B103D29 
  98      E4482194 
  98      B84D212A 
  99 009c 05208C85 		.ascii	"\005 \214\205\0051$\341\330\013\310CK\373a\216\261\263"
  99      053124E1 
  99      D80BC843 
  99      4BFB618E 
  99      B1B3
 100 00ae E5CF57D7 		.ascii	"\345\317W\327\360\314k\245\361Yv\257RA4\270RCx\236V"
 100      F0CC6BA5 
 100      F15976AF 
 100      524134B8 
 100      5243789E 
 101 00c3 D8ECBC84 		.ascii	"\330\354\274\204:\\\256#\233\177\207\305\034'\321@\261"
 101      3A5CAE23 
 101      9B7F87C5 
 101      1C27D140 
 101      B1
 102 00d4 EA23BB3E 		.ascii	"\352#\273>\241M|\246J\327\027O\265\261\331\361)\366"
 102      A14D7CA6 
 102      4AD7174F 
 102      B5B1D9F1 
 102      29F6
 103 00e6 0F9D6560 		.ascii	"\017\235e`H\200\203\270\035\317\351\322'\213\247[\331"
 103      488083B8 
 103      1DCFE9D2 
 103      278BA75B 
 103      D9
 104 00f7 6CC1F724 		.ascii	"l\301\367$\256\236\304\355\340\234.\335]\374r\016\331"
 104      AE9EC4ED 
 104      E09C2EDD 
 104      5DFC720E 
 104      D9
 105 0108 342BDCA9 		.ascii	"4+\334\251Tv\030(\011\360\324Vg^\026X\271R\371\353n"
 105      54761828 
 105      09F0D456 
 105      675E1658 
 105      B952F9EB 
 106 011d 74378281 		.ascii	"t7\202\201a\201&\020A\305\363\270\037B$D$>\205i\212"
 106      61812610 
 106      41C5F3B8 
 106      1F422444 
 106      243E8569 
 107 0132 4668FB6D 		.ascii	"Fh\373m\332\216r!\306\2478\2378\3010A)\313*^ \265\353"
 107      DA8E7221 
 107      C6A7389F 
 107      38C13041 
ARM GAS  /tmp/ccCZcsMQ.s 			page 8


 107      29CB2A5E 
 108 0149 EBB044A3 		.ascii	"\353\260D\243\217f^\224>\014\363\267\330\217\202\363"
 108      8F665E94 
 108      3E0CF3B7 
 108      D88F82F3 
 109 0159 5E8162F9 		.ascii	"^\201b\371\343\317\022*^D\211\314^\202\277\331$k60\246"
 109      E3CF122A 
 109      5E4489CC 
 109      5E82BFD9 
 109      246B3630 
 110 016e A1E34791 		.ascii	"\241\343G\221\343\000\327`\374\312\372\357\255\256\325"
 110      E300D760 
 110      FCCAFAEF 
 110      ADAED5
 111 017d 39385B60 		.ascii	"98[`\334&\021X7d\034c\236X\003\370\253\004'g\011\306"
 111      DC261158 
 111      37641C63 
 111      9E5803F8 
 111      AB042767 
 112 0193 A33E2FE5 		.ascii	"\243>/\3457N~\335vi\236\261WJl\275\202\274\212\215\002"
 112      374E7EDD 
 112      76699EB1 
 112      574A6CBD 
 112      82BC8A8D 
 113 01a8 1CDB8A1A 		.ascii	"\034\333\212\032\276\327(\323b\031\306\177\273]|\253"
 113      BED728D3 
 113      6219C67F 
 113      BB5D7CAB 
 114 01b8 DD4BD3CF 		.ascii	"\335K\323\317\267t\371\324BKAR\361='_os\365\365\365"
 114      B774F9D4 
 114      424B4152 
 114      F13D275F 
 114      6F73F5F5 
 115 01cd C4DE40FA 		.ascii	"\304\336@\372\352\307\357\250a\\\374\032\245\256Q\377"
 115      EAC7EFA8 
 115      615CFC1A 
 115      A5AE51FF 
 116 01dd 68E81C84 		.ascii	"h\350\034\204\364Y\"\221\320\212\356}H\302\015\234a"
 116      F4592291 
 116      D08AEE7D 
 116      48C20D9C 
 116      61
 117 01ee 679E36B0 		.ascii	"g\2366\260i\303\371U\375MO\277\303Ex\015>\275\361\321"
 117      69C3F955 
 117      FD4D4FBF 
 117      C345780D 
 117      3EBDF1D1 
 118 0202 1F3F5D9C 		.ascii	"\037?]\234\306zh\253\027\276\025\305@\372\341\322Lc"
 118      C67A68AB 
 118      17BE15C5 
 118      40FAE1D2 
 118      4C63
 119 0214 20BCBA3A 		.ascii	" \274\272:W\003\211?az\"<^\032\361\021x\227M\024\312"
 119      5703893F 
 119      617A223C 
 119      5E1AF111 
 119      78974D14 
ARM GAS  /tmp/ccCZcsMQ.s 			page 9


 120 0229 E75696A7 		.ascii	"\347V\226\2471d`3'}\212S}\037\207\263\223\321\0109\310"
 120      31646033 
 120      277D8A53 
 120      7D1F87B3 
 120      93D10839 
 121 023e 763A088E 		.ascii	"v:\010\216p\376U\274\352\024\221\227\353\327b\223\212"
 121      70FE55BC 
 121      EA149197 
 121      EBD76293 
 121      8A
 122 024f 57484CA3 		.ascii	"WHL\243\220\346\245\244B\334\371\376\352\220{\236\333"
 122      90E6A5A4 
 122      42DCF9FE 
 122      EA907B9E 
 122      DB
 123 0260 217CACC0 		.ascii	"!|\254\300\313\345\225\363aw;\215bP\322\026\315i)\277"
 123      CBE595F3 
 123      61773B8D 
 123      6250D216 
 123      CD6929BF 
 124 0274 25D89881 		.ascii	"%\330\230\201\2732\210^\243\360\223#k\021\352\216\335"
 124      BB32885E 
 124      A3F09323 
 124      6B11EA8E 
 124      DD
 125 0285 4EE8529B 		.ascii	"N\350R\233\037\2307]\232\337\316\272\312\377R_y\025"
 125      1F98375D 
 125      9ADFCEBA 
 125      CAFF525F 
 125      7915
 126 0297 DF770AB1 		.ascii	"\337w\012\261e\351\341\177K\177\323)}ic\351\337lL\006"
 126      65E9E17F 
 126      4B7FD329 
 126      7D6963E9 
 126      DF6C4C06 
 127 02ab B7A14AF8 		.ascii	"\267\241J\370\255\202T%<\006\316\335\210o\322\006*~"
 127      AD825425 
 127      3C06CEDD 
 127      886FD206 
 127      2A7E
 128 02bd 408BE06C 		.ascii	"@\213\340l\277\354*~\210I\277\340\305\311\342\352i\311"
 128      BFEC2A7E 
 128      8849BFE0 
 128      C5C9E2EA 
 128      69C9
 129 02cf A72D442C 		.ascii	"\247-D,s{X\213xZ\321WI\276\352\347\210Cw@u8\240\372"
 129      737B588B 
 129      785AD157 
 129      49BEEAE7 
 129      88437740 
 130 02e7 7E0D13E0 		.ascii	"~\015\023\340\326\235\002I|\277\325\300=IX\023\3346"
 130      D69D0249 
 130      7CBFD5C0 
 130      3D495813 
 130      DC36
 131 02f9 6BF55013 		.ascii	"k\365P\023\335m\000_\300\304-\014\242\360\330\321Z\316"
 131      DD6D005F 
ARM GAS  /tmp/ccCZcsMQ.s 			page 10


 131      C0C42D0C 
 131      A2F0D8D1 
 131      5ACE
 132 030b FA09FB42 		.ascii	"\372\011\373BR\244\036X\232\034\365\315\"\301\245m\017"
 132      52A41E58 
 132      9A1CF5CD 
 132      22C1A56D 
 132      0F
 133 031c 8EE5E5F4 		.ascii	"\216\345\345\3648\336\005A^+\001\362(\271qe\273\333"
 133      38DE0541 
 133      5E2B01F2 
 133      28B97165 
 133      BBDB
 134 032e 2741B2B1 		.ascii	"'A\262\261 \302\003\232w\335\311\330C\2757\011\367<"
 134      20C2039A 
 134      77DDC9D8 
 134      43BD3709 
 134      F73C
 135 0340 D40F5651 		.ascii	"\324\017VQ'\353P\3076A\035\202\333\011\221\003(\376"
 135      27EB50C7 
 135      36411D82 
 135      DB099103 
 135      28FE
 136 0352 D9E4DBC5 		.ascii	"\331\344\333\305\251\223\270\351\276\212?p\254\006K"
 136      A993B8E9 
 136      BE8A3F70 
 136      AC064B
 137 0361 CDEF550D 		.ascii	"\315\357U\015\224\270\007EN\302I\321\205\362\320\006"
 137      94B80745 
 137      4EC249D1 
 137      85F2D006 
 138 0371 28EE7992 		.ascii	"(\356y\222\363\373w\235\376\257\252(\372\210\021\332"
 138      F3FB779D 
 138      FEAFAA28 
 138      FA8811DA 
 139 0381 E5E5EEEA 		.ascii	"\345\345\356\352\350P\334oN\267s\212\225Sl3oi\272+\362"
 139      E850DC6F 
 139      4EB7738A 
 139      95536C33 
 139      6F69BA2B 
 140 0396 69C0D68F 		.ascii	"i\300\326\217\345\365\254\246\017tv\036\354\320@\314"
 140      E5F5ACA6 
 140      0F74761E 
 140      ECD040CC 
 141 03a6 D8E950CE 		.ascii	"\330\351P\316\310\350R\316\352\352\350|,\010`\332\212"
 141      C8E852CE 
 141      EAEAE87C 
 141      2C0860DA 
 141      8A
 142 03b7 66663266 		.ascii	"ff2fV9jZ9[y\346p\352P\352\270\242\015i\246\245\017\214"
 142      56396A5A 
 142      395B79E6 
 142      70EA50EA 
 142      B8A20D69 
 143 03cf 3C91E918 		.ascii	"<\221\351\030\002iD\035\316\353]\233\370\350\307s\312"
 143      0269441D 
 143      CEEB5D9B 
ARM GAS  /tmp/ccCZcsMQ.s 			page 11


 143      F8E8C773 
 143      CA
 144 03e0 A1546F77 		.ascii	"\241Tow\257bd\265\341\374\240\256h\031\333\260\007\322"
 144      AF6264B5 
 144      E1FCA0AE 
 144      6819DBB0 
 144      07D2
 145 03f2 9A467EFB 		.ascii	"\232F~\373j=\010d`3d\237\260I\337\234\352=,\037Qm\375"
 145      6A3D0864 
 145      6033649F 
 145      B049DF9C 
 145      EA3D2C1F 
 146 0409 A8653C2A 		.ascii	"\250e<*?\334\011\202\005\221\214\2361\255\023p\240\326"
 146      3FDC0982 
 146      05918C9E 
 146      31AD1370 
 146      A0D6
 147 041b 77481DF6 		.ascii	"wH\035\366\340\365\366\245\016<\256\364\364<\253\364"
 147      E0F5F6A5 
 147      0E3CAEF4 
 147      F43CABF4 
 148 042b 75A746BA 		.ascii	"u\247F\272\270f\200\262\035\036\036\244x\3126\263\342"
 148      B86680B2 
 148      1D1E1EA4 
 148      78CA36B3 
 148      E2
 149 043c 3C58649F 		.ascii	"<Xd\237\374O|#9R\267\230\371\234l\276(ssy\324\310\016"
 149      FC4F7C23 
 149      3952B798 
 149      F99C6CBE 
 149      28737379 
 150 0453 9AA310CB 		.ascii	"\232\243\020\313\2329\371\271\376\236\036\3303j\231"
 150      9A39F9B9 
 150      FE9E1ED8 
 150      336A99
 151 0462 D9B46CE9 		.ascii	"\331\264l\351\271\274\225\325\007\345\214n\333jZ\207"
 151      B9BC95D5 
 151      07E58C6E 
 151      DB6A5A87 
 152 0472 7F01EDE1 		.ascii	"\177\001\355\341\035\347"
 152      1DE7
 153              		.text
 154              		.section	.gnu.lto_test_004_001_execute.331f4bc9a8229f66,"",%progbits
 155 0000 789C8D55 		.ascii	"x\234\215U_lSe\024?\347\336\336\322v\255\353\206J;G"
 155      5F6C5365 
 155      143FE7DE 
 155      DED276AD 
 155      EB864A3B 
 156 0015 A94314A3 		.ascii	"\251C\024\243[\267\204\304\350\203\201\360d\302|`,\321"
 156      5BB784C4 
 156      E88381F0 
 156      64C27C60 
 156      2CD1
 157 0027 A7E57277 		.ascii	"\247\345rw\323\335\204\333\342\275\267\010\361a\267"
 157      D3DD84DB 
 157      E2BDB708 
 157      F161B7
ARM GAS  /tmp/ccCZcsMQ.s 			page 12


 158 0036 DB501442 		.ascii	"\333P\024B\032\036t\321\020!Sb\014\021\321hp\017\320"
 158      1A1E74D1 
 158      10215362 
 158      0C11D168 
 158      700FD0
 159 0049 C448B62C 		.ascii	"\304H\266,\262\354A1\006B%\361i\310\237\267\306\030"
 159      B2EC4131 
 159      064225F1 
 159      69C89FB7 
 159      C618
 160 005b EB39F75F 		.ascii	"\3539\367_G-\342M\357\367\367\234\337\367;\277\363\235"
 160      472DE24D 
 160      EFF7F79C 
 160      DFF73BBF 
 160      F39D
 161 006d 5B010468 		.ascii	"[\001\004h}\266\323\333\010\003\364#\000\206\001\205"
 161      7DB6D3DB 
 161      0803F423 
 161      00860185 
 162 007d CA158072 		.ascii	"\312\025\200rD\020\244\237s`\307\304\371\014\330q\321"
 162      4410A49F 
 162      7360C7C4 
 162      F90CD871 
 162      D1
 163 008e 9B859C59 		.ascii	"\233\205\234Y\010%6B\011\221{@\230\024\304\220\204\223"
 163      08253642 
 163      09917B40 
 163      9814C490 
 163      8493
 164 00a0 AF23230A 		.ascii	"\257##\012}p\332\266O\324~\277\375Y\372\275SS\025\373"
 164      7D70DAB6 
 164      4FD47EBF 
 164      FD59FABD 
 164      535315FB 
 165 00b4 EF460335 		.ascii	"\357F\0035\244\263\267!(\010\257\321\004\263N'\204\356"
 165      A4B3B721 
 165      2808AFD1 
 165      04B34E27 
 165      84EE
 166 00c6 27E37856 		.ascii	"'\343xV\252+\227\217\245\355\246\247(\300K\017\363<"
 166      AA2B978F 
 166      A5EDA6A7 
 166      28C04B0F 
 166      F33C
 167 00d8 27546B8D 		.ascii	"'Tk\215\306\255\257k7o`W\257\010\032\206B\324Haj \006"
 167      C6ADAF6B 
 167      376F6057 
 167      AF081A86 
 167      42D44861 
 168 00ef 32CE611F 		.ascii	"2\316a\037\304\251?M}\202\026\303\235\334$\271\351\346"
 168      C4A93F4D 
 168      7D8216C3 
 168      9DDC24B9 
 168      E9E6
 169 0101 26C58669 		.ascii	"&\305\206ij\326\021\232\0043\304#\353\006R\275t\371"
 169      6AD6119A 
 169      0433C423 
ARM GAS  /tmp/ccCZcsMQ.s 			page 13


 169      EB0652BD 
 169      74F9
 170 0113 78CA3E55 		.ascii	"x\312>U\366\351D\004x\271I'\351\322i\021\326=\017\330"
 170      F6E94404 
 170      78B94927 
 170      E9D26911 
 170      D63D0FD8 
 171 0127 8A9E3DD4 		.ascii	"\212\236=\324\262R\243(p/\376\010S\027.\254\246d\374"
 171      B252A328 
 171      702FFE08 
 171      53172EAC 
 171      A664FC
 172 013a 1425F808 		.ascii	"\024%\370\010>,\333vR\303\350[\360\247}\204G1\335qc"
 172      3E2CDB76 
 172      52C3E85B 
 172      F0A77D84 
 172      4731DD71 
 173 014f E018F8A3 		.ascii	"\340\030\370\243(\257\221\347\265\372\352/!\3275\217"
 173      28AF91E7 
 173      B5FAEA2F 
 173      21D7358F 
 174 015f 623F9C65 		.ascii	"b?\234e\217\016F\251\360(\316(\263<J\350\210\236o\""
 174      8F0E46A9 
 174      F028CE28 
 174      B33C4AE8 
 174      889E6F22 
 175 0173 4079640D 		.ascii	"@yd\015I\002\373\365\257\233w\227\302^\270~\334\366"
 175      4902FBF5 
 175      AF9B7797 
 175      C25EB87E 
 175      DCF6
 176 0185 9D33B940 		.ascii	"\2353\271@\003\177P]\272\272\322\205\034\031\237\254"
 176      037F505D 
 176      BABAD285 
 176      1C199FAC 
 177 0195 38D0D439 		.ascii	"8\320\3249q\3471\365\034|n\333v\355\203\267o|\202\002"
 177      71E731F5 
 177      1C7C6EDB 
 177      76ED83B7 
 177      6F7C8202 
 178 01a9 29E9CEED 		.ascii	")\351\316\355\0275\354\014\002L\006\001v\351\216#\023"
 178      1735EC0C 
 178      024C0601 
 178      76E98E23 
 178      13
 179 01ba EA72A8EC 		.ascii	"\352r\250\354EG\264/\010\232\306\030\214]\222\365o{"
 179      4547B42F 
 179      089AC618 
 179      8C5D92F5 
 179      6F7B
 180 01cc 643CE704 		.ascii	"d<\347\004\234\366\200MJT\000\334M\004\030\013<,\201"
 180      9CF6804D 
 180      4A5400DC 
 180      4D04180B 
 180      3C2C81
 181 01df FDBFF4FD 		.ascii	"\375\277\364\375\247\217|\277t\365|\324\227,D l,5\350"
 181      A78F7CBF 
ARM GAS  /tmp/ccCZcsMQ.s 			page 14


 181      74F57CD4 
 181      972C4420 
 181      6C2C35E8 
 182 01f3 E9248B65 		.ascii	"\351$\213eH\371{\341\200\341z\005Epc\023\035\365\027"
 182      48F97BE1 
 182      80E17A05 
 182      45706313 
 182      1DF517
 183 0206 04F6E5FD 		.ascii	"\004\366\345\375\210\206\217*\350\245\000x%\245\341"
 183      88868F2A 
 183      E8A50078 
 183      25A5E1
 184 0215 6319C89F 		.ascii	"c\031\310\237\264g\267k\370\270'\021]\245\015\016\375"
 184      B467B76B 
 184      F8B82711 
 184      5DA50D0E 
 184      FD
 185 0226 C54ACC5D 		.ascii	"\305J\314]\341\\\271\2324\223\236\012NL\353\316\211"
 185      E15CB99A 
 185      34939E0A 
 185      4E4CEBCE 
 185      89
 186 0237 7C58BA4D 		.ascii	"|X\272M\272\210\034\300\"LE\274*9Q\373\346\235\237\322"
 186      BA881CC0 
 186      224C45BC 
 186      2A3951FB 
 186      E69D9FD2 
 187 024b 67BFB2ED 		.ascii	"g\277\262\355w\253v\275\201\015Q\303\036\001f\361a\225"
 187      77AB76BD 
 187      810D51C3 
 187      1E0166F1 
 187      6195
 188 025d C26B3D94 		.ascii	"\302k=\224V\270\002S\367.\036>\323\323\232\350\325\343"
 188      56B80253 
 188      F72E1E3E 
 188      D3D39AE8 
 188      D5E3
 189 026f F3EBCB92 		.ascii	"\363\353\313\222\214\027\235\033\354-\316\235\254w\364"
 189      8C179D1B 
 189      EC2DCE9D 
 189      AC77F4
 190 027e 06B3A3D7 		.ascii	"\006\263\243\327~\023\233W\201\3370\275\\9\3641@\270"
 190      7E139B57 
 190      81DF30BD 
 190      5C39F431 
 190      40B8
 191 0290 4B91500E 		.ascii	"K\221P\016D\367s\223\201\262\340K\263\366\374\346\376"
 191      44F77393 
 191      81B2E04B 
 191      B3F6FCE6 
 191      FE
 192 02a1 8CB7FF84 		.ascii	"\214\267\377\204\313p\031\016\327\276\233\013\373I\211"
 192      CB70190E 
 192      D7BE9B0B 
 192      FB4989
 193 02b0 0512F52A 		.ascii	"\005\022\365*\030q,\334\025{R\303\215z\220\011\006\316"
 193      18712CDC 
ARM GAS  /tmp/ccCZcsMQ.s 			page 15


 193      157B52C3 
 193      8D7A9009 
 193      06CE
 194 02c2 341A5CFB 		.ascii	"4\032\\\373\233\034\251\252iw\307-\306<\327R\213\200"
 194      9B1CA9AA 
 194      6977C72D 
 194      C63CD752 
 194      8B80
 195 02d4 7FB40A28 		.ascii	"\177\264\012(\343%\272=\377C@\370O\001\257;\002.\335"
 195      E325BA3D 
 195      FF4340F8 
 195      4F01AF3B 
 195      022EDD
 196 02e7 2FE0C789 		.ascii	"/\340\307\211\314\277\253\352\350\365\262\324T2\352"
 196      CCBFABEA 
 196      E8F5B2D4 
 196      5432EA
 197 02f6 1655AC8D 		.ascii	"\026U\254\215\2302\376@\203\340l_<\031\0270\023\224"
 197      9832FE40 
 197      83E06C5F 
 197      3C191730 
 197      1394
 198 0308 F362FDF6 		.ascii	"\363b\375\366V_\266xp\307\262\201\200\254\226\027\301"
 198      565FB678 
 198      70C7B281 
 198      80AC9617 
 198      C1
 199 0319 C6E02330 		.ascii	"\306\340#0\275,\372>\011r\343\315\254\233\006\311_\357"
 199      BD2CFA3E 
 199      0972E3CD 
 199      AC9B06C9 
 199      5FEF
 200 032b 0C109E54 		.ascii	"\014\020\236T\260\303\273\217\011\357\352\367e\340\230"
 200      B0C3BB8F 
 200      09EFEAF7 
 200      65E098
 201 033a 97C0CDCD 		.ascii	"\227\300\315\315\273\377\024\300\002\314\334\302\000"
 201      BBFF14C0 
 201      02CCDCC2 
 201      00
 202 0347 8271C36B 		.ascii	"\202q\303ku\034\245x\3463\"\023\230\276\227\360\355"
 202      751CA578 
 202      E6332213 
 202      98BE97F0 
 202      ED
 203 0358 92942736 		.ascii	"\222\224'6\335\322B\241\273\035\205\244G\341\351\014"
 203      DDD242A1 
 203      BB1D85A4 
 203      47E1E90C 
 204 0368 BCEF5178 		.ascii	"\274\357Qx\346\301\024\272\333P\010\301\235\016q\031"
 204      E6C114BA 
 204      DB5008C1 
 204      9D0E7119 
 205 0378 A6239E17 		.ascii	"\246#\236\027\004\307lU0\356\030i\370\254o-9\237\357"
 205      04C76C55 
 205      30EE1869 
 205      F8AC6F2D 
ARM GAS  /tmp/ccCZcsMQ.s 			page 16


 205      399FEF
 206 038b 15FA7F6C 		.ascii	"\025\372\177lb\354\241\212\243U\316\306\320\300@\316"
 206      62ECA18A 
 206      A355CEC6 
 206      D0C040CE 
 207 039b FD59AA69 		.ascii	"\375Y\252i\345\014+g\026K\206\242\272Sn\306L\365\215"
 207      E50C2B67 
 207      164B86A2 
 207      BA536EC6 
 207      4CF58D
 208 03ae 925A50D4 		.ascii	"\222ZP\324\261\301\301m\003\012H\226140(\352f>di\272"
 208      B1C1C16D 
 208      030A4896 
 208      31343028 
 208      EA663E64 
 209 03c4 BA390028 		.ascii	"\2729\000(\232\354\256\025\224}\245q5\247LX\023\206"
 209      9AECAE15 
 209      947DA571 
 209      35A74C58 
 209      1386
 210 03d6 2A8F9B03 		.ascii	"*\217\233\003\023 \354\200\376\265fJQ\327\213\205\334"
 210      1320EC80 
 210      FEB5664A 
 210      51D78B85 
 210      DC
 211 03e7 FEA26199 		.ascii	"\376\242a\231\271\035\273\207w\016\037${\245h\250c\007"
 211      B91DBB87 
 211      770E1F24 
 211      7BA568A8 
 211      6307
 212 03f9 5ED0C941 		.ascii	"^\320\311A: \357+\251Cm|\324\203Vn\347\360\310+#\315"
 212      3A20EF2B 
 212      A9436D7C 
 212      D483566E 
 212      E7F0C82B 
 213 040f 83745333 		.ascii	"\203tS3\307\362\212B~\233\036H\306<\304D\222\303#\273"
 213      C7F28A42 
 213      7E9B1E48 
 213      C63CC444 
 213      92C323BB 
 214 0423 B37B6553 		.ascii	"\263{eS\335oh\317g\267\014\202`\300:]\325\213\306!\210"
 214      DD6F68CF 
 214      67B70C82 
 214      60C03A5D 
 214      D58BC621 
 215 0438 168A56F6 		.ascii	"\026\212V\366\325\321]\273`\303\233F\261\220\317\032"
 215      D5D15DBB 
 215      60C39B46 
 215      B190CF1A 
 216 0448 AA55320A 		.ascii	"\252U2\012\352xVWMS\316\253\360\017\203{\001\005"
 216      EA785657 
 216      4D53CEAB 
 216      F00F837B 
 216      0105
 217              		.text
 218              		.section	.gnu.lto_.symbol_nodes.331f4bc9a8229f66,"",%progbits
 219 0000 789C4D8C 		.ascii	"x\234M\214MN\002Q\020\204\253\272\247\007\025\024\360"
ARM GAS  /tmp/ccCZcsMQ.s 			page 17


 219      4D4E0251 
 219      1084ABBA 
 219      A7071514 
 219      F0
 220 0011 021EC773 		.ascii	"\002\036\307sx\222&\222\010\356<\200\254\346($, a\313"
 220      78922692 
 220      08EE3C80 
 220      ACE62824 
 220      2C2061CB 
 221 0025 027FC001 		.ascii	"\002\177\300\001Ae\307\336\370\036C|\364\346\313W\335"
 221      4165C7DE 
 221      F81E437C 
 221      F4E6CB57 
 221      DD
 222 0036 D502C12D 		.ascii	"\325\002\301-Q\215\274\322\211\247)\340\376\374xgs\""
 222      518DBCD2 
 222      89A729E0 
 222      FEFC7867 
 222      7322
 223 0048 7395173A 		.ascii	"s\225\027:R*{\272\034u\320\247-I8\344\215\256'\325\017"
 223      522A7BBA 
 223      1C75D0A7 
 223      2D4938E4 
 223      8DAE27D5 
 224 005d 4A486D47 		.ascii	"JHmG\215X1\213X\320,\340\235yx\313\037zV5:\035\362\233"
 224      8D58318B 
 224      58D02CE0 
 224      9D7978CB 
 224      1F7A5635 
 225 0075 6EC9BEE8 		.ascii	"n\311\276\350y\262\015\275\226lM?K\266\245\237'\373"
 225      79B20DBD 
 225      966C4D3F 
 225      4BB6A59F 
 225      27FB
 226 0087 A45F242B 		.ascii	"\244_$+\351\365\177S\271\304p\361\033\330@y`\035\345"
 226      E9F57F53 
 226      B9C470F1 
 226      1BD84079 
 226      601DE5
 227 009a 3250DBE8 		.ascii	"2P\333\350Nf\022Y\214G\271j\013Eow\243\332<\356\257"
 227      4E661259 
 227      8C47B96A 
 227      0B456F77 
 227      A3DA3CEE 
 228 00af D08DF776 		.ascii	"\320\215\367v\215\"\2725Q<\204\275\265Q\366*\016c\317"
 228      8D22BA35 
 228      513C84BD 
 228      B551F62A 
 228      0E63CF
 229 00c2 14F7E10F 		.ascii	"\024\367\341\017\376\000\027\316b\016"
 229      FE0017CE 
 229      620E
 230              		.text
 231              		.section	.gnu.lto_.refs.331f4bc9a8229f66,"",%progbits
 232 0000 789C2588 		.ascii	"x\234%\210\321\025\000\020\014\304.G\025\253\330\177"
 232      D1150010 
 232      0CC42E47 
ARM GAS  /tmp/ccCZcsMQ.s 			page 18


 232      15ABD87F 
 233 0010 3FF5245F 		.ascii	"?\365$_\211e\035}\020`\323\032\335\025\031t\015e\255"
 233      89651D7D 
 233      1060D31A 
 233      DD151974 
 233      0D65AD
 234 0023 F99AE55D 		.ascii	"\371\232\345]\312\241\013\021\353\000\242"
 234      CAA10B11 
 234      EB00A2
 235              		.text
 236              		.section	.gnu.lto_.decls.331f4bc9a8229f66,"",%progbits
 237 0000 789CAD5B 		.ascii	"x\234\255[\013t\024U\232\256Gw\222\226\360\364\261\270"
 237      0B741455 
 237      9AAE4777 
 237      9296F0F4 
 237      B1B8
 238 0012 3A126675 		.ascii	":\022fuWgVB\320Uv\317Y\005\003\007<\307\270l\202s\330"
 238      57675642 
 238      D05576CF 
 238      59050307 
 238      3CC7B86C 
 239 0029 C799A6E8 		.ascii	"\307\231\246\350\024Ik\247;vW\010\314\236=\026\001\""
 239      14496BA7 
 239      3B765708 
 239      CC9E3D16 
 239      0122
 240 003b 22322141 		.ascii	"\"2!A^\003\022\2420\210\312@\024\011\022\241t!\002\""
 240      5E0312A2 
 240      3088CA40 
 240      140912A1 
 240      74210222 
 241 004f 845710A2 		.ascii	"\204W\020\242\020\3445\340\360\022\345)d\377\373\337"
 241      10E435E0 
 241      F012E529 
 241      64FFFBDF 
 242 005f AAEEAAEA 		.ascii	"\252\356\252\352\252\356\2520uro\327\343\336\357\376"
 242      AAEEAA30 
 242      75726FD7 
 242      E3DEEFFE 
 243 006f CF7BFFFB 		.ascii	"\317{\377\373\010\307p\314X\236a:\341z\3429\206\271"
 243      08C770CC 
 243      589E613A 
 243      E17AE239 
 243      86B9
 244 0081 91C5305E 		.ascii	"\221\3050^\206a\236\202\324\035\322RH\031\220\240\010"
 244      86619E82 
 244      D41DD252 
 244      481990A0 
 244      08
 245 0092 53C032CC 		.ascii	"S\3002\314\363\220FA\372wHE\220F\263\264\374o\340\367"
 245      F3904641 
 245      FA774845 
 245      9046B3B4 
 245      FC6FE0F7 
 246 00a6 3F20FD27 		.ascii	"? \375'$reC\372o\270\027 \211\220\202\220B\220\312!"
 246      24726543 
 246      FA6FB817 
ARM GAS  /tmp/ccCZcsMQ.s 			page 19


 246      20899082 
 246      904290CA 
 247 00bb 45215542 		.ascii	"E!UB\232\004i*\2447 \325B\312\204:\365\360\333\000\351"
 247      9A04692A 
 247      A43720D5 
 247      42CA843A 
 247      F5F0DB00 
 248 00d0 1D482B21 		.ascii	"\035H+!\235\205t\201|\343\030\303Ep\311\253\006\225"
 248      9D857481 
 248      7CE318C3 
 248      4570C9AB 
 248      0695
 249 00e2 4672B1EA 		.ascii	"Fr\261\352{V\305\321_\204\226\236\360{\012\322\006H"
 249      7B56C5D1 
 249      5F84969E 
 249      F07B0AD2 
 249      0648
 250 00f4 3D541A09 		.ascii	"=T\032\011\275\275\001\350N.\301k\014\336]\2074\016"
 250      BDBD01E8 
 250      4E2EC16B 
 250      0CDE5D87 
 250      340E
 251 0106 D25DF0FE 		.ascii	"\322]\360\376nHe*\236O\305\272\007\336\335\013\351~"
 251      6E48652A 
 251      9E4FC5BA 
 251      07DEDD0B 
 251      E97E
 252 0118 8EF243F8 		.ascii	"\216\362C\370z\010\356\037\346(\237\204\266\337\262"
 252      7A08EE1F 
 252      E6289F84 
 252      B6DFB2
 253 0127 C9741059 		.ascii	"\311t\020Y\374\022~\377\227M\320\320Dp\341\271\221\241"
 253      FC127EFF 
 253      974DD0D0 
 253      4470E1B9 
 253      91A1
 254 0139 3220B2AE 		.ascii	"2 \262\256\326\321@\344\373k\216\322\255\321\373\217"
 254      D6D140E4 
 254      FB6B8ED2 
 254      ADD1FB8F 
 255 0149 901E85E4 		.ascii	"\220\036\205\344\2074V\245\375wD\336\\BO\323X*\237q"
 255      873456A5 
 255      FD7744DE 
 255      5C424FD3 
 255      582A9F71 
 256 015d 5C4267B3 		.ascii	"\\Bg\263X\312\243\246;B\3360\216\352ZT\365\242\347-"
 256      58CAA3A6 
 256      3B42DE30 
 256      8EEA5A54 
 256      F5A2E72D 
 257 0171 00A904D2 		.ascii	"\000\251\004\322\213\034\325\227\306\243\2467\324\201"
 257      8B1CD597 
 257      C6A3A637 
 257      D481
 258 017f 059F44DF 		.ascii	"\005\237D\337\277b(O\032\237\204\307\247U\036\011\177"
 258      BF62284F 
 258      1A9F84C7 
ARM GAS  /tmp/ccCZcsMQ.s 			page 20


 258      A7551E09 
 258      7F
 259 0190 4DAA1C34 		.ascii	"M\252\0344\376\226\303\3752Hep\357!u\341\376=Hax~\033"
 259      FE96C3FD 
 259      32486570 
 259      EF2175E1 
 259      FE3D4861 
 260 01a7 9E239CD1 		.ascii	"\236#\234\321\316\352 \235#\262We\323['\013^\225G:\376"
 260      CEEA209D 
 260      23B25765 
 260      D35B270B 
 260      5E95473A 
 261 01bc 5F866FE3 		.ascii	"_\206o\343YZ~\015\374~\012i\235j\373\204\207(|\237\300"
 261      595A7E0D 
 261      FC7E0A69 
 261      9D6AFB84 
 261      87287C9F 
 262 01d1 51FB34EB 		.ascii	"Q\3734\353]/\2177T;\3672\311\366k\226M7f\206,W\311\365"
 262      5D2F8F37 
 262      543BF732 
 262      C9F66B96 
 262      4D376686 
 263 01e9 D5F2C8AD 		.ascii	"\325\362\310\255=\014\017}\230\3312\\9[AdcX\201\355"
 263      3D0C0F7D 
 263      98D9325C 
 263      395B4164 
 263      635881ED 
 264 01fd E163EA3D 		.ascii	"\341c\352=x\227\355c\206A\325\207\230wd\271\246\343"
 264      7897ED63 
 264      8641D587 
 264      987764B9 
 264      A6E3
 265 020f C4925FC8 		.ascii	"\304\222_\310\036\201}\233\355\003\012\370\007\026$"
 265      1E817D9B 
 265      ED030AF8 
 265      071624
 266 021e FD2E54AB 		.ascii	"\375.T\253\001\240\277e\222\257\264\250\034\363$\013"
 266      01A0BF65 
 266      92AFB4A8 
 266      1CF3240B 
 267 022e 9EF34780 		.ascii	"\236\363G\200\023\330\345\354\257h3rG]\365\267U\354"
 267      13D8E5EC 
 267      AF683372 
 267      475DF5B7 
 267      55EC
 268 0240 645966E9 		.ascii	"dYf\3517F\375jq\365g\352\241\202re\373\"V\256\377\234"
 268      3746FD6A 
 268      71F567EA 
 268      A1827265 
 268      FB2256AE 
 269 0256 B5687188 		.ascii	"\265hq\210\326`V\202\215ig\266zd9K`\337CF\306\261\206"
 269      D6605682 
 269      8D6967B6 
 269      7A64394B 
 269      60DF4346 
 270 026d 065490FA 		.ascii	"\006T\220\372!v(\034\361<\201]\225Dv\313.\215\354U\016"
 270      2176281C 
ARM GAS  /tmp/ccCZcsMQ.s 			page 21


 270      F13C815D 
 270      954476CB 
 270      2E8DEC55 
 271 0282 C8AE5276 		.ascii	"\310\256Rv\317X|/!\333\240\013*^\265\335\034\255]\017"
 271      CF587C2F 
 271      21DBA00B 
 271      2A5EB5DD 
 271      1CAD5D0F 
 272 0296 D613D846 		.ascii	"\326\023\330F(\254\203\345\230)\254F\213U\025\365\226"
 272      28AC83E5 
 272      9829AC46 
 272      8B5515F5 
 272      96
 273 02a7 5E6A0123 		.ascii	"^j\001#\015{\266g\327\010\024\227c\246\273\006\313\261"
 273      0D7BB667 
 273      D7081497 
 273      63A6BB06 
 273      CBB1
 274 02b9 628F5189 		.ascii	"b\217Q\211MHH`W\263\017A\276\206\355\017\371G\220\307"
 274      4D484860 
 274      57B30F41 
 274      BE86ED0F 
 274      F94790C7 
 275 02cd 2F0E6C58 		.ascii	"/\016lX\263\002+i\247g\341\332\366E(F\0373=!F\306\222"
 275      B3022B69 
 275      A767E1DA 
 275      F6452846 
 275      1F333D21 
 276 02e4 05D5000E 		.ascii	"\005\325\000\016\314\330\274\233\235\202\232j\202j\034"
 276      CCD8BC9B 
 276      9D829A6A 
 276      826A1C
 277 02f3 B38335DA 		.ascii	"\263\2035\332\200s\250\203\263\366]d\253\020j\003B\255"
 277      8073A883 
 277      B3F65D64 
 277      AB106A03 
 277      42AD
 278 0305 E08C5002 		.ascii	"\340\214P\002\233\351ct\027>k\005\010\036~Vo\310p\330"
 278      9BE96374 
 278      173E6B05 
 278      081E7E56 
 278      6FC870D8 
 279 0319 93715B9C 		.ascii	"\223q[\234c\326p&\021Z).\313N\204\304t\017\327\262u"
 279      63D67026 
 279      115A292E 
 279      CB4E84C4 
 279      740FD7B2 
 280 032e 53E4AD03 		.ascii	"S\344\255\0035\353\317\260\343\233c>\306\306\024\263"
 280      35EBCFB0 
 280      E39B633E 
 280      C6C614B3 
 281 033e F9CF6BDB 		.ascii	"\371\317k\333\241\231\277\342\310\374\327n\237\227l"
 281      A199BFE2 
 281      C8FCD76E 
 281      9F976C
 282 034d FE569D06 		.ascii	"\376V\235\006\247\265\377 \266\177\026\333\337bn\377"
 282      A7B5FF20 
ARM GAS  /tmp/ccCZcsMQ.s 			page 22


 282      B67F16DB 
 282      DF626EFF 
 283 035d D2816FA6 		.ascii	"\322\201o\246\251\355oq\324\376\372\003s\254\334\357"
 283      A9ED6F71 
 283      D4FEFA03 
 283      73ACDCEF 
 284 036d A9BB53E9 		.ascii	"\251\273S\351{^\333\311\213j+\333\320g\376\310\233\365"
 284      7B5EDBC9 
 284      8B6A2BDB 
 284      D067FEC8 
 284      9BF5
 285 037f FD7437A3 		.ascii	"\375t7\243\002\2376\271\354j^\243\277K.\013\214\236"
 285      029F36B9 
 285      EC6A5EA3 
 285      BF4B2E0B 
 285      8C9E
 286 0391 7B93AD25 		.ascii	"{\223\255%\312\322h\370\3205b\216A\022\315\007\260\023"
 286      CAD268F8 
 286      D035628E 
 286      4112CD07 
 286      B013
 287 03a3 A0601F3B 		.ascii	"\240`\037;\001\263\265\245*e\243\036l\275k0#e\255z\260"
 287      01B3B5A5 
 287      2A65A31E 
 287      6CBD6B30 
 287      2365AD7A 
 288 03b8 662760BD 		.ascii	"f'`\275\354)\333\243\007\333\344\032\314H\331>=\330"
 288      EC29DBA3 
 288      07DBE41A 
 288      CC48D93E 
 288      3DD8
 289 03ca E74EC0FA 		.ascii	"\347N\300\372\332S\326\246\007kq\015f\244\354k=\330"
 289      DA53D6A6 
 289      076B710D 
 289      66A4EC6B 
 289      3DD8
 290 03dc 76276039 		.ascii	"v'`9\026\224\305/\273\241h3\033\267s\216\371\212\327"
 290      1694C52F 
 290      BBA16833 
 290      1BB7738E 
 290      F98AD7
 291 03ef FA049736 		.ascii	"\372\004\2276\315$0Zy\267\235\230\201o\350\304\2164"
 291      CD24305A 
 291      79B79D98 
 291      816FE8C4 
 291      8E34
 292 0401 D04E4C1B 		.ascii	"\320NL\033\317\3669ALa05_\352\006\307C\256\301\214j"
 292      CFF63941 
 292      4C613035 
 292      5FEA06C7 
 292      43AEC18C 
 293 0416 798B8019 		.ascii	"y\213\200\031\372\032u\224\351X\246\364\235\237\350"
 293      FA1A7594 
 293      E958A6F4 
 293      9D9FE8
 294 0425 EEB2342C 		.ascii	"\356\2624,\022\276\321\276\015\",.^X\356\333\327\272"
 294      12BED1BE 
ARM GAS  /tmp/ccCZcsMQ.s 			page 23


 294      0D222C2E 
 294      5E58EEDB 
 294      D7BA
 295 0437 ACC09EC4 		.ascii	"\254\300\236\304A\366\024\353\213SA\357\265\273N\214"
 295      41F614EB 
 295      8B5341EF 
 295      B5BB4E8C 
 296 0447 9C3B7853 		.ascii	"\234;xS`\250]\351\252\332Y\302q\275%\234p\"\246\024"
 296      60A85DE9 
 296      AADA59C2 
 296      71BD259C 
 296      7022A614 
 297 045b AED06A27 		.ascii	"\256\320j'&\245Z\236\316N^s\177\312\320n^\333\271\245"
 297      26A55A9E 
 297      CE4E5E73 
 297      7FCAD06E 
 297      5EDBB9A5 
 298 046f EA70FC17 		.ascii	"\352p\374\027\034\216\317\360\226#\273#\260\203\263"
 298      1C8ECFF0 
 298      9623BB23 
 298      B083B3
 299 047e 7EFE4C0D 		.ascii	"~\376L\015\023\316#\330OI}\275\3174\266\373\214\203"
 299      13CE23D8 
 299      4F497DBD 
 299      CF34B6FB 
 299      8C83
 300 0490 B5CF97B8 		.ascii	"\265\317\227\270\351\324.\243\364\035\327\261\223\376"
 300      E9D42EA3 
 300      F41DD7B1 
 300      93FE
 301 049e F77AE9DF 		.ascii	"\367z\351\337r-}\263\017]\256e/U\311\363\007\352\354"
 301      722D7DB3 
 301      0F5DAE65 
 301      2F55C9F3 
 301      07EAEC
 302 04b1 2DA57142 		.ascii	"-\245qB4\265}\343\277b8\375#\012i\232\307R\342\016\200"
 302      34B57DE3 
 302      BF6238FD 
 302      230A699A 
 302      C752E20E 
 303 04c6 0ECEFA20 		.ascii	"\016\316\372 \027\201\256 \320,\217Y\332\254I\332\254"
 303      1781AE20 
 303      D02C8F59 
 303      DAAC49DA 
 303      AC
 304 04d7 51727183 		.ascii	"Qrq\203U\355\325MY\216\231\3531\211\316@b\212\2362."
 304      55EDD54D 
 304      598E99EB 
 304      3189CE40 
 304      628A9E32 
 305 04ec BA9FDD8B 		.ascii	"\272\237\335\213n\206*\272\237\221\343EI\034_q\3112"
 305      6E862ABA 
 305      9F91E345 
 305      491C5F71 
 305      C932
 306 04fe C7BCE39A 		.ascii	"\307\274\343\232\215,#\033\325\235]`c\023ec2G\330X\371"
 306      8D2C231B 
ARM GAS  /tmp/ccCZcsMQ.s 			page 24


 306      D59D5D60 
 306      63136563 
 306      3247D858 
 307 0513 5760A3D1 		.ascii	"W`\243\3215\033\275tl\340dl\016\035\014\356djSG\264"
 307      351BBD74 
 307      6CE0646C 
 307      0E1D0CEE 
 307      646A5347 
 308 0528 849E6AEE 		.ascii	"\204\236j\356NC4\251\354\337\311\346\320\327\351\247"
 308      4E4334A9 
 308      ECDFC9E6 
 308      D0D7E9A7 
 309 0538 9F9776EA 		.ascii	"\237\227v\352& \262\243\011\310\366\370\004\3445\024"
 309      2620B2A3 
 309      09C8F6F8 
 309      04E43514 
 310 0548 D93A2BA7 		.ascii	"\331:+\247q\004up\347\256\335j\2177\023\241>M\222~\206"
 310      71047570 
 310      E7AEDD6A 
 310      8F3713A1 
 310      3E4D927E 
 311 055d 49F81946 		.ascii	"I\370\031F\341\303#i\353*\3663\257\250o\310C&\323\345"
 311      E1C32369 
 311      EB2AF633 
 311      AFA86FC8 
 311      4326D3E5 
 312 0571 7A1CB305 		.ascii	"z\034\263\005\311 \002\354J\224K\026\001\216\327i\243"
 312      C92002EC 
 312      4A944B16 
 312      018ED769 
 312      A3
 313 0582 3995D18E 		.ascii	"9\225\321\216\333B\254R\226\374\236N\2671\"\347\230"
 313      DB42AC52 
 313      96FC9E4E 
 313      B73122E7 
 313      98
 314 0593 FDB709D7 		.ascii	"\375\267\011\327\274\013\203\203\245\030\034|s{\334"
 314      BC0B8383 
 314      A5181C7C 
 314      737BDC
 315 05a2 2A07762D 		.ascii	"*\007v-Ri\243\274~w\233\304]\373\275\305\322\202\305"
 315      5269A3BC 
 315      7E779BC4 
 315      5DFBBDC5 
 315      D282C5
 316 05b5 DC6AAC86 		.ascii	"\334j\254\206E\026\312`\264\304f\027r\246\251\325\221"
 316      4516CA60 
 316      B4C46617 
 316      72A6A9D5 
 316      91
 317 05c6 531DD5AA 		.ascii	"S\035\325\252\215\221o\351=\242\375\204O\256\315\246"
 317      8D916FE9 
 317      3DA2FD84 
 317      4FAECDA6 
 318 05d6 0B2C02FB 		.ascii	"\013,\002\3731\313\251\250V\203mz\341\034\026\267\016"
 318      31CBA9A8 
 318      56836D7A 
ARM GAS  /tmp/ccCZcsMQ.s 			page 25


 318      E11C16B7 
 318      0E
 319 05e7 74E35B2D 		.ascii	"t\343[-\232o-AY\316\363\232\035\2028J\327-{\261\227"
 319      9A6F2D41 
 319      59CEF39A 
 319      1D82384A 
 319      D72D7BB1 
 320 05fc 35B2E374 		.ascii	"5\262\343t\202\024\277\354z\241\005\234n(_\352\275-"
 320      8214BFEC 
 320      7AA1059C 
 320      6E285FEA 
 320      BD2D
 321 060e 13801EB0 		.ascii	"\023\200\036\260\345\035\352@\351\214@f\365\341+\307"
 321      E51DEA40 
 321      E98C4066 
 321      F5E12BC7 
 322 061e ACA00233 		.ascii	"\254\240\0023[\301\336\357\267\276\252N}\227;\262\202"
 322      5BC1DEEF 
 322      B7BEAA4E 
 322      7D973BB2 
 322      82
 323 062f 9F2CAC60 		.ascii	"\237,\254`y\027\255\000L\372\3646\026\341h8\276;N\244"
 323      7917AD00 
 323      4CFAF436 
 323      16E16838 
 323      BE3B4EA4 
 324 0643 4B2DA870 		.ascii	"K-\250p?\213n\005C\355K9x\202\214\014\2538\262tx \311"
 324      3F8B6E05 
 324      43ED4B39 
 324      78828C0C 
 324      AB38B274 
 325 065a B4A86474 		.ascii	"\264\250dt\246\225\020\243\300\256\340H|\376.G\026\301"
 325      A69510A3 
 325      C0AEE048 
 325      7CFE2E47 
 325      16C1
 326 066c 5662FE3E 		.ascii	"Vb\376>\247[\012\2633\213\017\022f!\260\037\232\305"
 326      A75B0AB3 
 326      338B0F12 
 326      6621B01F 
 326      9AC5
 327 067e E8749694 		.ascii	"\350t\226\224\266\231ez\353;r\233\326W\333\262\323\263"
 327      B699657A 
 327      EB3B729B 
 327      D657DBB2 
 327      D3B3
 328 0690 4056A6F2 		.ascii	"@V\246\362.V\345\266o\321\034\367Ct\334\223I\322\335"
 328      2E56E5B6 
 328      6FD11CF7 
 328      4374DC93 
 328      49D2DD
 329 06a3 608E239C 		.ascii	"`\216#\234,\216\375\320UV\342\027\307\\\363:\210\253"
 329      2C8EFDD0 
 329      5556E217 
 329      C75CF33A 
 329      88AB
 330 06b5 732CA41E 		.ascii	"s,\244\036\037\315\332\3468\\`S\245\261\354\244B\027"
ARM GAS  /tmp/ccCZcsMQ.s 			page 26


 330      1FCDDAE6 
 330      385C6053 
 330      A5B1ECA4 
 330      4217
 331 06c7 A9D7A3A5 		.ascii	"\251\327\243\245\3350\311\302\301:\335\214\014R\245"
 331      DD30C9C2 
 331      C13ADD8C 
 331      0C52A5
 332 06d6 D9ECC675 		.ascii	"\331\354\306u\325\361u\272f\007n\\\245|8C\0337\351\352"
 332      D5F175BA 
 332      66076E5C 
 332      A57C3843 
 332      1B37E9EA 
 333 06ea 33B5C0E6 		.ascii	"3\265\300\346\324\026\230R\236\006\0256\353\034d#:\310"
 333      D4169852 
 333      9E061536 
 333      EB1C6423 
 333      3AC8
 334 06fc 26BD5370 		.ascii	"&\275Sp\314\302\014\007\262\177\330\316\024\241\033"
 334      CCC20C07 
 334      B27FD8CE 
 334      14A11B
 335 070b DA437707 		.ascii	"\332Cw\007\264\365\376\0063\236UGd\300\323\353\262J"
 335      B4F5FE06 
 335      339E5547 
 335      64C0D3EB 
 335      B24A
 336 071d A9D98B03 		.ascii	"\251\331\213\003?\265\321\367\234\0207\320\036lI\235"
 336      3FB5D1F7 
 336      9C1037D0 
 336      1E6C499D 
 337 072d 265CE27E 		.ascii	"&\\\342~\034\363\221\023\274\301v\314V)\353\366j\201"
 337      1CF39113 
 337      BCC176CC 
 337      5629EBF6 
 337      6A81
 338 073f 045DD96E 		.ascii	"\004]\331nv\215g\244o\177\235!h\332\342\004n\210c\335"
 338      768D67A4 
 338      6F7F9D21 
 338      68DAE204 
 338      6E8863DD 
 339 0753 27B67EA0 		.ascii	"'\266~\240[\304\305\213\225\270C\260\016\363M\230\037"
 339      5BC4C58B 
 339      95B843B0 
 339      0EF34D98 
 339      1F
 340 0764 C1FC28E6 		.ascii	"\301\374(\346\3070?\203\371%\314o`.cg:\015\363&\314"
 340      C7303F83 
 340      F925CC6F 
 340      602E6367 
 340      3A0DF326 
 341 0779 3FC3FCFF 		.ascii	"?\303\374\3770\337\202\371\027\230oK\327\341j{D\307"
 341      30DF82F9 
 341      17986F4B 
 341      D7E16A7B 
 341      44C7
 342 078b 3A3874BF 		.ascii	":8t\277\006\034m\276\3140wE\215\254i\231\327\2645c\327"
ARM GAS  /tmp/ccCZcsMQ.s 			page 27


 342      061C6DBE 
 342      CC307745 
 342      8DAC6999 
 342      D7B43563 
 343 07a0 CB2E4DD4 		.ascii	"\313.M\3243\014?\275\231\032\034~\346\367\240\013.j"
 343      330C3FBD 
 343      991A1C7E 
 343      E6F7A00B 
 343      2E6A
 344 07b2 FDF9F121 		.ascii	"\375\371\361!\350N\025`'\327\033\357\014\021\021\226"
 344      E84E1560 
 344      27D71BEF 
 344      0C111196 
 345 07c2 B06B7217 		.ascii	"\260kr\027\227X\325\311\366%n\264\221\312"
 345      9758D5C9 
 345      F6256EB4 
 345      91CA
 346 07d0 AEDE579C 		.ascii	"\256\336W\234+RGj\365}j\375\335\256)\335cCiV\032J[\335"
 346      2B52476A 
 346      F57D6AFD 
 346      DDAE29DD 
 346      63436956 
 347 07e8 51DA1417 		.ascii	"Q\332\024\027\352\337\250\000\373\\\223\272\337\206"
 347      EADFA800 
 347      FB5C93BA 
 347      DF86
 348 07f6 D47BD290 		.ascii	"\324{\322\220\272\327\206\324{\2307\325\226eV\262\335"
 348      BAD786D4 
 348      7B9837D5 
 348      966556B2 
 348      DD
 349 0807 85200807 		.ascii	"\205 \010\0078\332\006\217\273\340\214\272\301\360\002"
 349      38DA068F 
 349      BBE08CBA 
 349      C1F002
 350 0816 9FD2AC49 		.ascii	"\237\322\254I\2716\316`\241V\222\252\037b\022U/\015"
 350      B936CE60 
 350      A15692AA 
 350      1F621255 
 350      2F0D
 351 0828 8453410E 		.ascii	"\204SA\016\271\226T\273\215\244\3304\344\036LH\252\037"
 351      B99654BB 
 351      8DA4D834 
 351      E41E4C48 
 351      AA1F
 352 083a F396AC5C 		.ascii	"\363\226\254\\\350\270y\271c\032;\033FQ\371\002\031"
 352      E8B879B9 
 352      631A3B1B 
 352      4651F902 
 352      19
 353 084b DBA92838 		.ascii	"\333\251(8\246&\323\350\234\0172o\313r\255\334(\313"
 353      A626D3E8 
 353      9C0F326F 
 353      CB72ADDC 
 353      28CB
 354 085d 3EB5DB9A 		.ascii	">\265\333\232\217%\276\341\372Y6\246m\331\374=\263\214"
 354      8F25BEE1 
ARM GAS  /tmp/ccCZcsMQ.s 			page 28


 354      FA5936A6 
 354      6DD9FC3D 
 354      B38C
 355 086f B024AF90 		.ascii	"\260$\257\220yT\000\243\326\321]\002\373-g8\022B)S\326"
 355      795400A3 
 355      D6D15D02 
 355      FB2D6738 
 355      12422953 
 356 0884 B6CC826E 		.ascii	"\266\314\202n\262J\351\354|\232q\256\311\357TM&\264"
 356      B24AE9EC 
 356      7C9A71AE 
 356      C9EF544D 
 356      26B4
 357 0896 07A39D89 		.ascii	"\007\243\235\211\031k\262\216\232\311:fIVs\313\314\254"
 357      196BB28E 
 357      9AC93A66 
 357      495673CB 
 357      CCAC
 358 08a8 9AC91D9D 		.ascii	"\232\311\035\235\235\375\234\023u\322\202\250\017\254"
 358      9DFD9C13 
 358      75D282A8 
 358      0FAC
 359 08b6 89AA3112 		.ascii	"\211\2521\022u\302L\324)+\242P/2\004g2G%\3001\333\034"
 359      75C24CD4 
 359      292BA250 
 359      2F320467 
 359      324725C0 
 360 08cd F17CDA0C 		.ascii	"\361|\332\014\177&\031\276\243\246\343\346\255\013\217"
 360      7F2619BE 
 360      A3A6E3E6 
 360      AD0B8F
 361 08dc CE6F94A7 		.ascii	"\316o\224\247\276&\337\352|\205u\316\367Y\263[\235\302"
 361      BE26DFEA 
 361      7C8575CE 
 361      F759B35B 
 361      9DC2
 362 08ee 452A9D5F 		.ascii	"E*\235_A\024\226D(-z\336\222\222\332\226\343\231\013"
 362      41149644 
 362      282D7ADE 
 362      9292DA96 
 362      E3990B
 363 0901 E4CFA702 		.ascii	"\344\317\247\002\263\2570\032\257\257gYC\\\264\204\270"
 363      B3AF301A 
 363      AFAF6759 
 363      435CB484 
 363      B8
 364 0912 DA707064 		.ascii	"\332ppd\034\3029/\227\314\274\220Q'\376\360\032uH\023"
 364      1CC2392F 
 364      97CCBC90 
 364      5127FEF0 
 364      1A754813 
 365 0926 6F8A0D61 		.ascii	"o\212\015a\227-\011\333\260|\333\375s\247\324\307=\221"
 365      972D09DB 
 365      B07CDBFD 
 365      73A7D4C7 
 365      3D91
 366 0938 3277C506 		.ascii	"2w\305\006\343\252%\306\265\206\335#\027\330i\212\020"
ARM GAS  /tmp/ccCZcsMQ.s 			page 29


 366      E3AA25C6 
 366      B586DD23 
 366      17D8698A 
 366      10
 367 0949 69C7DEF5 		.ascii	"i\307\336\365\024\354\251\363\015\271Z~xE\"46tcZ\204"
 367      14ECA9F3 
 367      0DB95A7E 
 367      78452234 
 367      3674635A 
 368 095e FD87BBC9 		.ascii	"\375\207\273\311i\226\233\030\307\275\346\263\\\265"
 368      69969B18 
 368      C7BDE6B3 
 368      5CB5
 369 096c 76007370 		.ascii	"v\000sp\326\272\301\030)\310<y_\3473G\012\274i\316\302"
 369      D6BAC118 
 369      29C83C79 
 369      5FE73347 
 369      0ABC69CE 
 370 0981 1BE72CBC 		.ascii	"\033\347,\274/q\323\331\3113\256\013\233\364\270\310"
 370      2F71D3D9 
 370      C933AE0B 
 370      9BF4B8C8 
 371 0991 67AD8329 		.ascii	"g\255\203)\274\265\267(v\336\222\305\274\212\353\277"
 371      BCB5B728 
 371      76DE92C5 
 371      BC8AEBBF 
 372 09a1 D3E4C9EC 		.ascii	"\323\344\311\354\313q\021\330lO\301\004\213\317\"'\021"
 372      CB7111D8 
 372      6C4FC104 
 372      8BCF2227 
 372      11
 373 09b2 7CB69B4B 		.ascii	"|\266\233K\244\000\243\222O\357\265\273\024\273\033"
 373      A400A392 
 373      4FEFB5BB 
 373      14BB1B
 374 09c1 D37893AA 		.ascii	"\323x\223\252\211\272\014\017\372\217\352N\224I\"\353"
 374      89BA0C0F 
 374      FA8FEA4E 
 374      944922EB 
 375 09d1 6C2432D3 		.ascii	"l$2\323J\"\312\242/g\312\254e\247IH\265\243s\226\231"
 375      4A22CAA2 
 375      2F67CAAC 
 375      65A74948 
 375      B5A37396 
 376 09e6 4E52380D 		.ascii	"NR8\015]\2556t\315\266\324\324\265\206\203O-\266\363"
 376      5DAD3674 
 376      CDB6D4D4 
 376      B586834F 
 376      2DB6F3
 377 09f9 16127CDA 		.ascii	"\026\022|\332\221Vg&\355i\263\2638\230\234\337Xu\364"
 377      91566726 
 377      ED69B3B3 
 377      38989CDF 
 377      5875F4
 378 0a0c 5FFE24CB 		.ascii	"_\376$\313\275\004v.\232\371\246;\314f\3565\231\271"
 378      BD04762E 
 378      9AF9A63B 
ARM GAS  /tmp/ccCZcsMQ.s 			page 30


 378      CC66EE35 
 378      99B9
 379 0a1e D768B95E 		.ascii	"\327h\271^_\342&q\314%NS\023\253\327\244\351H\006\031"
 379      5FE22671 
 379      CC254E53 
 379      13ABD7A4 
 379      E9480619 
 380 0a32 E653D076 		.ascii	"\346S\320v\255\341\263\276+\220\266?\360\270\201\236"
 380      ADE1B3BE 
 380      2B90B63F 
 380      F0B8819E 
 381 0a42 445B1B67 		.ascii	"D[\033g\012\326M\241\220I:\311\252\332y\207\265\252"
 381      0AD64DA1 
 381      90493AC9 
 381      AADA7987 
 381      B5AA
 382 0a54 961855F5 		.ascii	"\226\030U\365Kf\251\254\354\2018\245u-\316\366a\366"
 382      4B66A9AC 
 382      EC8138A5 
 382      752DCEF6 
 382      61F6
 383 0a66 D9D9C9F6 		.ascii	"\331\331\311\366\323f\021\035q\024\333\331A\002\217"
 383      D366111D 
 383      7114DBD9 
 383      41028F
 384 0a75 60D5D792 		.ascii	"`\325\327\222\341\354\327\357\242\332\345\253\235l'"
 384      E1ECD7EF 
 384      A2DAE5AB 
 384      9D6C27
 385 0a84 8F02E498 		.ascii	"\217\002\344\230\343i\241\3366B\255&}\366\351\373\232"
 385      E369A1DE 
 385      3642AD26 
 385      7DF6E9FB 
 385      9A
 386 0a95 AA12505A 		.ascii	"\252\022PZt\254;\015\250\244:\002\223|\230E-U\037\217"
 386      74AC3B0D 
 386      A8A43A02 
 386      937C9845 
 386      2D551F8F 
 387 0aa9 A7EFC2D7 		.ascii	"\247\357\302\327\011`\254`S\012\246\177\274\333Xr\005"
 387      0960AC60 
 387      530AA67F 
 387      BCDB5872 
 387      05
 388 0aba 6F1D4B7A 		.ascii	"o\035Kz\014Z\321J\201\234\316\231\345\224L\305\273F"
 388      0C5AD14A 
 388      819CCE99 
 388      E5944CC5 
 388      BB46
 389 0acc 4181ABD5 		.ascii	"A\201\253\325U\357\377\202\255\225\3535\375Y-\015fj"
 389      55EFFF82 
 389      AD95EB35 
 389      FD592D0D 
 389      666A
 390 0ade 30E50943 		.ascii	"0\345\011C\234v\275\225\247\007\013y\262\320p\321d4"
 390      9C76BD95 
 390      A7070B79 
ARM GAS  /tmp/ccCZcsMQ.s 			page 31


 390      B2D070D1 
 390      6434
 391 0af0 696138E6 		.ascii	"ia8\346&VY\305'\255\331\034\256\326\216\026\362N\226"
 391      265659C5 
 391      27ADD91C 
 391      AED68E16 
 391      F24E96
 392 0b03 5E67B7DB 		.ascii	"^g\267\333\236\210\354\210\013\340\376\004\345'\276"
 392      9E88EC88 
 392      0BE0FE04 
 392      E527BE
 393 0b12 BF40296F 		.ascii	"\277@)oD\312_\355\226\226r#\014\307\314\301*k\223)?"
 393      44CA5FED 
 393      96967223 
 393      0CC7CCC1 
 393      2A6B9329 
 394 0b27 AB9DCA5A 		.ascii	"\253\235\312Z\353\210\362u\007\364\2535\332\2621\251"
 394      EB88F275 
 394      07F4AB35 
 394      DAB231A9 
 395 0b37 9B62B5C6 		.ascii	"\233b\265\306`\215z\274*\245\211\236\206i\302`n\243"
 395      608D7ABC 
 395      2AA5899E 
 395      8669C260 
 395      6EA3
 396 0b49 19CCD5A2 		.ascii	"\031\314\325\242\261\254\035\224\242g\337\016\273\006"
 396      B1AC1D94 
 396      A267DF0E 
 396      BB06
 397 0b57 CB3150B6 		.ascii	"\3131P\266w\236q]\255\303\011^\212\323*\352\211$\012"
 397      779E715D 
 397      ADC3095E 
 397      8AD32AEA 
 397      89240A
 398 0b6a F69D6B30 		.ascii	"\366\235k0#q\207\016\350\216\2764\304u\233\002\314\352"
 398      2371870E 
 398      E88EBE34 
 398      C4759B02 
 398      CCEA
 399 0b7c 4C87D5A5 		.ascii	"L\207\325\2457\022\201]\307\223U\237&\236\254\315\254"
 399      3712815D 
 399      C793559F 
 399      269EACCD 
 399      AC
 400 0b8d C7FC13CC 		.ascii	"\307\374\023\3147`\336\214\371\247\274a=pe7\315G,M1"
 400      3760DE8C 
 400      F9A7BC61 
 400      3D706537 
 400      CD472C4D 
 401 0ba2 9D49C8CA 		.ascii	"\235I\310\312\002{\347\030\253U\317N\370\306\226K\212"
 401      027BE718 
 401      AB55CF4E 
 401      F8C6964B 
 401      8A
 402 0bb3 177DE333 		.ascii	"\027}\3433\364\215\325\351}\303\200\002\343\021\326"
 402      F48DD5E9 
 402      7DC38002 
ARM GAS  /tmp/ccCZcsMQ.s 			page 32


 402      E311D6
 403 0bc2 D89CE41A 		.ascii	"\330\234\344\032-m\232klv\340\032U\312\267s\235m\352"
 403      2D6D9A6B 
 403      6C76E01A 
 403      55CAB773 
 403      9D6DEA
 404 0bd5 19BB382D 		.ascii	"\031\2738-\332\375A=\364\274\015\271\3706=\027F\030"
 404      DAFD413D 
 404      F4BC0DB9 
 404      F8363D17 
 404      4618
 405 0be7 8E398B55 		.ascii	"\2169\213Uv$\263\321\242\261\261\303\021\033\213\347"
 405      7624B3D1 
 405      A2B1B1C3 
 405      111B8BE7 
 406 0bf7 6A76BF95 		.ascii	"jv\277\225O\254'\357Hm]\266\352\254R\336jCS\245`k]\203"
 406      4FAC27EF 
 406      486D5DB6 
 406      EAAC52DE 
 406      6A4353A5 
 407 0c0f 19ED7E4D 		.ascii	"\031\355~M\333\242\276r\375g\2546/\270\025g\332j\012"
 407      DBA2BE72 
 407      FD67AC36 
 407      2FB81567 
 407      DA6A0A
 408 0c22 90AEC7A8 		.ascii	"\220\256\307\250R\032\333\314\307\231\322\2063\323\316"
 408      521ADBCC 
 408      C799D286 
 408      33D3CE
 409 0c31 2B74E971 		.ascii	"+t\351q\037F3S\263\335F3\034\363F6\233^\012)\217\322"
 409      1F463353 
 409      B3DD4633 
 409      1CF34636 
 409      9B5E0A29 
 410 0c47 7DB54CDB 		.ascii	"}\265L\333|\307\005\224Z'\200V}\223\325\2457\"\201\335"
 410      7CC70594 
 410      5A278056 
 410      7D93D5A5 
 410      372281DD 
 411 0c5b 893DC02E 		.ascii	"\211=\300.\364\364V\314wc\276\027\363\257\365\276o\027"
 411      F4F456CC 
 411      7763BE17 
 411      F3AFF5BE 
 411      6F17
 412 0c6d 1510D5C7 		.ascii	"\025\020\325\307\261\2519m\356\2629]H6'7`Fs\372\311"
 412      B1A9396D 
 412      EEB2395D 
 412      48362737 
 412      604673FA 
 413 0c82 604E02BB 		.ascii	"`N\002\273\2077\341\2714\2479\363\262[\307j\26697\233"
 413      8737E1B9 
 413      34A739F3 
 413      B25BC76A 
 413      B639379B 
 414 0c96 7509D62B 		.ascii	"u\011\326+\225R6\353\224\322\202J\371\002Up\010\363"
 414      955236EB 
 414      94D2824A 
ARM GAS  /tmp/ccCZcsMQ.s 			page 33


 414      F9025570 
 414      08F3
 415 0ca8 76CCBF31 		.ascii	"v\314\2771v\305K\262M]\261\241\347\263\032\030\364\342"
 415      76C54BB2 
 415      4D5DB1A1 
 415      E7B31A18 
 415      F4E2
 416 0cba 9195D5ED 		.ascii	"\221\225\325\355 k\247;b'.+\264\007\353\300\036ly\266"
 416      206BA73B 
 416      62272E2B 
 416      B407EBC0 
 416      1E6C79B6 
 417 0cce 650F966A 		.ascii	"e\017\226jGl-V9\226\034\243\334\322z\260c\351{\260\251"
 417      476C2D56 
 417      39961CA3 
 417      DCD27AB0 
 417      63E97BB0 
 418 0ce3 5394050B 		.ascii	"S\224\005\013\227':\342)q\277>\301\332\007\256\2063"
 418      97273AE2 
 418      2971BF3E 
 418      C1DA07AE 
 418      8633
 419 0cf5 925BE274 		.ascii	"\222[\342t\2704Qk\305\035\323)\356\004*\356\244QM\273"
 419      B834516B 
 419      C51DD329 
 419      EE042AEE 
 419      A4514DBB 
 420 0d09 CC6AB26A 		.ascii	"\314j\262j/\305\016\332\372v-&\243\377\372\263\327\214"
 420      2FC50EDA 
 420      FA762D26 
 420      A3FFFAB3 
 420      D78C
 421 0d1b 576FF8BF 		.ascii	"Wo\370\277\036+\300\234T\014\254\3221\260\032\031X\203"
 421      1E2BC09C 
 421      540CACD2 
 421      31B01A19 
 421      5883
 422 0d2d D6A6607E 		.ascii	"\326\246`~\004\3633F\226\016\307\265o\031I\023\324\277"
 422      04F33346 
 422      960EC7B5 
 422      6F194913 
 422      D4BF
 423 0d3f 98E65264 		.ascii	"\230\346Rd\002t\364\276\225\226\023 \303\014:y\212p"
 423      0274F4BE 
 423      95961320 
 423      C30C3A79 
 423      8A70
 424 0d51 4E9DA818 		.ascii	"N\235\250\030\246\026G\315$$\327;o\232\203)05\274\332"
 424      A61647CD 
 424      2424D73B 
 424      6F9A8329 
 424      3035BCDA 
 425 0d65 EF932A59 		.ascii	"\357\223*Y6\221@\376\333\3100\011\323\254\031\2542\315"
 425      369140FE 
 425      DBC83009 
 425      D3AC19AC 
 425      32CD
ARM GAS  /tmp/ccCZcsMQ.s 			page 34


 426 0d77 81049821 		.ascii	"\201\004\230!\266\366%\333\346i\0170\010\354\217 \334"
 426      B6F625DB 
 426      E6690F30 
 426      08EC8F20 
 426      DC
 427 0d88 B4C570D1 		.ascii	"\264\305p\321\317\344#\312\0151\207\276M?\276\337\274"
 427      CFE423CA 
 427      0D3187BE 
 427      4D3FBEDF 
 427      BC
 428 0d99 B9951ED4 		.ascii	"\271\225\036\3248\216\221\350i\354B/w\271?\356<\215"
 428      388E91E8 
 428      69EC422F 
 428      77B93FEE 
 428      3C8D
 429 0dab 70A631F4 		.ascii	"p\2461\364;\2331\024\227\007y\323px\0325\345\206\204"
 429      3B9B3114 
 429      970779D3 
 429      70781A35 
 429      E58684
 430 0dbe 1C030935 		.ascii	"\034\003\0115-8$\\\307\361\370\274\023\260\024]x\255"
 430      2D38245C 
 430      C7F1F8BC 
 430      13B0145D 
 430      78AD
 431 0dd0 1EECAA6B 		.ascii	"\036\354\252k\260\234$\357\241~s\005\375\346*\372\312"
 431      B09C24EF 
 431      A17E7305 
 431      FDE62AFA 
 431      CA
 432 0de1 35CC7FC6 		.ascii	"5\314\177\306\374\226\321o\344\356\346h\202*U\207\227"
 432      FC96D16F 
 432      E4EEE668 
 432      822A5587 
 432      97
 433 0df2 D03D931E 		.ascii	"\320=\223\036\321Z\007&e]\262\341\217\340O\366\030\202"
 433      D15A0726 
 433      655DB2E1 
 433      8FE04FF6 
 433      1882
 434 0e04 9904E410 		.ascii	"\231\004\344\020#\373:G\241\225\254\213\011l\225G\363"
 434      23FB3A47 
 434      A195AC8B 
 434      096C9547 
 434      F3
 435 0e15 D576FD31 		.ascii	"\325v\3751/\335#\307\274\336\335\344\272I(S<\034\363"
 435      2FDD23C7 
 435      BCDEDDE4 
 435      BA492853 
 435      3C1CF3
 436 0e28 00B3B8FB 		.ascii	"\000\263\270\373b\231\276y\234\371P\236\256\200\017"
 436      6299BE79 
 436      9CF9509E 
 436      AE800F
 437 0e37 5C04978D 		.ascii	"\\\004\227\215\353\365\177\230\353\362|\031\234Zy\230"
 437      EBF57F98 
 437      EBF27C19 
ARM GAS  /tmp/ccCZcsMQ.s 			page 35


 437      9C5A7998 
 438 0e47 A7541137 		.ascii	"\247T\0217omU\366~AzL\360\363[\235\235,\025\000\307"
 438      6F6D55F6 
 438      7E417A4C 
 438      F0F35B9D 
 438      9D2C1500 
 439 0e5c AC33B79A 		.ascii	"\2543\267\232\354w\323=\234\256\271!\264&U\002mK\331"
 439      EC77D33D 
 439      9CAEB921 
 439      B4265502 
 439      6D4BD9
 440 0e6f FF05EB64 		.ascii	"\377\005\353d\213sz\374\237\246\372\253\3203=n\027["
 440      8B737AFC 
 440      9FA6FAAB 
 440      D0333D6E 
 440      175B
 441 0e81 DEF0582F 		.ascii	"\336\360X/\266h&hW\357\365\204J\037`6\203\010\347\017"
 441      B6682668 
 441      57EFF584 
 441      4A1F6036 
 441      8308E70F 
 442 0e95 49344F6D 		.ascii	"I4Om\21103]V\33225oU7\264\250\215\021\274\353\030\323"
 442      8930335D 
 442      56DA3235 
 442      6F5537B4 
 442      A88D11BC 
 443 0eac 516B534B 		.ascii	"QkSK\037\212\227\326o\005\251TPQj\326d#\225\301\032"
 443      1F8A97D6 
 443      6F05A954 
 443      50516AD6 
 443      642395C1 
 444 0ec1 A9992A2D 		.ascii	"\251\231*-\263]\013\245\326F(\031*9f\323O\321O\325y"
 444      B35D0BA5 
 444      D6462819 
 444      2A3966D3 
 444      4FD14FD5 
 445 0ed6 ACB7820D 		.ascii	"\254\267\202\015$'\325\232c[\353l\212\266\336\364\230"
 445      2427D59A 
 445      635BEB6C 
 445      8AB6DEF4 
 445      98
 446 0ee7 3753179F 		.ascii	"7S\027\237\277\370\333\367\033\311Ht\253\363\225\311"
 446      BFF8DBF7 
 446      1BC94874 
 446      ABF395C9 
 447 0ef7 53596D0F 		.ascii	"SYm\017\247\272\207\223\315\270\271\036\323f\334<\217"
 447      A7BA8793 
 447      CDB8B91E 
 447      D366DC3C 
 447      8F
 448 0f08 C55E5FC7 		.ascii	"\305^_\307\017\363\366\337K\216\201\221\375\253\376"
 448      0FF3F6DF 
 448      4B8E8191 
 448      FDABFE
 449 0f17 5A0B358E 		.ascii	"Z\0135\216ZX`na\241e\013?\375pq\344\265\004\033\375"
 449      5A58606E 
 449      61A1650B 
ARM GAS  /tmp/ccCZcsMQ.s 			page 36


 449      3FFD7071 
 449      E4B5041B 
 450 0f2c 9D6F922D 		.ascii	"\235o\222-\366\230\326\3057$o\370\3550\220\212%9\346"
 450      F698D6C5 
 450      37246FF8 
 450      ED30908A 
 450      2539E6
 451 0f3f 500F758F 		.ascii	"P\017u\217C\335h\336\015=:\253\375\377\347\237\261\306"
 451      43DD68DE 
 451      0D3D3AAB 
 451      FDFFE79F 
 451      B1C6
 452 0f51 228FDD56 		.ascii	"\"\217\335V\263z\204M\345\370\322\344Q}\343\034/2s\274"
 452      B37A844D 
 452      E5F8D2E4 
 452      517DE31C 
 452      2F3273BC 
 453 0f65 C492E3C5 		.ascii	"\304\222\343\305\347w\227Z)\356\234#\261.37\262\334"
 453      E777975A 
 453      29EE9C23 
 453      B12E3337 
 453      B2DC
 454 0f77 46716793 		.ascii	"Fqg\223\025w\335Q\013+\314-\274kl\301d\265^{S\177/a"
 454      1577DD51 
 454      0B2BCC2D 
 454      BC6B6CC1 
 454      64B55E7B 
 455 0f8f B4E8A053 		.ascii	"\264\350\240SR\356T\010l3\036!J\177&\320*"
 455      52EE5408 
 455      6C331E21 
 455      4A7F26D0 
 455      2A
 456 0fa0 04CAD0A0 		.ascii	"\004\312\320\240\3062\361\310j\361\365\213az \361\003"
 456      C632F1C8 
 456      6AF1F58B 
 456      617A20F1 
 456      03
 457 0fb1 0FE9C0D7 		.ascii	"\017\351\300\327\367L\277\240k\300!D\255\366\230B\251"
 457      F74CBFA0 
 457      6BC02144 
 457      ADF69842 
 457      A9
 458 0fc2 BAF66CB2 		.ascii	"\272\366l\262\357H\336\247\237j\274\331\256\235\347"
 458      EF48DEA7 
 458      9F6ABCD9 
 458      AE9DE7
 459 0fd1 7ADF43CC 		.ascii	"z\337C\314k\013\222@\352v!\232\002\274\271\355\030}"
 459      6B0B9240 
 459      EA76219A 
 459      02BCB9ED 
 459      187D
 460 0fe3 50B06DAE 		.ascii	"P\260m\256\301r\014`\363\365`_9\001\263\213\213\000"
 460      C1720C60 
 460      F3F5605F 
 460      3901B38B 
 460      8B00
 461 0ff5 6CA11E6C 		.ascii	"l\241\036l\217k0#e\213\364"
ARM GAS  /tmp/ccCZcsMQ.s 			page 37


 461      8F6B3023 
 461      658BF4
 462 1000 60079C80 		.ascii	"`\007\234\200\331-\254\002\330[z\260C\256\301\214\224"
 462      D92DAC02 
 462      D85B7AB0 
 462      43AEC18C 
 462      94
 463 1011 ADD6831D 		.ascii	"\255\326\203\035v\002f\367\317r\000\326\250\007;\356"
 463      760266F7 
 463      CF7200D6 
 463      A8073BEE 
 464 1021 1ACC48D9 		.ascii	"\032\314H\331Gz\2603N\300r\354)\373X\017v\3365\230\221"
 464      477AB033 
 464      4EC072EC 
 464      29FB580F 
 464      76DE3598 
 465 1036 B2263DD8 		.ascii	"\262&=\330%'`v\223Y\000\373D\017v\3055\230\221\262f"
 465      25276076 
 465      935900FB 
 465      440F76C5 
 465      359891B2 
 466 104b 3DD80D27 		.ascii	"=\330\015'`\003\355(\233\254l\374\257\032A?%%\2506\221"
 466      6003ED28 
 466      9BAC6CFC 
 466      AF1A413F 
 466      2525A836 
 467 1060 A2BED806 		.ascii	"\242\276\330\006\326\266\230\300\356t\035\340\354\262"
 467      D6B698C0 
 467      EE741DE0 
 467      ECB2
 468 106e 0970F427 		.ascii	"\011p\364'\023\022\245\200\355N3\333F*\254\3706\012"
 468      1312A580 
 468      ED4E33DB 
 468      462AACF8 
 468      360A
 469 1080 B1552FC4 		.ascii	"\261U/\304)\275\034\010q\210=\330\036=\330t'`#\355m"
 469      29BD1C08 
 469      71883DD8 
 469      1E3DD874 
 469      276023ED 
 470 1095 659F1E6C 		.ascii	"e\237\036l\246k0#emz\260\331N\300F\331S\366\265\036"
 470      A66B3023 
 470      656D7AB0 
 470      D94EC046 
 470      D953F6B5 
 471 10aa 6C8E6B30 		.ascii	"l\216k0=e\223\225C\011\303\243\363+\235\345\245\232"
 471      3D659395 
 471      4309C3A3 
 471      F32B9DE5 
 471      A59A
 472 10bc 86E92C2F 		.ascii	"\206\351,/i\002\365\255\203i\330B3\335\006\024\365v"
 472      6902F5AD 
 472      8369D842 
 472      33DD0614 
 472      F576
 473 10ce 8C8510AC 		.ascii	"\214\205\020\254.\375H+\260k<$\024h\364\220\011\353"
 473      2EFD482B 
ARM GAS  /tmp/ccCZcsMQ.s 			page 38


 473      B06B3C24 
 473      1468F490 
 473      09EB
 474 10e0 47987F8C 		.ascii	"G\230\177\214y\023\346\237`\336\214\371F\314\025\314"
 474      7913E69F 
 474      60DE8CF9 
 474      46CC15CC 
 475 10f0 3FC77C33 		.ascii	"?\307|3\346-\230o\305|;\346;0\337\215\371^\314\367c"
 475      E62D986F 
 475      C57C3BE6 
 475      3B30DF8D 
 475      F95ECCF7 
 476 1105 7E00F383 		.ascii	"~\000\363\203\230\267{t\223cS\244\363\201\215\202\010"
 476      98B77B74 
 476      936353A4 
 476      F3818D82 
 476      08
 477 1116 ED476CA3 		.ascii	"\355Gl\243\372\353)\242\372\016\333Z\344\334\214]\255"
 477      FAEB29A2 
 477      FA0EDB5A 
 477      E4DC8C5D 
 477      AD
 478 1127 A3B6B566 		.ascii	"\243\266\265f\245\250\365]\322\014\342V\303\347\301"
 478      A5A8F55D 
 478      D20CE256 
 478      C3E7C1
 479 1136 788C688A 		.ascii	"x\214h\212\273o\2468\276u\334\223|\302pc/\313\320\262"
 479      BB6FA638 
 479      BE75DC93 
 479      7CC27063 
 479      2FCBD0B2 
 480 114a 4A5EBD42 		.ascii	"J^\275B\366j\007}\004\366X\"\2566\235L\305\317',c\331"
 480      F66A077D 
 480      04F65822 
 480      AE369D4C 
 480      C5CF272C 
 481 1160 3DCBB7FF 		.ascii	"=\313\267\377B\027\313\222\3469froG\015\236J\335\340"
 481      4217CB92 
 481      E6396672 
 481      6F470D9E 
 481      4ADDE0
 482 1173 9F2D1B3C 		.ascii	"\237-\033<\264\362\320#I\015ns\326\340\231\324\015~"
 482      B4F2D023 
 482      490D6E73 
 482      D6E099D4 
 482      0D7E
 483 1185 9F32965E 		.ascii	"\2372\226^\226X\234H\222\372Y[\255\277\227by\346\234"
 483      96589C48 
 483      92FA595B 
 483      ADBF9762 
 483      79E69C
 484 1198 6DADBA14 		.ascii	"m\255\272\024\266r\336\266\326\271\024\024^\260\255"
 484      B672DEB6 
 484      D6B91414 
 484      5EB0AD
 485 11a7 7532850F 		.ascii	"u2\205\017\\L\262\313k\015\333\012\376\224\230 \015"
 485      5C4CB2CB 
ARM GAS  /tmp/ccCZcsMQ.s 			page 39


 485      6B0DDB0A 
 485      FE949820 
 485      0D
 486 11b8 35996653 		.ascii	"5\231fS\212\311\365%\013\323\374\306Nq\215+\310\001"
 486      8AC9F525 
 486      0BD3FCC6 
 486      4E718D2B 
 486      C801
 487 11ca 637A7249 		.ascii	"czrI`\177\260\231\362\251x?ZY\212rm\317\"\365\334\360"
 487      607FB099 
 487      F2A9783F 
 487      5A598A72 
 487      6DCF22F5 
 488 11e0 26B97F96 		.ascii	"&\271\177\226\213C]W,\010=\227\232P\372\037\013\002"
 488      8B435D57 
 488      2C083D97 
 488      9A50FA1F 
 488      0B02
 489 11f2 7B3935A1 		.ascii	"{95\241W\215\2042\017\016\030\220K\377\"\261\334\250"
 489      578D8432 
 489      0F0E1890 
 489      4BFF22B1 
 489      DCA8
 490 1204 941B0C07 		.ascii	"\224\033\014\007B\025\305bn\24046)&M*\027c\003J\231"
 490      4215C562 
 490      6EA03436 
 490      29264D2A 
 490      1763034A 
 491 1219 2CA9342A 		.ascii	",\2514*\012\305~)c\304\363/\344\3443\276@\251\237\276"
 491      0AC57E29 
 491      63C4F32F 
 491      E4E433BE 
 491      40A99FBE 
 492 122d CAB1AF1E 		.ascii	"\312\261\257\036(-\206\252=i\271\230\377\345\012\261"
 492      282D86AA 
 492      3D69B998 
 492      FFE50AB1 
 493 123d 42F44BBD 		.ascii	"B\364K\275\342U\325W\236\2608Q\362\224G\305\011^|\036"
 493      E255D557 
 493      9EB03851 
 493      F29447C5 
 493      095E7C1E 
 494 1251 AC470C44 		.ascii	"\254G\014D\312\312\"\341\334\362HT\212\345\016-,\310"
 494      CACA22E1 
 494      DCF24854 
 494      8AE50E2D 
 494      2CC8
 495 1263 2F9848DE 		.ascii	"/\230H\336\225\007Cb4\226;\"?\037\032\322\210\314\224"
 495      95074362 
 495      34963B22 
 495      3F1F1AD2 
 495      88CC94
 496 1276 CAA3C188 		.ascii	"\312\243\301\210_*\312-\215\224\211\271/V\204\202B8"
 496      5F2ACA2D 
 496      8D9489B9 
 496      2F568482 
 496      4238
ARM GAS  /tmp/ccCZcsMQ.s 			page 40


 497 1288 B760F888 		.ascii	"\267`\370\210\241\2711\261L\214IQ\321\037\234\230;\274"
 497      A1B931B1 
 497      4C8C4951 
 497      D11F9C98 
 497      3BBC
 498 129a 6C9C382E 		.ascii	"l\2348.X\014\340B\264\354\321A\003\363\036\033\220\227"
 498      580CE042 
 498      B4ECD141 
 498      03F31E1B 
 498      9097
 499 12ac 87F7E148 		.ascii	"\207\367\341HX|T\024\306\005\343\\\304\244\342`X\"\002"
 499      587C5414 
 499      C605E35C 
 499      C4A4E260 
 499      582202
 500 12bf A880DFC7 		.ascii	"\250\200\337\307\006\371\011\241\301H6\241\307\037\210"
 500      06F909A1 
 500      C14836A1 
 500      C71F88
 501 12ce 842520FD 		.ascii	"\204% \375\221\264\364\226\006\"Q\021@\272a5\000\012"
 501      91B4F496 
 501      06225111 
 501      40BA6135 
 501      000A
 502 12e0 48131F75 		.ascii	"H\023\037uV\313?\341\3112\322|T,\001\012\375\022\027"
 502      56CB3FE1 
 502      C932D27C 
 502      542C010A 
 502      FD1217
 503 12f3 7D9C8BFE 		.ascii	"}\234\213\376\023\027}\202\213>\311E\007s\321\177\346"
 503      13177D82 
 503      8B3EC945 
 503      0773D17F 
 503      E6
 504 1304 A3790321 		.ascii	"\243y\003!\345q\241(\027+\347\001\332\033\026+\305\250"
 504      E571A128 
 504      172BE701 
 504      DA1B162B 
 504      C5A8
 505 1316 37122A16 		.ascii	"7\022*\026\243\236@\251\020\365\204\2052\361\216\230"
 505      A39E40A9 
 505      10F58485 
 505      32F18E98 
 506 1326 F492100A 		.ascii	"\364\222\020\012\226\204\375\0222\363\304\343\240\315"
 506      9684FD12 
 506      32F3C4E3 
 506      A0CD
 507 1334 4A619C10 		.ascii	"Ja\234\020\023\263\244\230$H\240\233L\362a\260_\362"
 507      13B3A498 
 507      2448A09B 
 507      4CF261B0 
 507      5FF2
 508 1346 E273A654 		.ascii	"\342s\246T\026)\206\267\336\361!\241$\226\011\342\033"
 508      162986B7 
 508      DEF121A1 
 508      249609E2 
 508      1B
ARM GAS  /tmp/ccCZcsMQ.s 			page 41


 509 1357 1F030190 		.ascii	"\037\003\001\220\037oY\254\004\212\2532\311\210\026"
 509      1F6F59AC 
 509      048AAB32 
 509      C98816
 510 1366 4F821759 		.ascii	"O\202\027Y\342\304\240\024\200*\031\225Rd\334\213\345"
 510      E2C4A014 
 510      802A1995 
 510      5264DC8B 
 510      E5
 511 1377 DE4A498A 		.ascii	"\336JI\212\226g\306\304\260\004_\263A\357\240\006\241"
 511      9667C6C4 
 511      B0045FB3 
 511      41EFA006 
 511      A1
 512 1388 BC14D8EA 		.ascii	"\274\024\330\352go5\"\341\327\033\010K~\211\207\034"
 512      676F3522 
 512      E1D71B08 
 512      4B7E8987 
 512      1C
 513 1399 B0E05579 		.ascii	"\260\340Uy\026\324.\253\000q\333\327,\223&\222\232\221"
 513      16D42EAB 
 513      0071DBD7 
 513      2C932692 
 513      9A91
 514 13ab CAB018CD 		.ascii	"\312\260\030\315\304\262\204A\011^\227w\023'\020\"\204"
 514      C4B28441 
 514      095E9777 
 514      13271022 
 514      84
 515 13bc D84BF04A 		.ascii	"\330K\360J\254$7lE\017\315\012C\301\0304\326Sg\227\344"
 515      AC24376C 
 515      450FCD0A 
 515      43C11834 
 515      D6536797 
 516 13d1 4D66A510 		.ascii	"Mf\245\020\224\202\341\222,\240\035\3552K,\027\303`"
 516      9482E192 
 516      2CA01DED 
 516      324B2C17 
 516      C360
 517 13e3 0E259900 		.ascii	"\016%\231\000IJ\200R\204\0201\007oYy$\022\352\243\372"
 517      494A8052 
 517      84103107 
 517      6F597924 
 517      12EAA3FA 
 518 13f7 08C8478C 		.ascii	"\010\310G\214\212\341\000H./N\254\004\346G\310\215E"
 518      8AE10048 
 518      2E2F4EAC 
 518      04E647C8 
 518      8D45
 519 1409 2AA20191 		.ascii	"*\242\001\221>\222\014D\002\340\244\360\300\201\217"
 519      3E920C44 
 519      02E0A4F0 
 519      C0818F
 520 1418 0F08800D 		.ascii	"\017\010\200\015#H\036[\336\007?\303[HyPL\252(\277\317"
 520      23481E5B 
 520      DE073FC3 
 520      5B487950 
ARM GAS  /tmp/ccCZcsMQ.s 			page 42


 520      4CAA28BF 
 521 142d F04A9C28 		.ascii	"\360J\234(\006\200\313\001\345BT\0320\360.\253o\367"
 521      0680CB01 
 521      E542541A 
 521      30F02EAB 
 521      6FF7
 522 143f 1BDB0F05 		.ascii	"\033\333\017\005\307\345\022.\341\036\035\223\324\020"
 522      C7E5122E 
 522      E11E1D93 
 522      D410
 523 144d CB82C07C 		.ascii	"\313\202\300|\344%1\014\216Y\024(-\024\301o\305\342"
 523      E425310C 
 523      8E591428 
 523      2D14C16F 
 523      C5E2
 524 145f 8A9058F4 		.ascii	"\212\220X\364w\266\242V\345\004 \240\325\321\245\305"
 524      77B6A256 
 524      E50420A0 
 524      D5D1A5C5 
 525 146f 50A9A24C 		.ascii	"P\251\242L|\366\221\364\354F#\021\322vo| \022\326d\356"
 525      7CF691F4 
 525      EC462311 
 525      D2766F7C 
 525      2012D664 
 526 1484 23BD4DB0 		.ascii	"#\275M\260LT\2553\357\011\277t\027b\027U\304\210\334"
 526      4C54AD33 
 526      EF09BF74 
 526      17621755 
 526      C488DC
 527 1497 47C3B748 		.ascii	"G\303\267H\205T\344\365?\003\262\356\213L\370\205XL"
 527      8554E4F5 
 527      3F03B2EE 
 527      8B4CF885 
 527      584C
 528 14a9 048FC27A 		.ascii	"\004\217\302z\225\301pq\2442[\377A\350JG@\204T\022\010"
 528      95C17071 
 528      A4325BFF 
 528      41E84A47 
 528      40845412 
 529 14be 983A84C7 		.ascii	"\230:\204\307\007\014\036\220\247\357\026\212\305\361"
 529      070C1E90 
 529      A7EF168A 
 529      C5F1
 530 14cc C047462C 		.ascii	"\300GF,\370;\3427\322\370\212p\300/\365F\212\363\201"
 530      F83BE237 
 530      D2F88A70 
 530      C02FF546 
 530      8AF381
 531 14df 21492C02 		.ascii	"!I,\002\027\012\006x)\232\347\243\212\226\304r\256R"
 531      170A0678 
 531      299AE7A3 
 531      8A96C472 
 531      AE52
 532 14f1 E846DC00 		.ascii	"\350F\334\000X\025\301\231}\361\373l\"\203I\252%v\207"
 532      5815C199 
 532      7DF1FB6C 
 532      228349AA 
ARM GAS  /tmp/ccCZcsMQ.s 			page 43


 532      257687
 533 1504 D789E7CC 		.ascii	"\327\211\347\314@E\024\314I\362F\311\323\335\023\202"
 533      404514CC 
 533      49F246C9 
 533      D3DD1382 
 534 1514 51A94208 		.ascii	"Q\251B\010!\317Q\315v\357\201\032\026\037z\032\336\321"
 534      21CF51CD 
 534      76EF811A 
 534      161F7A1A 
 534      DED1
 535 1526 AED7F0CA 		.ascii	"\256\327\360\312[,\206$!k\202J\276\207\374\360`OY!!"
 535      5B2C8624 
 535      216B824A 
 535      BE87FCF0 
 535      604F5921 
 536 153b 26911219 		.ascii	"&\221\022\031\023$\002\324C\245\270X\034WQB]E\377\306"
 536      132402D4 
 536      43A5B858 
 536      1C575142 
 536      5D45FFC6 
 537 154f 572E8483 		.ascii	"W.\204\203\001?8\012_<\256\344\2162\001\024\210Z\345"
 537      013F380A 
 537      5F3CAEE4 
 537      8E320114 
 537      885AE5
 538 1562 02A5AA41 		.ascii	"\002\245\252A\307\274h\301Y\222(DAM\341L\325B\357 \262"
 538      C7BC68C1 
 538      59922844 
 538      414DE14C 
 538      D542EF20 
 539 1577 09401F04 		.ascii	"\011@\037\004\302K\362\207{\007D#\305\202$\014H\372"
 539      C24BF287 
 539      7B074423 
 539      C582240C 
 539      48FA
 540 1589 92ADB7F6 		.ascii	"\222\255\267\366\376\252\211\344\010\220\250)\346\020"
 540      FEAA89E4 
 540      0890A829 
 540      E610
 541 1597 4EA46024 		.ascii	"N\244`$\014=\2364\211I\321\335L\"V\014\212(\232\024"
 541      0C3D9E34 
 541      8949D1DD 
 541      4C22560C 
 541      8A289A14 
 542 15ab 7B2E1278 		.ascii	"{.\022x\311\207]t\010\356\362,:h\350\355s\363\013\212"
 542      C9875D74 
 542      08EEF22C 
 542      3A68E8ED 
 542      73F30B8A 
 543 15bf 9E2D4A20 		.ascii	"\236-J \224\305\2021?\330\013\240t\367\0237\365?3\264"
 543      94C58231 
 543      3FD80BA0 
 543      74F71337 
 543      F53F33B4 
 544 15d3 68F8A8C2 		.ascii	"h\370\250\302g\273\013\241JaR\014\272\373P0,z'\010\241"
 544      67BB0BA1 
 544      4A61520C 
ARM GAS  /tmp/ccCZcsMQ.s 			page 44


 544      BAFB5030 
 544      2C7A2708 
 545 15e8 0AB11BB6 		.ascii	"\012\261\033\266\363B\230\340\323\301\240\002\357\007"
 545      F34298E0 
 545      D3C1A002 
 545      EF07
 546 15f6 E9DB2A15 		.ascii	"\351\333*\025B\352HP4\272\340\261A\271\317=7,w\364\263"
 546      42EA4850 
 546      34BAE0B1 
 546      41B9CF3D 
 546      372C77F4 
 547 160b 0513F2C0 		.ascii	"\005\023\362\300\354\312Hw\033$=d\267\370\003\364\223"
 547      ECCA4877 
 547      1B243D64 
 547      B7F803F4 
 547      93
 548 161c F9857990 		.ascii	"\371\205y\220\006y\212\012\362\013=\303\236\035^\310"
 548      06798A0A 
 548      F20B3DC3 
 548      9E1D5EC8 
 549 162c 1515F2C3 		.ascii	"\025\025\362\303G\024z\363\363\013\012\3630\037\344"
 549      47147AF3 
 549      F30B0AF3 
 549      301FE4
 550 163b C9CF1F5E 		.ascii	"\311\317\037^\310\347??\232\037U\224\317\017-,\344\013"
 550      C8E73F3F 
 550      9A1F5594 
 550      CF0F2D2C 
 550      E40B
 551 164d F3E1192A 		.ascii	"\363\341\031*<3lt!?\214\324,\030Z\310\375\033\255\365"
 551      3C336C74 
 551      213F8CD4 
 551      2C185AC8 
 551      FD1BADF5 
 552 1661 18941F53 		.ascii	"\030\224\037S\370\200\255\340&\0207\356\023(\375\315"
 552      F880ADE0 
 552      261037EE 
 552      1328FDCD 
 553 1671 E811A254 		.ascii	"\350\021\242T\204\306@\\tL\256\303q\015\355\017 \356"
 553      84C6405C 
 553      744CAEC3 
 553      710DED0F 
 553      20EE
 554 1683 44315003 		.ascii	"D1P\003-\021\351\335c\316\304\001_\300\253\374\241\020"
 554      2D11E9DD 
 554      63CEC401 
 554      5FC0ABFC 
 554      A110
 555 1695 0933FAD0 		.ascii	"\0113\372\320;\304\010D*`d\216Ro\004\362FA\037\035\005"
 555      3BC40844 
 555      2A60648E 
 555      526F04F2 
 555      46411F1D 
 556 16aa 3B18D35D 		.ascii	";\030\323]{S$\206\306\217\371\177q\035H\021"
 556      7B532486 
 556      C68FF97F 
 556      711D4811 
ARM GAS  /tmp/ccCZcsMQ.s 			page 45


 557              		.text
 558              		.section	.gnu.lto_.symtab.331f4bc9a8229f66,"",%progbits
 559 0000 74657374 		.ascii	"test_sequence_004\000\000\000\000\000\000\000\000\000"
 559      5F736571 
 559      75656E63 
 559      655F3030 
 559      34000000 
 560 001a 000000F0 		.ascii	"\000\000\000\360\001\000\000test_step\000\000\002\000"
 560      01000074 
 560      6573745F 
 560      73746570 
 560      00000200 
 561 002e 00000000 		.ascii	"\000\000\000\000\000\000\000\000\242\001\000\000wa\000"
 561      00000000 
 561      A2010000 
 561      776100
 562 003d 00020000 		.ascii	"\000\002\000\000\000\000\000\000\000\000\000\244\001"
 562      00000000 
 562      000000A4 
 562      01
 563 004a 00006368 		.ascii	"\000\000ch\000\000\002\000\000\000\000\000\000\000\000"
 563      00000200 
 563      00000000 
 563      000000
 564 0059 00AA0100 		.ascii	"\000\252\001\000\000threads\000\000\002\000\000\000"
 564      00746872 
 564      65616473 
 564      00000200 
 564      0000
 565 006b 00000000 		.ascii	"\000\000\000\000\000\000\355\001\000\000test_emit_t"
 565      0000ED01 
 565      00007465 
 565      73745F65 
 565      6D69745F 
 566 0080 6F6B656E 		.ascii	"oken\000\000\002\000\000\000\000\000\000\000\000\000"
 566      00000200 
 566      00000000 
 566      00000000 
 567 0090 6C010000 		.ascii	"l\001\000\000chSchRescheduleS\000\000\002\000\000\000"
 567      63685363 
 567      68526573 
 567      63686564 
 567      756C6553 
 568 00aa 00000000 		.ascii	"\000\000\000\000\000\000p\001\000\000chThdResumeI\000"
 568      00007001 
 568      00006368 
 568      54686452 
 568      6573756D 
 569 00c1 00020000 		.ascii	"\000\002\000\000\000\000\000\000\000\000\000r\001\000"
 569      00000000 
 569      00000072 
 569      0100
 570 00cf 00746573 		.ascii	"\000test_wait_threads\000\000\002\000\000\000\000\000"
 570      745F7761 
 570      69745F74 
 570      68726561 
 570      64730000 
ARM GAS  /tmp/ccCZcsMQ.s 			page 46


 571 00e9 00000000 		.ascii	"\000\000\000\000w\001\000\000chThdSuspendTimeoutS\000"
 571      77010000 
 571      63685468 
 571      64537573 
 571      70656E64 
 572 0106 00020000 		.ascii	"\000\002\000\000\000\000\000\000\000\000\000y\001\000"
 572      00000000 
 572      00000079 
 572      0100
 573 0114 005F7465 		.ascii	"\000_test_assert_time_window\000\000\002\000\000\000"
 573      73745F61 
 573      73736572 
 573      745F7469 
 573      6D655F77 
 574 0133 00000000 		.ascii	"\000\000\000\000\000\000\204\001\000\000_test_asser"
 574      00008401 
 574      00005F74 
 574      6573745F 
 574      61737365 
 575 0148 74000002 		.ascii	"t\000\000\002\000\000\000\000\000\000\000\000\000\215"
 575      00000000 
 575      00000000 
 575      008D
 576 0156 01000063 		.ascii	"\001\000\000chThdCreateStatic\000\000\002\000\000\000"
 576      68546864 
 576      43726561 
 576      74655374 
 576      61746963 
 577 0170 00000000 		.ascii	"\000\000\000\000\000\000\222\001\000\000"
 577      00009201 
 577      0000
 578              		.text
 579              		.section	.gnu.lto_.opts,"",%progbits
 580 0000 272D6D63 		.ascii	"'-mcpu=cortex-m3' '-mno-thumb-interwork' '-mthumb' "
 580      70753D63 
 580      6F727465 
 580      782D6D33 
 580      2720272D 
 581 0033 272D6767 		.ascii	"'-ggdb' '-O2' '-fomit-frame-pointer' '-falign-funct"
 581      64622720 
 581      272D4F32 
 581      2720272D 
 581      666F6D69 
 582 0066 696F6E73 		.ascii	"ions=16' '-ffunction-sections' '-fdata-sections' '-"
 582      3D313627 
 582      20272D66 
 582      66756E63 
 582      74696F6E 
 583 0099 666E6F2D 		.ascii	"fno-common' '-flto'\000"
 583      636F6D6D 
 583      6F6E2720 
 583      272D666C 
 583      746F2700 
 584              		.text
 585              		.cfi_sections	.debug_frame
 586              		.section	.text.test_004_001_setup,"ax",%progbits
 587              		.align	2
ARM GAS  /tmp/ccCZcsMQ.s 			page 47


 588              		.p2align 4,,15
 589              		.thumb
 590              		.thumb_func
 591              		.type	test_004_001_setup, %function
 592              	test_004_001_setup:
 593              	.LFB220:
 594              		.file 1 "../../../test/rt/source/test/test_sequence_004.c"
 595              		.loc 1 74 0
 596              		.cfi_startproc
 597              		@ args = 0, pretend = 0, frame = 0
 598              		@ frame_needed = 0, uses_anonymous_args = 0
 599              		@ link register save eliminated.
 600              		.loc 1 75 0
 601 0000 40F20003 		movw	r3, #:lower16:.LANCHOR0
 602 0004 C0F20003 		movt	r3, #:upper16:.LANCHOR0
 603 0008 0022     		movs	r2, #0
 604 000a 1A60     		str	r2, [r3]
 605 000c 7047     		bx	lr
 606              		.cfi_endproc
 607              	.LFE220:
 608              		.size	test_004_001_setup, .-test_004_001_setup
 609 000e 00BF     		.section	.text.thread1,"ax",%progbits
 610              		.align	2
 611              		.p2align 4,,15
 612              		.thumb
 613              		.thumb_func
 614              		.type	thread1, %function
 615              	thread1:
 616              	.LFB219:
 617              		.loc 1 44 0
 618              		.cfi_startproc
 619              		@ args = 0, pretend = 0, frame = 0
 620              		@ frame_needed = 0, uses_anonymous_args = 0
 621              	.LVL0:
 622 0000 10B5     		push	{r4, lr}
 623              		.cfi_def_cfa_offset 8
 624              		.cfi_offset 4, -8
 625              		.cfi_offset 14, -4
 626              	.LBB87:
 627              	.LBB88:
 628              	.LBB89:
 629              	.LBB90:
 630              		.file 2 "../../../os/common/ext/CMSIS/include/cmsis_gcc.h"
 631              		.loc 2 264 0
 632 0002 2023     		movs	r3, #32
 633              	.LBE90:
 634              	.LBE89:
 635              	.LBE88:
 636              	.LBE87:
 637              		.loc 1 44 0
 638 0004 0446     		mov	r4, r0
 639              	.LBB94:
 640              	.LBB93:
 641              	.LBB92:
 642              	.LBB91:
 643              		.loc 2 264 0
 644              	@ 264 "../../../os/common/ext/CMSIS/include/cmsis_gcc.h" 1
ARM GAS  /tmp/ccCZcsMQ.s 			page 48


 645 0006 83F31188 		MSR basepri, r3
 646              	@ 0 "" 2
 647              		.thumb
 648              	.LBE91:
 649              	.LBE92:
 650              	.LBE93:
 651              	.LBE94:
 652              		.loc 1 47 0
 653 000a 40F20000 		movw	r0, #:lower16:.LANCHOR0
 654              	.LVL1:
 655 000e C0F20000 		movt	r0, #:upper16:.LANCHOR0
 656 0012 0021     		movs	r1, #0
 657 0014 FFF7FEFF 		bl	chThdResumeI
 658              	.LVL2:
 659              		.loc 1 48 0
 660 0018 FFF7FEFF 		bl	chSchRescheduleS
 661              	.LVL3:
 662              	.LBB95:
 663              	.LBB96:
 664              	.LBB97:
 665              	.LBB98:
 666              	.LBB99:
 667              		.loc 2 264 0
 668 001c 0023     		movs	r3, #0
 669              	@ 264 "../../../os/common/ext/CMSIS/include/cmsis_gcc.h" 1
 670 001e 83F31188 		MSR basepri, r3
 671              	@ 0 "" 2
 672              		.thumb
 673              	.LBE99:
 674              	.LBE98:
 675              	.LBE97:
 676              	.LBE96:
 677              	.LBE95:
 678              		.loc 1 50 0
 679 0022 2078     		ldrb	r0, [r4]	@ zero_extendqisi2
 680              		.loc 1 51 0
 681 0024 BDE81040 		pop	{r4, lr}
 682              	.LVL4:
 683              		.loc 1 50 0
 684 0028 FFF7FEBF 		b	test_emit_token
 685              	.LVL5:
 686              		.cfi_endproc
 687              	.LFE219:
 688              		.size	thread1, .-thread1
 689 002c AFF30080 		.section	.text.test_004_001_execute,"ax",%progbits
 690              		.align	2
 691              		.p2align 4,,15
 692              		.thumb
 693              		.thumb_func
 694              		.type	test_004_001_execute, %function
 695              	test_004_001_execute:
 696              	.LFB221:
 697              		.loc 1 78 0
 698              		.cfi_startproc
 699              		@ args = 0, pretend = 0, frame = 0
 700              		@ frame_needed = 0, uses_anonymous_args = 0
 701 0000 70B5     		push	{r4, r5, r6, lr}
ARM GAS  /tmp/ccCZcsMQ.s 			page 49


 702              		.cfi_def_cfa_offset 16
 703              		.cfi_offset 4, -16
 704              		.cfi_offset 5, -12
 705              		.cfi_offset 6, -8
 706              		.cfi_offset 14, -4
 707              	.LBB141:
 708              	.LBB142:
 709              	.LBB143:
 710              	.LBB144:
 711              		.file 3 "../../../os/rt/include/chthreads.h"
 712              		.loc 3 286 0
 713 0002 40F20003 		movw	r3, #:lower16:ch
 714 0006 C0F20003 		movt	r3, #:upper16:ch
 715              	.LBE144:
 716              	.LBE143:
 717              		.loc 3 299 0
 718 000a 9A69     		ldr	r2, [r3, #24]
 719              	.LBE142:
 720              	.LBE141:
 721              		.loc 1 87 0
 722 000c 40F20003 		movw	r3, #:lower16:wa
 723 0010 9268     		ldr	r2, [r2, #8]
 724 0012 C0F20003 		movt	r3, #:upper16:wa
 725 0016 40F20001 		movw	r1, #:lower16:.LC0
 726              		.loc 1 85 0
 727 001a 40F20004 		movw	r4, #:lower16:test_step
 728              		.loc 1 78 0
 729 001e 82B0     		sub	sp, sp, #8
 730              		.cfi_def_cfa_offset 24
 731              		.loc 1 87 0
 732 0020 1868     		ldr	r0, [r3]
 733 0022 C0F20001 		movt	r1, #:upper16:.LC0
 734              		.loc 1 85 0
 735 0026 C0F20004 		movt	r4, #:upper16:test_step
 736 002a 0125     		movs	r5, #1
 737              		.loc 1 87 0
 738 002c 40F20003 		movw	r3, #:lower16:thread1
 739 0030 0091     		str	r1, [sp]
 740 0032 013A     		subs	r2, r2, #1
 741 0034 C0F20003 		movt	r3, #:upper16:thread1
 742 0038 4FF4A471 		mov	r1, #328
 743              		.loc 1 85 0
 744 003c 2560     		str	r5, [r4]
 745              		.loc 1 87 0
 746 003e FFF7FEFF 		bl	chThdCreateStatic
 747              	.LVL6:
 748 0042 40F20003 		movw	r3, #:lower16:threads
 749 0046 C0F20003 		movt	r3, #:upper16:threads
 750 004a 1860     		str	r0, [r3]
 751              	.LVL7:
 752              	.LBB145:
 753              	.LBB146:
 754              	.LBB147:
 755              	.LBB148:
 756              		.loc 2 264 0
 757 004c 2023     		movs	r3, #32
 758              	@ 264 "../../../os/common/ext/CMSIS/include/cmsis_gcc.h" 1
ARM GAS  /tmp/ccCZcsMQ.s 			page 50


 759 004e 83F31188 		MSR basepri, r3
 760              	@ 0 "" 2
 761              		.thumb
 762              	.LBE148:
 763              	.LBE147:
 764              	.LBE146:
 765              	.LBE145:
 766              		.loc 1 89 0
 767 0052 40F20000 		movw	r0, #:lower16:.LANCHOR0
 768 0056 4FF6FF71 		movw	r1, #65535
 769 005a C0F20000 		movt	r0, #:upper16:.LANCHOR0
 770 005e FFF7FEFF 		bl	chThdSuspendTimeoutS
 771              	.LVL8:
 772              	.LBB149:
 773              	.LBB150:
 774              	.LBB151:
 775              	.LBB152:
 776              	.LBB153:
 777              		.loc 2 264 0
 778 0062 0023     		movs	r3, #0
 779              	.LBE153:
 780              	.LBE152:
 781              	.LBE151:
 782              	.LBE150:
 783              	.LBE149:
 784              		.loc 1 89 0
 785 0064 0646     		mov	r6, r0
 786              	.LVL9:
 787              	.LBB158:
 788              	.LBB157:
 789              	.LBB156:
 790              	.LBB155:
 791              	.LBB154:
 792              		.loc 2 264 0
 793              	@ 264 "../../../os/common/ext/CMSIS/include/cmsis_gcc.h" 1
 794 0066 83F31188 		MSR basepri, r3
 795              	@ 0 "" 2
 796              		.thumb
 797              	.LBE154:
 798              	.LBE155:
 799              	.LBE156:
 800              	.LBE157:
 801              	.LBE158:
 802              		.loc 1 91 0
 803 006a 40F20005 		movw	r5, #:lower16:.LANCHOR0
 804 006e C0F20005 		movt	r5, #:upper16:.LANCHOR0
 805 0072 2868     		ldr	r0, [r5]
 806              	.LVL10:
 807 0074 40F20001 		movw	r1, #:lower16:.LC1
 808 0078 D0F10100 		rsbs	r0, r0, #1
 809 007c 38BF     		it	cc
 810 007e 0020     		movcc	r0, #0
 811 0080 C0F20001 		movt	r1, #:upper16:.LC1
 812 0084 FFF7FEFF 		bl	_test_assert
 813              	.LVL11:
 814 0088 08B1     		cbz	r0, .L8
 815              	.LVL12:
ARM GAS  /tmp/ccCZcsMQ.s 			page 51


 816              	.L3:
 817              		.loc 1 111 0
 818 008a 02B0     		add	sp, sp, #8
 819              		@ sp needed
 820 008c 70BD     		pop	{r4, r5, r6, pc}
 821              	.LVL13:
 822              	.L8:
 823              		.loc 1 92 0
 824 008e D6F10100 		rsbs	r0, r6, #1
 825 0092 40F20001 		movw	r1, #:lower16:.LC2
 826 0096 38BF     		it	cc
 827 0098 0020     		movcc	r0, #0
 828 009a C0F20001 		movt	r1, #:upper16:.LC2
 829 009e FFF7FEFF 		bl	_test_assert
 830              	.LVL14:
 831 00a2 0028     		cmp	r0, #0
 832 00a4 F1D1     		bne	.L3
 833              	.LBB159:
 834              	.LBB160:
 835              		.loc 1 93 0
 836 00a6 FFF7FEFF 		bl	test_wait_threads
 837              	.LVL15:
 838              		.loc 1 99 0
 839 00aa 0223     		movs	r3, #2
 840 00ac 2360     		str	r3, [r4]
 841              	.LVL16:
 842              	.LBB161:
 843              	.LBB162:
 844              	.LBB163:
 845              	.LBB164:
 846              		.loc 2 264 0
 847 00ae 2023     		movs	r3, #32
 848              	@ 264 "../../../os/common/ext/CMSIS/include/cmsis_gcc.h" 1
 849 00b0 83F31188 		MSR basepri, r3
 850              	@ 0 "" 2
 851              		.thumb
 852              	.LBE164:
 853              	.LBE163:
 854              	.LBE162:
 855              	.LBE161:
 856              		.loc 1 103 0
 857 00b4 40F20000 		movw	r0, #:lower16:.LANCHOR0
 858              	.LBB165:
 859              	.LBB166:
 860              	.LBB167:
 861              	.LBB168:
 862              		.file 4 "../../../os/hal/ports/STM32/LLD/TIMv1/hal_st_lld.h"
 863              		.loc 4 141 0
 864 00b8 4FF08043 		mov	r3, #1073741824
 865              	.LBE168:
 866              	.LBE167:
 867              	.LBE166:
 868              	.LBE165:
 869              		.loc 1 103 0
 870 00bc 4FF47A71 		mov	r1, #1000
 871 00c0 C0F20000 		movt	r0, #:upper16:.LANCHOR0
 872              	.LBB175:
ARM GAS  /tmp/ccCZcsMQ.s 			page 52


 873              	.LBB173:
 874              	.LBB171:
 875              	.LBB169:
 876              		.loc 4 141 0
 877 00c4 5C6A     		ldr	r4, [r3, #36]
 878              	.LBE169:
 879              	.LBE171:
 880              	.LBE173:
 881              	.LBE175:
 882              		.loc 1 103 0
 883 00c6 FFF7FEFF 		bl	chThdSuspendTimeoutS
 884              	.LVL17:
 885              	.LBB176:
 886              	.LBB174:
 887              	.LBB172:
 888              	.LBB170:
 889              		.loc 4 141 0
 890 00ca A4B2     		uxth	r4, r4
 891              	.LBE170:
 892              	.LBE172:
 893              	.LBE174:
 894              	.LBE176:
 895              		.loc 1 103 0
 896 00cc 0646     		mov	r6, r0
 897              	.LVL18:
 898              	.LBB177:
 899              	.LBB178:
 900              	.LBB179:
 901              	.LBB180:
 902              	.LBB181:
 903              		.loc 2 264 0
 904 00ce 0023     		movs	r3, #0
 905              	@ 264 "../../../os/common/ext/CMSIS/include/cmsis_gcc.h" 1
 906 00d0 83F31188 		MSR basepri, r3
 907              	@ 0 "" 2
 908              		.thumb
 909              	.LBE181:
 910              	.LBE180:
 911              	.LBE179:
 912              	.LBE178:
 913              	.LBE177:
 914              		.loc 1 105 0
 915 00d4 40F20002 		movw	r2, #:lower16:.LC3
 916 00d8 04F57A70 		add	r0, r4, #1000
 917              	.LVL19:
 918 00dc 04F2EB31 		addw	r1, r4, #1003
 919 00e0 80B2     		uxth	r0, r0
 920 00e2 89B2     		uxth	r1, r1
 921 00e4 C0F20002 		movt	r2, #:upper16:.LC3
 922 00e8 FFF7FEFF 		bl	_test_assert_time_window
 923              	.LVL20:
 924 00ec 0028     		cmp	r0, #0
 925 00ee CCD1     		bne	.L3
 926              		.loc 1 108 0
 927 00f0 2868     		ldr	r0, [r5]
 928 00f2 40F20001 		movw	r1, #:lower16:.LC1
 929 00f6 D0F10100 		rsbs	r0, r0, #1
ARM GAS  /tmp/ccCZcsMQ.s 			page 53


 930 00fa 38BF     		it	cc
 931 00fc 0020     		movcc	r0, #0
 932 00fe C0F20001 		movt	r1, #:upper16:.LC1
 933 0102 FFF7FEFF 		bl	_test_assert
 934              	.LVL21:
 935 0106 0028     		cmp	r0, #0
 936 0108 BFD1     		bne	.L3
 937              		.loc 1 109 0
 938 010a B6F1FF33 		subs	r3, r6, #-1
 939 010e 5842     		rsbs	r0, r3, #0
 940 0110 40F20001 		movw	r1, #:lower16:.LC2
 941 0114 5841     		adcs	r0, r0, r3
 942 0116 C0F20001 		movt	r1, #:upper16:.LC2
 943              	.LBE160:
 944              	.LBE159:
 945              		.loc 1 111 0
 946 011a 02B0     		add	sp, sp, #8
 947              		@ sp needed
 948 011c BDE87040 		pop	{r4, r5, r6, lr}
 949              	.LVL22:
 950              	.LBB183:
 951              	.LBB182:
 952              		.loc 1 109 0
 953 0120 FFF7FEBF 		b	_test_assert
 954              	.LVL23:
 955              	.LBE182:
 956              	.LBE183:
 957              		.cfi_endproc
 958              	.LFE221:
 959              		.size	test_004_001_execute, .-test_004_001_execute
 960              		.global	test_sequence_004
 961 0124 AFF30080 		.section	.rodata.test_sequence_004,"a",%progbits
 961      AFF30080 
 961      AFF30080 
 962              		.align	2
 963              		.type	test_sequence_004, %object
 964              		.size	test_sequence_004, 8
 965              	test_sequence_004:
 966 0000 00000000 		.word	test_004_001
 967 0004 00000000 		.word	0
 968              		.section	.bss.tr1,"aw",%nobits
 969              		.align	2
 970              		.set	.LANCHOR0,. + 0
 971              		.type	tr1, %object
 972              		.size	tr1, 4
 973              	tr1:
 974 0000 00000000 		.space	4
 975              		.section	.rodata.str1.4,"aMS",%progbits,1
 976              		.align	2
 977              	.LC0:
 978 0000 4100     		.ascii	"A\000"
 979 0002 0000     		.space	2
 980              	.LC1:
 981 0004 6E6F7420 		.ascii	"not NULL\000"
 981      4E554C4C 
 981      00
 982 000d 000000   		.space	3
ARM GAS  /tmp/ccCZcsMQ.s 			page 54


 983              	.LC2:
 984 0010 77726F6E 		.ascii	"wrong returned message\000"
 984      67207265 
 984      7475726E 
 984      6564206D 
 984      65737361 
 985 0027 00       		.space	1
 986              	.LC3:
 987 0028 6F757420 		.ascii	"out of time window\000"
 987      6F662074 
 987      696D6520 
 987      77696E64 
 987      6F7700
 988 003b 00       		.space	1
 989              	.LC4:
 990 003c 53757370 		.ascii	"Suspend and Resume functionality\000"
 990      656E6420 
 990      616E6420 
 990      52657375 
 990      6D652066 
 991 005d 000000   		.section	.rodata.test_004_001,"a",%progbits
 992              		.align	2
 993              		.type	test_004_001, %object
 994              		.size	test_004_001, 16
 995              	test_004_001:
 996 0000 3C000000 		.word	.LC4
 997 0004 00000000 		.word	test_004_001_setup
 998 0008 00000000 		.word	0
 999 000c 00000000 		.word	test_004_001_execute
 1000              		.text
 1001              	.Letext0:
 1002              		.file 5 "/home/julian/MEGA/semestre_ix/Embebidos/arm-2013.11/lib/gcc/arm-none-eabi/4.8.1/include/s
 1003              		.file 6 "/home/julian/MEGA/semestre_ix/Embebidos/arm-2013.11/arm-none-eabi/include/stdint.h"
 1004              		.file 7 "../../../os/common/ports/ARMCMx/compilers/GCC/chtypes.h"
 1005              		.file 8 "../../../os/rt/include/chsystypes.h"
 1006              		.file 9 "../../../os/rt/include/chschd.h"
 1007              		.file 10 "../../../os/common/ports/ARMCMx/chcore.h"
 1008              		.file 11 "../../../os/common/ports/ARMCMx/chcore_v7m.h"
 1009              		.file 12 "../../../os/hal/ports/STM32/LLD/TIMv1/stm32_tim.h"
 1010              		.file 13 "../../../os/rt/include/chsem.h"
 1011              		.file 14 "../../../os/rt/include/chmtx.h"
 1012              		.file 15 "../../../test/lib/ch_test.h"
 1013              		.file 16 "../../../os/common/ports/ARMCMx/chcore_timer.h"
 1014              		.file 17 "../../../os/rt/include/chsys.h"
 1015              		.file 18 "../../../os/rt/include/chvt.h"
 1016              		.file 19 "../../../os/common/ext/CMSIS/include/core_cm3.h"
 1017              		.file 20 "../../../test/rt/source/test/test_root.h"