ARM GAS  /tmp/ccoNZDVu.s 			page 1


   1              		.syntax unified
   2              		.cpu cortex-m3
   3              		.fpu softvfp
   4              		.eabi_attribute 20, 1
   5              		.eabi_attribute 21, 1
   6              		.eabi_attribute 23, 3
   7              		.eabi_attribute 24, 1
   8              		.eabi_attribute 25, 1
   9              		.eabi_attribute 26, 1
  10              		.eabi_attribute 30, 2
  11              		.eabi_attribute 34, 1
  12              		.eabi_attribute 18, 4
  13              		.thumb
  14              		.file	"ch_test.c"
  15              		.text
  16              	.Ltext0:
  17              		.section	.gnu.lto_.jmpfuncs.64c0621aa0296dd2,"",%progbits
  18 0000 789CB591 		.ascii	"x\234\265\221;K\003A\020\307g\356\3622\357\247A\213"
  18      3B4B0341 
  18      10C767EE 
  18      F232EFA7 
  18      418B
  19 0012 65119B04 		.ascii	"e\021\233\004N/\347#\230J\311\003\304D!w\011\266>\016"
  19      4E2FE723 
  19      984AC903 
  19      C4442177 
  19      09B63E0E 
  20 0026 5C888978 		.ascii	"\\\210\211x\227@\2600\245\215\265i\254\375*~&+\317\335"
  20      9740B030 
  20      A58DB569 
  20      ACFD2A7E 
  20      262BCFDD 
  21 003a C42487A2 		.ascii	"\304$\207\242\026.\2733\273\363\373\0173\314J \301W"
  21      162EBB33 
  21      BBF3FB0F 
  21      33CC4A20 
  21      C157
  22 004c EBC909BF 		.ascii	"\353\311\011\2778>\012Bp\017\340\301\017\313\017P\237"
  22      383E0A42 
  22      700FE0C1 
  22      0FCB0F50 
  22      9F
  23 005d 0F6407DD 		.ascii	"\017d\007\335\301\333h<\2123\004\002\370<\032\3573D"
  23      C1DB683C 
  23      8A330402 
  23      F83C1AEF 
  23      3344
  24 006f 9E2F9D22 		.ascii	"\236/\235\"CI\342ri\362\224\025\376\364\317\002*\017"
  24      4349E272 
  24      69F29415 
  24      FEF4CF02 
  24      2A0F
  25 0081 04302487 		.ascii	"\0040$\207\345\210?\212\237\265b8\275\305\361/u\270"
  25      E5883F8A 
  25      9FB56238 
  25      BDC5F12F 
  25      75B8
ARM GAS  /tmp/ccoNZDVu.s 			page 2


  26 0093 4F601253 		.ascii	"O`\022S\210\263$\017\001\257H\362\362\244E\024\375\006"
  26      88B3240F 
  26      01AF48F2 
  26      F2A44514 
  26      FD06
  27 00a5 F9086405 		.ascii	"\371\010d\005\362\203\233\005\010\254\010\266\344FN"
  27      F2839B05 
  27      08AC08B6 
  27      E4464E
  28 00b4 871BF31D 		.ascii	"\207\033\363\035\002\212\315;\015\276\342\2028D@\023"
  28      028ACD3B 
  28      0DBEE282 
  28      38444013 
  29 00c4 E2F09CF6 		.ascii	"\342\360\234\366\267]D\010\354\010\026u\243\030\201"
  29      B75D4408 
  29      EC081675 
  29      A31881
  30 00d3 2381E26E 		.ascii	"#\201\342n\224 p#P\322\215R\004\036&\343M\273Y\206\300"
  30      94207023 
  30      50D28D52 
  30      041E26E3 
  30      4DBB5986 
  31 00e8 E3842DFF 		.ascii	"\343\204-\3774\252\351O\374\227\0079\022\204\200\336"
  31      34AAE94F 
  31      FC970739 
  31      128480DE 
  32 00f8 2A97ABBA 		.ascii	"*\227\253\272\016\201\332\301a\275\325\254:\243K+\212"
  32      0E81DAC1 
  32      61BDD5AC 
  32      3AA34B2B 
  32      8A
  33 0109 429BA6D5 		.ascii	"B\233\246\325\357\330%:\345\362Z\016\244\034dt\203\352"
  33      EFD8253A 
  33      E5F25A0E 
  33      A41C6474 
  33      83EA
  34 011b 46634B6B 		.ascii	"FcKk\327\225\012\263.z\003\363v\010\353<T+\250*m\237"
  34      D7950AB3 
  34      2E7A03F3 
  34      7608EB3C 
  34      542BA82A 
  35 0131 75FA26AD 		.ascii	"u\372&\255\263\256I\033\346%\353_\323\212\331\265\230"
  35      B3AE491B 
  35      E625EB5F 
  35      D38AD9B5 
  35      98
  36 0142 3D84EC71 		.ascii	"=\204\354qo@\265]\252\251\205\"Uha\257\244j\245\355"
  36      6F40B55D 
  36      AAA98522 
  36      556861AF 
  36      A46AA5ED 
  37 0156 2278F2F9 		.ascii	"\"x\362\371<\254:\206\226\257\3309;\3217\233\0065L\313"
  37      3CAC3A86 
  37      96AFD839 
  37      3BD1379B 
  37      06354CCB 
  38 016a A67A9FD9 		.ascii	"\246z\237\331&\274\003\025\032\232\310"
ARM GAS  /tmp/ccoNZDVu.s 			page 3


  38      26BC0315 
  38      1A9AC8
  39              		.text
  40              		.section	.gnu.lto_.inline.64c0621aa0296dd2,"",%progbits
  41 0000 789CAD51 		.ascii	"x\234\255Q\273J\304@\024=s\223L\222M6\231]u\037\260"
  41      BB4AC440 
  41      143D7393 
  41      4C924D36 
  41      995D751F 
  42 0015 B056DA2D 		.ascii	"\260V\332-\226\376\203\220Z\360\003\\\375\012\321FP"
  42      96FE8390 
  42      5AF0035C 
  42      FD0AD146 
  42      50
  43 0026 21BD205B 		.ascii	"!\275 [\330\373\0036\266b!v\202\205\210\202\262\315"
  43      D8FB0336 
  43      B6622176 
  43      82858882 
  43      B2CD
  44 0038 160A56E2 		.ascii	"\026\012V\342\235\331\354\030\366\321\231\342\346p\316"
  44      9DD9EC18 
  44      F6D199E2 
  44      E670CE
  45 0047 9D7BCEDC 		.ascii	"\235{\316\334!\020\346}o\005\235\000\352\220\004H=_"
  45      2110E67D 
  45      6F059D00 
  45      EA900448 
  45      3D5F
  46 0059 5420075D 		.ascii	"T \007]\303{5f\362,\317\\\254l\010\007\375m\261'\232"
  46      C37B3566 
  46      F22CCF5C 
  46      AC6C0807 
  46      FD6DB127 
  47 006e 80B38ADD 		.ascii	"\200\263\212\335?(tu+y\206`\324#\210w_\021\274\343u"
  47      3F287475 
  47      2B798660 
  47      D4238877 
  47      5F11BCE3 
  48 0083 A5473869 		.ascii	"\245G8i\251\270\200DsX\345\251\365\317\363M\353#\353"
  48      A9B88044 
  48      7358E5A9 
  48      F5CFF34D 
  48      EB23EB
  49 0096 2CF3F989 		.ascii	",\363\371\211!|\0255\030\311Q\257\224\005F\012 \275"
  49      217C1535 
  49      18C951AF 
  49      9405460A 
  49      20BD
  50 00a8 29294220 		.ascii	"))B 9\235\211\324\322D\337\"\316\246]\307\255\356\240"
  50      399D89D4 
  50      D244DF22 
  50      CEA65DC7 
  50      ADEEA0
  51 00bb AB20EF3A 		.ascii	"\253 \357:\232@\214\306\007\313\264\366s\033\333IUD"
  51      9A408CC6 
  51      07CBB4F6 
  51      731BDB49 
ARM GAS  /tmp/ccoNZDVu.s 			page 4


  51      5544
  52 00cd A1202126 		.ascii	"\241 !&G\235\344tg,\322}\032\233E\2516\357\2510k[\263"
  52      479DE474 
  52      672CD27D 
  52      1A9B45A9 
  52      36EFA930 
  53 00e4 F67CB3CE 		.ascii	"\366|\263\316\345I\022\030\251\242\025\276^0^h\212\364"
  53      E5491218 
  53      A9A215BE 
  53      5E305E68 
  53      8AF4
  54 00f6 9B6D2879 		.ascii	"\233m(y9\010g\327\255\320:\323\217\261\374p\025.\\R"
  54      390867D7 
  54      ADD03AD3 
  54      8FB1FC70 
  54      152E5C52 
  55 010a 9ED5745A 		.ascii	"\236\325tZ~\262\247}\333TG\3503\025_oYj\011\217\342"
  55      7EB2A77D 
  55      DB5447E8 
  55      33155F6F 
  55      596A098F 
  56 011f E84B9BBD 		.ascii	"\350K\233\275\212\321\360\306\267\002E:r\271rJM\223"
  56      8AD1F0C6 
  56      B702453A 
  56      72B9724A 
  56      4D93
  57 0131 21C81054 		.ascii	"!\310\020T\020yV\376\225\233\254R4\227\006M\317\237"
  57      107956FE 
  57      959BAC52 
  57      3497064D 
  57      CF9F
  58 0143 ADF62E5E 		.ascii	"\255\366.^\315\371' \026\001\374\002&(\\\267"
  58      CDF92720 
  58      1601FC02 
  58      26285CB7 
  59              		.text
  60              		.section	.gnu.lto_.pureconst.64c0621aa0296dd2,"",%progbits
  61 0000 789C6362 		.ascii	"x\234cb`b\220e\200\000>\006K\026I6IvI\016\011n\011\036"
  61      60629065 
  61      80003E06 
  61      4B164936 
  61      4976490E 
  62 0018 4B5E293E 		.ascii	"K^)>K~K\001KA+!)aK\000*\005\003\017"
  62      4B7E4B01 
  62      4B412B21 
  62      29614B00 
  62      2A05030F 
  63              		.text
  64              		.section	.gnu.lto_print_tokens.64c0621aa0296dd2,"",%progbits
  65 0000 789C8D92 		.ascii	"x\234\215\222\301k\023Q\020\306\347{o\337\356\246IQ"
  65      C16B1351 
  65      10C6E77B 
  65      6FDFEEA6 
  65      4951
  66 0012 C14B41B0 		.ascii	"\301KA\260\324\213\030\330P\275\250\320\377\242\005"
  66      D48B18D8 
  66      50BDA8D0 
ARM GAS  /tmp/ccoNZDVu.s 			page 5


  66      FFA205
  67 0021 F552DA45 		.ascii	"\365R\332E\322E\203\001s\363\320\227\030D\264h\360$"
  67      D2458301 
  67      73F3D097 
  67      1844B468 
  67      F024
  68 0033 E6D09622 		.ascii	"\346\320\226\"\212\010\"\275\210\247\010Z\315A\305\233"
  68      8A0822BD 
  68      88A7085A 
  68      CD41C59B 
  69 0043 DE8260F0 		.ascii	"\336\202`\360\340_\340\3018\223\267\273\246^\364\221"
  69      E05FE0C1 
  69      3893B7BB 
  69      A65EF491 
  70 0053 BC99DD9D 		.ascii	"\274\231\335\235\3377\363\276]E\212\376^\013\3747\232"
  70      DF37F3BE 
  70      5D458AFE 
  70      5E0BFC37 
  70      9A
  71 0064 E82C47F8 		.ascii	"\350,G\370\004\325\371@\324\014\025<\227h\227\274\012"
  71      04D5F940 
  71      D40C153C 
  71      976897BC 
  71      0A
  72 0075 3DA537DE 		.ascii	"=\2457\336\022\331)\323\016\310\226\014 \367\011\264"
  72      12D929D3 
  72      0EC8960C 
  72      20F709B4 
  73 0085 AEB467B0 		.ascii	"\256\264g\260~\036\"\247\347h\333\332{\2037\303\307"
  73      7E1E22A7 
  73      E768DBDA 
  73      7B8337C3 
  73      C7
  74 0096 33B7B65A 		.ascii	"3\267\266Z\035\373k4B\002n|\024\024\203\316\361\005"
  74      1DFB6B34 
  74      42026E7C 
  74      141483CE 
  74      F105
  75 00a8 66C74179 		.ascii	"f\307Ay\373'qdow\357\316$\251\025\225\377\223\334\334"
  75      FB277164 
  75      6F77EFCE 
  75      24A91595 
  75      FF93DCDC 
  76 00bc DB98B1FB 		.ascii	"\333\230\261\373\310\323\377\"\237\251\336`4\372\361"
  76      C8D3FF22 
  76      9FA9DE60 
  76      34FAF1
  77 00cb 7CEB6B17 		.ascii	"|\353k\027\207\212\240\025<\304\034y\034w8\032\216\333"
  77      878AA015 
  77      3CC41C79 
  77      1C77381A 
  77      8EDB
  78 00dd 1C7D4AE0 		.ascii	"\034}J\340\005\274\2310\255(\360\205/\316Q\333\332\316"
  78      05BC9930 
  78      AD28F085 
  78      2FCE51DB 
  78      DACE
ARM GAS  /tmp/ccoNZDVu.s 			page 6


  79 00ef ACBB49D2 		.ascii	"\254\273I\322\214\327\"\357\354\321\022\024\007\335"
  79      8CD722EF 
  79      ECD11214 
  79      07DD
  80 00fd A7D6E0EE 		.ascii	"\247\326\340\356\216\277\202G0)}\215~\332\233\326.$"
  80      8EBF8247 
  80      30297D8D 
  80      7EDA9BD6 
  80      2E24
  81 010f 086AF833 		.ascii	"\010j\3703\314\0224\261\305\372=\265\372\237\207\307"
  81      CC1234B1 
  81      C5FA3DB5 
  81      FA9F87C7 
  82 011f 1D5185E9 		.ascii	"\035Q\205\351\322\203\246\265\007\331E\007r\026\326"
  82      D283A6B5 
  82      07D94507 
  82      7216D6
  83 012e 20A01C29 		.ascii	" \240\034)Li\246.d\210_\246\023<2\203\\P`\011)te\253"
  83      4C69A62E 
  83      64885FA6 
  83      133C3283 
  83      5C506009 
  84 0146 79C34920 		.ascii	"y\303I (\323\023\321\235rH\221%\004\361R\0049r\375\266"
  84      28D313D1 
  84      9D724891 
  84      2504F152 
  84      043972FD 
  85 015b CE98B00A 		.ascii	"\316\230\260\012\214=\225\247}R\223'\254\312X\334\340"
  85      8C3D95A7 
  85      7D529327 
  85      ACCA58DC 
  85      E0
  86 016c A5C9AA0B 		.ascii	"\245\311\252\013N\331O!\235*~\244\264\202d\012\331\014"
  86      4ED94F21 
  86      9D2A7EA4 
  86      B482640A 
  86      D90C
  87 017e D7262865 		.ascii	"\327&(e\226x\304\237\231\230\310\202\2316\306\332\375"
  87      9678C49F 
  87      9998C882 
  87      9936C6DA 
  87      FD
  88 018f 17C3EFC8 		.ascii	"\027\303\357\310\344\275\334$\235\2334]\203JM\232N\333"
  88      E4BDDC24 
  88      9D9B345D 
  88      834A4D9A 
  88      4EDB
  89 01a1 BDA3D7DF 		.ascii	"\275\243\327\337\232\2472\010U\344\337\303\027\202\003"
  89      9AA73208 
  89      55E4DFC3 
  89      178203
  90 01b0 7B9B370E 		.ascii	"{\2337\016\344/F\335\327|\024\375t\367\260\314b\344"
  90      E42F46DD 
  90      D77C14FD 
  90      74F7B0CC 
  90      62E4
  91 01c2 7D7EA2E6 		.ascii	"}~\242\346\240{,\033\332\255E\036\251\035H\263#QTq\277"
ARM GAS  /tmp/ccoNZDVu.s 			page 7


  91      A07B2C1B 
  91      DAAD451E 
  91      A91D48B3 
  91      23515471 
  92 01d7 C6C5AB8D 		.ascii	"\306\305\253\215\312\345d\265\022\257-K\036\305T\224"
  92      CAE564B5 
  92      12AF2D4B 
  92      1EC55494 
  93 01e7 B81CAFD5 		.ascii	"\270\034\257\325\243\3713\245q\336\270r\251\036\235"
  93      A3F933A5 
  93      71DEB872 
  93      A91E9D
  94 01f6 9C5771FD 		.ascii	"\234Wq\3757\016!\274\213"
  94      370E21BC 
  94      8B
  95              		.text
  96              		.section	.gnu.lto_execute_test.64c0621aa0296dd2,"",%progbits
  97 0000 789C7D51 		.ascii	"x\234}Q;O\002A\020\236\331\273\333\343\241\206\316F"
  97      3B4F0241 
  97      109ED9BB 
  97      DBE3A186 
  97      CE46
  98 0012 C5C4D204 		.ascii	"\305\304\322\004\254\350\370\005\266\220h\243\001b\220"
  98      ACE8F805 
  98      B69068A3 
  98      016290
  99 0021 C4ABA4B3 		.ascii	"\304\253\244\263`\021\012\013L\250,\2442t\306Hcq\261"
  99      60110A0B 
  99      4CA82CA4 
  99      3274C648 
  99      6371B1
 100 0034 2231112D 		.ascii	"\"1\021-|u\206\212\304\016lM\014\015\316\356r\207\032"
 100      7C75868A 
 100      C40E6C4D 
 100      0C0DCEEE 
 100      72871A
 101 0047 C2E46E76 		.ascii	"\302\344nvn\366\373\276y\034\003\006\377m\223\336\035"
 101      6EF6FBBE 
 101      791C0306 
 101      FF6D93DE 
 101      1D
 102 0058 4AAFD089 		.ascii	"J\257\320\2116 \253?\003\224\003\214\031\235\004\210"
 102      3620AB3F 
 102      0394038C 
 102      199D0488 
 103 0068 90F9B808 		.ascii	"\220\371\270\010b\316@S\247Mf5\222\224\346_\021J[\310"
 103      62CE4053 
 103      A74D6635 
 103      9294E65F 
 103      114A5BC8 
 104 007c 759A23CA 		.ascii	"u\232#\312\000\020J\3140-\216\245mT\352-\326\356\215"
 104      00104ACC 
 104      302D8EA5 
 104      6D54EA2D 
 104      D6EE8D
 105 008f 46D7B7F7 		.ascii	"F\327\267\36775l\260\005\216\016\202\015\005\204\240"
 105      37356CB0 
ARM GAS  /tmp/ccoNZDVu.s 			page 8


 105      058E0E82 
 105      0D0584A0 
 106 009f 7461E9C8 		.ascii	"ta\351\310,\250\012Q_\005\310\251\317\024y)\227F&O\343"
 106      2CA80A51 
 106      5F05C8A9 
 106      CF147929 
 106      9746264F 
 107 00b4 098E8795 		.ascii	"\011\216\207\225Vm\331\207\351@4O\243\000\031\274@\213"
 107      566DD987 
 107      E940344F 
 107      A30019BC 
 107      408B
 108 00c6 888AD980 		.ascii	"\210\212\331\200\363\262\020\221\002\342\021\014\305"
 108      F3B21091 
 108      02E2110C 
 108      C5
 109 00d3 898C98A3 		.ascii	"\211\214\230\243\256\266\220B\325\222\276i\237\361\002"
 109      AEB69042 
 109      D592BE69 
 109      9FF102
 110 00e2 1A0EB20C 		.ascii	"\032\016\262\0146\211OFU\\\267\377\316\264\240\257d"
 110      36894F46 
 110      555CB7FF 
 110      CEB4A0AF 
 110      64
 111 00f3 FA4A9683 		.ascii	"\372J\226\203\306XI\021Td\216\251\335\357\376+jj\036"
 111      C6584911 
 111      54648EA9 
 111      DDEFFE2B 
 111      6A6A1E
 112 0106 ED75B894 		.ascii	"\355u\270\224\014N*\204\261\363\310%6\240XY\364V\377"
 112      0C4E2A84 
 112      B1F3C825 
 112      36A05859 
 112      F456FF
 113 0119 00D5CFF2 		.ascii	"\000\325\317\362\274O\222\020\376\373\327\244\251^'"
 113      BC4F9210 
 113      FEFBD7A4 
 113      A95E27
 114 0128 61BC40A5 		.ascii	"a\274@\245w\365ak\034H$\320\336\202\036\306\364v\324"
 114      77F5616B 
 114      1C4824D0 
 114      DE821EC6 
 114      F476D4
 115 013b 75071B9E 		.ascii	"u\007\033\236Xpv\007^\013$\335\216N\204\203ca)\366>"
 115      58707607 
 115      5E0B24DD 
 115      8E4E8483 
 115      636129F6 
 116 0150 98CC139E 		.ascii	"\230\314\023\236\255\306\246\316\023\2362\017\3555\251"
 116      ADC6A6CE 
 116      139E320F 
 116      ED35A9
 117 015f E669DD85 		.ascii	"\346i\335\205&e\303\177\346\341j\2367(\367\3345\017"
 117      2665C37F 
 117      E6E16A9E 
 117      3728F7DC 
ARM GAS  /tmp/ccoNZDVu.s 			page 9


 117      350F
 118 0171 A32D457D 		.ascii	"\243-E}\323\235,\267\024\213\305\365S\334;,\306\017"
 118      D39D2CB7 
 118      148BC5F5 
 118      53DC3B2C 
 118      C60F
 119 0183 0AD9786E 		.ascii	"\012\331xn\177W\306\261\034\374\000F\343\226\364"
 119      7F57C6B1 
 119      1CFC0046 
 119      E396F4
 120              		.text
 121              		.section	.gnu.lto_print_line.64c0621aa0296dd2,"",%progbits
 122 0000 789C9593 		.ascii	"x\234\225\223Ah\023A\024\206\3777\263\263\311\3566\332"
 122      41681341 
 122      1486FF37 
 122      B3B3C9EE 
 122      36DA
 123 0012 DE5A102D 		.ascii	"\336Z\020-\365\"\206&\322\223\207\012\275{mA\275\224"
 123      F5228626 
 123      D293870A 
 123      BD7B6D41 
 123      BD94
 124 0024 36885D50 		.ascii	"6\210]P\020\354\315C'\333R\202`\011\236\304\"\264\210"
 124      10ECCD43 
 124      27DB5282 
 124      60099EC4 
 124      22B488
 125 0037 5044F0E8 		.ascii	"PD\360\350I\250\210\220\034j\361\246\267x\361\232c\213"
 125      49A88890 
 125      1C6AF1A6 
 125      B778F19A 
 125      638B
 126 0049 07E37B3B 		.ascii	"\007\343{;;m-BqH\336{\331\367\276\177f\376$\012\012"
 126      3B6D2D42 
 126      7148DE7B 
 126      D9F7BE7F 
 126      66FE240A 
 127 005e A7D70D7E 		.ascii	"\247\327\015~Ok\340\032g\012A\252\375\005h\226\025\005"
 127      4F6BE01A 
 127      670A41AA 
 127      FD056896 
 127      1505
 128 0070 AED0AEF8 		.ascii	"\256\320\256\370X\016\224\336\330\003ll2\202\0352D\362"
 128      580E94DE 
 128      D8036C6C 
 128      32821D32 
 128      44F2
 129 0082 1C8415A5 		.ascii	"\034\204\025\245\003C+\267I\344\324\004\266\255}\326"
 129      03432BB7 
 129      49E4D404 
 129      B6AD7DD6 
 130 0092 FBDCDF19 		.ascii	"\373\334\337\031{\262\225\265\355\357\301\200R\342\215"
 130      7BB295B5 
 130      EDEFC180 
 130      52E28D
 131 00a1 2F111A84 		.ascii	"/\021\032\204[\374\201\306\363\244\202\277O\342\310"
 131      5BFC81C6 
ARM GAS  /tmp/ccoNZDVu.s 			page 10


 131      F3A482BF 
 131      4FE2C8
 132 00b0 DD83F58D 		.ascii	"\335\203\365\2151{Lj\205\352Y\344;\265\333\033\014\336"
 132      317B4C6A 
 132      85EA59E4 
 132      3BB5DB1B 
 132      0CDE
 133 00c2 BE3FFCD1 		.ascii	"\276?\374\321\241\221\012a\201^\321\004\002\316\333"
 133      A1910A61 
 133      815ED104 
 133      02CEDB
 134 00d1 9C0D520A 		.ascii	"\234\015R\012B\016\246\\t\242\242\023K'\341\020\262"
 134      420EA65C 
 134      74A2A213 
 134      4B27E110 
 134      B2
 135 00e2 88C19AB5 		.ascii	"\210\301\232\265\355q7\001\331\221\327,G\276\356\034"
 135      ED713701 
 135      D991D72C 
 135      47BEEE1C 
 136 00f2 294EBA8B 		.ascii	")N\272\213\254\367\341S\270@\257\311\024Rr\034\355\317"
 136      ACF7E153 
 136      B840AFC9 
 136      1452721C 
 136      EDCF
 137 0104 31C7257B 		.ascii	"1\307%{\244\367\220u\277\365\257\270\271{\024l\342E"
 137      A4F79075 
 137      BFF5AFB8 
 137      B97B146C 
 137      E245
 138 0116 D3DA61B6 		.ascii	"\323\332a\266\3411~\331\226T\245\007\271\276\340\245"
 138      E1317ED9 
 138      9654A507 
 138      B9BEE0A5 
 139 0126 8266EA8E 		.ascii	"\202f\352\216GL\025W\323\034\344\2012K\310\240\033["
 139      474C1557 
 139      D31CE481 
 139      324BC8A0 
 139      1B5B
 140 0138 24FC0308 		.ascii	"$\374\003\010\253x#\272\221Cb\226\020$(\020\317\354"
 140      AB7823BA 
 140      91436296 
 140      10242810 
 140      CFEC
 141 014a C33802C2 		.ascii	"\3038\002\302H\310\225\223I6aH\024W[\253\007O\257{U"
 141      48C89593 
 141      49366148 
 141      14575BAB 
 141      074FAF7B 
 142 015f DE99F21B 		.ascii	"\336\231\362\033\012\337\205:ys\356\372[\007\340\237"
 142      0ADF853A 
 142      7973EEFA 
 142      5B07E09F 
 143 016f 82B8C34F 		.ascii	"\202\270\303O|\223\211\016\326~6K^\313\011\335<\372"
 143      7C93890E 
 143      D67E364B 
 143      5ECB09DD 
ARM GAS  /tmp/ccoNZDVu.s 			page 11


 143      3CFA
 144 0181 D2BE830A 		.ascii	"\322\276\203\012\363\324\216f1\335*\211\226\021\243"
 144      F3D48E66 
 144      31DD2A89 
 144      9611A3
 145 0190 C5C0C3FE 		.ascii	"\305\300\303\376\250G\243\37770>e`t\226\201Ia`\345\310"
 145      A847A3FF 
 145      37303E65 
 145      60749681 
 145      496160E5 
 146 01a5 C0F8A481 		.ascii	"\300\370\244\201\376\217\263\217\360\330\300DB$G\032"
 146      FE8FB38F 
 146      F0D8C044 
 146      4224471A 
 147 01b5 4DE9DC45 		.ascii	"M\351\334EL\276\264\317gR:\217bD\004\206\025[;\002|"
 147      4CBEB4CF 
 147      67523A8F 
 147      62440486 
 147      155B3B02 
 148 01ca 45B3D7B9 		.ascii	"E\263\327\271\354Y\267f\331\245,\227\276P\253\325\335"
 148      EC59B766 
 148      D9A52C97 
 148      BE50ABD5 
 148      DD
 149 01db 6BF9EEA3 		.ascii	"k\371\356\243\345\372\375t\261\336X\232\227\272\326"
 149      E5FAFD74 
 149      B1DE589A 
 149      97BAD6
 150 01ea 402279BE 		.ascii	"@\"y\276\261\364\26065E\251\256\304\370\003S\243\267"
 150      B1F4B036 
 150      3545A9AE 
 150      C4F80353 
 150      A3B7
 151 01fc 95       		.ascii	"\225"
 152              		.text
 153              		.section	.gnu.lto_test_printn.part.0.64c0621aa0296dd2,"",%progbits
 154 0000 789C8D92 		.ascii	"x\234\215\222AK\033Q\020\307\347\377\336\256Y\265b\256"
 154      414B1B51 
 154      10C7E7FF 
 154      DEAE59B5 
 154      62AE
 155 0012 4241AB48 		.ascii	"BA\253H\261\201\215`z\366K(X/\222\0045\013F\002MO\036"
 155      B1818D60 
 155      7AF64B28 
 155      582F9204 
 155      350B4602 
 156 0029 F2121444 		.ascii	"\362\022\024Dz\010\201B\325K\203\210T\301b\373\005\202"
 156      7A088142 
 156      D54B8388 
 156      54C162FB 
 156      0582
 157 003b 2713D0D2 		.ascii	"'\023\320\322\263\227\334\275\350Q\017]gv\263i#\205"
 157      B397DCBD 
 157      E8510F5D 
 157      6776B369 
 157      2385
 158 004d FA783B33 		.ascii	"\372x;3\357\275\371\315\314\233\267\212\024=\035\011"
ARM GAS  /tmp/ccoNZDVu.s 			page 12


 158      EFBDF9CD 
 158      CC9BB78A 
 158      143D1D09 
 159 005d FE8E78FB 		.ascii	"\376\216x\373-k\330\004\253z\305\206\005\025h\005-\272"
 159      2D6BD804 
 159      AB7AC586 
 159      05156805 
 159      2DBA
 160 006f EC68400C 		.ascii	"\354h@\014\002\225,\245Qz\007\201\355q\252\033Sko\235"
 160      02952CA5 
 160      517A0781 
 160      ED71AA1B 
 160      536B6F9D 
 161 0083 9C8D982F 		.ascii	"\234\215\230/\225\252\371\355\373\360\300iFAY\320\002"
 161      95AAF9ED 
 161      FBF0C069 
 161      464159D0 
 161      02
 162 0094 2F301628 		.ascii	"/0\026(e\365\346\015\311\306\365\316\247\277I\255\350"
 162      65F5E60D 
 162      C9C6F5CE 
 162      A7BF49AD 
 162      E8
 163 00a5 D573C846 		.ascii	"\325s\310F\325\234Y\027f\263\341\373\263\036,E\023\177"
 163      D59C5917 
 163      66B3E1FB 
 163      B31E2C45 
 163      137F
 164 00b7 28136A15 		.ascii	"(\023j\025\377g\302\373\326\307\221\235\236\204\257"
 164      FF67C2FB 
 164      D6C7919D 
 164      9E84AF
 165 00c6 9F59EA5D 		.ascii	"\237Y\352]\253U\207\251\231\362\255\357\017{\260\025"
 165      AB5587A9 
 165      99F2ADEF 
 165      0F7BB015 
 166 00d6 25FE477E 		.ascii	"%\376G~S\246\355\373\273\337\373c\2404\276b\234;\343"
 166      53A6EDFB 
 166      BBDFFB63 
 166      A034BE62 
 166      9C3BE3
 167 00e9 A14FB388 		.ascii	"\241O\263\210I\373h\323\230\352X\032\207|\222\306A "
 167      49FB68D3 
 167      98EA581A 
 167      877C92C6 
 167      4120
 168 00fb EB2C49E2 		.ascii	"\353,I\342\362\230c)m\237\207%Z7\351\334!\312\203'\237"
 168      F2986329 
 168      6D9F8725 
 168      5A37E9DC 
 168      21CA8327 
 169 0110 34A9C2AB 		.ascii	"4\251\302\253\220\310\243\223r\036*p\275\244J\363\363"
 169      90C8A393 
 169      721E2A70 
 169      BDA44AF3 
 169      F3
 170 0121 E9541A27 		.ascii	"\351T\032'\374\252\253\300>\355\225\215\211s\335\033"
ARM GAS  /tmp/ccoNZDVu.s 			page 13


 170      FCAAABC0 
 170      3EED958D 
 170      8973DD1B 
 171 0131 F460B6C5 		.ascii	"\364`\266\305r\362\220\377A\012w:4S\213\021\242\022"
 171      72F290FF 
 171      410A773A 
 171      34538B11 
 171      A212
 172 0143 F4868BED 		.ascii	"\364\206\213\355\202\375\034E|\355\3003\023%\354at\202"
 172      82FD1C45 
 172      7CEDC033 
 172      1325EC61 
 172      7482
 173 0155 8EC577A0 		.ascii	"\216\305w\240K\015r \241\372:T\204\375$;\204H0\021A"
 173      4B0D7220 
 173      A1FA3A54 
 173      84FD243B 
 173      84483011 
 174 016a F017D3DC 		.ascii	"\360\027\323\334\233\241\350*\272s\225\363\033\025:"
 174      9BA1E82A 
 174      BA7395F3 
 174      1B153A
 175 0179 87AD4AD1 		.ascii	"\207\255J\321\017\263\315\316\322\355_Tn_LF\241\302"
 175      0FB3CDCE 
 175      D2ED5F54 
 175      6E5F4C46 
 175      A1C2
 176 018b 31C75918 		.ascii	"1\307Y\030\224\313\275t\335d8\213\313\357\213\3115/"
 176      94CBBD74 
 176      DD64388B 
 176      CBEF8BC9 
 176      352F
 177 019d 93CCE696 		.ascii	"\223\314\346\226\304v\263\204u\024t\346\303\212.\270"
 177      C476B384 
 177      751474E6 
 177      C38A2EB8 
 178 01ad A901D95B 		.ascii	"\251\001\331[\312\346\012\356\314#\306,\244\304"
 178      CAE60AEE 
 178      CC23C62C 
 178      A4C4
 179              		.text
 180              		.section	.gnu.lto__test_fail.64c0621aa0296dd2,"",%progbits
 181 0000 789C6362 		.ascii	"x\234cb`b@\007\222@\314\311\310\300 \007\244\031\231"
 181      60624007 
 181      9240CCC9 
 181      C8C02007 
 181      A41999
 182 0013 19189926 		.ascii	"\031\030\231&\234c`h\344`bd\0041\030\030\031\352\231"
 182      9C636068 
 182      E4606264 
 182      04311818 
 182      19EA99
 183 0026 18EB2319 		.ascii	"\030\353#\031\301j\3273\035x\360\377\377\2729\355K\317"
 183      C16AD733 
 183      1D78F0FF 
 183      FFBA39ED 
 183      4BCF
ARM GAS  /tmp/ccoNZDVu.s 			page 14


 184 0038 30CE6562 		.ascii	"0\316ebca\314\005\213\2632\26444LP``H\006sC\200$Ho("
 184      6361CC05 
 184      8BB332B4 
 184      34344C50 
 184      60604806 
 185 0053 23138866 		.ascii	"#\023\210f>\313\320\264c\306\267\003\314\211\214\013"
 185      3ECBD0B4 
 185      63C6B703 
 185      CC898C0B 
 186 0063 19591966 		.ascii	"\031Y\031f3\314jlh\020\310dd\250f\370\325\320\001b\001"
 186      33CC6A6C 
 186      6810C864 
 186      64A866F8 
 186      D5D00162 
 187 0078 8D01698C 		.ascii	"\215\001i\214`\314d\204\330\003b1\200\230 \255+\312"
 187      60CC6484 
 187      D8036231 
 187      809820AD 
 187      2BCA
 188 008a F06964C2 		.ascii	"\360id\302\251\361\364\011t\215Lp\215\314\271@\257B"
 188      A9F1F409 
 188      748D4C70 
 188      8DCCB940 
 188      AF42
 189 009c 94338335 		.ascii	"\2243\2035\2463\26200\\dh|p;\031\242\011n\022\304G\214"
 189      A633B230 
 189      305C6468 
 189      7C703B19 
 189      A2096E12 
 190 00b3 209F80EC 		.ascii	" \237\200\354\222\321\323\323\207\240\222\324\342\022"
 190      92D1D3D3 
 190      87A092D4 
 190      E212
 191 00c1 FD9CCC24 		.ascii	"\375\234\314$\375\344\214x\020[/\231\001\000\353}J\243"
 191      FDE48C78 
 191      105B2F99 
 191      0100EB7D 
 191      4AA3
 192              		.text
 193              		.section	.gnu.lto__test_assert.64c0621aa0296dd2,"",%progbits
 194 0000 789C7551 		.ascii	"x\234uQ\261J\003A\020\235\267\263\007!\244\260\260\024"
 194      B14A0341 
 194      109DB7B3 
 194      0721A4B0 
 194      B014
 195 0012 0D7EC01D 		.ascii	"\015~\300\035\370-\006\264\222xH<\360\252\004\033\213"
 195      F82D06B4 
 195      9278483C 
 195      F0AA041B 
 195      8B
 196 0023 6C4220E9 		.ascii	"lB \351\014V\242\"D\004\033\321NR\\ VFD!\220\306\316"
 196      0C56A222 
 196      44041BD1 
 196      4E525C20 
 196      56464421 
 197 003a 0FB0B6B0 		.ascii	"\017\260\266\2609w\366B$A\227\335\231a\231\367\366\315"
 197      3977F642 
ARM GAS  /tmp/ccoNZDVu.s 			page 15


 197      244197DD 
 197      996199F7 
 197      F6CD
 198 004c 5B458A16 		.ascii	"[E\212\026\327\206=\003\020\255\333\014\217\240\272"
 198      D7863D03 
 198      10ADDB0C 
 198      8FA0BA
 199 005b 6F448D9C 		.ascii	"oD\215\234R<\011\310\024t\262J&\317\320\331\265\006"
 199      523C09C8 
 199      1474B24A 
 199      26CFD0D9 
 199      B506
 200 006d A420505D 		.ascii	"\244 P]\261F}\033\216\344^\015?\322\364.i?$\270TyP\004"
 200      B1467D1B 
 200      8EE45E0D 
 200      3FD2F42E 
 200      693F24B8 
 201 0085 62C420CF 		.ascii	"b\304 \317\006i\361\250eL\267H\024:\300\246\215\302"
 201      0669F1A8 
 201      654CB748 
 201      143AC0A6 
 201      8DC2
 202 0097 538292CC 		.ascii	"S\202\222\314#j}>\216\333\\F\317j\250\200\267\020aN"
 202      236A7D3E 
 202      8EDB5C46 
 202      CF6AA880 
 202      B710614E 
 203 00ab 66094C93 		.ascii	"f\011L\223\200\237\251\231\023\255=cN\206\311S\241\333"
 203      809FA999 
 203      13AD3D63 
 203      4E86C953 
 203      A1DB
 204 00bd E89834AD 		.ascii	"\350\2304\255G\260Dk\020vA\252\242K\254\347G\255Xnz"
 204      47B0446B 
 204      107641AA 
 204      A24BACE7 
 204      47AD586E 
 205 00d2 A566FFF4 		.ascii	"\245f\377\364k\3103EYan\216\2752\256 6d*B'\234\316\351"
 205      6BC83345 
 205      59616E8E 
 205      BD32AE20 
 205      36642A42 
 206 00ea AC61CC92 		.ascii	"\254a\314\222\225sD\337\246#\225\216!>\312\023\331\013"
 206      957344DF 
 206      A623958E 
 206      213ECA13 
 206      D90B
 207 00fc 4EAD740B 		.ascii	"N\255t\013y\337\222\227qm\031\376\206\362\277\320\227"
 207      79DF9297 
 207      716D19FE 
 207      86F2BFD0 
 207      97
 208 010d D1E10210 		.ascii	"\321\341\002\0203\240\027;\200\264{\277\303d\316h\347"
 208      33A0173B 
 208      80B47BBF 
 208      C364CE68 
 208      E7
ARM GAS  /tmp/ccoNZDVu.s 			page 16


 209 011e E1D87E8F 		.ascii	"\341\330~\217\\;\325\357\204)3_\014\226\247n\252\333"
 209      5C3BD5EF 
 209      8429335F 
 209      0C96A76E 
 209      AADB
 210 0130 4141BC87 		.ascii	"AA\274\207\364\313\004+\276\037d\273\266W\255\005\007"
 210      F4CB042B 
 210      BE1F64BB 
 210      B657AD05 
 210      07
 211 0141 D16E10EE 		.ascii	"\321n\020\356\357H\355\207\304q\265\362\003b\005t\315"
 211      EF48ED87 
 211      C471B5F2 
 211      03620574 
 211      CD
 212              		.text
 213              		.section	.gnu.lto__test_assert_sequence.64c0621aa0296dd2,"",%progbits
 214 0000 789CAD54 		.ascii	"x\234\255T\335KTA\024?g\346~\355\335M#z0\260\024_\203"
 214      DD4B5441 
 214      143F67E6 
 214      7EEDDD4D 
 214      237A30B0 
 215 0017 5DAAE71E 		.ascii	"]\252\347\036\372\037Z\250'\331\226\270-\265$(A\004"
 215      FA1F5AA8 
 215      27D996B8 
 215      2DB52428 
 215      4104
 216 0029 39EB070A 		.ascii	"9\353\007\012\012\273\210\204}<(\322C%\371\330\022\205"
 216      0ABB8884 
 216      7D3C28D2 
 216      4325F9D8 
 216      1285
 217 003b 9B046AA2 		.ascii	"\233\004j\242`\364b%\010\021\005\211\370\020\005\026"
 217      60F46225 
 217      08110589 
 217      F8100516 
 218 004b DECECCDC 		.ascii	"\336\316\314\334{]\267R\372\030v\357\2349\363;\277\363"
 218      7B5DB752 
 218      FA1876EF 
 218      9C39F33B 
 218      BFF3
 219 005d 792F0306 		.ascii	"y/\003\006\265\353*\375_\232\000\307h\3078 +-\002\024"
 219      B5EB2AFD 
 219      5F9A00C7 
 219      68C73820 
 219      2B2D0214 
 220 0071 1C86A616 		.ascii	"\034\206\246\02683\2469\010\327]|\001 \022\006\306\264"
 220      3833A639 
 220      08D75D7C 
 220      01201206 
 220      C6B4
 221 0083 DED58053 		.ascii	"\336\325\200S&\343\352\306\265$,a1\373\311\021:9\257"
 221      26E3EAC6 
 221      B5242C61 
 221      31FBC911 
 221      3A39AF
 222 0096 5274B243 		.ascii	"Rt\262C\264\023\0121D)\000B'\343\206kZ6\251:\317\242"
ARM GAS  /tmp/ccoNZDVu.s 			page 17


 222      B4130A31 
 222      44290042 
 222      27E3866B 
 222      5A36A93A 
 223 00ac 0C85B5C0 		.ascii	"\014\205\265\300\230\020C\253\275[\037\361\346p\245"
 223      981043AB 
 223      BD5B1FF1 
 223      E670A5
 224 00bb 67547CF7 		.ascii	"gT|\367}\304\034R\330M\010Y\2043t\300f\2651cg\036\332"
 224      7DC41C52 
 224      D84D0859 
 224      843374C0 
 224      66B53163 
 225 00d2 B6B23233 		.ascii	"\266\26223xH\214v\225\304\026\231*\313\243{YN\262\312"
 225      78488C76 
 225      95C41699 
 225      2ACBA37B 
 225      594EB2CA 
 226 00e6 AAEFBF7D 		.ascii	"\252\357\277}\372\371\335\000\036h@\310K\253\014\216"
 226      FAF9DD00 
 226      1E6840C8 
 226      4BAB0C8E 
 227 00f6 630B70C8 		.ascii	"c\013p\310!7\22146i\306H\343\00471\2721\\\211\215K)"
 227      21379134 
 227      3669C648 
 227      E3043731 
 227      BA315C89 
 228 010d 4118AC93 		.ascii	"A\030\254\223\022\021\232\320#D\251Y\003Az\247u\232"
 228      12119AD0 
 228      2344A959 
 228      03417AA7 
 228      759A
 229 011f 9E1B16A4 		.ascii	"\236\033\026\244\221\321\306\347\240ku}\334\312\340"
 229      91D1C6E7 
 229      A06B757D 
 229      DCCAE0
 230 012e 5D3403C6 		.ascii	"]4\003\306k\260)\372\2058\231C3\217\333}J#\007*0_\200"
 230      6BB029FA 
 230      85389943 
 230      338FDB7D 
 230      4A23072A 
 231 0145 EE81EE0F 		.ascii	"\356\201\356\017\305Fm\342\241\343!S\331H\3669`\325"
 231      C5466DE2 
 231      A1E32153 
 231      D948F639 
 231      60D5
 232 0157 54740BB0 		.ascii	"Tt\013\260\000]\217{\257\207\360\330m\270Eh#\260\012"
 232      005D8F7B 
 232      AF87F0D8 
 232      6DB84568 
 232      23B00A
 233 016a D915EB3A 		.ascii	"\331\025\353:\206(\327C\374\231\224\222\244\253Z\306"
 233      8628D743 
 233      FC999492 
 233      A4AB5AC6 
 234 017a 78C488D5 		.ascii	"x\304\210\325\214\263\320\263V8\026\271%\034T\345b\300"
 234      8CB3D0B3 
ARM GAS  /tmp/ccoNZDVu.s 			page 18


 234      563816B9 
 234      251C54E5 
 234      62C0
 235 018c 432E9377 		.ascii	"C.\223w\242\206\275\351\233G1$\012\033\276_\237C\213"
 235      A286BDE9 
 235      9B473124 
 235      0A1BBE5F 
 235      9F438B
 236 019f 4172AF7E 		.ascii	"Ar\257~y\230P\261\224G\276TxP\353\260\350\342S\221\212"
 236      799850B1 
 236      9447BE54 
 236      7850EBB0 
 236      E8E25391 
 237 01b4 7A4FD55D 		.ascii	"zO\325]\307\220E\025\032\005[\020b?\265S\327\231$;O"
 237      C7904515 
 237      1A055B10 
 237      623FB553 
 237      D799243B 
 238 01c9 A505E5C2 		.ascii	"\245\005\345\302V\304R\342\010\232\274L\344\031|@\014"
 238      56C452E2 
 238      089ABC4C 
 238      E4197C40 
 238      0C
 239 01da BF36357E 		.ascii	"\27765~k:?{\245\306\320\212\014\235<\3515\334\331NF"
 239      6B3A3F7B 
 239      A5C6D08A 
 239      0C9D3CE9 
 239      35DCD94E 
 240 01ef CF870BA3 		.ascii	"\317\207\013\2433\200i\002\320\033\022\024)\354'\223"
 240      33806902 
 240      D01B1214 
 240      29EC2793 
 241 01ff ED900AD5 		.ascii	"\355\220\012\325\013T~\346F\350=\011\013mG\316 r\026"
 241      0B547EE6 
 241      46E83D09 
 241      0B6D47CE 
 241      207216
 242 0212 CBA31538 		.ascii	"\313\243\0258\213E\335y\376\276p\"4b^\020>\255e@\017"
 242      8B45DD79 
 242      FEBE7022 
 242      34625E10 
 242      3EAD6540 
 243 0227 4D460FD7 		.ascii	"MF\017\327\2753\265\206\313\3004Qe\245\257>\232I6\302"
 243      BD33B586 
 243      CBC03451 
 243      65A5AF3E 
 243      9A4936C2 
 244 023b 69B808D0 		.ascii	"i\270\010\320&\273i\3014\347j*\276\026\355\220\264n"
 244      26BB69C1 
 244      34E76A2A 
 244      BE16ED90 
 244      B46E
 245 024d 97B9D817 		.ascii	"\227\271\330\027\201\344\225[\335\3254\2052\211;g\343"
 245      81E4955B 
 245      DDD53485 
 245      32893B67 
 245      E3
ARM GAS  /tmp/ccoNZDVu.s 			page 19


 246 025e F54CA254 		.ascii	"\365L\242T\350\027\276\337I5\314\340}\012\341\037F\343"
 246      E817BEDF 
 246      4935CCE0 
 246      7D0AE11F 
 246      46E3
 247 0270 5BD1CCE0 		.ascii	"[\321\314\340\243\3776\032\345\277\035\215\362\237\216"
 247      A3FF361A 
 247      E5BF1D8D 
 247      F29F8E
 248 027f 469A1443 		.ascii	"F\232\024CL\026z\263{r\360pm^\343\303M\333\031\261\035"
 248      4C167AB3 
 248      7B72F070 
 248      6D5EE3C3 
 248      4DDB19B1 
 249 0294 19ED320B 		.ascii	"\031\3552\013AsoX\272\267\031|\246\334\007\016c\362"
 249      41736F58 
 249      BAB7197C 
 249      A6DC070E 
 249      63F2
 250 02a6 23B544DF 		.ascii	"#\265D\337k\031\006\327\363\301\203L\214\211\251\206"
 250      6B1906D7 
 250      F3C1834C 
 250      8C89A986 
 251 02b6 40B4D7A6 		.ascii	"@\264\327\246\016*\021\300\231XJ\310)F\262\224A4&\223"
 251      0E2A11C0 
 251      99584AC8 
 251      2946B294 
 251      41342693 
 252 02ca 29FDEB38 		.ascii	")\375\3538\337\336\221\272\224;\227\312^h\225r2\013"
 252      DFDE91BA 
 252      943B97CA 
 252      5E689572 
 252      320B
 253 02dc 71B9B776 		.ascii	"q\271\267v\\\276\330\226<\316\262m<\337\356\375\000"
 253      5CBED896 
 253      3CCEB26D 
 253      3CDFEEFD 
 253      00
 254 02ed D1CB7004 		.ascii	"\321\313p\004"
 255              		.text
 256              		.section	.gnu.lto__test_assert_time_window.64c0621aa0296dd2,"",%progbits
 257 0000 789C8D94 		.ascii	"x\234\215\224Kh\023A\030\200\377\177gc^>\012\012\"H"
 257      4B681341 
 257      1880FF7F 
 257      67635E3E 
 257      0A0A2248 
 258 0014 2DBD0A5D 		.ascii	"-\275\012]\332\036<y\020\275\010\366\242\025\364T\266"
 258      DA1E3C79 
 258      10BD08F6 
 258      A215F454 
 258      B6
 259 0025 9BD02E24 		.ascii	"\233\320.$YI\326\"xpR\337E\261\224\372\250U\261V\220"
 259      5949D622 
 259      787052DF 
 259      45B194FA 
 259      A855B156 
 260 003a DA47AA28 		.ascii	"\332G\252(Dm!\266>*\265>\320\213\026$(\342M<\210\210"
ARM GAS  /tmp/ccoNZDVu.s 			page 20


 260      446D21B6 
 260      3E2AB53E 
 260      D08B1624 
 260      28E24D3C 
 261 0050 54D67F66 		.ascii	"T\326\177f\323\230,Z\262d\376\231\311\314\377\375\317"
 261      D3982C5A 
 261      B264FE99 
 261      C9CCFFFD 
 261      CF
 262 0061 5D0514F0 		.ascii	"]\005\024\360>\0154\006}\000\037hF\037\240\322\375\002"
 262      3E0D3406 
 262      7D001F68 
 262      461FA0D2 
 262      FD02
 263 0073 201D5014 		.ascii	" \035P\024\366V\003\276\\\235\250\006\036b\250\272\177"
 263      F65603BE 
 263      5C9DA806 
 263      1E62A8BA 
 263      7F
 264 0084 AB886201 		.ascii	"\253\210b\001\010\207\024\246\342\241\275(!\031%\227"
 264      088714A6 
 264      E2A1BD28 
 264      21192597 
 265 0094 779CB12B 		.ascii	"w\234\261+]w&pH\251b\030GPI\240\217\204\342\007\023"
 265      5D772670 
 265      48A96218 
 265      475049A0 
 265      8F84E207 
 266 00a9 21400283 		.ascii	"!@\002\203$\224\220\020a\022\2144}p\204\363\356\032"
 266      24949010 
 266      61128C34 
 266      7D7084F3 
 266      EE1A
 267 00bb 0043929A 		.ascii	"\000C\222\232I\012\003\273Q\0213\233\203\251\367\013"
 267      490A03BB 
 267      5111339B 
 267      83A9F70B 
 268 00cb 2F5FF404 		.ascii	"/_\364\004\213\367\334E.sz\236\261\342n\264\367\362"
 268      8BF7DC45 
 268      2E737A9E 
 268      B1E26EB4 
 268      F7F2
 269 00dd 8AE266E8 		.ascii	"\212\342f\350\334\373\325X\334\315>\377H\321\3518@\301"
 269      DCFBD558 
 269      DCCD3EFF 
 269      48D1E938 
 269      40C1
 270 00ef 19883414 		.ascii	"\031\2104\024\032\214\206*\014\266\241\177#\334\344"
 270      1A8C862A 
 270      0CB6A17F 
 270      23DCE4
 271 00fe 47D279E7 		.ascii	"G\322y\347{\357v\023\325~\270\230\356\346U&\372\366"
 271      7BEF7613 
 271      D57EB898 
 271      EEE65526 
 271      FAF6
 272 0110 A089CB38 		.ascii	"\240\211\3138=*\310\245\214\264U\270\251\343 \321\350"
ARM GAS  /tmp/ccoNZDVu.s 			page 21


 272      3D2AC8A5 
 272      8CB455B8 
 272      A9E320D1 
 272      E8
 273 0121 9983CEAF 		.ascii	"\231\203\316\257\207W\352x\215\266m\030 \030\3003\350"
 273      8757EA78 
 273      8DB66D18 
 273      2018C033 
 273      E8
 274 0132 FCD6F326 		.ascii	"\374\326\363&\213\256\311Z\030\340\274'\327\3375\215"
 274      8BAEC95A 
 274      18E0BC27 
 274      D7DF358D 
 275 0142 BC8BA7BF 		.ascii	"\274\213\247\2779\316*\312\203\002S\322\025\011\366"
 275      39CE2ACA 
 275      830253D2 
 275      1509F6
 276 0151 57C929E0 		.ascii	"W\311)\340\251\015\361$,\337\3678\2744\353i\005,V!k"
 276      A90DF124 
 276      2CDFF738 
 276      BC34EB69 
 276      052C5621 
 277 0166 AE02962A 		.ascii	"\256\002\226*Y\344\235\013\311\237\235\375\275nd\234"
 277      59E49D0B 
 277      C99F9DFD 
 277      BD6E649C 
 278 0176 F3A339FE 		.ascii	"\363\2439\376\323A\207\021H\307\2332\317\225\004X\004"
 278      D3418711 
 278      48C79B32 
 278      CF950458 
 278      04
 279 0187 7162F8AE 		.ascii	"qb\370\256\362\005\247\200\030\251\000\301\226F\214"
 279      F205A780 
 279      18A900C1 
 279      96468C
 280 0196 55805045 		.ascii	"U\200PE\035\017\237\234\316\364\236\312\204\274}6|\316"
 280      1D0F9F9C 
 280      CEF49ECA 
 280      84BC7D36 
 280      7CCE
 281 01a8 595DAFE3 		.ascii	"Y]\257\343-\254\245\252\217K\231!Y\326^:\216\312\203"
 281      2DACA5AA 
 281      8F4B9921 
 281      59D65E3A 
 281      8ECA83
 282 01bb 612987E4 		.ascii	"a)\207\344\361b\303\211\261\314\265\023\224\035\302"
 282      F162C389 
 282      B1CCB513 
 282      941DC2
 283 01ca 4AACADD5 		.ascii	"J\254\255\325\361\266\354\234\020y\261\030\313\277\232"
 283      F1B6EC9C 
 283      1079B118 
 283      CBBF9A
 284 01d9 E701F263 		.ascii	"\347\001\362c\213Eb\012\274.)R\300\215\012\313\243\212"
 284      8B45620A 
 284      BC2E2952 
 284      C08D0ACB 
ARM GAS  /tmp/ccoNZDVu.s 			page 22


 284      A38A
 285 01eb C0276ADC 		.ascii	"\300'j\334\374\371\256'\233HC\332\016\271\306\340\277"
 285      FCF9AE27 
 285      9B4843DA 
 285      0EB9C6E0 
 285      BF
 286 01fc 466691F2 		.ascii	"Ff\221\362W0\022T`\276\304H\215kD\365\246\216p3\360"
 286      57301254 
 286      60BEC448 
 286      8D6B44F5 
 286      A68E7033 
 287 0211 E8F3C357 		.ascii	"\350\363\303W~O\336\370\227^\246cV&\344nYB\374\305d"
 287      7E4FDEF8 
 287      975EA663 
 287      5626E46E 
 287      5942FCC5 
 288 0226 84FE9276 		.ascii	"\204\376\222vS\354o5VZ\311\334\344\3612\207t\274WR\313"
 288      53EC6F35 
 288      565AC9DC 
 288      E4F13287 
 288      74BC5752 
 289 023b 251CA277 		.ascii	"%\034\242w2{\341G\216y=\272q\206\0125Q\360\345\276\364"
 289      327BE147 
 289      8E793DBA 
 289      71860A35 
 289      51F0E5BE 
 290 0250 252094C4 		.ascii	"% \224\304\013\317\305\013\317\016\302/~B\254Bq\371"
 290      0BCFC50B 
 290      CF0EC22F 
 290      7E42AC42 
 290      71F9
 291 0262 6D12265C 		.ascii	"m\022&\\'\305\212\211\024\013x\226\340:N\022\341\337"
 291      27C58A89 
 291      140B7896 
 291      E03A4E12 
 291      E1DF
 292 0274 AAEA7F55 		.ascii	"\252\352\177Ugg:<\212\301\242b8.\213#\256\207\377\006"
 292      67673A3C 
 292      8AC1A262 
 292      382E8B23 
 292      AE87FF06 
 293 0288 E3264795 		.ascii	"\343&G\225\337\302\327\220\316\367E\335<\266\271\227"
 293      DFC2D790 
 293      CEF745DD 
 293      3CB6B997 
 294 0298 DE4158F2 		.ascii	"\336AX\362\001\224\353\233\013\226\330\245\3115\342"
 294      0194EB9B 
 294      0B96D8A5 
 294      C935E2
 295 02a7 438A4249 		.ascii	"C\212BI4\373\372\272:\315\375\331\321\224\255\305\314"
 295      34FBFABA 
 295      3ACDFDD9 
 295      D194ADC5 
 295      CC
 296 02b8 56CD686F 		.ascii	"V\315ho\021\353:\003\032\213\207VJk\327c\332>+i\247"
 296      11EB3A03 
 296      1A8B8756 
ARM GAS  /tmp/ccoNZDVu.s 			page 23


 296      4A6BD763 
 296      DA3E2B69 
 297 02cd B45DCD4D 		.ascii	"\264]\315M\215\015\332\216\035\333\264\346\355M\035"
 297      8D0DDA8E 
 297      1DDBB4E6 
 297      ED4D1D
 298 02dc F5E2A425 		.ascii	"\365\342\244%e\267\304b\221\272v\320Ju\014+\036\267"
 298      65B7C462 
 298      91BA76D0 
 298      4A750C2B 
 298      1EB7
 299 02ee 1205B52D 		.ascii	"\022\005\265-;\233\2666\035 \274a%\243-\266\031\217"
 299      3B9BB636 
 299      1D20BC61 
 299      25A32DB6 
 299      198F
 300 0300 26E97E75 		.ascii	"&\351~u\351\375\244\255\231\011#\266?\022\245k\0356"
 300      E9FDA4AD 
 300      990923B6 
 300      3F12A56B 
 300      1D36
 301 0312 1D6FF0BA 		.ascii	"\035o\360\272`\245H\320=1\323\271*8\276\224\255'm\026"
 301      60A548D0 
 301      3D31D3B9 
 301      2A38BE94 
 301      AD276D16 
 302 0326 4D448286 		.ascii	"MD\202\206\225\210\230\266i%X<\325\366\007\015\001\252"
 302      958898B6 
 302      6925583C 
 302      D5F6070D 
 302      01AA
 303 0338 A0       		.ascii	"\240"
 304              		.text
 305              		.section	.gnu.lto_test_printn.64c0621aa0296dd2,"",%progbits
 306 0000 789C8554 		.ascii	"x\234\205TKH\224Q\024>\347\336\371\037\363\317\350\350"
 306      4B489451 
 306      143EE7DE 
 306      F91FF3CF 
 306      E8E8
 307 0012 A8238690 		.ascii	"\250#\206\220\010m\024\306\2406-\244u{\205j#:\3258\220"
 307      086D14C6 
 307      A0362DA4 
 307      757B856A 
 307      233AD538 
 308 0027 206514B4 		.ascii	" e\024\264\360:3\201\250\301 D\257\215\026\025\265\310"
 308      F03A3381 
 308      A8C12044 
 308      AF8D1615 
 308      B5C8
 309 0039 45BB5633 		.ascii	"E\273V3!4\212\026-\304\244E\266\210 \005\027\021\275"
 309      21348A16 
 309      2DC4A445 
 309      B6882005 
 309      1711BD
 310 004c A0E99CFF 		.ascii	"\240\351\234\377\376w\306L\350\342\3343\367\234\357"
 310      FE77C64C 
 310      E8E2DC33 
ARM GAS  /tmp/ccoNZDVu.s 			page 24


 310      F79CEF
 311 005b 3BEF5180 		.ascii	";\357Q\200\200\275\3472}>\207\000zHb\004P\024^\001L"
 311      80BDE732 
 311      7D3E8700 
 311      7A486204 
 311      50145E01 
 312 0070 B842846E 		.ascii	"\270B\204n6\200\362\344\217^PQ\2116\2531\204\236/-\375"
 312      3680F2E4 
 312      8F5E5051 
 312      8936AB31 
 312      849E2F2D 
 313 0085 2EB9B6B0 		.ascii	".\271\266\260f^\002\341\234\274C8\007\303\276\335\325"
 313      665E02E1 
 313      9CBC4338 
 313      07C3BEDD 
 313      D5
 314 0096 B2E48685 		.ascii	"\262\344\206\205\253\355\236o\367\020Y\017\010\343B"
 314      ABED9E6F 
 314      F710590F 
 314      08E342
 315 00a5 862CDB71 		.ascii	"\206,\333q\303\036\216\237BNDv\302\274R\263\233\327"
 315      C31E8E9F 
 315      424E4476 
 315      C2BC52B3 
 315      9BD7
 316 00b7 9E3E6E9B 		.ascii	"\236>n\233\232\313\026\324\357J\0053H)\037DH!\234\244"
 316      9ACB16D4 
 316      EF4A0533 
 316      48291F44 
 316      48219CA4 
 317 00cb 0776F842 		.ascii	"\007v\370B\204\376\256\201\231\305B\361\335\324\014"
 317      84FEAE81 
 317      99C542F1 
 317      DDD40C
 318 00da AA1A530A 		.ascii	"\252\032S\012\350\2521\225\226\242\341_\252\232Ukg\312"
 318      E8AA3195 
 318      96A2E15F 
 318      AA9A556B 
 318      67CA
 319 00ec 2A5FAC54 		.ascii	"*_\254T\216g0$ \371\277\200\013\242\270Y\251\254\254"
 319      8E673024 
 319      20F9BF80 
 319      0BA2B859 
 319      A9ACAC
 320 00ff 7DFF50C6 		.ascii	"}\377P\306\370\001\204\021Ns\020\037`'\310@\332HJ/x"
 320      F8018411 
 320      4E73101F 
 320      6027C840 
 320      DA484A2F 
 321 0114 4418110D 		.ascii	"D\030\021\015\036u\220A\253\236.;\306W#\333\342d\233"
 321      1E759041 
 321      AB9E2E3B 
 321      C65723DB 
 321      E2649B
 322 0127 275B1369 		.ascii	"'[\023i\234f\272\334\226\000\235\010d+c)\264\005y\245"
 322      9C66BADC 
 322      96009D08 
ARM GAS  /tmp/ccoNZDVu.s 			page 25


 322      642B6329 
 322      B40579A5 
 323 013b 0A1D8378 		.ascii	"\012\035\203x\237\224\332\004\234-\235>\272w\\\350G"
 323      9F94DA04 
 323      9C2D9D3E 
 323      BA775CE8 
 323      47
 324 014c 41429661 		.ascii	"AB\226a\361S\351\375\224\034\304GhA\032m.\304\332]E"
 324      F153E9FD 
 324      941CC447 
 324      68411A6D 
 324      2EC4DA5D 
 325 0161 3F4AC83B 		.ascii	"?J\310;\022`\003\"d\027\270\001\336U\370\251\224*~]"
 325      12600322 
 325      6417B801 
 325      DE55F8A9 
 325      942A7E5D 
 326 0175 8E6630AC 		.ascii	"\216f0\254\203\320\021W\030\035\202-\224K\220u\265\313"
 326      83D01157 
 326      181D822D 
 326      944B9075 
 326      B5CB
 327 0187 11C434A7 		.ascii	"\021\3044\247\364\032r\201\006\200\351\223\252!\203"
 327      F41A7281 
 327      0680E993 
 327      AA2183
 328 0196 5E0AFD9C 		.ascii	"^\012\375\234(\353\210\211f\001\355\202\\\205\334t\356"
 328      28EB8889 
 328      6601ED82 
 328      5C85DC74 
 328      EE
 329 01a7 CB8D3693 		.ascii	"\313\2156\223W4\215\302\3571\343\227@h\275\256\214\254"
 329      57348DC2 
 329      EF31E397 
 329      4068BDAE 
 329      8CAC
 330 01b9 0044B89D 		.ascii	"\000D\270\235{\210\006_\227F\364K\361\200m\331\255\334"
 330      7B88065F 
 330      9746F44B 
 330      F1806DD9 
 330      ADDC
 331 01cb 0563AA27 		.ascii	"\005c\252'\253\217\237\254V\035#-\243\355\303\032}B"
 331      AB8F9FAC 
 331      561D232D 
 331      A3EDC31A 
 331      7D42
 332 01dd 1BEEC29D 		.ascii	"\033\356\302\235\011\2523F\206 \274\2360\021|\007\327"
 332      09AA3346 
 332      8620BC9E 
 332      30117C07 
 332      D7
 333 01ee 73F78471 		.ascii	"s\367\204q\321\270;`5A\032\032\231Li6\320^\373\275\201"
 333      D1B83B60 
 333      35411A1A 
 333      994C6936 
 333      D05EFBBD 
 334 0203 6AEA82D1 		.ascii	"j\352\202\321\254\360\241T]\031\362\333\245o\313u\306"
ARM GAS  /tmp/ccoNZDVu.s 			page 26


 334      ACF0A154 
 334      5D19F2DB 
 334      A56FCB75 
 334      C6
 335 0214 31EE99C8 		.ascii	"1\356\231\310\006PC#\222\256Fke}Nl\200H\243\307\357"
 335      06504323 
 335      92AE466B 
 335      657D4E6C 
 335      8048A3C7 
 336 0229 A8754B72 		.ascii	"\250uKr\030\307\314\253\205\334\333\310*7hjv\351\355"
 336      18C7CCAB 
 336      85DCDBC8 
 336      2A37686A 
 336      76E9ED
 337 023c C231E339 		.ascii	"\3021\3439\256\353\2439\324&\022\035\341\214\374u\216"
 337      AEEBA339 
 337      D426121D 
 337      E18CFC75 
 337      8E
 338 024d 06018975 		.ascii	"\006\001\211u\332P\232\272\241\213v\217\210\004\240"
 338      DA509ABA 
 338      A18B768F 
 338      8804A0
 339 025c 1EC719A8 		.ascii	"\036\307\031\250aC\010\373\020\232\273\341\011\373\255"
 339      614308FB 
 339      109ABBE1 
 339      09FBAD
 340 026b D7146A74 		.ascii	"\327\024jt\023S\234\200\202UJn\272:\215D\032\245?\353"
 340      13539C80 
 340      82554A6E 
 340      BA3A8D44 
 340      1AA53FEB 
 341 027f 0A9DD87E 		.ascii	"\012\235\330~\363N\370A\236[\206\321\252\275\323\224"
 341      F34EF841 
 341      9E5B86D1 
 341      AABDD394 
 342 028f 12B529F1 		.ascii	"\022\265)\361\316Yf\345(\023\276\342\204\315`\203\031"
 342      CE5966E5 
 342      2813BEE2 
 342      84CD6083 
 342      19
 343 02a0 48789F81 		.ascii	"Hx\237\201H\036\301\342\307\322/3\002\275\354\252w\367"
 343      481EC1E2 
 343      C7D22F33 
 343      02BDECAA 
 343      77F7
 344 02b2 AAFB3033 		.ascii	"\252\37303\017\231\306\026\207\372\237p\267\327\333"
 344      0F99C616 
 344      87FA9F70 
 344      B7D7DB
 345 02c1 D9ADC7BF 		.ascii	"\331\255\307\277\254Ux\261UM\233iG\341\231\232\344\377"
 345      AC5578B1 
 345      554D9B69 
 345      47E1999A 
 345      E4FF
 346 02d3 38447A03 		.ascii	"8Dz\003\023\233\345C&9}\372\250\033;.w\277=\231\354"
 346      139BE543 
ARM GAS  /tmp/ccoNZDVu.s 			page 27


 346      26397DFA 
 346      A81B3B2E 
 346      77BF3D99 
 347 02e8 D17F6367 		.ascii	"\321\177cg/\216\365\234\317\014\365\244\206\007\370"
 347      2F8EF59C 
 347      CF0CF5A4 
 347      8607F8
 348 02f7 7B32051E 		.ascii	"{2\005\036\313\201\324\360h\362\210\034\272t\016G\377"
 348      CB81D4F0 
 348      68F2881C 
 348      BA740E47 
 348      FF
 349 0308 00878F22 		.ascii	"\000\207\217\","
 349      2C
 350              		.text
 351              		.section	.gnu.lto_test_print.64c0621aa0296dd2,"",%progbits
 352 0000 789C6D52 		.ascii	"x\234mR1K\\A\020\376\276\335\267\357\275;\015$\301F"
 352      314B5C41 
 352      10FEBEDD 
 352      B7EFBD3B 
 352      0D24C146 
 353 0014 11948085 		.ascii	"\021\224\200\205\012wE\260\314\2778A\323\210\036r\036"
 353      0A7745B0 
 353      CCBF3841 
 353      D3881E72 
 353      1E
 354 0025 2804B44B 		.ascii	"(\004\264K\341\336y\202\250\305a!!ZD\254\022\004K!\225"
 354      E1DE7982 
 354      A8C56121 
 354      215A44AC 
 354      12044B21 
 355 003a 567A9028 		.ascii	"Vz\220(\226\"\302a-\244O\221\313\314\355\235!\342\362"
 355      9622C261 
 355      2DA44F91 
 355      CBCCED9D 
 355      21E2F2
 356 004d DECCECCC 		.ascii	"\336\314\354\314|\337|o\367\031\030<]\357\344}%\351"
 356      7CDF7C6F 
 356      F719183C 
 356      5DEFE47D 
 356      25E9
 357 005f 51F18C41 		.ascii	"Q\361\214AS\277\004*\251a\024\002\033\202\26342v\373"
 357      53BF042A 
 357      A9611402 
 357      1B82B334 
 357      3276FB
 358 0072 1CF05957 		.ascii	"\034\360YWK\340{\035\251y\020\253\306F\216\253\323T"
 358      4BE07B1D 
 358      A97910AB 
 358      C6468EAB 
 358      D354
 359 0084 3ABEC181 		.ascii	":\276\301\201\367;\315\365\223\257\375\233_\252u\377"
 359      F73BCDF5 
 359      93AFFD9B 
 359      5FAA75FF 
 360 0094 A7D56299 		.ascii	"\247\325b\2312x\210(\022S\262\341p\333\231\350\177%"
 360      32788828 
ARM GAS  /tmp/ccoNZDVu.s 			page 28


 360      1253B2E1 
 360      70DB99E8 
 360      7F25
 361 00a6 C7E6B4D9 		.ascii	"\307\346\264\331j\355\337\036\335\337\361u\017\261D"
 361      6AEDDF1E 
 361      DDDFF175 
 361      0FB144
 362 00b5 588A7128 		.ascii	"X\212q(\323\306\230\345\201\220'\262\211R1.\243\015"
 362      D3C698E5 
 362      819027B2 
 362      8952312E 
 362      A30D
 363 00c7 B21C6ADE 		.ascii	"\262\034j\336\327\207\241\354\262\012bE`\201F\234\235"
 363      D787A1EC 
 363      B20A6245 
 363      6081469C 
 363      9D
 364 00d8 A485A8B6 		.ascii	"\244\205\250\266?Qm|:\031\235\345!\035J\214\367\360"
 364      3F516D7C 
 364      3A199DE5 
 364      211D4A8C 
 364      F7F0
 365 00ea B9E2FD4B 		.ascii	"\271\342\375K\021\366\021\277\375\206F\361\022\225@"
 365      11F611BF 
 365      FD8646F1 
 365      129540
 366 00f9 95C51D45 		.ascii	"\225\305\035E\202z\337\205$\343\030\223\321\002\224"
 366      827ADF85 
 366      24E31893 
 366      D10294
 367 0108 864428B4 		.ascii	"\206D(\2641\264\315\021\317\000\322q|S\3364@2B\241\220"
 367      31B4CD11 
 367      CF00D271 
 367      7C53DE34 
 367      403242A1 
 368 011d A803E123 		.ascii	"\250\003\341#dm\313v1\322\304\366\321h\265\001\023\362"
 368      646DCB76 
 368      31D2C4F6 
 368      D168B501 
 368      13F2
 369 012f F29D5202 		.ascii	"\362\235R\002\256\340B\002J\257&.\321\225\231\015L\223"
 369      AEE04202 
 369      4AAF262E 
 369      D195990D 
 369      4C93
 370 0141 C22D5762 		.ascii	"\302-Wb\033\250J\261\015b[\322\367\365_\273\003\335"
 370      1BA84AB1 
 370      0D625BD2 
 370      F7F55FBB 
 370      03DD
 371 0153 112EC8E9 		.ascii	"\021.\310\351\351L\352\355\310\270@\355\241\362\366"
 371      E94CEAED 
 371      C8B840ED 
 371      A1F2F6
 372 0162 B1494B2F 		.ascii	"\261IK/\376]\315\015X\2425b2\366\307m\237\316rz\274"
 372      FE5DCD0D 
 372      58A23562 
ARM GAS  /tmp/ccoNZDVu.s 			page 29


 372      32F6C76D 
 372      9FCE727A 
 373 0177 D7A834EF 		.ascii	"\327\2504\357F\272\242\302*\310\324Z\242?\332`.\227"
 373      46BAA2C2 
 373      2AC8D45A 
 373      A23FDA60 
 373      2E97
 374 0189 0FCFCAFC 		.ascii	"\017\317\312\374\362J~\261<\227/.\314h\234+\"\253~\246"
 374      F24A7EB1 
 374      3C972F2E 
 374      CC689C2B 
 374      22AB7EA6 
 375 019d B8F02137 		.ascii	"\270\360!7\361\027D\377z\307"
 375      F11744FF 
 375      7AC7
 376              		.text
 377              		.section	.gnu.lto_test_println.64c0621aa0296dd2,"",%progbits
 378 0000 789C8D53 		.ascii	"x\234\215S\315k\023Q\020\237y\037\233\315&\261\261z"
 378      CD6B1351 
 378      109F791F 
 378      9BCD26B1 
 378      B17A
 379 0012 B0E24729 		.ascii	"\260\342G)xh\013\311A\212 \010\376\021-h/%\015\262]"
 379      78680BC9 
 379      418A2008 
 379      FE112D68 
 379      2F250DB2 
 380 0027 3050686F 		.ascii	"0Pho\036\372\022#\210\365\020z\320\252\010\006\251\250"
 380      1EFA1223 
 380      88F5107A 
 380      D0AA0806 
 380      A9A8
 381 0039 172F053F 		.ascii	"\027/\005?\016\245\2364V-\036U\012A\257\005=\347\340"
 381      0EA59E34 
 381      562D1E55 
 381      0A41AF05 
 381      3DE7E0
 382 004c 3AB36F77 		.ascii	":\263ow\373\341\241>v\337\233\2357\277\231\337\374\336"
 382      FBE1A13E 
 382      76DF9B9D 
 382      37BF99DF 
 382      FCDE
 383 005e 5B0102F6 		.ascii	"[\001\002\366\217\013\364\256J\273\242\003(Z\237\001"
 383      8F0BF4AE 
 383      4ABBA203 
 383      285A9F01 
 384 006e EAAE4065 		.ascii	"\352\256@e\015i\215\267\256\022\362\366;\000\343\351"
 384      0D698DB7 
 384      AE12F2F6 
 384      3B00E3E9 
 385 007e 66064C5E 		.ascii	"f\006L^#\262\037\020\026\204T\032\027.#\247\023C\320"
 385      23B21F10 
 385      1684541A 
 385      172E23A7 
 385      1343D0
 386 0091 3666A9BB 		.ascii	"6f\251\273\262vo\340\326\243F\313\374\011C\014\220\012"
 386      B2766FE0 
ARM GAS  /tmp/ccoNZDVu.s 			page 30


 386      D6A346CB 
 386      FC09430C 
 386      900A
 387 00a3 9F46A822 		.ascii	"\237F\250\"\\\242\017\034\214\026\241\3662\261\310\365"
 387      5CA20F1C 
 387      8C16A1F6 
 387      32B1C8F5 
 388 00b3 D71B1FDA 		.ascii	"\327\033\037\332h\226L\375w\030\366E\310\221\203\220"
 388      68964CFD 
 388      7718F645 
 388      C8918390 
 389 00c3 2FC47A37 		.ascii	"/\304z7\014\267\267V\177\364\260\277(\260\206\240\240"
 389      0CB7B756 
 389      7FF4B0BF 
 389      28B086A0 
 389      A0
 390 00d4 826D1C02 		.ascii	"\202m\034\002\015\001J\207&\345\222\3471y\262\354\361"
 390      0D014A87 
 390      26E592E7 
 390      3179B2EC 
 390      F1
 391 00e5 68D239A0 		.ascii	"h\3229\240\300<O\005\372t(\221\206\2461\255A\340z4\306"
 391      C03C4F05 
 391      FA742891 
 391      86A631AD 
 391      41E07A34 
 392 00fa 69A66627 		.ascii	"i\246f'P\320\";\320pS\226[\213\033\273Hf\004\214\035"
 392      50D0223B 
 392      D0705396 
 392      5B8B1BBB 
 392      4866048C 
 393 010f 44D2C758 		.ascii	"D\322\307X\374\011\224@J\312O\320\350,\277\034NkZ\303"
 393      FC099440 
 393      4ACA4FD0 
 393      E82CBF1C 
 393      4E6B5AC3 
 394 0123 FCBC7BB2 		.ascii	"\374\274{\262\202O\210(\020\341\025\324\224\026-\336"
 394      824F8828 
 394      10E115D4 
 394      94162DDE 
 395 0133 7D00F7EB 		.ascii	"}\000\367\353\306\024I\224k\32037\331rk\321.\027t\343"
 395      C6144994 
 395      6BD03337 
 395      D9726BD1 
 395      2E1774E3 
 396 0147 4294F71B 		.ascii	"B\224\367\033\345\255\340S\002\373\230\035\205\021\352"
 396      E5ADE053 
 396      02FB981D 
 396      8511EA
 397 0156 38C56629 		.ascii	"8\305f)\021\207\333\340i\214\352<\243P\013\235Lp\336"
 397      1187DBE0 
 397      698CEA3C 
 397      A3500B9D 
 397      4C70DE
 398 0169 283CE778 		.ascii	"(<\347x/E\346(\031#e\214\304=\310\353\2132\201\346}"
 398      2F45E628 
 398      1923658C 
ARM GAS  /tmp/ccoNZDVu.s 			page 31


 398      C43DC8EB 
 398      8B3281E6 
 399 017e CC451270 		.ascii	"\314E\022p\362\016\010\353\267]\321.\300&h\353\343\266"
 399      F20E08EB 
 399      B75DD12E 
 399      C02668EB 
 399      E3B6
 400 0190 BCA8371F 		.ascii	"\274\2507\037\013\001oY\205\024\320\345\212\025Op\271"
 400      0B016F59 
 400      8514D0E5 
 400      8A154F70 
 400      B9
 401 01a1 88DF9B1B 		.ascii	"\210\337\233\033\277\356\034O\012\025Rn\205\270d&\026"
 401      BFEE1C4F 
 401      0A15526E 
 401      85B86426 
 401      16
 402 01b2 E13D34B7 		.ascii	"\341=4\267\353g\3238\336:\264s\026_\201z\021\002\211"
 402      EB67D338 
 402      DE3AB473 
 402      165F817A 
 402      110289
 403 01c5 8CFCF8FD 		.ascii	"\214\374\370\375(W\324|\304|$\257\326\006\254\356>\252"
 403      2857D47C 
 403      C47C24AF 
 403      D606ACEE 
 403      3EAA
 404 01d7 FF167C32 		.ascii	"\377\026|2\201\350Tm\214\244V\373\244\376\007\340\304"
 404      81E8546D 
 404      8CA456FB 
 404      A4FE07E0 
 404      C4
 405 01e8 32F75908 		.ascii	"2\367Y\010\361\322\2735N~\330Mp,\202\305rxRL\351X\200"
 405      F1D2BB35 
 405      4E7ED84D 
 405      702C82C5 
 405      7278524C 
 406 01ff C55370FE 		.ascii	"\305Sp\376\241Y\276\030\340\341\370\302D\344\372\005"
 406      A159BE18 
 406      E0E1F8C2 
 406      44E4FA05 
 407 020f DDE92300 		.ascii	"\335\351#\000_\240\336\355\235I\260v\214S\013\315\014"
 407      5FA0DEED 
 407      9D49B076 
 407      8C530BCD 
 407      0C
 408 0220 A73E512A 		.ascii	"\247>Q*\225\3553\177en\276|5\230.Wg\246\330.U\301\343"
 408      95ED337F 
 408      656EBE7C 
 408      35982E57 
 408      67A6D82E 
 409 0237 75AA3A33 		.ascii	"u\252:3[:\267c\216\251\332\234?+\013\036\374\005B\250"
 409      5B3AB763 
 409      8EA9DA9C 
 409      3F2B0B1E 
 409      FC0542A8 
 410 024b DA26     		.ascii	"\332&"
ARM GAS  /tmp/ccoNZDVu.s 			page 32


 411              		.text
 412              		.section	.gnu.lto_test_emit_token.64c0621aa0296dd2,"",%progbits
 413 0000 789C8D52 		.ascii	"x\234\215RMh\023Q\020\236y\273\333\224\376`\301\223"
 413      4D681351 
 413      109E79BB 
 413      DB94FE60 
 413      C193
 414 0012 52925010 		.ascii	"R\222P\020\005m\266\365\242G\245\247\036r\351\017\352"
 414      056DB6F5 
 414      A247A5A7 
 414      1E72E90F 
 414      EA
 415 0023 296CD7B5 		.ascii	")l\327\265Y\314vK6--\036\372\222\364 \364`)\212\326"
 415      59CC764B 
 415      362D2D1E 
 415      FA92F420 
 415      F460298A 
 416 0038 5ADA2256 		.ascii	"Z\332\"V\005Q<\012\005#\2504\326\006\305\036<\250\004"
 416      05513C0A 
 416      0523A834 
 416      D606C51E 
 416      3CA804
 417 004b 8B07F120 		.ascii	"\213\007\361 \365\324\252\030\347e\223M\377\260\276"
 417      F5D4AA18 
 417      E765934D 
 417      FFB0BE
 418 005a E4EDBC9F 		.ascii	"\344\355\274\237\371f\276y\3370`\260}\034\247\231\225"
 418      F966BE79 
 418      DF3060B0 
 418      7D1CA799 
 418      95
 419 006b 0036C8A2 		.ascii	"\0006\310\242\002\310\306s\000\311j\306\244\025\025"
 419      02C8C673 
 419      00C96AC6 
 419      A41515
 420 007a 788DBCE0 		.ascii	"x\215\274\340\007^'\241\354\036\313\210b\001\010#L\222"
 420      075E27A1 
 420      EC1ECB88 
 420      62010823 
 420      4C92
 421 008c 71E41C8A 		.ascii	"q\344\034\212\030\254\011\3468\237\310\277X\315\262"
 421      18AC09E6 
 421      389FC8BF 
 421      58CDB2
 422 009b C9AB99D1 		.ascii	"\311\253\231\321Y\376\273P@4\221\362\005\020t\204\263"
 422      59FEBB50 
 422      403491F2 
 422      05107484 
 422      B3
 423 00ac B4C160D1 		.ascii	"\264\301`\3210y+\001\027\233\231\311]9\360j65\316\377"
 423      30792B01 
 423      179B99C9 
 423      5D39F06A 
 423      3635CEFF 
 424 00c0 10B4883C 		.ascii	"\020\264\210<\272+\322\302\012\364\021\313\344\013\205"
 424      BA2BD2C2 
 424      0AF411CB 
ARM GAS  /tmp/ccoNZDVu.s 			page 33


 424      E40B85
 425 00cf 85B57B9F 		.ascii	"\205\265{\237'q\177\235\014\032\316a\023(do\223\365"
 425      27717F9D 
 425      0C1ACE61 
 425      1328646F 
 425      93F5
 426 00e1 A185C259 		.ascii	"\241\205\302Y\201Q\316\307\203 \242\321\350\242\257"
 426      8151CEC7 
 426      8320A2D1 
 426      E8A2AF
 427 00f0 A8A11B99 		.ascii	"\250\241\033\231\260R\026R\325e\026\371\265\373\313"
 427      B0521652 
 427      D56516F9 
 427      B5FBCB
 428 00ff CF7022CD 		.ascii	"\317p\"\315\027\371h\206x\004L\224\030\\\330\253\004"
 428      17F96886 
 428      78044C94 
 428      185CD8AB 
 428      04
 429 0110 71265102 		.ascii	"q&Q\002\310Aj\355Cz\376\240\227\322]dV\337MIG4\234'"
 429      C8416AED 
 429      437AFEA0 
 429      97D25D64 
 429      56DF4D49 
 430 0128 56DED9AF 		.ascii	"V\336\331\257k\353\265\215\336n\343\372\307}\336f\351"
 430      6BEBB58D 
 430      DE6EE3FA 
 430      C77DDE66 
 430      E9
 431 0139 E52A29A2 		.ascii	"\345*)\242\341\035\022DG\221\235\321\224h\026\023#\375"
 431      E11D1244 
 431      47919DD1 
 431      94681613 
 431      23FD
 432 014b 3ED196C4 		.ascii	">\321\226\304\224\\E\375\360\035\247\371\215S\246\353"
 432      945C45FD 
 432      F01DA7F9 
 432      8D53A6EB 
 433 015b E0F1A9DC 		.ascii	"\340\361\251\334\377(\335+.\343eHe\337\223Zn\216^\224"
 433      FF28DD2B 
 433      2EE36548 
 433      65DF935A 
 433      6E8E5E94 
 434 016f A7E06692 		.ascii	"\247\340f\222\363\006z\370K\360\223_\026\253*\367\251"
 434      F3067AF8 
 434      4BF0935F 
 434      16AB2AF7 
 434      A9
 435 0180 45B0AA52 		.ascii	"E\260\252R\241\213\360\374K\262\336\003\271\256\374"
 435      A18BF0FC 
 435      4BB2DE03 
 435      B9AEFC
 436 018f 0CA19AE1 		.ascii	"\014\241\232\341\001\2471M\316>\013\231\000U7\354h6"
 436      01A7314D 
 436      CE3E0B99 
 436      005537EC 
 436      6836
ARM GAS  /tmp/ccoNZDVu.s 			page 34


 437 01a1 31BA89F9 		.ascii	"1\272\211\371\212*-Cz,\375\364V\240\034L\241x\305\267"
 437      8A2A2D43 
 437      7A2CFDF4 
 437      56A01C4C 
 437      A178C5B7 
 438 01b5 45975EBB 		.ascii	"E\227^\273{\361?\274zEU\004YzS\263\031\304k\211K)*\224"
 438      7BF13FBC 
 438      7A455504 
 438      597A53B3 
 438      19C46B89 
 439 01cd 1C7D650E 		.ascii	"\034}e\016\362.\332\177\315m\327^\303\273\305\247\337"
 439      F22EDA7F 
 439      CD6DD75E 
 439      C3BBC5A7 
 439      DF
 440 01de 537CF897 		.ascii	"S|\370\227\370\337\246\205\370O\266\212?S\357\337\324"
 440      F8DFA685 
 440      F84FB68A 
 440      3F53EFDF 
 440      D4
 441 01ef 9A5E17AC 		.ascii	"\232^\027\254W\272`\354uZ\251t\201\230\305ru*bg#h\370"
 441      57BA60EC 
 441      755AA974 
 441      8198C572 
 441      752A6267 
 442 0206 90161E97 		.ascii	"\220\026\036\227\262\360\032>F\277\313\363-$\363\223"
 442      B2F01A3E 
 442      46BFCBF3 
 442      2D24F393 
 443 0216 87DD70E5 		.ascii	"\207\335p\345\321E\315E\357 \\\033C!\325\375'\014'\241"
 443      D145CD45 
 443      EF205C1B 
 443      4321D5FD 
 443      270C27A1 
 444 022a C6CC1E55 		.ascii	"\306\314\036U\217F\304:\244C\255\260\221\204}\261?t"
 444      8F46C43A 
 444      A443ADB0 
 444      91847DB1 
 444      3F74
 445 023c B2AEB26E 		.ascii	"\262\256\262nmi\366P\266\243\352\266e\331}j\277\035"
 445      6D69F650 
 445      B6A3EAB6 
 445      65D97D6A 
 445      BF1D
 446 024e 4F38EAE9 		.ascii	"O8\352\351\216p[x\210b\350v\334\210\014\236\260BQP\006"
 446      8E705B78 
 446      8862E876 
 446      DC880C9E 
 446      B0425150 
 447 0263 B5D880D1 		.ascii	"\265\330\200\321\272\013\306\030J\250m\341\316\366N"
 447      BA0BC618 
 447      4AA86DE1 
 447      CEF64E
 448 0272 D5ECD363 		.ascii	"\325\354\323c\003\347\015U\267\034\323\211\364\352:"
 448      03E70D55 
 448      B71CD389 
 448      F4EA3A
ARM GAS  /tmp/ccoNZDVu.s 			page 35


 449 0281 E1029B11 		.ascii	"\341\002\233\021\361D\305'\352\014;\333\357\243Z\214"
 449      F144C527 
 449      EA0C3BDB 
 449      EFA35A8C 
 450 0291 0C7DC851 		.ascii	"\014}\310QX\272o\010wv\004{4\307\350\217\233\307\202"
 450      58BA6F08 
 450      7776047B 
 450      34C7E88F 
 450      9BC782
 451 02a4 875A80C5 		.ascii	"\207Z\200\305\301g\031\226\035\037\206\277\355\3178"
 451      C1671996 
 451      1D1F86BF 
 451      EDCF38
 452 02b3 C9       		.ascii	"\311"
 453              		.text
 454              		.section	.gnu.lto_test_emit_token_i.64c0621aa0296dd2,"",%progbits
 455 0000 789C8D52 		.ascii	"x\234\215R\277KBQ\024>\347\336\253\210\031\010MA\244"
 455      BF4B4251 
 455      143EE7DE 
 455      AB881908 
 455      4D41A4
 456 0013 B8B4D47B 		.ascii	"\270\264\324{XK\377B\273RMb\022%%\005\2715x\237\032"
 456      584BFF42 
 456      BB524D62 
 456      12252505 
 456      B935789F 
 457 0028 040D4938 		.ascii	"\004\015I8\364\003A\2116\261\266\226\006\207\206,\222"
 457      F4034189 
 457      36B1B696 
 457      0687862C 
 457      92
 458 0039 02B71609 		.ascii	"\002\267\026\011\202\240\271%\242\327\271\357\252\331"
 458      82A0B925 
 458      A2D7B9EF 
 458      AAD9
 459 0047 8FA1C37B 		.ascii	"\217\241\303{\357;\367\336\363}\347\273\207\307\200"
 459      EF3BF7DE 
 459      F37DE7BB 
 459      87C780
 460 0056 C1CF98A4 		.ascii	"\301\317\230\244\367\031\001\246\011\321\005\310\012"
 460      F71901A6 
 460      09D105C8 
 460      0A
 461 0063 4D00CBC3 		.ascii	"M\000\313\303\030o\231 \275\342b\024\244\217\243\320"
 461      186F9920 
 461      BDE26214 
 461      A48FA3D0 
 462 0073 DB025125 		.ascii	"\333\002Q%\200\220a\\`f\036\225\006\013AE\312\275\366"
 462      8090615C 
 462      60661E95 
 462      060B4145 
 462      CABDF6
 463 0086 D64B831D 		.ascii	"\326K\203\035\024\353\371\262|\267m\304$R\277\000B\002"
 463      14EBF9B2 
 463      7CB76DC4 
 463      2452BF00 
 463      4202
ARM GAS  /tmp/ccoNZDVu.s 			page 36


 464 0098 618E1618 		.ascii	"a\216\026\030t\200\211\357\0064\267\376\320\334\035"
 464      748089EF 
 464      0634B7FE 
 464      D0DC1D
 465 00a7 BE2E670B 		.ascii	"\276.g\013\362\203\250\016s\374Of\012\277\250\247\254"
 465      F283A80E 
 465      73FC4F66 
 465      0ABFA8A7 
 465      AC
 466 00b8 DEB6EDEA 		.ascii	"\336\266\355\352\353\331c\015\207<\034\342X\301\020"
 466      EBD9630D 
 466      873C1CE2 
 466      58C110
 467 00c7 08C26342 		.ascii	"\010\302cB7\246P\025\273 /e!\010J\215\"B_u\207(2\205"
 467      37A65015 
 467      BB202F65 
 467      21084A8D 
 467      22425F75 
 468 00df FC16B28D 		.ascii	"\374\026\262\215}2\036\307\023\272\377\022\362#8\264"
 468      7D321EC7 
 468      13BAFF12 
 468      F22338B4 
 469 00ef A4F49387 		.ascii	"\244\364\223\207Mx\223\333*\343\272\2532\301;\275\257"
 469      4D7893DB 
 469      2AE3BAAB 
 469      32C13BBD 
 469      AF
 470 0100 E0F2C91A 		.ascii	"\340\362\311\032\354\221t\251\234%\326\004T%E\211\212"
 470      EC9174A9 
 470      9C25D604 
 470      54254589 
 470      8A
 471 0111 450A9922 		.ascii	"E\012\231\"\271\374\277\346\256\"Jj-\223\034\344vr\347"
 471      B9FCBFE6 
 471      AE224A6A 
 471      2D931CE4 
 471      7672E7
 472 0124 A540574C 		.ascii	"\245@WL\220\236s_\325\224\354\315\350\203\377\370\""
 472      909E735F 
 472      D594ECCD 
 472      E883FFF8 
 472      22
 473 0135 B243B9B9 		.ascii	"\262C\271\271\363\366\223\344@\262\247\012\235Bw\327"
 473      F3F693E4 
 473      40B2A70A 
 473      9D4277D7 
 474 0145 8370C670 		.ascii	"\203p\306p\017V\2736\246I\335\210\320\374\350L\3754"
 474      0F56BB36 
 474      A649DD88 
 474      D0FCE84C 
 474      FD34
 475 0157 238661EA 		.ascii	"#\206a\352'\275\270\2216W\223\013fb9\246r#\001>\205"
 475      27BDB891 
 475      3657930B 
 475      666239A6 
 475      7223013E 
 476 016c B1F4DACA 		.ascii	"\261\364\332\312\272\021\016\367/\246>\001\005\350\211"
ARM GAS  /tmp/ccoNZDVu.s 			page 37


 476      BA110EF7 
 476      2FA63E01 
 476      05E889
 477 017b E8       		.ascii	"\350"
 478              		.text
 479              		.section	.gnu.lto_test_execute.64c0621aa0296dd2,"",%progbits
 480 0000 789CED9A 		.ascii	"x\234\355\232it\024U\026\307\337\255\356$\235\005\022"
 480      69741455 
 480      16C7DFAD 
 480      EE249D05 
 480      12
 481 0011 203BA4D3 		.ascii	" ;\244\323$@6\322Y\020\321\350\250\003\202\033\310\222"
 481      244036D2 
 481      5910D1E8 
 481      A803821B 
 481      C892
 482 0023 0465133B 		.ascii	"\004e\023;!T\032\263 \011(\270\320\220\260\205\250\310"
 482      21541AB3 
 482      200928B8 
 482      D090B085 
 482      A8C8
 483 0035 8C803A2E 		.ascii	"\214\200:.\010\212\350QTP@@\3222\2162\014pt\234\031"
 483      088AE851 
 483      54504040 
 483      D2328E32 
 483      0C70749C 
 484 004a 153C13B7 		.ascii	"\025<\023\267Q\347x\324#x\216\333\230\271\357\335W\325"
 484      51E778D4 
 484      23788EDB 
 484      98B9EFDD 
 484      57D5
 485 005c 555D954C 		.ascii	"U]\225L\202_\346\2039\234\256\267\374\357}\365\356\373"
 485      825FE683 
 485      399CAEB7 
 485      FCEF7DF5 
 485      EEFB
 486 006e DD57AFAB 		.ascii	"\335W\257\253Q\230\302\302\377*\261\351\252\002\306"
 486      5198C2C2 
 486      FF2AB1E9 
 486      AA02C6
 487 007d F6026330 		.ascii	"\366\002c0\212\201\262\341\004c+\\\0128\251\340\240"
 487      8A81B2E1 
 487      04632B5C 
 487      0A38A9E0 
 487      A0
 488 008e 42D0E554 		.ascii	"B\320\345T\034\355\2573\026\210\211h\215b\201\270\010"
 488      1CEDAF33 
 488      16888968 
 488      8D6281B8 
 488      08
 489 009f 88224124 		.ascii	"\210\"A$\025\202\256(%\222\004.!pA\014\011\242\251\020"
 489      1582AE28 
 489      2592042E 
 489      2170410C 
 489      09A2A910 
 490 00b3 74C528D1 		.ascii	"t\305(\321$\210\025\202X\310'A\034\364\247B?*\004]\375"
 490      24881582 
ARM GAS  /tmp/ccoNZDVu.s 			page 38


 490      58C82741 
 490      1CF4A742 
 490      3F2A045D 
 491 00c8 957EA48C 		.ascii	"\225~\244\214\027\312x\030@\202\004*\004]\003\224\004"
 491      17CA7818 
 491      4082042A 
 491      045D0394 
 491      04
 492 00d9 120C1482 		.ascii	"\022\014\024\202\201\220H\202AT\010\272\022\225A$H\022"
 492      81904882 
 492      415408BA 
 492      12954124 
 492      4812
 493 00eb 82244821 		.ascii	"\202$H!A2\025\202\256\024%\231\004\251B\220\252\244"
 493      41321582 
 493      AE142599 
 493      04A94290 
 493      AAA4
 494 00fd 1D1C83B5 		.ascii	"\035\034\203\265\021o'c-\015\006s\025\244\3235\350\032"
 494      116F2763 
 494      2D0D0673 
 494      15A4D335 
 494      E81A
 495 010f ACA4937A 		.ascii	"\254\244\223z\210P\017\0017\271\313\240B\320\345V2H"
 495      88500F01 
 495      37B9CBA0 
 495      42D0E556 
 495      3248
 496 0121 90290499 		.ascii	"\220)\004\2310\224\004\036*\004]C\025\017\011\262\204"
 496      3094041E 
 496      2A045D43 
 496      150F09B2 
 496      84
 497 0132 200B8691 		.ascii	" \013\206\221 \233\012A\3270%\233\004\303\205`8\344"
 497      209B0A41 
 497      D730259B 
 497      04C38560 
 497      38E4
 498 0144 90608456 		.ascii	"\220`\204V\310\201\\R\346*q\244\314\023\312<\212c\320"
 498      C8815C52 
 498      E62A71A4 
 498      CC13CA3C 
 498      8A63D0
 499 0157 95AF1450 		.ascii	"\225\257\024P\373H\321^@z\030\011^rPH\205\240\313\253"
 499      FB48D15E 
 499      407A1809 
 499      5E725048 
 499      85A0CBAB 
 500 016b 1492B048 		.ascii	"\024\222\260H\010\213\224\342\203n\254\225\274]\204"
 500      088B94E2 
 500      836EAC95 
 500      BC5D84
 501 017a B5622825 		.ascii	"\265b(%y\211V(\005\340\005\006l\271\342pFDF\271\242"
 501      79895628 
 501      05E00506 
 501      6CB9E270 
 501      464446B9 
ARM GAS  /tmp/ccoNZDVu.s 			page 39


 502 018f 6362E3FA 		.ascii	"cb\343\372\365\217O\0300pPbRrJjZ\372\340!\031\356L\317"
 502      F58F4F18 
 502      30705062 
 502      52724A6A 
 502      5AFAE021 
 503 01a7 D0ACEC61 		.ascii	"\320\254\354a\303G\344\344\346\345\027\214,\364\026"
 503      C347E4E4 
 503      E6E5178C 
 503      2CF416
 504 01b6 159794C2 		.ascii	"\025\227\224\302\362\031\3001sg\261\255\201\300\306"
 504      F219C031 
 504      7367B1AD 
 504      81C0C6
 505 01c5 CE554FFC 		.ascii	"\316UO\374\340\270\377\367\035\255\217\006~\352\352"
 505      E0B8FFF7 
 505      1DAD8F06 
 505      7EEAEA
 506 01d4 02F00322 		.ascii	"\002\360\003\"\231\011\254\032\330\365X\001\217\270"
 506      9909AC1A 
 506      D8F55801 
 506      8FB8
 507 01e2 284E33A3 		.ascii	"(N3\243d\333qh\343])m\235\201\015\201\237\321\324\017"
 507      64DB7168 
 507      E35D296D 
 507      9D810D81 
 507      9FD1D40F 
 508 01f6 0E850D0B 		.ascii	"\016\205\015\013Y\272\310\022l-\337\334\270)\255\355"
 508      59BAC812 
 508      6C2DDFDC 
 508      B829ADED 
 509 0206 D1959A25 		.ascii	"\321\225\232%\2169\246\227c\336\373\273\003[!\260:\260"
 509      8E39A697 
 509      63DEFBBB 
 509      035B21B0 
 509      3AB0
 510 0218 E2EBAEAE 		.ascii	"\342\353\256\256x1\346\345\275\032sC\307\375'\217A`"
 510      7831E6E5 
 510      BD1A7343 
 510      C7FD278F 
 510      4160
 511 022a A366E854 		.ascii	"\243f\350TP\333\233!7\004^\234\367F\240\265\243\253"
 511      50DB9B21 
 511      37045E9C 
 511      F746A0B5 
 511      A3AB
 512 023c EB526135 		.ascii	"\353Ra5\263\2277\272\3314\\\204\302f\367\322p\377\261"
 512      B39737BA 
 512      D9345C84 
 512      C266F7D2 
 512      70FFB1
 513 024f 3F6F3558 		.ascii	"?o5XF*\314wnC\372\340YP\316mL\037<\327[\323_\007\375"
 513      462ACC77 
 513      6E43FAE0 
 513      5950CE6D 
 513      4C1F3CD7 
 514 0268 75D05F07 		.ascii	"u\320_\007\375u\320\377\203Aw)\035\235]]\007\277\177"
 514      FD75D0FF 
ARM GAS  /tmp/ccoNZDVu.s 			page 40


 514      83417729 
 514      1D9D5D5D 
 514      07BF7F
 515 027b F2A3F720 		.ascii	"\362\243\367 \361I\000\3348wB\026\343\033\350\323xu"
 515      F14900DC 
 515      38774216 
 515      E31BE8D3 
 515      7875
 516 028d 413DB064 		.ascii	"A=\260d\346\207\250\024\376\221\212\315[\2619\015+,"
 516      E687A814 
 516      FE918ACD 
 516      5BB1390D 
 516      2B2C
 517 029f 9DB70CC6 		.ascii	"\235\267\014\306\017\227\033?\234\231\370\021\235\305"
 517      0F971B3F 
 517      9C99F811 
 517      9DC5
 518 02ad 4BD9BC34 		.ascii	"K\331\2744\202\367\346\240\376\020\352sy%\217K\363\261"
 518      82F7E6A0 
 518      FE10EA73 
 518      79258F4B 
 518      F3B1
 519 02bf E500B678 		.ascii	"\345\000\266xyK\221\034\245\230WJx\367(l\331\206-\243"
 519      794B911C 
 519      A598574A 
 519      78F7286C 
 519      D9862DA3 
 520 02d3 F1FA385E 		.ascii	"\361\3728^\313\360z\004\257\227\310\373\032\213\327"
 520      CBF07A04 
 520      AF97C8FB 
 520      1A8BD7
 521 02e2 1D781D2F 		.ascii	"\035x\035/\257\023\320(\346\012\254\354\302\312\225"
 521      AF13D028 
 521      E60AACEC 
 521      C2CA95
 522 02f1 5889BD0A 		.ascii	"X\211\275\012?\342\256\306\226g\260\345\032y\235\210"
 522      3FE2AEC6 
 522      9667B0E5 
 522      1A799D88 
 523 0301 8DFD2661 		.ascii	"\215\375&a\345\005\254\\\313e\223\271l\012\266<\217"
 523      E505AC5C 
 523      CB6593B9 
 523      6C0AB63C 
 523      8F
 524 0312 2D53E575 		.ascii	"-S\345u\032\227\225ce\017V*\270\254\222\313\246c\313"
 524      1A979563 
 524      650F562A 
 524      B8AC92CB 
 524      A663CB
 525 0325 6E6CB94E 		.ascii	"nl\271N^\257\347\262\031Xy\011+3\271l\026\227\315\306"
 525      5EAFE7B2 
 525      19587909 
 525      2B33B96C 
 525      1697CDC6 
 526 0339 9617B165 		.ascii	"\226\027\261e\216\274\336\300es\261\262\017+7r\231\217"
 526      8EBCDEC0 
 526      6573B1B2 
ARM GAS  /tmp/ccoNZDVu.s 			page 41


 526      0F2B3772 
 526      998F
 527 034b CBAAB065 		.ascii	"\313\252\260e/\266T\313\353<.\253\301\312\313X\231\317"
 527      2FB654CB 
 527      EB3C2EAB 
 527      C1CACB58 
 527      99CF
 528 035d 652A97D5 		.ascii	"e*\227\325b\313~l\361\313\353\002.\273\011+\007\261"
 528      62CB7E6C 
 528      F1CBEB02 
 528      2EBB092B 
 528      07B1
 529 036f 52C765F5 		.ascii	"R\307e\365\\\326 \343\331(\257\013\271\354f\254\274"
 529      5CD620E3 
 529      D928AF0B 
 529      B9EC66AC 
 529      BC
 530 0380 8295455C 		.ascii	"\202\225E\\\326\304e\315r!\026\313\353\022.\273\005"
 530      D6C465CD 
 530      722116CB 
 530      EB122EBB 
 530      05
 531 0391 2B1D58B9 		.ascii	"+\035X\271\225\313\226r\3312l9\214-\267\311\353\355"
 531      95CB9672 
 531      D9326C39 
 531      8C2DB7C9 
 531      EBED
 532 03a3 5C760756 		.ascii	"\\v\007V^\305\312\235\\\266\234\313\002\034\223 6\255"
 532      5EC5CA9D 
 532      5CB69CCB 
 532      021C9320 
 532      36AD
 533 03b5 D00A2B81 		.ascii	"\320\012+\201+[x\365\217Xm\345\325\330U\3743n5\3105"
 533      2B5B78F5 
 533      8F586DE5 
 533      D5D855FC 
 533      336E35C8 
 534 03ca 5CA315D6 		.ascii	"\\\243\025\326\012\361:^\375\023V\333\204x\275\020\267"
 534      0AF13A5E 
 534      FD1356DB 
 534      8478BD10 
 534      B7
 535 03db F3C6D7B0 		.ascii	"\363\306\327\260\361.\255p\267\020#\251\021\254\025"
 535      F12EAD70 
 535      B71023A9 
 535      11AC15
 536 03ea 4F161EE2 		.ascii	"O\026\036\342\200\270a\034n\374\253\300\317hV\211\260"
 536      80B8611C 
 536      6EFCABC0 
 536      CF685689 
 536      B0
 537 03fb 473B8EB3 		.ascii	"G;\216\263\225\307\3369\363\001\370\340u\210`\017\262"
 537      95C7DE39 
 537      F301F8E0 
 537      7588600F 
 537      B2
 538 040c 07560402 		.ascii	"\007V\004\002\011\230\014\267\261\037\002ky\251\177"
ARM GAS  /tmp/ccoNZDVu.s 			page 42


 538      09980CB7 
 538      B11F026B 
 538      79A97F
 539 041b 3D70239E 		.ascii	"=p#\236\014\375E\012\250x\006b'Yk\347\311O\243\310\212"
 539      0CFD450A 
 539      A8780662 
 539      27596BE7 
 539      C94FA3C8 
 540 0430 315D1D5F 		.ascii	"1]\035_\015t4\342-[\002\201\251~Hp\263\272\207\002["
 540      0D7434E2 
 540      2D5B0281 
 540      A97E4870 
 540      B3BA8702 
 541 0445 2EF3C300 		.ascii	".\363\303\000&\365~\030H.\336\355\235\213An\326@.\022"
 541      26F57E18 
 541      482EDEED 
 541      9D8B416E 
 541      D6402E12 
 542 0459 2D2EDEEF 		.ascii	"-.\336\357\235\213$7[\007\344#\331\344\343([\331\221"
 542      9D8B2437 
 542      5B07E423 
 542      D9E4E328 
 542      5BD991
 543 046c 490D043F 		.ascii	"I\015\004?\331t\034\272\007\367\204\0247\006\224\254"
 543      D9741CBA 
 543      07F78414 
 543      370694AC 
 544 047c 52352BFA 		.ascii	"R5+\372\253\004\007{\227\361\360\035\335\2627O\006["
 544      AB04077B 
 544      97F1F01D 
 544      DDB2374F 
 544      065B
 545 048e 8B7AE0C7 		.ascii	"\213z\340\307\2073\310\031\223V\325\240P\354\256\350"
 545      8733C819 
 545      9356D5A0 
 545      50ECAEE8 
 546 049e 4D881943 		.ascii	"M\210\031C\277\357\241_\037\374\015\215U\270\262\200"
 546      BFEFA15F 
 546      1FFC0D8D 
 546      55B8B280 
 547 04ae E5E3A2EB 		.ascii	"\345\343\242\353\266i\350\210\313#\205\270\012\3048"
 547      B669E888 
 547      CB2385B8 
 547      0AC438
 548 04bd 7FA7BB43 		.ascii	"\177\247\273C\323\231\232\035~\313{\212\353\323u\313"
 548      D3999A1D 
 548      7ECB7B8A 
 548      EBD375CB 
 549 04cd C1E88C5B 		.ascii	"\301\350\214[\306JK0Y\266\254wh\246\327\250p\265~\324"
 549      C64A4B30 
 549      59B6AC77 
 549      68A6D7A8 
 549      70B57ED4 
 550 04e1 3DCA146A 		.ascii	"=\312\024j\247Ya/\017~\004\265\361i]%\346\246\302D?"
 550      A759612F 
 550      0F7E04B5 
 550      F1695D25 
ARM GAS  /tmp/ccoNZDVu.s 			page 43


 550      E6A6C244 
 551 04f6 0CD102E4 		.ascii	"\014\321\002\344d\0372\007\206\327\305t\263\253\305"
 551      641F3207 
 551      86D7C574 
 551      B3ABC5
 552 0505 EDBDBCEA 		.ascii	"\355\275\274\352\253M\351\3328\023\365[\313\220#j1~"
 552      AB4DE9DA 
 552      3813F55B 
 552      CB90236A 
 552      317E
 553 0517 83B57EB1 		.ascii	"\203\265~\261b\224\256\343]\356\320N\374.\273\332\264"
 553      6294AEE3 
 553      5DEED04E 
 553      FC2EBBDA 
 553      B4
 554 0528 523E781B 		.ascii	"R>x\033\273\345\032)\200\267\350\370\313\251D~\037\021"
 554      BBE51A29 
 554      80B7E8F8 
 554      CBA9447E 
 554      1F11
 555 053a 883927E5 		.ascii	"\2109'\345\237\275 \305\341\207L7{L\256\271\247{R\236"
 555      9FBD20C5 
 555      E1874C37 
 555      7B4CAEB9 
 555      A77B529E 
 556 054e 0F91F257 		.ascii	"\017\221\362WI\312\313\335\221\022\331\003);\036\311"
 556      49CACBDD 
 556      9112D903 
 556      293B1EC9 
 557 055e 20671652 		.ascii	" g\026R&\365\221\224\217E\230\256\265\2222\311B\312"
 557      26F59194 
 557      8F4598AE 
 557      B59232C9 
 557      42CA
 558 0570 274652C8 		.ascii	"'FR\310n\262\035)\327ZH\371\304D\012\231NUa\212\231"
 558      6EB21D29 
 558      D75A48F9 
 558      C4440A99 
 558      4E55618A 
 559 0585 948FF510 		.ascii	"\224\217\365\020a\257$\345cI\312d17\025\246\031H\211"
 559      61AF24E5 
 559      6349CA64 
 559      313715A6 
 559      194889
 560 0598 32924266 		.ascii	"2\222BfS\214\244\3208\323\214\244L\261#E\352,\244L1"
 560      538CA4D0 
 560      38D38CA4 
 560      4CB12345 
 560      EA2CA44C 
 561 05ad AD940F3E 		.ascii	"\255\224\017>\012\221\022\201\244L\215\224\244\270$"
 561      0A911281 
 561      A44C8D94 
 561      A4B824
 562 05bc 29FFEEDD 		.ascii	")\377\356\335\2362\324\315N\3105\317\352\236\224\335"
 562      9E32D4CD 
 562      4EC835CF 
 562      EA9E94DD 
ARM GAS  /tmp/ccoNZDVu.s 			page 44


 563 05cc 21524E49 		.ascii	"!RNIR\316tGJt\017\244\354\345\244\354\266#\245\274\217"
 563      52CE7447 
 563      4A740FA4 
 563      ECE5A4EC 
 563      B623A5BC 
 564 05e1 A49C1161 		.ascii	"\244\234\021a\252\260\222Rn!\345\254\221\024\262\253"
 564      AAB09252 
 564      6E21E5AC 
 564      9114B2AB 
 565 05f1 B423A5C2 		.ascii	"\264#\245\302B\312Y\023)dz\235\012\323\315\244\234\321"
 565      42CA5913 
 565      29647A9D 
 565      0AD3CDA4 
 565      9CD1
 566 0603 4384BD92 		.ascii	"C\204\275\222\2243\222\224J17\025\2567\220\022c$\205"
 566      94339294 
 566      4A313715 
 566      AE379012 
 566      632485
 567 0616 CCA61B49 		.ascii	"\314\246\033I\241q\2567\2222\335\216\024\251\263\220"
 567      A171AE37 
 567      9232DD8E 
 567      14A9B390 
 568 0626 32DDB452 		.ascii	"2\335\264R>\370&D\212\013I\271.Z\222\022+I\371\262w"
 568      3EF82644 
 568      8A0B49B9 
 568      2E5A9212 
 568      2B49F9B2 
 569 063b A464BBD9 		.ascii	"\244d\273\331\032\205\326|X\330\023\254\245\363{\325"
 569      1A85D67C 
 569      58D813AC 
 569      A5F37BD5 
 570 064b E2627835 		.ascii	"\342bx5>^\370\237\037F\320c\356\307_\366\260\305\010"
 570      3E5EF89F 
 570      1F46D063 
 570      EEC75FF6 
 570      B0C508
 571 065e EDDBD7F5 		.ascii	"\355\333\327\365\201\022\366\230w\350\276r\352\005M"
 571      8112F698 
 571      77E8BE72 
 571      EA054D
 572 066d 3C2039C2 		.ascii	"< 9\302'/\211{\300hw\376\274\0034\234\371q\202\367\351"
 572      272F897B 
 572      C06877FE 
 572      BC03349C 
 572      F97182F7 
 573 0682 07E34A88 		.ascii	"\007\343J\210c\255Q\016>\223\266\2351vSq\206\246\"\026"
 573      63AD510E 
 573      3E93B69D 
 573      31765371 
 573      86A62216 
 574 0696 9D1CBD18 		.ascii	"\235\034\275\030\312\213\315\033\223\374\220\353f\017"
 574      CA8BCD1B 
 574      93FC90EB 
 574      660F
 575 06a4 C918E585 		.ascii	"\311\030\345\205\347E?\326\376z\267\211\261k{\036y\263"
 575      E7453FD6 
ARM GAS  /tmp/ccoNZDVu.s 			page 45


 575      FE7AB789 
 575      B16B7B1E 
 575      79B3
 576 06b6 24C68C3E 		.ascii	"$\306\214>&\306:\205S1\323\232\0303,\211\321\246\030"
 576      26C63A85 
 576      5331D39A 
 576      18332C89 
 576      D1A618
 577 06c9 1283EC66 		.ascii	"\022\203\354f\331%\306LKb\350\226\"1\310t\216\012\263"
 577      D925C64C 
 577      4B62E896 
 577      2231C874 
 577      8E0AB3
 578 06dc CD89C1DB 		.ascii	"\315\211\301\333iV\330+\023c\235B\2111K\314M\205\033"
 578      6956D82B 
 578      13639D42 
 578      89314BCC 
 578      4D851B
 579 06ef 0C89D19F 		.ascii	"\014\211\321\237m8\021\312\014\262\233m\314\014\032"
 579      6D3811CA 
 579      0CB29B6D 
 579      CC0C1A
 580 06fe E8066366 		.ascii	"\350\006cf\314\266\313\014\251\263d\306l\323Z\371`\255"
 580      CCB6CB0C 
 580      A9B364C6 
 580      6CD35AF9 
 580      60AD
 581 0710 A267461C 		.ascii	"\242gF\034f\306\234~23\3429\0148\271\265-\273\267\027"
 581      66C69C7E 
 581      3233E239 
 581      0C38B9B5 
 581      2DBBB717 
 582 0724 924005B7 		.ascii	"\222@\005\267\012 \240\001\212\331\227-O\201\326\227"
 582      0A20A001 
 582      8AD9972D 
 582      4F81D697 
 583 0734 A9F2814E 		.ascii	"\251\362\201N2\247\005\235\374jyw(\362C\201\211\236"
 583      32A7059D 
 583      FC6A7977 
 583      28F24381 
 583      899E
 584 0746 BD217A1E 		.ascii	"\275!z\036\030\350\207\221n\366\214\204\2470\034\236"
 584      18E88791 
 584      6EF68C84 
 584      A7301C9E 
 585 0756 849EE0D9 		.ascii	"\204\236\340\331\313\341\331k\007\317\334>\302\263I"
 585      CBE1D96B 
 585      07CFDC3E 
 585      C2B349
 586 0765 04EE462B 		.ascii	"\004\356F+<s-\360l6\302Cv>;xn\264\300\263\331\004\017"
 586      3C732DF0 
 586      6C36C243 
 586      763E3B78 
 586      6EB4C0B3 
 587 077c 9956AB50 		.ascii	"\231V\253Pe\206g\223\242\205\010{%<\233$<>17\025\346"
 587      65866793 
 587      A285087B 
ARM GAS  /tmp/ccoNZDVu.s 			page 46


 587      253C9B24 
 587      3C3E3137 
 588 0792 19E01960 		.ascii	"\031\340\031`\202\207\354\252\214\360\320@\363\214\360"
 588      8287ECAA 
 588      8CF0D040 
 588      F38CF0
 589 07a1 54D9C123 		.ascii	"T\331\301#u\026x\252\344R=\310\341\031\351\203\373B"
 589      751678AA 
 589      E4523DC8 
 589      E119E983 
 589      FB42
 590 07b3 F0C4233C 		.ascii	"\360\304#<\325\011\022\236\201:<\007B\360d\251\240t"
 590      D509129E 
 590      813A3C07 
 590      42F064A9 
 590      A074
 591 07c5 074FB6CA 		.ascii	"\007O\266\312\227\356\177\300\223\035\016"
 591      97EE7FC0 
 591      931D0E
 592 07d0 CFFE103C 		.ascii	"\317\376\020<\017#<^7{N\302S\024\016\317\240\236\340"
 592      0F233C5E 
 592      377B4EC2 
 592      53140ECF 
 592      A09EE0
 593 07e3 39CCE1D9 		.ascii	"9\314\341\331o\007OM\037\341\331&\0027\337\012O\215"
 593      6F074F4D 
 593      1FE1D926 
 593      0237DF0A 
 593      4F8D
 594 07f5 059EED46 		.ascii	"\005\236\355Fx\310N\265\203g\276\005\236\355&x\310\324"
 594      78C84EB5 
 594      8367BE05 
 594      9EED2678 
 594      C8D4
 595 0807 AF42AD19 		.ascii	"\257B\255\031\236m\212\026\"\354\225\360l\223\360\250"
 595      9E6D8A16 
 595      22EC95F0 
 595      6C93F0A8 
 596 0817 626E2A2C 		.ascii	"bn*,0\300\223h\202\207\354j\215\360\320@\013\214\360"
 596      30C09368 
 596      8287EC6A 
 596      8DF0D040 
 596      0B8CF0
 597 082a D4DAC123 		.ascii	"\324\332\301#u\026xj\345R=\302\341\361\372\340\261\020"
 597      7516786A 
 597      E5523DC2 
 597      E1F1FAE0 
 597      B110
 598 083c 3C03111E 		.ascii	"<\003\021\036\377 \011O\022\301\263\362\364\226'>th"
 598      FF20094F 
 598      12C1B3F2 
 598      F496273E 
 598      7468
 599 084e 808C2864 		.ascii	"\200\214(d#\375\020\245\017^\254/GI\275x\276\361\341"
 599      23FD10A5 
 599      0F5EAC2F 
 599      4749BD78 
ARM GAS  /tmp/ccoNZDVu.s 			page 47


 599      BEF1E1
 600 0861 4A2428A1 		.ascii	"J$(\241\267\372<F-?\353\230\345\242#\025\322hV\021Z"
 600      B7FA3C46 
 600      2D3FEB98 
 600      E5A22315 
 600      D2685611 
 601 0876 6B1E7A45 		.ascii	"k\036zE\353R\354\347^\242\014\213\372\\\214&\312\227"
 601      EB52ECE7 
 601      5EA20C8B 
 601      FA5C8C26 
 601      CA97
 602 0888 6B338A6E 		.ascii	"k3\212n!p\037*\317C[nQ*WG\373\211\216\237\033\3634H"
 602      21701F2A 
 602      CF435B6E 
 602      512A5747 
 602      FB898E9F 
 603 08a0 0F8848E6 		.ascii	"\017\210H\346kaN\356\011\304\2178\210\007\354@\274\251"
 603      6B614EEE 
 603      09C48F38 
 603      8807EC40 
 603      BCA9
 604 08b2 8F20EE16 		.ascii	"\217 \356\026\213Pg\005\361&\013\210{\214 \222]\275"
 604      8B506705 
 604      F1260B88 
 604      7B8C2092 
 604      5DBD
 605 08c4 1D887516 		.ascii	"\035\210u\026\020\367\230@$\323F\025\032\314 \356VB"
 605      10F79840 
 605      24D34615 
 605      1ACC20EE 
 605      5642
 606 08d6 61689420 		.ascii	"ah\224 \356\226 \326\213\271\251\260\320\000b\212\011"
 606      EE9620D6 
 606      8BB9A9B0 
 606      D000628A 
 606      09
 607 08e7 44B26B30 		.ascii	"D\262k0\202H\003-4\202\330`\007\242\324Y@l\300\345H"
 607      8248032D 
 607      3482D860 
 607      07A2D459 
 607      406CC0E5 
 608 08fc 42E21A93 		.ascii	"B\342\032\223%q\251t\360i\355\274\377s\353\301'\374"
 608      2571A974 
 608      F069EDBC 
 608      FF73EBC1 
 608      27FC
 609 090e 7436433C 		.ascii	"t6C<\245\366\204?\245\364/\014\005\324\240\277\326<"
 609      A5F6843F 
 609      A5F42F0C 
 609      05D4A0BF 
 609      D63C
 610 0920 028136ED 		.ascii	"\002\2016\355\335\344h\205\355UB?\321$\320\273\311\260"
 610      DDE46885 
 610      ED55423F 
 610      D124D0BB 
 610      C9B0
 611 0932 5F7679DB 		.ascii	"_vy\333\371o\3601\361\226\276\376i\347\013we\204q\322"
ARM GAS  /tmp/ccoNZDVu.s 			page 48


 611      F96FF031 
 611      F196BEFE 
 611      69E70B77 
 611      658471D2 
 612 0946 71EC78B3 		.ascii	"q\354x\263\017\016+FNhIC\267=\246\032\360\244\371*\255"
 612      0F0E2B46 
 612      4E684943 
 612      B73DA61A 
 612      F0A4F92A 
 613 095b 90E6D20F 		.ascii	"\220\346\322\017\027\210@\236\336\267\343\033=\265\274"
 613      1788409E 
 613      DEB7E31B 
 613      3DB5BC
 614 096a BF20B59E 		.ascii	"\277 \265\236P4/\305\350HO\255U\317\352)W\242'W\261"
 614      50342FC5 
 614      E8484FAD 
 614      55CFEA29 
 614      57A22757 
 615 097f 31B9ECB6 		.ascii	"1\271\354\266\372\013\253\371+)1L\211\037\312\204\253"
 615      FA0BABF9 
 615      2B29314C 
 615      891FCA84 
 615      AB
 616 0990 A3EFEC78 		.ascii	"\243\357\354xK\3675\312\376\300\353d\306\003/\255\177"
 616      4BF735CA 
 616      FEC0EB64 
 616      C6032FAD 
 616      7F
 617 09a1 C8463F00 		.ascii	"\310F?\000k\177\225x\227]N\007'!GnI\2077&\213\027\006"
 617      6B7F9578 
 617      975D4E07 
 617      2721476E 
 617      49873726 
 618 09b8 A795B017 		.ascii	"\247\225\260\027\006\251\300\365\351\354Piw)\333\265"
 618      06A9C0F5 
 618      E9EC5069 
 618      7729DBB5 
 619 09c8 BD80DE2D 		.ascii	"\275\200\336-ZR\366\346>\246\354q\201\353\"k\312\336"
 619      5A52F6E6 
 619      3EA6EC71 
 619      81EB226B 
 619      CADE
 620 09da 6C49D913 		.ascii	"lI\331\023\306\224%\273&\273\224]dI\331\023\246\224"
 620      C69425BB 
 620      26BB945D 
 620      6449D913 
 620      A694
 621 09ec 25D3C52A 		.ascii	"%\323\305*4\233S\366\270H\331C\"\365\026\313\224=.S"
 621      349B53F6 
 621      B848D943 
 621      22F516CB 
 621      943D2E53 
 622 0a00 B649CC4D 		.ascii	"\266I\314M\205%\206\224\035\314\016\216\001-c\311\254"
 622      85258694 
 622      1DCC0E8E 
 622      012D63C9 
 622      AC
ARM GAS  /tmp/ccoNZDVu.s 			page 49


 623 0a11 D998B134 		.ascii	"\331\230\2614\316\022c\3066\333e\254\324Y2\266Y\205"
 623      CE1263C6 
 623      36DB65AC 
 623      D45932B6 
 623      5985
 624 0a23 9C34CCD8 		.ascii	"\2344\314\330\305\3512c\207\360\025\024+\362\324\207"
 624      C5E93263 
 624      87F01514 
 624      2BF2D487 
 625 0a33 3A82A375 		.ascii	":\202\243u\377!\246.\252\027\203p\217\027\365\200\236"
 625      FF21A62E 
 625      AA178370 
 625      8F17F580 
 625      9E
 626 0a44 E194313A 		.ascii	"\341\2241:\374\224q8t\312x\213N\031g\273;ed\364\000"
 626      FC947138 
 626      74CA788B 
 626      4E1967BB 
 626      3B6564F4 
 627 0a59 CA8EC70B 		.ascii	"\312\216\307\013\310\227\005\224[\372\010\312)\021\245"
 627      C8970594 
 627      5BFA08CA 
 627      2911A5
 628 0a68 5BADA0DC 		.ascii	"[\255\240\334b\001\345\264\021\024\262[j\007\312\255"
 628      6201E5B4 
 628      1114B25B 
 628      6A07CAAD 
 629 0a78 16504E9B 		.ascii	"\026PN\233@!\323\333TXf\006\345\224\242E\010{%(\247"
 629      4021D3DB 
 629      54586606 
 629      E594A245 
 629      087B2528 
 630 0a8d 24284BC5 		.ascii	"$(K\305\334T\270\335\000\212\033A\321\267v2[f\004\205"
 630      DC54B8DD 
 630      008A1B41 
 630      D1B77632 
 630      5B660485 
 631 0aa1 C6B9DD08 		.ascii	"\306\271\335\010\3122;P\244\316\002\3122\355\015\021"
 631      CA323B50 
 631      A4CE02CA 
 631      32ED0D11 
 632 0ab1 4F683C63 		.ascii	"Oh<c\274\027:c\014A~n\313\220\374dr~\370W\335\247v\306"
 632      BC173A63 
 632      0C417E6E 
 632      CB90FC64 
 632      727EF857 
 633 0ac9 DA7DD58D 		.ascii	"\332}\325\215\026\376\302\277\352\006C$\374\203\017"
 633      16FEC2BF 
 633      EA064324 
 633      FC830F
 634 0ad8 90E466DF 		.ascii	"\220\344f\337)a/\243\265\231zz@a\027G!h\207\302\035"
 634      29612FA3 
 634      B5997A7A 
 634      40611747 
 634      216887C2 
 635 0aed 7D44E133 		.ascii	"}D\3413\021\207;\255(\334aA\341s#\012d\267\334\016\205"
 635      11873BAD 
ARM GAS  /tmp/ccoNZDVu.s 			page 50


 635      28DC6141 
 635      E173230A 
 635      64B7DC0E 
 636 0b02 3B2D287C 		.ascii	";-(|nB\201LW`4\003`\206\3413E\013\022\357\2274|&iX."
 636      6E42814C 
 636      57603403 
 636      6086E133 
 636      450B12EF 
 637 0b1d A6A7C24A 		.ascii	"\246\247\302J0\3400\324\210\003\031\006\300\310\003"
 637      30E030D4 
 637      88031906 
 637      C0C803
 638 0b2c 0DB6128C 		.ascii	"\015\266\022\214@\320\260\341DhJ\013\022\0010-\231\017"
 638      40D0B0E1 
 638      44684A0B 
 638      1201302D 
 638      990F
 639 0b3e 3E0D3191 		.ascii	">\0151\221\011\374N=\022\212,}Sy\372=}S)\323\207\216"
 639      09FC4E3D 
 639      128A2C7D 
 639      5379FA3D 
 639      7D5329D3 
 640 0b54 D057E4E2 		.ascii	"\320W\344\342z\021Z>\324\305r\034\003%G\304<\312\264"
 640      7A115A3E 
 640      D4C5721C 
 640      032547C4 
 640      3CCAB4
 641 0b67 3966F700 		.ascii	"9f\367\000\302n\016\302\021;\020Z\240\217$\234\025\363"
 641      C26E0EC2 
 641      113B105A 
 641      A08F249C 
 641      15F3
 642 0b79 6F052B0A 		.ascii	"o\005+\012-`a\341[#\013d\271\012\354`h\005\013\015\337"
 642      2D6061E1 
 642      5B230B64 
 642      B90AEC60 
 642      68050B0D 
 643 0b8e 9A6820E3 		.ascii	"\232h \3435\030\307\325a4\234UB\301X\243\321pV\322\260"
 643      3518C7D5 
 643      61349C55 
 643      42C158A3 
 643      D17056D2 
 644 0ba3 0A68922A 		.ascii	"\012h\222*\2545\3620\314\310\003\231\2566\361@\303\255"
 644      AC35F230 
 644      CCC80399 
 644      AE36F140 
 644      C3AD
 645 0bb5 35F1B0DA 		.ascii	"5\361\260\332\226\007Mi\341a5\016Z\226\005\374\246\262"
 645      96074D69 
 645      E161350E 
 645      5A9605FC 
 645      A6B2
 646 0bc7 E5C20FA7 		.ascii	"\345\302\017\247\335\240\265\363\031\233\335 \374\374"
 646      DDA0B5F3 
 646      199BDD20 
 646      FCFC
 647 0bd5 37473C02 		.ascii	"7G<\002\376\023\376\010\020\347?\232\305\010\266J\021"
ARM GAS  /tmp/ccoNZDVu.s 			page 51


 647      FE13FE08 
 647      10E73F9A 
 647      C508B64A 
 647      11
 648 0be6 EEF6F5CE 		.ascii	"\356\366\365\316\335o\334l\205\203\334]b\343.\207\237"
 648      DD6FDC6C 
 648      8583DC5D 
 648      62E32E87 
 648      9F
 649 0bf7 4EF9DBBB 		.ascii	"N\371\333\273\375\353\"5\306\236\026\261\311\322$\271"
 649      FDEB2235 
 649      C69E16B1 
 649      C9D224B9 
 650 0c07 ECFD28FD 		.ascii	"\354\375(\375\371K}\212<\350=\366\215\216r\312\271\036"
 650      F94B7D8A 
 650      3CE83DF6 
 650      8D8E72CA 
 650      B91E
 651 0c19 F4F0ABFA 		.ascii	"\364\360\253\372\277\364\003U\252\364\335\322\246\237"
 651      BFF40355 
 651      AAF4DDD2 
 651      A69F
 652 0c27 2011B254 		.ascii	" \021\262Tn\313\234!0\250'\035G\265~\341\032\254\237"
 652      6ECB9C21 
 652      30A8271D 
 652      47B57EE1 
 652      1AAC9F
 653 0c3a 09D38D67 		.ascii	"\011\323\215gB\261tctQ\350\233\225\\9E\205\242\002\\"
 653      42B17463 
 653      7451E89B 
 653      955C3945 
 653      85A2025C 
 654 0c4e B8AC9C3F 		.ascii	"\270\254\234?l\366\361i\347\321k\366\226\265-_=\036"
 654      6CF6F169 
 654      E7D16BF6 
 654      96B52D5F 
 654      3D1E
 655 0c60 A9D95D62 		.ascii	"\251\331]b|GeH\313\235\",\227h!\3137\276\201\246>\""
 655      7C476548 
 655      CB9D222C 
 655      976821CB 
 655      37BE81A6 
 656 0c76 EDF477FA 		.ascii	"\355\364w\372\373U\025\222\317-d\032\204\322\211q\222"
 656      FB551592 
 656      CF2D641A 
 656      84D28971 
 656      92
 657 0c87 622620DF 		.ascii	"b& \337\274\306~\321\225\210\367\224wps\032\277\247"
 657      BCC67ED1 
 657      9588F794 
 657      7770731A 
 657      BFA7
 658 0c99 023E1FDE 		.ascii	"\002>\037\336_$\373\363\333\357\315\340\035#\305k\352"
 658      5F24FBF3 
 658      DBEFCDE0 
 658      1D23C56B 
 658      EA
ARM GAS  /tmp/ccoNZDVu.s 			page 52


 659 0caa 96CE433B 		.ascii	"\226\316C;\255o\217\315/f9v\257|\376\213\3361\233~\365"
 659      AD6F8FCD 
 659      2F663976 
 659      AF7CFE8B 
 659      DE319B7E 
 660 0cbf 782DF4C8 		.ascii	"x-\364\310\353\332\030/\336\356nrt\363v\267\260\207"
 660      EBDA182F 
 660      DEEE6E72 
 660      74F376B7 
 660      B087
 661 0cd1 5F3DBA1E 		.ascii	"_=\272\036\317 g\226\235n]_w\272\015\016\036\3246\233"
 661      CF206796 
 661      9D6E5D5F 
 661      77BA0D0E 
 661      1ED4369B 
 662 0ce5 9D6E9D75 		.ascii	"\235n\235u\247\273\327a\330\351\310r\275\355N\327f\335"
 662      A7BBD761 
 662      D8E9C872 
 662      BDED4ED7 
 662      66DD
 663 0cf7 E9745B01 		.ascii	"\351t[\0014\031\337\205\374\265\207\355t\274\207&\307"
 663      3419DF85 
 663      FCB587ED 
 663      74BC8726 
 663      C7
 664 0d08 FBE54EB7 		.ascii	"\373\345N\267\301A;\335z\240I\252p\267q\247\363\032"
 664      C1413BDD 
 664      7AA049AA 
 664      70B771A7 
 664      F31A
 665 0d1a F123D376 		.ascii	"\361#\323v\323NG\303\335m\332\351\332mw:Mi\331\351\332"
 665      D34E47C3 
 665      DD6DDAE9 
 665      DA6D773A 
 665      4D69D9E9 
 666 0d2f C1B4723E 		.ascii	"\301\264r>\270\307\241?\371F\002\277\327B\271\001\026"
 666      B8C7A13F 
 666      F94602BF 
 666      D742B901 
 666      16
 667 0d40 D1FF2038 		.ascii	"\321\377 8\272\345\205R\015\332\261\275\371q!\354\273"
 667      BAE58552 
 667      0DDAB1BD 
 667      F97121EC 
 667      BB
 668 0d51 D6589BEF 		.ascii	"\326X\233\357Z\305\314!\366\302\2436\277)\204CY\351"
 668      5AC5CC21 
 668      F6C2A336 
 668      BF298443 
 668      59E9
 669 0d63 874BDDEC 		.ascii	"\207K\335\354\011\311\327e6{a\011\213\020\336\216\365"
 669      09C9D765 
 669      367B6109 
 669      8B10DE8E 
 669      F5
 670 0d74 DADBAE1E 		.ascii	"\332\333\256\036\274\225\312i\357{)\364\035s|\357\346"
 670      BC95CA69 
ARM GAS  /tmp/ccoNZDVu.s 			page 53


 670      EF7B29F4 
 670      1D737CEF 
 670      E6
 671 0d85 2D36C5FE 		.ascii	"-6\305\376\232\321\004\264c\354M\246{\231@\252\012\274"
 671      9AD104B4 
 671      63EC4DA6 
 671      7B9940AA 
 671      0ABC
 672 0d97 A3686E3A 		.ascii	"\243hn:\304\353-\242\177\3155M\315Eu\376\252\242\352"
 672      C4EB2DA2 
 672      7FCD354D 
 672      CD4575FE 
 672      AAA2EA
 673 0daa DAB9BCEC 		.ascii	"\332\271\274\354\255f\316\005\336\222\363\006\362\312"
 673      AD66CE05 
 673      DE92F306 
 673      F2CA
 674 0db8 DCBAC66A 		.ascii	"\334\272\306j_\335\334\371>\177\235\267dt\234hjj\256"
 674      5FDDDCF9 
 674      3E7F9DB7 
 674      64749C68 
 674      6A6AAE
 675 0dcb 59E82D39 		.ascii	"Y\350-9\177\220\250\250u\215U\272\340\002\274\237\005"
 675      7F90A8A8 
 675      758D55BA 
 675      E002BC9F 
 675      05
 676 0ddc CEFA2675 		.ascii	"\316\372&ua\214\350\254\256]\350\035\015,=??\3373\256"
 676      618CE8AC 
 676      AE5DE81D 
 676      0D2C3D3F 
 676      3FDF33AE 
 677 0df0 D65FE59F 		.ascii	"\326_\345\237\\^4\255\302S\201}\236\362\305\376\346"
 677      5C5E34AD 
 677      C253817D 
 677      9EF2C5FE 
 677      E6
 678 0e01 1AE6C42E 		.ascii	"\032\346\304.6H\3647\326/\364\327\325\314+\363\360?"
 678      3648F437 
 678      D62FF4D7 
 678      D5CC2BF3 
 678      F03F
 679 0e13 96726DE3 		.ascii	"\226rm\343\022O\351\371\236\322\342\2221\236BO\311\205"
 679      124FE9F9 
 679      9ED2E292 
 679      319E424F 
 679      C985
 680 0e25 65C5A565 		.ascii	"e\305\245e\347\215!\355\224:_\363\374\306E\365R;\254"
 680      E78D21ED 
 680      943A5FF3 
 680      FCC645F5 
 680      523BAC
 681 0e38 BC62D2A8 		.ascii	"\274b\322\250\322\011%\305\305\236\351\276\272\3055"
 681      D20925C5 
 681      C59EE9BE 
 681      BAC535
 682 0e47 9E89FE86 		.ascii	"\236\211\376\206\032\317\244\232y\376\305\365\236\313"
ARM GAS  /tmp/ccoNZDVu.s 			page 54


 682      1ACFA49A 
 682      79FEC5F5 
 682      9ECB
 683 0e55 6B1A9AFC 		.ascii	"k\032\232\374\315K\311P\214<\266\321\267H\014\303\222"
 683      CD4BC950 
 683      8C3CB6D1 
 683      B7480CC3 
 683      92
 684 0e66 CA2B3CC2 		.ascii	"\312+<\302v\372\304\302\313\375M\325\215Kj\026-e\361"
 684      76FAC4C2 
 684      CBFD4DD5 
 684      8D4B6A16 
 684      2D65F1
 685 0e79 858585A4 		.ascii	"\205\205\205\244\034\347k\252\3610\305\313\034\236\\"
 685      1CE76BAA 
 685      F130C5CB 
 685      1C9E5C
 686 0e88 A6E43167 		.ascii	"\246\3441g\263\277\276&S\217\\cSQ\255\257\016/\370\261"
 686      B3BFBE26 
 686      538F5C63 
 686      5351ADAF 
 686      0E2FF8B1 
 687 0e9c A8595CBD 		.ascii	"\250Y\\\275\265,\205\233O\253iZ\\\327\\\346\231\360"
 687      B52C859B 
 687      4FAB695A 
 687      5CD75CE6 
 687      99F0
 688 0eae DBAB2656 		.ascii	"\333\253&VN\033\357\311\315F\037\263\230s\216'\2139"
 688      4E1BEFC9 
 688      CD461FB3 
 688      98738E27 
 688      8B39
 689 0ec0 B2F258A2 		.ascii	"\262\362X\242QT^9n\334\370\362r\026?\301\337\340\253"
 689      51545E39 
 689      6EDCF8F2 
 689      72163FC1 
 689      DFE0AB
 690 0ed3 F32C92CD 		.ascii	"\363,\222\315\314%\255\231KS\374\0279\273\334\004"
 690      CC25AD99 
 690      4B53FC17 
 690      39BBDC04 
 691              		.text
 692              		.section	.gnu.lto_.symbol_nodes.64c0621aa0296dd2,"",%progbits
 693 0000 789C4D8E 		.ascii	"x\234M\216\313J\034A\024\206\317_\227\0315\261\025\006"
 693      CB4A1C41 
 693      1486CF5F 
 693      971935B1 
 693      1506
 694 0012 7423E401 		.ascii	"t#\344\001\362@!\313<B\236\340\210\013\025D\0116((I"
 694      F24021CB 
 694      3C429EE0 
 694      880B1544 
 694      09362828 
 695 0027 A05D84C8 		.ascii	"\240]\204\310\204@\232 \270\262[p#\350\242\025\021M"
 695      84409A20 
 695      B8B25B70 
 695      23E8A215 
ARM GAS  /tmp/ccoNZDVu.s 			page 55


 695      114D
 696 0039 A2E37819 		.ascii	"\242\343x\031c\034t B\222\221TM\325h\365\346\373\277"
 696      631C7420 
 696      42929154 
 696      4DD568F5 
 696      E6FBBF
 697 004c 73E93A82 		.ascii	"s\351:\202\004}\024\344>q\002&z\263E\304\374v\362\225"
 697      047D14E4 
 697      3E710226 
 697      7AB345C4 
 697      FC76F295 
 698 0060 3E062996 		.ascii	">\006)\226\372\010\260\370\001a \352`\0043\337 m\365"
 698      FA08B0F8 
 698      016120EA 
 698      600433DF 
 698      206DF5
 699 0073 142C1EAB 		.ascii	"\024,\036\253\342\017X>(\304\031Xy}7\011}\010\245\231"
 699      E20F583E 
 699      28C41958 
 699      797D3709 
 699      7D08A599 
 700 0087 F47768BB 		.ascii	"\364wh\273z\016\326\217Mq\001.\005\332\000\227\003\275"
 700      7A0ED68F 
 700      4D71012E 
 700      05DA0097 
 700      03BD
 701 0099 04F704FA 		.ascii	"\004\367\004\372\023\334\033\350\025\270/\320_\340'"
 701      13DC1BE8 
 701      15B82FD0 
 701      5FE027
 702 00a8 815E839F 		.ascii	"\201^\203\237\006\332\004\367\007G\335\242D\346\250"
 702      06DA04F7 
 702      0747DDA2 
 702      44E6A8
 703 00b7 0394CD6D 		.ascii	"\003\224\315mh\201#\327\034\035\005n\300\003\017\246"
 703      688123D7 
 703      1C1D056E 
 703      C0030FA6 
 704 00c7 885AEDE6 		.ascii	"\210Z\355\346s\245(n\354\301\2408\276\267H7\266GT\211"
 704      73A5286E 
 704      ECC1A038 
 704      BEB74837 
 704      B6475489 
 705 00db E24FBB55 		.ascii	"\342O\273Um9q\365L\225)5M\031\225)\3777\242\"\2127w"
 705      6D3971F5 
 705      4C952935 
 705      4D199529 
 705      FF37A222 
 706 00f2 DA520D50 		.ascii	"\332R\015Pj\1770H\205CjFee\220\222#3k\230{\326\272\336"
 706      6A7F3048 
 706      85436A46 
 706      65659092 
 706      23336B98 
 707 010a EDCF388E 		.ascii	"\355\3178\216\305\226\303\264\024;\317;,Q2W_}-+\021"
 707      C596C3B4 
 707      143BCF3B 
 707      2C513257 
ARM GAS  /tmp/ccoNZDVu.s 			page 56


 707      5F7D2D2B 
 708 011f E58B3ED4 		.ascii	"\345\213>\324jk\325\371\250\263\323ti\210\326}R\224"
 708      6A6BD5F9 
 708      A8B3D374 
 708      6988D67D 
 708      5294
 709 0131 DFBA64E6 		.ascii	"\337\272d\346\356\326\016\276\366\311\012Q~\357\222"
 709      EED60EBE 
 709      F6C90A51 
 709      7EEF92
 710 0140 D958CE7C 		.ascii	"\331X\316|J\226\263\375\033\330\027j\237\263\266\354"
 710      4A96B3FD 
 710      1BD8176A 
 710      9FB3B6EC 
 711 0150 34BFF890 		.ascii	"4\277\370\220\2544^vnX\331\237\226\252B\305x}U\033\246"
 711      AC345E76 
 711      6E58D99F 
 711      96AA42C5 
 711      787D551B 
 712 0165 538EF1AC 		.ascii	"S\216\361\254\347\2029\311\326\337;\026g\366m\333\270"
 712      E78239C9 
 712      D6DF3B16 
 712      67F66DDB 
 712      B8
 713 0176 F6A1F8DD 		.ascii	"\366\241\370\335\015\177}H\223\314\317|\360\241\225"
 713      0D7F7D48 
 713      93CCCF7C 
 713      F0A195
 714 0185 66D517F4 		.ascii	"f\325\027\364\037\035\332\353\340"
 714      1F1DDAEB 
 714      E0
 715              		.text
 716              		.section	.gnu.lto_.refs.64c0621aa0296dd2,"",%progbits
 717 0000 789C2D4B 		.ascii	"x\234-K\011\022\2040\014\202\304\256\266\352z\217O\367"
 717      09128430 
 717      0C82C4AE 
 717      B6EA7A8F 
 717      4FF7
 718 0012 BBE6304C 		.ascii	"\273\3460L d@ x\220\243\000!\242\332\321\230E~\346\311"
 718      20644020 
 718      7890A300 
 718      21A2DAD1 
 718      98457EE6 
 719 0027 1ED48185 		.ascii	"\036\324\201\205\225M\307\3246\245\"r~yC\347\357\376"
 719      954DC7D4 
 719      36A52272 
 719      7E7943E7 
 719      EFFE
 720 0039 5B6B0165 		.ascii	"[k\001e\365\276n\221\022\335S\357\203D\2005\025gl1\276"
 720      F5BE6E91 
 720      12DD53EF 
 720      83448035 
 720      15676C31 
 721 004e C2B7F0FE 		.ascii	"\302\267\360\376\255\206\027\0036\002\336"
 721      AD861703 
 721      3602DE
 722              		.text
ARM GAS  /tmp/ccoNZDVu.s 			page 57


 723              		.section	.gnu.lto_.decls.64c0621aa0296dd2,"",%progbits
 724 0000 789CA55B 		.ascii	"x\234\245[\011t\024\307\231\356\352\036I#$@\034\266"
 724      097414C7 
 724      99EEEA1E 
 724      49232440 
 724      1CB6
 725 0012 B1B309F2 		.ascii	"\261\263\011\362\306\211\035\357\263\306\202}Yv\363"
 725      C6891DEF 
 725      B3C6827D 
 725      5976F3
 726 0021 D606CB04 		.ascii	"\326\006\313\004x\317rx\222\234\345\275=&\315\250A\263"
 726      78CF7278 
 726      929CE5BD 
 726      3D26CDA8 
 726      41B3
 727 0033 966614CD 		.ascii	"\226f\024\315\010\360\356K\334\022\247\271,\211K\260"
 727      08F0EE4B 
 727      DC12A7B9 
 727      2C894BB0 
 728 0043 1C221843 		.ascii	"\034\"\030C\0146 \214\271\014\014v,\016\021\020\207"
 728      0C36208C 
 728      B90C0C76 
 728      2C0E1110 
 728      87
 729 0054 B1016194 		.ascii	"\261\001a\224\305\016\033\010\030\0050\340K\373Wu\365"
 729      C50E1B08 
 729      180530E0 
 729      4BFB5775 
 729      F5
 730 0065 4C774DD5 		.ascii	"LwM\325L7\351\247\277\247\273\247\376\357\377\376\277"
 730      4C37E9A7 
 730      BFA7BBA7 
 730      FEEFFFFE 
 730      BF
 731 0076 FE3A7B24 		.ascii	"\376:{$K\262t3K\222z\340\250\370\211$\035\317\224\244"
 731      4BB27433 
 731      4B927AE0 
 731      A8F88924 
 731      1DCF94A4 
 732 008a BE92243D 		.ascii	"\276\222$=\005\362\020\310j\220\337\200\254\003\331"
 732      05F210C8 
 732      6A90DF80 
 732      AC03D9
 733 0099 00F216C8 		.ascii	"\000\362\026\310&\220- \255 o\203l\003Q@\266\203\354"
 733      26902D20 
 733      AD206F83 
 733      6C035140 
 733      B683EC
 734 00ac 00D905B2 		.ascii	"\000\331\005\262\033d\017\310^\220\030\310~\220\367"
 734      1B640FC8 
 734      5E9018C8 
 734      7E90F7
 735 00bb 417E07D2 		.ascii	"A~\007\322\006r\000\344\020\310\021\0200O\216<\220c"
 735      067200E4 
 735      10C81110 
 735      304F8E3C 
 735      9063
ARM GAS  /tmp/ccoNZDVu.s 			page 58


 736 00cd 2027402E 		.ascii	" '@.\203\\\005\351\006\271\003\202\220$\345\200|\027"
 736      835C05E9 
 736      06B90382 
 736      9024E580 
 736      7C17
 737 00df E4519002 		.ascii	"\344Q\220\002\220! \377\010\362\317 \021\220\311 ^("
 737      902120FF 
 737      08F2CF20 
 737      1190C920 
 737      5E28
 738 00f1 FB127CFE 		.ascii	"\373\022|\3767\310\257@\352@\246\202L\007\231\0112\027"
 738      37C8AF40 
 738      EA40A682 
 738      4C079909 
 738      3217
 739 0103 49B603DB 		.ascii	"I\266\003\333\353\003\362Sd|\346\202x\340\272\030\244"
 739      EB03F253 
 739      647CE682 
 739      78E0BA18 
 739      A4
 740 0114 1C640DDC 		.ascii	"\034d\015\334\317\207\317WAF\2014\200<\017\242\2014"
 740      CF87CF57 
 740      41468134 
 740      803C0FA2 
 740      8134
 741 0126 82C8F0FD 		.ascii	"\202\310\360\375s\360\031\000A\024\017\307\002\3336"
 741      73F01900 
 741      41140FC7 
 741      02DB36
 742 0135 79580FEC 		.ascii	"yX\017\354[/\220vj\007c`|\034\207&d\304\3444\310\207"
 742      5B2F9076 
 742      6A076360 
 742      7C1C8726 
 742      64C4E434 
 743 014b 208729D6 		.ascii	" \207)\326\005\220\213 \177\220\014{\030c\001\224\365"
 743      05908B20 
 743      7F900C7B 
 743      18630194 
 743      F5
 744 015c C0E725C9 		.ascii	"\300\347%\311\356\253\365\3001\354\317\370\226!%|+\345"
 744      EEABF5C0 
 744      31ECCFF8 
 744      9621257C 
 744      2BE5
 745 016e F885EB18 		.ascii	"\370\205\353\030\373\266\030\331\353\276\014\031\\L"
 745      FBB618D9 
 745      EBBE0C19 
 745      5C4C
 746 017c 5F4BA8BF 		.ascii	"_K\250\277\330\006\2421\267\036Wi\\\363\231\270\376"
 746      D806A231 
 746      B71E5769 
 746      5CF399B8 
 746      FE
 747 018d 1A197C4C 		.ascii	"\032\031|L\016\"\373l\\\257\322X,\201\233GP\262=\234"
 747      0E22FB6C 
 747      5CAFD258 
 747      2C819B47 
ARM GAS  /tmp/ccoNZDVu.s 			page 59


 747      50B23D9C 
 748 01a1 271E2911 		.ascii	"'\036)\021\307N\370l\246e\220\345\373[\222='\254\007"
 748      C74EF86C 
 748      A66590E5 
 748      FB5B923D 
 748      27AC07
 749 01b4 CEB34C8A 		.ascii	"\316\263L\212\321)%xc<\023K\246\345\272i,\277\001\351"
 749      D1292578 
 749      633C134B 
 749      A6E5BA69 
 749      2CBF01E9 
 750 01c8 498149F2 		.ascii	"I\201I\362\226\372n\342a|3\257:-\370\215\324W\211\372"
 750      96FA6EE2 
 750      617C33AF 
 750      3A2DF88D 
 750      D45789FA 
 751 01dc 8A75BB69 		.ascii	"\212u\273i]\3436\222\005\237\331\234\274fs\014\267\023"
 751      5DE33692 
 751      059FD99C 
 751      BC66730C 
 751      B713
 752 01ee 6C07EBF4 		.ascii	"l\007\353\364\241\365\206m.\205\353e \355\026.V\373"
 752      A1F5866D 
 752      2E85EB65 
 752      20ED162E 
 752      56FB
 753 0200 18660BB6 		.ascii	"\030f\013\266A1\216\200t\200\234\0049\015r\006\344S"
 753      41318E80 
 753      74809C04 
 753      390D7206 
 753      E453
 754 0212 94F01FC7 		.ascii	"\224\360\037\307\352\001\270\177\020\344;H\034\003\334"
 754      EA01B87F 
 754      10E43B48 
 754      1C03DC
 755 0221 66FB49F6 		.ascii	"f\373I\366<\304y\340\241~\341X\230\371\200cr\031\344"
 755      3CC479E0 
 755      A17EE158 
 755      98F98063 
 755      7219E4
 756 0234 9AC46F73 		.ascii	"\232\304os\326\274\220)\266\231\0338/\256pr\343Q\224"
 756      D6BC9029 
 756      B6991B38 
 756      2FAE7072 
 756      E35194
 757 0247 DCC6AD36 		.ascii	"\334\306\2556yv\316\323\330 )9\027\037\245\266\377\216"
 757      7976CED3 
 757      D8202939 
 757      171FA5B6 
 757      FF8E
 758 0259 630BF74B 		.ascii	"c\013\367K\003\031[\305\264\255\231\375I\247\300\267"
 758      03195BC5 
 758      B4AD99FD 
 758      49A7C0B7 
 759 0269 F3D49E93 		.ascii	"\363\324\236\223\266'S[&\227'9\\\206\320\272\264\346"
 759      B627535B 
 759      26972739 
ARM GAS  /tmp/ccoNZDVu.s 			page 60


 759      5C86D0BA 
 759      B4E6
 760 027b 1E6E8FB8 		.ascii	"\036n\217\270\217\3763\3157\314\307C\313{\251\3165\234"
 760      8FFE33CD 
 760      37CCC743 
 760      CB7BA9CE 
 760      359C
 761 028d 77203741 		.ascii	"w 7An\203|\213\375\006#\036\331\340\201\363\355\307"
 761      6E837C8B 
 761      FD06231E 
 761      D9E081F3 
 761      EDC7
 762 029f 340FAD07 		.ascii	"4\017\255\007\356\2133\031{\254\015D\313\2318?\341\340"
 762      EE8B3319 
 762      7BAC0D44 
 762      CB99383F 
 762      E1E0
 763 02b1 E0FE7C84 		.ascii	"\340\376|\204d\264/k\233\361\320\330\341\330\276\202"
 763      64B42F6B 
 763      9BF1D0D8 
 763      E1D8BE82 
 764 02c1 8C3E12E7 		.ascii	"\214>\022\347\317\323\310\336_\343\330f\311\2111\352"
 764      CFD3C8DE 
 764      5FE3D866 
 764      C98931EA 
 765 02d1 31941873 		.ascii	"1\224\030s\3141\310\013\337g\313\342:\210I\306\230e"
 765      CC31C80B 
 765      DF67CBE2 
 765      3A8849C6 
 765      9865
 766 02e3 8E61E698 		.ascii	"\216a\346\230\206\373m\334/\3436\223\003\372\271 }@"
 766      86FB6DDC 
 766      2FE33693 
 766      03FAB920 
 766      7D40
 767 02f5 BE8712E3 		.ascii	"\276\207\022\343\237Yw\263\340Y_\370n6|\346\311F\277"
 767      9F5977B3 
 767      E0595FF8 
 767      6E367CE6 
 767      C946BF
 768 0308 6EB6C77E 		.ascii	"n\266\307~p\037\205\353\376\360y\022\356\007\310F\033"
 768      701F85EB 
 768      FEF07912 
 768      EE07C846 
 768      1B
 769 0319 34C75373 		.ascii	"4\307Ss\234\265\326\3739\311\030;p|\314\272\307c\036"
 769      9CB5D6FB 
 769      39C9183B 
 769      707CCCBA 
 769      C7631E
 770 032c EE83713B 		.ascii	"\356\203q;\030(\033\343 \036\037\216\321\330T\323\274"
 770      18281BE3 
 770      201E1F8E 
 770      D1D854D3 
 770      BC
 771 033d C0ED7226 		.ascii	"\300\355r&m\243s9m4G\232\255\353\365z\313\014}\364\301"
 771      6DA37339 
ARM GAS  /tmp/ccoNZDVu.s 			page 61


 771      6D34479A 
 771      ADEBF57A 
 771      CB0C7DF4 
 772 0352 3EFDA406 		.ascii	">\375\244\006\035\216\374\346>\331\322,\374\270k\255"
 772      1D8EFCE6 
 772      3ED9D22C 
 772      FCB86BAD 
 773 0362 3E689024 		.ascii	">h\220$\215C*\202G^r\221\233M\002\365\003\3515(\012"
 773      8D432A82 
 773      475E7291 
 773      9B4D02F5 
 773      03E93528 
 774 0377 E56515AD 		.ascii	"\345e\025\255A\331\220\2142\003m\036\306\367\370\300"
 774      41D9908C 
 774      32036D1E 
 774      C6F7F8C0 
 775 0387 EAC6B579 		.ascii	"\352\306\265y\325\203\342\350\203Lt\205j\375\006\365"
 775      D583E2E8 
 775      834C7485 
 775      6AFD06F5 
 776 0397 2357848B 		.ascii	"#W\204\213N)\222\022T#\337\324\360P\215\327-vr\263\023"
 776      4E299212 
 776      5423DFD4 
 776      F0508DD7 
 776      2D7672B3 
 777 03ac 17326522 		.ascii	"\0272e\"\322[\215rL\262\324q\303\030_\203x\336\320\365"
 777      D25B8D72 
 777      4CB2D471 
 777      C3185F83 
 777      78DED0F5 
 778 03c0 EA95BBB2 		.ascii	"\352\225\273\262\256{U\264\216x\037D\322\343\322o\215"
 778      AE7B55B4 
 778      8E781F44 
 778      D2E3D26F 
 778      8D
 779 03d1 90D4FF13 		.ascii	"\220\324\377\023/\024*\312\310N\272W\321\033\350qJ-"
 779      2F142ACA 
 779      C84EBA57 
 779      D11BE871 
 779      4A2D
 780 03e3 233B7181 		.ascii	"#;q\201\347e}\343tp=4\367IQ\021\015]\237\314|B\367\250"
 780      E7657DE3 
 780      74703D34 
 780      F7495111 
 780      0D5D9FCC 
 781 03fb 680321D3 		.ascii	"h\003!\323\016C\210\211l\230B\214id7\035\257\024Z'\274"
 781      0E438889 
 781      6C98428C 
 781      6964371D 
 781      AF145A27 
 782 0410 B46819DE 		.ascii	"\264h\031\336\334\307\2505Jc\270I\303KA7\271\256\261"
 782      DCC7A835 
 782      4A63B849 
 782      C34B4137 
 782      B9AEB1
 783 0423 CD821A33 		.ascii	"\315\202\0323\247\206\"\275\267\0225\306\243\332\225"
 783      A78622BD 
ARM GAS  /tmp/ccoNZDVu.s 			page 62


 783      B71235C6 
 783      A3DA95
 784 0432 C150B545 		.ascii	"\301P\265E\014\003\264\272\246\272U@UJCuKj\252\371\014"
 784      0C03B4BA 
 784      A6BA5540 
 784      554A4375 
 784      4B6AAAF9 
 785 0447 D3166402 		.ascii	"\323\026d\002\014\244\000\333\\S}G@u@\032\252o\247\246"
 785      0CA400DB 
 785      5C537D47 
 785      4075401A 
 785      AA6FA7A6 
 786 045b 9A940079 		.ascii	"\232\224\000y\366\006\246\242\035\256\251\356\024PE"
 786      F606A6A2 
 786      1DAEA9EE 
 786      145045
 787 046a 69A86E77 		.ascii	"i\250nw\027\325\365\361\250\336G\001v\273\246\372\256"
 787      17D5F5F1 
 787      A8DE4701 
 787      76BBA6FA 
 787      AE
 788 047b 80EAC034 		.ascii	"\200\352\3004Tw\271L\000\331\004x\204\002\354uMu\237"
 788      5477B94C 
 788      00D90478 
 788      8402EC75 
 788      4D759F
 789 048e 80EAF7D3 		.ascii	"\200\352\367\323P\335\343\216\352\216xT\037\240\000"
 789      50DDE38E 
 789      EA8E7854 
 789      1FA000
 790 049d FB5D537D 		.ascii	"\373]S}O@\365\3764Tc.s5\011\340w\256\251~ \240\252\244"
 790      4F40F5FE 
 790      3454632E 
 790      733509E0 
 790      77AEA97E 
 791 04b5 A1FABEBB 		.ascii	"\241\372\276\273\250v\304\243\372\020\0058\340\232\352"
 791      A876C4A3 
 791      FA100538 
 791      E09AEA
 792 04c4 4101D507 		.ascii	"A\001\325\007\323Pm\343P\215\201\261\373\245E\324\262"
 792      D3506DE3 
 792      508D81B1 
 792      FBA545D4 
 792      B2
 793 04d5 8EA22A7A 		.ascii	"\216\242*z\352>!\302at?\275zAIe\313\026\011CM\004\331"
 793      EA3E21C2 
 793      61743FBD 
 793      7A414965 
 793      CB160943 
 794 04ec 0EA42CA3 		.ascii	"\016\244,\243\231\345\322+\315$\303\343t\275\016\375"
 794      99E5D22B 
 794      CD24C3E3 
 794      74BD0EFD 
 795 04fc 32FD3CE5 		.ascii	"2\375<\345\010\362BWu\022\011'*\270\200I\331\2706\257"
 795      08F24257 
 795      75120927 
 795      2AB88049 
ARM GAS  /tmp/ccoNZDVu.s 			page 63


 795      D9B836AF 
 796 0510 4065B0B4 		.ascii	"@e\260\264R\217]\357\2721\377\300q\3248U?\250_\307C"
 796      528F5DEF 
 796      BA31FFC0 
 796      71D43855 
 796      3FA85FC7 
 797 0525 B4415D96 		.ascii	"\264A]\226\276`\206\\I\372\241\264\026\307L_\257+$b"
 797      BE60865C 
 797      49FAA1B4 
 797      16C74C5F 
 797      AF2B2462 
 798 0539 D8C03134 		.ascii	"\330\30014\330n\261\003\311\326\007\206\215\330\256"
 798      D86EB103 
 798      C9D60786 
 798      8DD8AE
 799 0548 B6DC86BA 		.ascii	"\266\334\206\272\256\236\236\301\316\343~\222\306]1"
 799      AE9E9EC1 
 799      CEE37E92 
 799      C65D31
 800 0557 3A635B78 		.ascii	":c[x\373K\215\004\005@,\223\032=\236gyR|\032\261\244"
 800      FB4B8D04 
 800      05402C93 
 800      1A3D9E67 
 800      79527C1A 
 801 056d E9834298 		.ascii	"\351\203B\230\325P\215|aq\025}\204~ \245-\206\013\236"
 801      D5508D7C 
 801      6171157D 
 801      847E20A5 
 801      2D860B9E 
 802 0581 41FD6964 		.ascii	"A\375id\214\272\210}\245\345\033O%&b\226\343a\011\330"
 802      8CBA887D 
 802      A5E51B4F 
 802      25266296 
 802      E36109D8 
 803 0595 D6C7BEF9 		.ascii	"\326\307\276\371\346 \322\233rm\336\304\347D1\341\234"
 803      E620D29B 
 803      726DDEC4 
 803      E74431E1 
 803      9C
 804 05a6 4845AF01 		.ascii	"HE\257\001;\207\023\317\244Pv&\032\201\014\3351\242"
 804      3B8713CF 
 804      A4507626 
 804      1A810CDD 
 804      31A2
 805 05b8 3EF08ADB 		.ascii	">\360\212\333\346\000\264\200\335\203\236?\021\017\214"
 805      E600B480 
 805      DD839E3F 
 805      110F8C
 806 05c7 2C96A5B5 		.ascii	",\226\245\265\256\341\362mp\015\220\031\252\011\266"
 806      AEE1F26D 
 806      700D9019 
 806      AA09B6
 807 05d6 C1099857 		.ascii	"\301\011\230W\314\255\311\012\366\266k\260|\246\316"
 807      CCADC90A 
 807      F6B66BB0 
 807      7CA6CE
 808 05e5 8CCA54D1 		.ascii	"\214\312T\321Y\022\373s\350a8_ \347?\220\363E8\307\017"
ARM GAS  /tmp/ccoNZDVu.s 			page 64


 808      5912FB73 
 808      E861385F 
 808      20E73F90 
 808      F34538C7 
 809 05fa 597A5766 		.ascii	"YzWf'\251FNX\360\022\251#\245G\024U\347\207\211\352"
 809      27A9464E 
 809      58F012A9 
 809      23A54714 
 809      55E78789 
 810 060f 4C744A84 		.ascii	"LtJ\204\301\001\206\301#\322\032]o\352\272q\364\350"
 810      C10186C1 
 810      23D21A5D 
 810      6FEABA71 
 810      F4E8
 811 0621 7EB468AA 		.ascii	"~\264h\252>\332\320\225\245S\244\334\011h\273<\033q"
 811      3EDAD095 
 811      A553A4DC 
 811      0968BB3C 
 811      1B71
 812 0633 0BB4C1EF 		.ascii	"\013\264\301\357\326\307\016\2127\370\023l\203\377#"
 812      D6C70E8A 
 812      37F8136C 
 812      83FF23
 813 0642 B7C1DF34 		.ascii	"\267\301\3374\033\274\331\235|,;\351N.\263\350W\270"
 813      1BBCD99D 
 813      7C2C3BE9 
 813      4E2EB3E8 
 813      57B8
 814 0654 E86766B7 		.ascii	"\350gf\267\327A\022\352_\367\364(\222\363.\345ZRW.K"
 814      D74112EA 
 814      5FF7F428 
 814      92F32EE5 
 814      5A52572E 
 815 0669 17F9BC1A 		.ascii	"\027\371\274\032\354\274\256\262\274>O\346\325u=\266"
 815      ECBCAEB2 
 815      BC3E4FE6 
 815      D5753DB6 
 816 0679 FC80E1F5 		.ascii	"\374\200\341\365\252\341\014)\334\343\212X\375\305\336"
 816      AAE10C29 
 816      DCE38A58 
 816      FDC5DE
 817 0688 D119CD95 		.ascii	"\321\031\315\225\251\330/\270\025\253\177U>\332(.Ku"
 817      A9D82FB8 
 817      15AB7F55 
 817      3EDA282E 
 817      4B75
 818 069a 0A2ED12D 		.ascii	"\012.\321-\254\322NK\225\326\353W\247O\317\213\017\011"
 818      ACD24E4B 
 818      95D6EB57 
 818      A74FCF8B 
 818      0F09
 819 06ac 36356661 		.ascii	"65faA\276\276\311u\366\335{q\366.\353,.l\363\\J\312"
 819      41BEBEC9 
 819      75F6DD7B 
 819      71F62EEB 
 819      2C2E6CF3 
 820 06c3 EAE90AD7 		.ascii	"\352\351\012\327\371\356\177\033d\216\200M\244\304\035"
ARM GAS  /tmp/ccoNZDVu.s 			page 65


 820      F9EE7F1B 
 820      648E804D 
 820      A4C41D
 821 06d2 8117D44F 		.ascii	"\201\027\324O\252\266O\033m\206\370\013\360\313\246"
 821      AAB64F1B 
 821      6D86F80B 
 821      F0CBA6
 822 06e1 E6266622 		.ascii	"\346&f\"k\324\321\257\223c\326\322\025;{\200?\016\246"
 822      6BD4D1AF 
 822      9363D6D2 
 822      153B7B80 
 822      3F0EA6
 823 06f4 0A59BD2C 		.ascii	"\012Y\275,\036\010S\317\010\247\311\361\216\"M\210\227"
 823      1E0853CF 
 823      08A7C9F1 
 823      8E224D88 
 823      97
 824 0705 F343BC08 		.ascii	"\363C\274\010\307\012\243\310R+)Q'\213bEl\2315\303\206"
 824      C70AA3C8 
 824      522B2951 
 824      278B6245 
 824      6C9935C3 
 825 071a 58AC9632 		.ascii	"X\254\2262\304\0265^\210g\310\274\020/;\354>\304s\355"
 825      C416355E 
 825      8867C8BC 
 825      102F3BEC 
 825      3EC473ED 
 826 072e 21A603B2 		.ascii	"!\246\003\262>C\177l}b@\266-\016\351\354\342\366\271"
 826      3E437F6C 
 826      7D6240B6 
 826      2D0EE9EC 
 826      E2F6B9
 827 0741 771E277B 		.ascii	"w\036'{&\363e\374\274\213\011\243s\240\0133\267\017"
 827      26F365FC 
 827      BC8B09A3 
 827      73A00B33 
 827      B70F
 828 0753 23408D04 		.ascii	"#@\215\004\350\262\302\016%\012\263\337\241\330\367"
 828      E8B2C20E 
 828      250AB3DF 
 828      A1D8F7
 829 0762 3B94ECC4 		.ascii	";\224\354\304\005\356\024\335\025\216g\007v#}\266\334"
 829      05EE14DD 
 829      158E6707 
 829      76237DB6 
 829      DC
 830 0773 E0660B0C 		.ascii	"\340f\013\0143mMh\372T\37513\034s=\270\334\234D-\332"
 830      336D4D68 
 830      FA54FD31 
 830      331C733D 
 830      B8DC9C44 
 831 0789 3CA7D60C 		.ascii	"<\247\326\014\345\330\362\331\271cM\275&\027z\253\016"
 831      E5D8F2D9 
 831      B9634DBD 
 831      26177AAB 
 831      0E
 832 079a BFF9A0DE 		.ascii	"\277\371\240\336\"\333\363m\216\263|\213\375\317\354"
ARM GAS  /tmp/ccoNZDVu.s 			page 66


 832      22DBF36D 
 832      8EB37C8B 
 832      FDCFEC
 833 07a9 DDAB919E 		.ascii	"\335\253\221\236\231\310\2709\2513nqr\306AG\370\361"
 833      99C8B839 
 833      A9336E71 
 833      72C64147 
 833      F8F1
 834 07bb 61414798 		.ascii	"aAG\230b(Z\311\3158\007\273t\027f\236\352F\220R\360"
 834      62285AC9 
 834      CD3807BB 
 834      7417669E 
 834      EA469052 
 835 07d0 450B09D6 		.ascii	"E\013\011\326b\017\233*YL\252d\331k?+;qAw\345\230\372"
 835      620F9B2A 
 835      594CAA64 
 835      D96B3F2B 
 835      3B714177 
 836 07e7 5DE5E1D7 		.ascii	"]\345\341\327\357\374\323\255h\001\231F\030\2467\220"
 836      EFFCD3AD 
 836      68019946 
 836      18A63790 
 837 07f7 722B84C1 		.ascii	"r+\204\301n1\262\211\016\364\363t\322\270\351\210\212"
 837      6E31B289 
 837      0EF4F374 
 837      D2B8E988 
 837      8A
 838 0808 B56C2CD7 		.ascii	"\265l,\327pc\333\332\356>\266\353\345\364\003\352\233"
 838      7063DBDA 
 838      EE3EB6EB 
 838      E5F403EA 
 838      9B
 839 0819 5C17AD03 		.ascii	"\\\027\255\003\352\016Rb\235\243Lb\235[\307:\367\006"
 839      EA0E5262 
 839      9DA34C62 
 839      9D5BC73A 
 839      F706
 840 082b D7B9CEF6 		.ascii	"\327\271\316\366\370$\011s\226\245=|V=\345\361\376t"
 840      F8240973 
 840      96A53D7C 
 840      563DE5F1 
 840      FE74
 841 083d A38CF3FB 		.ascii	"\243\214\363\373\255{b\365\026\313j\023\267\003]|\324"
 841      AD7B62F5 
 841      16CB6A13 
 841      B7035D7C 
 841      D4
 842 084e F55A6D2B 		.ascii	"\365Zm+\033\3615d;\326\026\361\303|\337n\343Q\334\330"
 842      1BF13564 
 842      3BD616F1 
 842      C37CDF6E 
 842      E351DCD8 
 843 0862 6F3F4B4A 		.ascii	"o?KJ\264\012\232`|\361\303\365\255\225\365m\033\327"
 843      B40A9A60 
 843      7CF1C3F5 
 843      AD95F56D 
 843      1BD7
ARM GAS  /tmp/ccoNZDVu.s 			page 67


 844 0874 B75347E3 		.ascii	"\267SG\343\021\337J\"\336%\310\003\223\225\212\266\223"
 844      11DF4A22 
 844      DE25C803 
 844      93958AB6 
 844      93
 845 0885 88EFBC27 		.ascii	"\210\357\274'V;YV\273\270\254\226\034k\347\317fm\373"
 845      563B5956 
 845      BBB8AC96 
 845      1C6BE7CF 
 845      666DFB
 846 0898 2329BB85 		.ascii	"#)\273\205\017/\035\034\264G\327\363T\264\317h\232\031"
 846      0F2F1D1C 
 846      B447D7F3 
 846      54B4CF68 
 846      9A19
 847 08aa 9C91C811 		.ascii	"\234\221\310\021\322\205\003\307\216\323\016\346=\002"
 847      D28503C7 
 847      8ED30EE6 
 847      3D02
 848 08b8 B52583ED 		.ascii	"\265%\203\355`2\231\016&\323\336\301\300-\266u\007w"
 848      6032990E 
 848      26D3DEC1 
 848      C02DB675 
 848      0777
 849 08ca 2EE865FA 		.ascii	".\350e\372\004\337dI\367\254'\312\274\275)&G\346.Af"
 849      04DF6449 
 849      F7AC27CA 
 849      BCBD2926 
 849      47E62E41 
 850 08df 1A8F6F5C 		.ascii	"\032\217o\\\371\370\241\251\304\341\003r\177\234\023"
 850      F9F8A1A9 
 850      C4E10372 
 850      7F9C13
 851 08ee 8CC36971 		.ascii	"\214\303iq\3106\221\314l\012\354k\313\305\357/\360\363"
 851      C83691CC 
 851      6C0AEC6B 
 851      CBC5EF2F 
 851      F0F3
 852 0900 F4DB0227 		.ascii	"\364\333\002'\3336\302(\366\036r\275\313!K\267\200\255"
 852      DB36C228 
 852      F61E72BD 
 852      CB214BB7 
 852      80AD
 853 0912 83DD8D63 		.ascii	"\203\335\215c$\215;X\226+f\020\226\035\216X\256j;\224"
 853      248D3B58 
 853      962B6610 
 853      961D8E58 
 853      AE6A3B94 
 854 0926 B479C174 		.ascii	"\264y\301t\022\353RLGO\261\275\304\3239\334zs\264\037"
 854      12EB524C 
 854      474FB1BD 
 854      C4D339DC 
 854      7A73B41F 
 855 093a B291ACC9 		.ascii	"\262\221\254\311\323\274\365\0211\371(11\266\362Yg4"
 855      D3BCF511 
 855      31F92831 
 855      31B6F259 
ARM GAS  /tmp/ccoNZDVu.s 			page 68


 855      6734
 856 094c 655BC725 		.ascii	"e[\307%\334\236\222-{*\3632\021\015\356=\355\251\350"
 856      DC9E922D 
 856      7B2AF332 
 856      110DEE3D 
 856      EDA9E8
 857 095f ADBA9E9D 		.ascii	"\255\272\236\235y\257a=\3570\254\306\2734\021J\327_"
 857      79AF613D 
 857      EF30ACC6 
 857      BB34114A 
 857      D75F
 858 0971 1F924E6B 		.ascii	"\037\222NkH\026\270\016I\276\273\220\340~N\304\3443"
 858      4816B80E 
 858      49BEBB90 
 858      E07E4EC4 
 858      E433
 859 0983 71488C28 		.ascii	"qH\214(8u\351S\253K\315N\\\022\357N\375u.]\341\270\344"
 859      3875E953 
 859      AB4BCD4E 
 859      5C12EF4E 
 859      FD752E5D 
 860 099a C885CB56 		.ascii	"\310\205\313V\027\226\273v!_\262\037\211\335\253\023"
 860      1796BB76 
 860      215FB21F 
 860      89DDAB13 
 861 09aa 32DEB13A 		.ascii	"2\336\261:G\316\027\311\371O\262\203\335\253\337[\371"
 861      47CE17C9 
 861      F94FB283 
 861      DDABDF5B 
 861      F9
 862 09bb B4103E87 		.ascii	"\264\020>\207\3357\034\336a\355\204U\324.\343\016\342"
 862      DD371CDE 
 862      61ED8455 
 862      D42EE30E 
 862      E2
 863 09cc 88134A6D 		.ascii	"\210\023Jm\262hC\355\265L\301J\347\2635tC\255\215\254"
 863      B26843ED 
 863      B54CC14A 
 863      E7B33574 
 863      43AD8DAC 
 864 09e0 8EB79072 		.ascii	"\216\267\220r{\204\3232j\201N\0226\315\230\236\3471"
 864      7B84D332 
 864      6A814E12 
 864      36CD989E 
 864      E731
 865 09f2 AA5B4AA1 		.ascii	"\252[J\241F\011}\316\231;6tu\33788\246\271U\237\366"
 865      46097DCE 
 865      993B3674 
 865      75DF3838 
 865      A6B9559F 
 866 0a07 8AFE6DCF 		.ascii	"\212\376m\317\313\310\371T\355&\233Gx1\305x\335\311"
 866      CBC8F954 
 866      ED269B47 
 866      7831C578 
 866      DDC9
 867 0a19 786D32F9 		.ascii	"xm2\371\202\313d\325\355;\337Y<\265\205y}\320\230\305"
 867      82CB64D5 
ARM GAS  /tmp/ccoNZDVu.s 			page 69


 867      ED3BDF59 
 867      3CB58579 
 867      7DD098C5 
 868 0a2d C7B863C7 		.ascii	"\307\270c\307\370[i\265\256\237\200\200\356yj\251\036"
 868      F85B69B5 
 868      AE9F8080 
 868      EE796AA9 
 868      1E
 869 0a3e 9BA6E349 		.ascii	"\233\246\343I\020BfX_\217\203\210\334\3712\001g@\305"
 869      10426658 
 869      5F8F8388 
 869      DCF93201 
 869      6740C5
 870 0a51 6EDDC5FB 		.ascii	"n\335\305\373\323:acn^lJ\213\363\265\035'\326\021\273"
 870      D33A6163 
 870      6E5E6C4A 
 870      8BF3B51D 
 870      27D611BB 
 871 0a65 71CB6BC2 		.ascii	"q\313k\302\010\336k%\277\031\370Vv\373^\253G\346\277"
 871      08DE6B25 
 871      BF19F856 
 871      76FB5EAB 
 871      47E6BF
 872 0a78 D7EA1BAF 		.ascii	"\327\352\033\257\214\235,\367d\263\272\302\006\341\223"
 872      8C9D2CF7 
 872      64B3BAC2 
 872      06E193
 873 0a87 7F6F86C1 		.ascii	"\177o\206\301\275\247\347is\207\354\010\213\222\364"
 873      BDA7E769 
 873      7387EC08 
 873      8B92F4
 874 0a96 03827A3B 		.ascii	"\003\202z;H\313\211\330\35639\233\301\213\236\236\227"
 874      48CB89D8 
 874      EE33399B 
 874      C18B9E9E 
 874      97
 875 0aa7 4D94CEB4 		.ascii	"M\224\316\264(\323\222\250to9d\251\017cmu5m}\314\260"
 875      28D392A8 
 875      746F3964 
 875      A90F636D 
 875      75356D7D 
 876 0abd E39034FB 		.ascii	"\343\2204\373\277\265h\241\016y\206\035C\203\315J9\330"
 876      BFB568A1 
 876      0E79861D 
 876      4383CD4A 
 876      39D8
 877 0acf C7D6A5DA 		.ascii	"\307\326\245\332\336\362\251\350\264`\373\237\331G\027"
 877      DEF2A9E8 
 877      B460FB9F 
 877      D94717
 878 0ade 157945B1 		.ascii	"\025yE\261\216\212\364\341,\245\237\365\201,\325{\331"
 878      8E8AF4E1 
 878      2CA59FF5 
 878      812CD57B 
 878      D9
 879 0aef 5C57D11C 		.ascii	"\\W\321\0346\234\260|\336\370\220-\3073\360\354z\236"
 879      369CB07C 
ARM GAS  /tmp/ccoNZDVu.s 			page 70


 879      DEF8902D 
 879      C733F0EC 
 879      7A9E
 880 0b01 375D28E6 		.ascii	"7](\346%\220\230\361\034\247\233Hk\276\302\177Gk4-\221"
 880      259098F1 
 880      1CA79B48 
 880      6BBEC27F 
 880      476B342D 
 881 0b16 D6AB1C2D 		.ascii	"\326\253\034-#\220xHu0J2\266\246\245\260\325(d\230j"
 881      23907848 
 881      75304A32 
 881      B6A6A5B0 
 881      D5286498 
 882 0b2b ABAE29A1 		.ascii	"\253\256)\241E_\006,h\233\017s\347zH\212}:\212\367?"
 882      455F062C 
 882      689B0F73 
 882      E77A488A 
 882      7D3A8AF7 
 883 0b40 4B92EA84 		.ascii	"K\222\352\204\367\276a\201\302,\320\026*\266\356\211"
 883      F7BE6181 
 883      C22CD016 
 883      2AB6EE89 
 884 0b50 09C2A914 		.ascii	"\011\302\251\024A\260L\010\037\225^\307s\353m'\017\326"
 884      41B04C08 
 884      1F955EC7 
 884      73EB6D27 
 884      0FD6
 885 0b62 A1FCF836 		.ascii	"\241\374\3706\010\007\325p\027\267\011\021js\302]\322"
 885      0807D570 
 885      17B70911 
 885      6A73C25D 
 885      D2
 886 0b73 A94C4DB9 		.ascii	"\251LM\271\204S\321j2\352\245\337\361\341\255\0302M"
 886      8453D16A 
 886      32EAA5DF 
 886      F1E1AD18 
 886      324D
 887 0b85 A85F48F1 		.ascii	"\250_H\361\265\321\3225\335!cm\264L\301k\243\217\274"
 887      B5D1D235 
 887      DD21636D 
 887      B44CC16B 
 887      A38FBC
 888 0b98 DCB59118 		.ascii	"\334\265\221\030\207\354\365(\314\252c\3019\262\352"
 888      87ECF528 
 888      CCAA63C1 
 888      39B2EA
 889 0ba7 C0CFD3AC 		.ascii	"\300\317\323\254:\246M\215-:\267\234\254\215T\264T\301"
 889      3AA64D8D 
 889      2D3AB79C 
 889      AC8D54B4 
 889      54C1
 890 0bb9 2DE622A1 		.ascii	"-\346\"\241\200u\357a\262\015x\213\317\221\227\204\006"
 890      8075EF61 
 890      B20D788B 
 890      CF919784 
 890      06
 891 0bca D825D760 		.ascii	"\330%\327`\3716\260f+\330\025'`\242\011\"\200-\263\202"
ARM GAS  /tmp/ccoNZDVu.s 			page 71


 891      F936B066 
 891      2BD81527 
 891      60A20922 
 891      802DB382 
 892 0bde 5D770D66 		.ascii	"]w\015fg\266\334\012v\313\011X\236\230\331J+\330\035"
 892      67B6DC0A 
 892      76CB0958 
 892      9E98D94A 
 892      2BD81D
 893 0bf1 D7607666 		.ascii	"\327`vf\233\255`_;\001\033$f\326j\005\253\317v\013f"
 893      9BAD605F 
 893      3B011B24 
 893      66D66A05 
 893      ABCF760B 
 894 0c06 67F6B615 		.ascii	"g\366\266\025l\226\023\260|1\263w\254`\363\\\203\331"
 894      6C9613B0 
 894      7C31B377 
 894      AC60F35C 
 894      83D9
 895 0c18 99EDB082 		.ascii	"\231\355\260\2025:\001{L\314l\227\025l\221k0;\263w\255"
 895      353A017B 
 895      4CCC6C97 
 895      156C916B 
 895      303BB377 
 896 0c2d 604B9D80 		.ascii	"`K\235\200=)bV\027\333\373\257\015jb`7P\005\323\036"
 896      3D296256 
 896      17DBFBAF 
 896      0D6A6260 
 896      375005D3 
 897 0c42 6BB11639 		.ascii	"k\261\0269\305\244l7\035\256\023\277wboei\005\313\333"
 897      C5A46C37 
 897      1DAE13BF 
 897      77626F65 
 897      6905CBDB 
 898 0c56 0EC3236E 		.ascii	"\016\303#n\217B\2075\012\253\235Da\270\030\354\204\025"
 898      8F428735 
 898      0AAB9D44 
 898      61B818EC 
 898      8415
 899 0c68 EC752760 		.ascii	"\354u'`\243\305\225}\312\012\366\206k0;\263\323V\260"
 899      A3C5957D 
 899      CA0AF686 
 899      6B303BB3 
 899      D356B0
 900 0c7b 4D4EC0C6 		.ascii	"MN\300\306\212\231}l\005ku\015feV\027;\233\310\234\226"
 900      8A997D6C 
 900      056B750D 
 900      66655617 
 900      3B9BC89C 
 901 0c90 E14CEA0C 		.ascii	"\341L\352\014\267w\227\266b\226\324a\212\251\350P<s"
 901      B77797B6 
 901      6296D461 
 901      8AA9E850 
 901      3C73
 902 0ca2 76DA3367 		.ascii	"v\3323gg\"sv\260\274m(\364r\034'\010\274\303:T\252h"
 902      67227376 
 902      B0BC6D28 
ARM GAS  /tmp/ccoNZDVu.s 			page 72


 902      F4721C27 
 902      08BCC33A 
 903 0cb9 A582C7F2 		.ascii	"\245\202\307\362U\012^Z\257&\3475\344\274\226\234\327"
 903      550A5E5A 
 903      AF26E735 
 903      E4BC969C 
 903      D7
 904 0cca 91F36FC9 		.ascii	"\221\363o\311y\0039\277I\316\233\310y\0139o%\347m\344"
 904      790339BF 
 904      49CE9BC8 
 904      790B396F 
 904      25E76DE4 
 905 0cde BC9D9C77 		.ascii	"\274\235\234w\222\363\036r\336G\316\373\311\371}r\376"
 905      92F31E72 
 905      DE47CEFB 
 905      C9F97D72 
 905      FE
 906 0cef 809C0F28 		.ascii	"\200\234\017(\226533WY&\250 \314\275\235\235\232u}\271"
 906      96353333 
 906      575926A8 
 906      20CCBD9D 
 906      9D9A757D 
 907 0d04 61FF8AC4 		.ascii	"a\377\212\304O\313Z\274\3142u~\212\375\216\337+\311"
 907      4FCB5ABC 
 907      CC32757E 
 907      8AFD8EDF 
 907      2BC9
 908 0d16 BFD5389F 		.ascii	"\277\3258\237\315\235\323\325\353\233\327\353\031\346"
 908      CD9DD3D5 
 908      EB9BD7EB 
 908      19E6
 909 0d24 CB4B983E 		.ascii	"\313K\230>*\374\027\207\024\357\250\222\264\212\005"
 909      2AFC1787 
 909      14EFA892 
 909      B48A05
 910 0d33 AAA736ED 		.ascii	"\252\2476\355\017\222\3319,w\0366\314CG\333\313\221"
 910      0F92D939 
 910      2C771E36 
 910      CC4347DB 
 910      CB91
 911 0d45 C18ED406 		.ascii	"\301\216\324\006\217s\0156o=\364\335$\203\247\234\031"
 911      8F730D36 
 911      6F3DF4DD 
 911      2483A79C 
 911      19
 912 0d56 3C99DAE0 		.ascii	"<\231\332\340)\256\301\315\333\317\374(\311\340\362"
 912      29AEC1CD 
 912      DBCFFC28 
 912      C9E0F2
 913 0d65 1C47064F 		.ascii	"\034G\006O\2476\370Q\262\301\216\353]_m8\263\012\355"
 913      A736F851 
 913      B2C18EEB 
 913      5D5F6D38 
 913      B30AED
 914 0d78 5F3B43C7 		.ascii	"_;C\307\257\\^^\025\313s\361F\376\254\302\331\246\020"
 914      AF5C5E5E 
 914      15CB73F1 
ARM GAS  /tmp/ccoNZDVu.s 			page 73


 914      46FEACC2 
 914      D9A610
 915 0d8b BEA6A6F7 		.ascii	"\276\246\246\367\3146\306&\3067\372n\347C5\376\202\372"
 915      CC36C626 
 915      C637FA6E 
 915      E74335FE 
 915      82FA
 916 0d9d 7D52E28C 		.ascii	"}R\342\214\3009\373\213\346;\227bH\357e\356\2274\223"
 916      C039FB8B 
 916      E63B9762 
 916      48EF65EE 
 916      973493
 917 0db0 ED74679A 		.ascii	"\355tg\232_\3324\2279\321\214\277\241\276}\251K^\262"
 917      5FDA3497 
 917      39D18CBF 
 917      A1BE7DA9 
 917      4B5EB2
 918 0dc3 308612AF 		.ascii	"0\206\022\257\250-\232\274W\324\237p\253\002\262{\212"
 918      A82D9ABC 
 918      57D49F70 
 918      AB02B27B 
 918      8A
 919 0dd4 A5EECF92 		.ascii	"\245\356\317\222\272?\310\217\317q3>*\352R0\327O\035"
 919      BA3FC88F 
 919      CF71333E 
 919      2AEA5230 
 919      D74F1D
 920 0de7 79D9B4D2 		.ascii	"y\331\264\322|\201oF\307\231\336B\213\3362'z\361\330"
 920      7C816F46 
 920      C799DE42 
 920      8BDE3227 
 920      7AF1D8
 921 0dfa 34AE5CFC 		.ascii	"4\256\\\374\300\354_$\"\363i\352\310|&X\332\031\035"
 921      C0EC5F24 
 921      22F369EA 
 921      C87C2658 
 921      DA191D
 922 0e0d DBB514BF 		.ascii	"\333\265\024\277\327\275\2540K;X\313_\035\270\264\301"
 922      D7BDAC30 
 922      4B3B58CB 
 922      5F1DB8B4 
 922      C1
 923 0e1e CB59DB09 		.ascii	"\313Y\333\011\366\212\206\231\230Y\024\363\317\212\333"
 923      F68A8699 
 923      985914F3 
 923      CF8ADB
 924 0e2d ADA2AB0A 		.ascii	"\255\242\253\012\177\253(\323R\3251\322\352~\265\261"
 924      7FAB28D3 
 924      52D531D2 
 924      EA7EB5B1 
 925 0e3d 55D7C9C6 		.ascii	"U\327\311\306`\3354d.\210\317\362[:\263 \276\306.\210"
 925      60DD3464 
 925      2E88CFF2 
 925      5B3AB320 
 925      BEC62E88 
 926 0e51 3FE7F625 		.ascii	"?\347\366%\313\367u\377\207%\237\014\0133r\235X\350"
 926      CBF775FF 
ARM GAS  /tmp/ccoNZDVu.s 			page 74


 926      87259F0C 
 926      0B33729D 
 926      58E8
 927 0e63 662DFC85 		.ascii	"f-\374\205k\241\343\177\217/\263\016\035\246\221\275"
 927      6BA1E37F 
 927      8F2FB30E 
 927      1DA691BD 
 928 0e73 8E8CDC64 		.ascii	"\216\214\334d\215\334\342\032\331\362\307\356\321w\023"
 928      8DDCE21A 
 928      D9F2C7EE 
 928      D17713
 929 0e82 B17AD8F8 		.ascii	"\261z\330\370]\206,}i3B\272\031X\017\364\246\311d\266"
 929      5D862C7D 
 929      693342BA 
 929      19580FF4 
 929      A6C964B6 
 930 0e96 93B6DC06 		.ascii	"\223\266\334\006\024\377\025Fo\254q[q\366S\210\033u"
 930      14FF1546 
 930      6FAC715B 
 930      71F65388 
 930      1B75
 931 0ea8 965F54DE 		.ascii	"\226_T\336f\271\336\341r\375jC\367\257y\365\272\274"
 931      66B9DEE1 
 931      72FD6A43 
 931      F7AF79F5 
 931      BABC
 932 0eba B793807C 		.ascii	"\267\223\200|\313\032\351\021\324\353\361\212\244z}"
 932      CB1AE911 
 932      D4EBF18A 
 932      A47A7D
 933 0ec9 C391853A 		.ascii	"\303\221\205:\017c\241\336#\250\327\025\274z}\307\221"
 933      0F63A1DE 
 933      23A8D715 
 933      BC7A7DC7 
 933      91
 934 0eda 9169AC91 		.ascii	"\221i\254\221\351\236T\215z}\212\375\232\231\036W\377"
 934      E99E548D 
 934      7A7D8AFD 
 934      9A991E57 
 934      FF
 935 0eeb C4D01C5F 		.ascii	"\304\320\034_\020\014\240\000\257x\334\266\340\331\036"
 935      100CA000 
 935      AF78DCB6 
 935      E0D91E
 936 0efa 7E0B367F 		.ascii	"~\0136\177$,\322\233\345\216\352\024S\277/\325\237\353"
 936      242CD29B 
 936      E58EEA14 
 936      53BF2FD5 
 936      9FEB
 937 0f0c 9AE93C01 		.ascii	"\232\351<\001\323>i\230\316\02105\032\226Hk\276P\013"
 937      D33E6998 
 937      CE113035 
 937      1A96486B 
 937      BE500B
 938 0f1f 6FB58AB4 		.ascii	"o\265\212\264^\345h\031\333t\347S\274\347\354\024\374"
 938      5EE56819 
 938      DB74E753 
ARM GAS  /tmp/ccoNZDVu.s 			page 75


 938      BCE7EC14 
 938      FC
 939 0f30 EF8AF166 		.ascii	"\357\212\361fD\244\325(dx2\305\270\321$\324\312\020"
 939      44A4D528 
 939      647832C5 
 939      B8D124D4 
 939      CA10
 940 0f42 135CE049 		.ascii	"\023\\\340I\236E\337\335`o27I/\365^o\356\370\275\207"
 940      9E45DFDD 
 940      606F3237 
 940      492FF55E 
 940      6FEEF8BD 
 941 0f57 1DBF177A 		.ascii	"\035\277\027z\234\214\247\272~\306\372;\357\205lK[d"
 941      9C8CA7BA 
 941      7EC6FA3B 
 941      EF856C4B 
 941      5B64
 942 0f69 6F699227 		.ascii	"oi\222'P\241\326\250\276\212p\225\346\373\317\332\312"
 942      50A1D6A8 
 942      BE8A7095 
 942      E6FBCFDA 
 942      CA
 943 0f7a A01AF215 		.ascii	"\240\032\362\025\217\0345\302\027\321\252\264H\264F"
 943      8F1C35C2 
 943      17D1AAB4 
 943      48B446
 944 0f89 F307A7F8 		.ascii	"\363\007\247\370FV\215\327\306\007\313\303\021\237Z"
 944      46568DD7 
 944      C607CBC3 
 944      119F5A
 945 0f98 53F5C490 		.ascii	"S\365\304\220'\013\207\026"
 945      270B8716 
 946 0fa0 1416FA2A 		.ascii	"\024\026\372*\203\343}\023\003\001\362,\024\016iOh\352"
 946      83E37D13 
 946      0301F22C 
 946      140E694F 
 946      68EA
 947 0fb2 F8A0EFEF 		.ascii	"\370\240\357\357\013\206\025\024\372\202\241@em\271"
 947      0B861514 
 947      FA82A140 
 947      656DB9
 948 0fc1 E68B44CB 		.ascii	"\346\213D\313\313\265\011\005\025Rf$\370_\232?\2329"
 948      CBB50905 
 948      15526624 
 948      F85F9A3F 
 948      9A39
 949 0fd3 EAF917F2 		.ascii	"\352\371\027\362\213\244\322{\261g\267c\261\020\014"
 949      8BA4D27B 
 949      B167B763 
 949      B1100C
 950 0fe2 45C14256 		.ascii	"E\301BV-|\016\363G3\374\317\204\303\225\177SP\3403\376"
 950      2D7C0EF3 
 950      4733FCCF 
 950      84C3957F 
 950      5350E033 
 951 0ff7 A2004BB8 		.ascii	"\242\000K\270\006*\374\370\272"
 951      062AFCF8 
ARM GAS  /tmp/ccoNZDVu.s 			page 76


 951      BA
 952 1000 2020E556 		.ascii	"  \345V\327@Y\1774\374\242\026\212\244(Y!yBj\225\226"
 952      D740597F 
 952      34FCA216 
 952      8AA42859 
 952      2179426A 
 953 1016 11D1A2B5 		.ascii	"\021\321\242\265\325\336\250\246\326\224\207'\207\262"
 953      D5DEA8A6 
 953      D6948727 
 953      87B2
 954 1024 B4295AA0 		.ascii	"\264)Z\2406\252\365\302e\002j\004\334\312\245\217\210"
 954      36AAF5C2 
 954      65026A04 
 954      DCCAA58F 
 954      88
 955 1035 9A120D54 		.ascii	"\232\022\015T\3672,T\006CZ\177\374\314O\356C\005\325"
 955      F7322C54 
 955      06435A7F 
 955      FCCC4FEE 
 955      4305D5
 956 1048 6A4DB4E0 		.ascii	"jM\264\340\311^\244\234\177\202\032\254T\252\"\023s"
 956      C95EA49C 
 956      7F821AAC 
 956      54AA2213 
 956      73
 957 1059 8D5B3512 		.ascii	"\215[5\022\321j\242\331\201p\250<\030\015\206C\367Y"
 957      D16AA2D9 
 957      8170A83C 
 957      180D8643 
 957      F759
 958 106b 1FFB23DA 		.ascii	"\037\373#\332/k\265P@\363jS\252\265@T+\177$\316\033"
 958      2F6BB550 
 958      40F36A53 
 958      AAB54054 
 958      2B7F24CE 
 959 1080 E254138D 		.ascii	"\342T\023\215\007$P\021y)\022}\251Z\213\000\377l|\035"
 959      07245011 
 959      7929127D 
 959      A95A8B00 
 959      FF6C7C1D 
 960 1094 AC02625E 		.ascii	"\254\002b^\034\236\302\037\373\243\203l\260\344\313"
 960      1C9EC21F 
 960      FBA3836C 
 960      B0E4CB
 961 10a3 C9C11038 		.ascii	"\311\301\0208\226\021\211\002;E\013\225\223\262C\207"
 961      96118902 
 961      3B450B95 
 961      93B24387 
 962 10b3 F8A33916 		.ascii	"\370\2439\026\356(\324+q\347\001\332\325\271\211\373"
 962      EE28D42B 
 962      71E701DA 
 962      D5B989FB 
 963 10c3 CA505F72 		.ascii	"\312P_r\243U\005i\\3\310\271\037\363\324\037\034f\245"
 963      A3550569 
 963      5C33C8B9 
 963      1FF3D41F 
 963      1C66A5
ARM GAS  /tmp/ccoNZDVu.s 			page 77


 964 10d6 1D085755 		.ascii	"\035\010WU\205C\276\352pM4\342\033QR\\T<\005?\253\016"
 964      8543BEEA 
 964      704D34E2 
 964      1B51525C 
 964      543C053F 
 965 10ec 566A3511 		.ascii	"Vj5\021\337\250\242\"\360\306t%\003L\372\243Y\224\331"
 965      DFA8A222 
 965      F0C67425 
 965      034CFAA3 
 965      5994D9
 966 10ff 0FAD3015 		.ascii	"\017\2550\025je\334}\270\366\343<R\253\260\322\300g"
 966      6A65DC7D 
 966      B8F6E33C 
 966      52ABB0D2 
 966      C067
 967 1111 A07E4A49 		.ascii	"\240~JI\350\242A\265\262\224|\361\000\357\341\317\213"
 967      E8A241B5 
 967      B2947CF1 
 967      00EFE1CF 
 967      8B
 968 1122 CB3226D7 		.ascii	"\3132&\327\004\243\232\007\356\312\225\352\332\2502"
 968      04A39A07 
 968      EECA95EA 
 968      DAA832
 969 1131 518B2A93 		.ascii	"Q\213*\223\252\242\206\233\264\2063\015\354\357\013"
 969      AAA2869B 
 969      B486330D 
 969      ECEF0B
 970 1140 831FADC0 		.ascii	"\203\037\255\300\372\330v\257@EYEyi\245\246U\377\310"
 970      FAD876AF 
 970      40455945 
 970      7969A5A6 
 970      55FFC8
 971 1153 9E63A010 		.ascii	"\236c\240\020\011\327\326\0044\343\226\340\327\204\303"
 971      09D7D604 
 971      34E396E0 
 971      D784C3
 972 1162 38E10626 		.ascii	"8\341\006&b\352\307a\361\007C\023\302^\3620PQ\235M."
 972      62EAC761 
 972      F1074313 
 972      C25EF230 
 972      50519D4D 
 973 1177 2092D5FD 		.ascii	" \222\325\375\315+\310`\377\370\332\011\023\264\032"
 973      CD2BC860 
 973      FFF8DA09 
 973      13B41A
 974 1186 A3062AC3 		.ascii	"\243\006*\303\001\210\000N\255<r?\2612<\236>\030\030"
 974      0188004E 
 974      AD3C723F 
 974      B1323C9E 
 974      3E1818
 975 1199 CFBA5A68 		.ascii	"\317\272Zhg\320\334\"\352D#\213\375\221Z\360\334@\217"
 975      67D0DC22 
 975      EA44238B 
 975      FD915AF0 
 975      DC408F
 976 11ac 44B5EADC 		.ascii	"D\265\352\334@%$;\205\037\302\206\332\250\256\322\262"
ARM GAS  /tmp/ccoNZDVu.s 			page 78


 976      4025243B 
 976      851FC286 
 976      DAA8AED2 
 976      B2
 977 11bd E2A1437C 		.ascii	"\342\241C|\317=\367\254\257lL\361\244Bh\210U\270b\202"
 977      CF3DF7AC 
 977      AF6C4CF1 
 977      A4426888 
 977      55B86282 
 978 11d1 55E0454E 		.ascii	"U\340EN\374\306\037U\212J\012A\206xJ\213\213J<\317\216"
 978      FCC61F55 
 978      8A4A0A41 
 978      86784A8B 
 978      8B4A3CCF 
 979 11e6 19592297 		.ascii	"\031Y\"\227\226(#G\225d\024\025\025\227\024\222\363"
 979      96282347 
 979      95641415 
 979      15971492 
 979      F3
 980 11f7 104F51D1 		.ascii	"\020OQ\321\310\022\245\350\3712eli\2212\242\244D))\202"
 980      C812A5E8 
 980      F932656C 
 980      699132A2 
 980      A4442929 
 981 120c 7B5078E6 		.ascii	"{Px\346\331\262\022\345Y\254Y<\242D\376\231\2415\024"
 981      D9B212E5 
 981      59AC593C 
 981      A244FE99 
 981      A13514
 982 121f CA8F2B19 		.ascii	"\312\217+\031\314\022\013G\340\004\301\305\2378\226"
 982      CC120B47 
 982      E004C1C5 
 982      9F3896
 983 122e F8F36791 		.ascii	"\370\363g\221QZ\264\024Z\201VU\006\271>\356{\302\232"
 983      515AB414 
 983      5A815655 
 983      06B93EEE 
 983      7BC29A
 984 1241 9B84E3DF 		.ascii	"\233\204\343\337?P\361\3632\273\206/m\306V\004\302\020"
 984      3F50F1F3 
 984      32BB862F 
 984      6DC65604 
 984      C210
 985 1253 50DC946A 		.ascii	"P\334\224j\000b\000\2517r\347\207\024\"WC\235\305\320"
 985      006200A9 
 985      3772E787 
 985      14225743 
 985      9DC5D0
 986 1266 485E7F65 		.ascii	"H^\177ee9\246b\\\021\214@\2706\024\325j\006\030\036"
 986      6539A662 
 986      5C118C40 
 986      B83614D5 
 986      6A06181E 
 987 127a 8D896062 		.ascii	"\215\211`b\377\022\214V\004C\343<\030\277\037\246m{"
 987      FF128C56 
 987      0443E33C 
 987      18BF1FA6 
ARM GAS  /tmp/ccoNZDVu.s 			page 79


 987      6D7B
 988 128c 9C838B82 		.ascii	"\234\203\213\202\027\317\205\003/\016N\325U\340^\"P"
 988      17CF8503 
 988      2F0E4ED5 
 988      55E05E22 
 988      50
 989 129d 414B3EE1 		.ascii	"AK>\341\320\327I\377\200\2539\233x\012\031\367b!GO\233"
 989      D0D749FF 
 989      80AB399B 
 989      780A19F7 
 989      6221474F 
 990 12b2 12F51515 		.ascii	"\022\365\025\025\227\216)M\330\253\212\004#~\0303@\267"
 990      978E294D 
 990      D8AB8A04 
 990      237E1833 
 990      40B7
 991 12c4 B71FBAB4 		.ascii	"\267\037\272\264\250\377\231\021\245#\307\226\214\351"
 991      A8FF9911 
 991      A523C796 
 991      8CE9
 992 12d2 AD564E56 		.ascii	"\255VNV_\212@\266\343.3c\222ZY\253\365\246\036\274\020"
 992      5F8A40B6 
 992      E32E3363 
 992      925A59AB 
 992      F5A61EBC 
 993 12e7 C2167208 		.ascii	"\302\026r\010GzM\354\326\222\353\276\270T\031it\244"
 993      477A4DEC 
 993      D692EBBE 
 993      B8541969 
 993      74A4
 994 12f9 A9FD3FDC 		.ascii	"\251\375?\334\200\362-"
 994      80F22D
 995              		.text
 996              		.section	.gnu.lto_.symtab.64c0621aa0296dd2,"",%progbits
 997 0000 5F746573 		.ascii	"_test_fail\000\000\000\000\000\000\000\000\000\000\000"
 997      745F6661 
 997      696C0000 
 997      00000000 
 997      00000000 
 998 0015 00F10000 		.ascii	"\000\361\000\000\000test_global_fail\000\000\000\000"
 998      00746573 
 998      745F676C 
 998      6F62616C 
 998      5F666169 
 999 002e 00000000 		.ascii	"\000\000\000\000\000\000\000\000\203\001\000\000_te"
 999      00000000 
 999      83010000 
 999      5F7465
 1000 003d 73745F61 		.ascii	"st_assert\000\000\000\000\000\000\000\000\000\000\000"
 1000      73736572 
 1000      74000000 
 1000      00000000 
 1000      00000000 
 1001 0051 00F80000 		.ascii	"\000\370\000\000\000_test_assert_sequence\000\000\000"
 1001      005F7465 
 1001      73745F61 
 1001      73736572 
ARM GAS  /tmp/ccoNZDVu.s 			page 80


 1001      745F7365 
 1002 006e 00000000 		.ascii	"\000\000\000\000\000\000\000\000\000\001\001\000\000"
 1002      00000000 
 1002      00010100 
 1002      00
 1003 007b 5F746573 		.ascii	"_test_assert_time_window\000\000\000\000\000\000\000"
 1003      745F6173 
 1003      73657274 
 1003      5F74696D 
 1003      655F7769 
 1004 009a 00000000 		.ascii	"\000\000\000\000\000\013\001\000\000test_printn\000"
 1004      000B0100 
 1004      00746573 
 1004      745F7072 
 1004      696E746E 
 1005 00af 00000000 		.ascii	"\000\000\000\000\000\000\000\000\000\000\000\035\001"
 1005      00000000 
 1005      0000001D 
 1005      01
 1006 00bc 00007465 		.ascii	"\000\000test_print\000\000\000\000\000\000\000\000\000"
 1006      73745F70 
 1006      72696E74 
 1006      00000000 
 1006      00000000 
 1007 00d1 00000027 		.ascii	"\000\000\000'\001\000\000test_println\000\000\000\000"
 1007      01000074 
 1007      6573745F 
 1007      7072696E 
 1007      746C6E00 
 1008 00e8 00000000 		.ascii	"\000\000\000\000\000\000\000\000.\001\000\000test_e"
 1008      00000000 
 1008      2E010000 
 1008      74657374 
 1008      5F65
 1009 00fa 6D69745F 		.ascii	"mit_token\000\000\000\000\000\000\000\000\000\000\000"
 1009      746F6B65 
 1009      6E000000 
 1009      00000000 
 1009      00000000 
 1010 010e 00320100 		.ascii	"\0002\001\000\000test_emit_token_i\000\000\000\000\000"
 1010      00746573 
 1010      745F656D 
 1010      69745F74 
 1010      6F6B656E 
 1011 0129 00000000 		.ascii	"\000\000\000\000\000\000\0009\001\000\000test_execu"
 1011      00000039 
 1011      01000074 
 1011      6573745F 
 1011      65786563 
 1012 013e 74650000 		.ascii	"te\000\000\000\000\000\000\000\000\000\000\000\000="
 1012      00000000 
 1012      00000000 
 1012      00003D
 1013 014d 01000074 		.ascii	"\001\000\000test_step\000\000\000\000\000\000\000\000"
 1013      6573745F 
 1013      73746570 
 1013      00000000 
ARM GAS  /tmp/ccoNZDVu.s 			page 81


 1013      00000000 
 1014 0161 00000000 		.ascii	"\000\000\000\000\214\001\000\000test_suite\000\000\002"
 1014      8C010000 
 1014      74657374 
 1014      5F737569 
 1014      74650000 
 1015 0176 00000000 		.ascii	"\000\000\000\000\000\000\000\000\000\207\001\000\000"
 1015      00000000 
 1015      00870100 
 1015      00
 1016 0183 63685468 		.ascii	"chThdSleep\000\000\002\000\000\000\000\000\000\000\000"
 1016      64536C65 
 1016      65700000 
 1016      02000000 
 1016      00000000 
 1017 0198 00730100 		.ascii	"\000s\001\000\000test_print_port_info\000\000\002\000"
 1017      00746573 
 1017      745F7072 
 1017      696E745F 
 1017      706F7274 
 1018 01b5 00000000 		.ascii	"\000\000\000\000\000\000\000\000w\001\000\000"
 1018      00000000 
 1018      77010000 
 1019              		.text
 1020              		.section	.gnu.lto_.opts,"",%progbits
 1021 0000 272D6D63 		.ascii	"'-mcpu=cortex-m3' '-mno-thumb-interwork' '-mthumb' "
 1021      70753D63 
 1021      6F727465 
 1021      782D6D33 
 1021      2720272D 
 1022 0033 272D6767 		.ascii	"'-ggdb' '-O2' '-fomit-frame-pointer' '-falign-funct"
 1022      64622720 
 1022      272D4F32 
 1022      2720272D 
 1022      666F6D69 
 1023 0066 696F6E73 		.ascii	"ions=16' '-ffunction-sections' '-fdata-sections' '-"
 1023      3D313627 
 1023      20272D66 
 1023      66756E63 
 1023      74696F6E 
 1024 0099 666E6F2D 		.ascii	"fno-common' '-flto'\000"
 1024      636F6D6D 
 1024      6F6E2720 
 1024      272D666C 
 1024      746F2700 
 1025              		.text
 1026              		.cfi_sections	.debug_frame
 1027              		.section	.text.print_line,"ax",%progbits
 1028              		.align	2
 1029              		.p2align 4,,15
 1030              		.thumb
 1031              		.thumb_func
 1032              		.type	print_line, %function
 1033              	print_line:
 1034              	.LFB222:
 1035              		.file 1 "../../../test/lib/ch_test.c"
 1036              		.loc 1 90 0
ARM GAS  /tmp/ccoNZDVu.s 			page 82


 1037              		.cfi_startproc
 1038              		@ args = 0, pretend = 0, frame = 0
 1039              		@ frame_needed = 0, uses_anonymous_args = 0
 1040              	.LVL0:
 1041 0000 70B5     		push	{r4, r5, r6, lr}
 1042              		.cfi_def_cfa_offset 16
 1043              		.cfi_offset 4, -16
 1044              		.cfi_offset 5, -12
 1045              		.cfi_offset 6, -8
 1046              		.cfi_offset 14, -4
 1047 0002 40F20006 		movw	r6, #:lower16:.LANCHOR0
 1048 0006 C0F20006 		movt	r6, #:upper16:.LANCHOR0
 1049              		.loc 1 90 0
 1050 000a 4C25     		movs	r5, #76
 1051              	.LVL1:
 1052              	.L3:
 1053              		.loc 1 94 0 discriminator 2
 1054 000c 3068     		ldr	r0, [r6]
 1055 000e 2D21     		movs	r1, #45
 1056 0010 0368     		ldr	r3, [r0]
 1057 0012 40F20004 		movw	r4, #:lower16:.LANCHOR0
 1058 0016 9B68     		ldr	r3, [r3, #8]
 1059 0018 9847     		blx	r3
 1060              	.LVL2:
 1061              		.loc 1 93 0 discriminator 2
 1062 001a 013D     		subs	r5, r5, #1
 1063              	.LVL3:
 1064              		.loc 1 94 0 discriminator 2
 1065 001c C0F20004 		movt	r4, #:upper16:.LANCHOR0
 1066              		.loc 1 93 0 discriminator 2
 1067 0020 F4D1     		bne	.L3
 1068              		.loc 1 95 0
 1069 0022 2068     		ldr	r0, [r4]
 1070 0024 40F20001 		movw	r1, #:lower16:.LC0
 1071 0028 0368     		ldr	r3, [r0]
 1072 002a C0F20001 		movt	r1, #:upper16:.LC0
 1073 002e 1B68     		ldr	r3, [r3]
 1074 0030 0222     		movs	r2, #2
 1075 0032 9847     		blx	r3
 1076              	.LVL4:
 1077 0034 70BD     		pop	{r4, r5, r6, pc}
 1078              		.cfi_endproc
 1079              	.LFE222:
 1080              		.size	print_line, .-print_line
 1081 0036 00BFAFF3 		.section	.text._test_fail,"ax",%progbits
 1081      0080AFF3 
 1081      0080
 1082              		.align	2
 1083              		.p2align 4,,15
 1084              		.global	_test_fail
 1085              		.thumb
 1086              		.thumb_func
 1087              		.type	_test_fail, %function
 1088              	_test_fail:
 1089              	.LFB223:
 1090              		.loc 1 102 0
 1091              		.cfi_startproc
ARM GAS  /tmp/ccoNZDVu.s 			page 83


 1092              		@ args = 0, pretend = 0, frame = 0
 1093              		@ frame_needed = 0, uses_anonymous_args = 0
 1094              		@ link register save eliminated.
 1095              	.LVL5:
 1096 0000 10B4     		push	{r4}
 1097              		.cfi_def_cfa_offset 4
 1098              		.cfi_offset 4, -4
 1099              		.loc 1 104 0
 1100 0002 40F20001 		movw	r1, #:lower16:.LANCHOR1
 1101              		.loc 1 106 0
 1102 0006 40F20004 		movw	r4, #:lower16:.LANCHOR3
 1103              		.loc 1 105 0
 1104 000a 40F20002 		movw	r2, #:lower16:.LANCHOR2
 1105              		.loc 1 104 0
 1106 000e 0123     		movs	r3, #1
 1107              		.loc 1 106 0
 1108 0010 C0F20004 		movt	r4, #:upper16:.LANCHOR3
 1109              		.loc 1 104 0
 1110 0014 C0F20001 		movt	r1, #:upper16:.LANCHOR1
 1111              		.loc 1 105 0
 1112 0018 C0F20002 		movt	r2, #:upper16:.LANCHOR2
 1113              		.loc 1 106 0
 1114 001c 2060     		str	r0, [r4]
 1115              		.loc 1 104 0
 1116 001e 0B70     		strb	r3, [r1]
 1117              		.loc 1 108 0
 1118 0020 1846     		mov	r0, r3
 1119              	.LVL6:
 1120              		.loc 1 105 0
 1121 0022 1370     		strb	r3, [r2]
 1122              		.loc 1 108 0
 1123 0024 5DF8044B 		ldr	r4, [sp], #4
 1124 0028 7047     		bx	lr
 1125              		.cfi_endproc
 1126              	.LFE223:
 1127              		.size	_test_fail, .-_test_fail
 1128 002a 00BFAFF3 		.section	.text._test_assert,"ax",%progbits
 1128      0080
 1129              		.align	2
 1130              		.p2align 4,,15
 1131              		.global	_test_assert
 1132              		.thumb
 1133              		.thumb_func
 1134              		.type	_test_assert, %function
 1135              	_test_assert:
 1136              	.LFB224:
 1137              		.loc 1 110 0
 1138              		.cfi_startproc
 1139              		@ args = 0, pretend = 0, frame = 0
 1140              		@ frame_needed = 0, uses_anonymous_args = 0
 1141              		@ link register save eliminated.
 1142              	.LVL7:
 1143 0000 10B4     		push	{r4}
 1144              		.cfi_def_cfa_offset 4
 1145              		.cfi_offset 4, -4
 1146              		.loc 1 112 0
 1147 0002 90B9     		cbnz	r0, .L8
ARM GAS  /tmp/ccoNZDVu.s 			page 84


 1148              	.LVL8:
 1149              	.LBB102:
 1150              	.LBB103:
 1151              		.loc 1 104 0
 1152 0004 40F20004 		movw	r4, #:lower16:.LANCHOR1
 1153              		.loc 1 105 0
 1154 0008 40F20002 		movw	r2, #:lower16:.LANCHOR2
 1155              		.loc 1 106 0
 1156 000c 40F20003 		movw	r3, #:lower16:.LANCHOR3
 1157              		.loc 1 104 0
 1158 0010 0120     		movs	r0, #1
 1159              	.LVL9:
 1160 0012 C0F20004 		movt	r4, #:upper16:.LANCHOR1
 1161              		.loc 1 105 0
 1162 0016 C0F20002 		movt	r2, #:upper16:.LANCHOR2
 1163              		.loc 1 106 0
 1164 001a C0F20003 		movt	r3, #:upper16:.LANCHOR3
 1165              		.loc 1 104 0
 1166 001e 2070     		strb	r0, [r4]
 1167              		.loc 1 105 0
 1168 0020 1070     		strb	r0, [r2]
 1169              		.loc 1 106 0
 1170 0022 1960     		str	r1, [r3]
 1171              	.LBE103:
 1172              	.LBE102:
 1173              		.loc 1 115 0
 1174 0024 5DF8044B 		ldr	r4, [sp], #4
 1175 0028 7047     		bx	lr
 1176              	.LVL10:
 1177              	.L8:
 1178              		.loc 1 114 0
 1179 002a 0020     		movs	r0, #0
 1180              	.LVL11:
 1181              		.loc 1 115 0
 1182 002c 5DF8044B 		ldr	r4, [sp], #4
 1183 0030 7047     		bx	lr
 1184              		.cfi_endproc
 1185              	.LFE224:
 1186              		.size	_test_assert, .-_test_assert
 1187 0032 00BFAFF3 		.section	.text._test_assert_sequence,"ax",%progbits
 1187      0080AFF3 
 1187      0080AFF3 
 1187      0080
 1188              		.align	2
 1189              		.p2align 4,,15
 1190              		.global	_test_assert_sequence
 1191              		.thumb
 1192              		.thumb_func
 1193              		.type	_test_assert_sequence, %function
 1194              	_test_assert_sequence:
 1195              	.LFB225:
 1196              		.loc 1 117 0
 1197              		.cfi_startproc
 1198              		@ args = 0, pretend = 0, frame = 0
 1199              		@ frame_needed = 0, uses_anonymous_args = 0
 1200              		@ link register save eliminated.
 1201              	.LVL12:
ARM GAS  /tmp/ccoNZDVu.s 			page 85


 1202 0000 F0B4     		push	{r4, r5, r6, r7}
 1203              		.cfi_def_cfa_offset 16
 1204              		.cfi_offset 4, -16
 1205              		.cfi_offset 5, -12
 1206              		.cfi_offset 6, -8
 1207              		.cfi_offset 7, -4
 1208 0002 40F20006 		movw	r6, #:lower16:.LANCHOR5
 1209              		.loc 1 118 0
 1210 0006 40F20007 		movw	r7, #:lower16:.LANCHOR4
 1211 000a C0F20006 		movt	r6, #:upper16:.LANCHOR5
 1212 000e C0F20007 		movt	r7, #:upper16:.LANCHOR4
 1213 0012 3568     		ldr	r5, [r6]
 1214 0014 3B46     		mov	r3, r7
 1215              		.loc 1 120 0
 1216 0016 05E0     		b	.L10
 1217              	.LVL13:
 1218              	.L13:
 1219              		.loc 1 121 0
 1220 0018 13F8014B 		ldrb	r4, [r3], #1	@ zero_extendqisi2
 1221              	.LVL14:
 1222 001c 10F8012B 		ldrb	r2, [r0], #1	@ zero_extendqisi2
 1223              	.LVL15:
 1224 0020 9442     		cmp	r4, r2
 1225 0022 06D1     		bne	.L14
 1226              	.LVL16:
 1227              	.L10:
 1228              		.loc 1 120 0 discriminator 1
 1229 0024 AB42     		cmp	r3, r5
 1230 0026 F7D3     		bcc	.L13
 1231              		.loc 1 125 0
 1232 0028 0078     		ldrb	r0, [r0]	@ zero_extendqisi2
 1233              	.LVL17:
 1234 002a 10B9     		cbnz	r0, .L14
 1235              	.LBB104:
 1236              	.LBB105:
 1237              		.loc 1 67 0
 1238 002c 3760     		str	r7, [r6]
 1239              	.LBE105:
 1240              	.LBE104:
 1241              		.loc 1 131 0
 1242 002e F0BC     		pop	{r4, r5, r6, r7}
 1243 0030 7047     		bx	lr
 1244              	.LVL18:
 1245              	.L14:
 1246              	.LBB106:
 1247              	.LBB107:
 1248              		.loc 1 104 0
 1249 0032 40F20004 		movw	r4, #:lower16:.LANCHOR1
 1250              		.loc 1 105 0
 1251 0036 40F20002 		movw	r2, #:lower16:.LANCHOR2
 1252              		.loc 1 106 0
 1253 003a 40F20003 		movw	r3, #:lower16:.LANCHOR3
 1254              		.loc 1 104 0
 1255 003e 0120     		movs	r0, #1
 1256 0040 C0F20004 		movt	r4, #:upper16:.LANCHOR1
 1257              		.loc 1 105 0
 1258 0044 C0F20002 		movt	r2, #:upper16:.LANCHOR2
ARM GAS  /tmp/ccoNZDVu.s 			page 86


 1259              		.loc 1 106 0
 1260 0048 C0F20003 		movt	r3, #:upper16:.LANCHOR3
 1261              		.loc 1 104 0
 1262 004c 2070     		strb	r0, [r4]
 1263              		.loc 1 105 0
 1264 004e 1070     		strb	r0, [r2]
 1265              		.loc 1 106 0
 1266 0050 1960     		str	r1, [r3]
 1267              	.LBE107:
 1268              	.LBE106:
 1269              		.loc 1 131 0
 1270 0052 F0BC     		pop	{r4, r5, r6, r7}
 1271 0054 7047     		bx	lr
 1272              		.cfi_endproc
 1273              	.LFE225:
 1274              		.size	_test_assert_sequence, .-_test_assert_sequence
 1275 0056 00BFAFF3 		.section	.text._test_assert_time_window,"ax",%progbits
 1275      0080AFF3 
 1275      0080
 1276              		.align	2
 1277              		.p2align 4,,15
 1278              		.global	_test_assert_time_window
 1279              		.thumb
 1280              		.thumb_func
 1281              		.type	_test_assert_time_window, %function
 1282              	_test_assert_time_window:
 1283              	.LFB226:
 1284              		.loc 1 135 0
 1285              		.cfi_startproc
 1286              		@ args = 0, pretend = 0, frame = 0
 1287              		@ frame_needed = 0, uses_anonymous_args = 0
 1288              		@ link register save eliminated.
 1289              	.LVL19:
 1290              	.LBB108:
 1291              	.LBB109:
 1292              	.LBB110:
 1293              	.LBB111:
 1294              	.LBB112:
 1295              		.file 2 "../../../os/hal/ports/STM32/LLD/TIMv1/hal_st_lld.h"
 1296              		.loc 2 141 0
 1297 0000 4FF08043 		mov	r3, #1073741824
 1298 0004 5B6A     		ldr	r3, [r3, #36]
 1299              	.LVL20:
 1300              	.LBE112:
 1301              	.LBE111:
 1302              	.LBE110:
 1303              	.LBE109:
 1304              	.LBE108:
 1305              	.LBB113:
 1306              	.LBB114:
 1307              	.LBB115:
 1308              		.file 3 "../../../os/rt/include/chvt.h"
 1309              		.loc 3 452 0
 1310 0006 091A     		subs	r1, r1, r0
 1311              	.LVL21:
 1312 0008 1B1A     		subs	r3, r3, r0
 1313              	.LVL22:
ARM GAS  /tmp/ccoNZDVu.s 			page 87


 1314              	.LBE115:
 1315              	.LBE114:
 1316              	.LBE113:
 1317              	.LBB116:
 1318              	.LBB117:
 1319              		.loc 1 112 0
 1320 000a 89B2     		uxth	r1, r1
 1321 000c 9BB2     		uxth	r3, r3
 1322              	.LVL23:
 1323 000e 8B42     		cmp	r3, r1
 1324              	.LBE117:
 1325              	.LBE116:
 1326              		.loc 1 135 0
 1327 0010 10B4     		push	{r4}
 1328              		.cfi_def_cfa_offset 4
 1329              		.cfi_offset 4, -4
 1330              	.LBB121:
 1331              	.LBB120:
 1332              		.loc 1 114 0
 1333 0012 38BF     		it	cc
 1334 0014 0020     		movcc	r0, #0
 1335              	.LVL24:
 1336              		.loc 1 112 0
 1337 0016 0FD3     		bcc	.L16
 1338              	.LVL25:
 1339              	.LBB118:
 1340              	.LBB119:
 1341              		.loc 1 104 0
 1342 0018 40F20004 		movw	r4, #:lower16:.LANCHOR1
 1343              		.loc 1 105 0
 1344 001c 40F20001 		movw	r1, #:lower16:.LANCHOR2
 1345              		.loc 1 106 0
 1346 0020 40F20003 		movw	r3, #:lower16:.LANCHOR3
 1347              		.loc 1 104 0
 1348 0024 0120     		movs	r0, #1
 1349 0026 C0F20004 		movt	r4, #:upper16:.LANCHOR1
 1350              		.loc 1 105 0
 1351 002a C0F20001 		movt	r1, #:upper16:.LANCHOR2
 1352              		.loc 1 106 0
 1353 002e C0F20003 		movt	r3, #:upper16:.LANCHOR3
 1354              		.loc 1 104 0
 1355 0032 2070     		strb	r0, [r4]
 1356              		.loc 1 105 0
 1357 0034 0870     		strb	r0, [r1]
 1358              		.loc 1 106 0
 1359 0036 1A60     		str	r2, [r3]
 1360              	.LVL26:
 1361              	.L16:
 1362              	.LBE119:
 1363              	.LBE118:
 1364              	.LBE120:
 1365              	.LBE121:
 1366              		.loc 1 139 0
 1367 0038 5DF8044B 		ldr	r4, [sp], #4
 1368 003c 7047     		bx	lr
 1369              		.cfi_endproc
 1370              	.LFE226:
ARM GAS  /tmp/ccoNZDVu.s 			page 88


 1371              		.size	_test_assert_time_window, .-_test_assert_time_window
 1372 003e 00BF     		.section	.text.test_printn,"ax",%progbits
 1373              		.align	2
 1374              		.p2align 4,,15
 1375              		.global	test_printn
 1376              		.thumb
 1377              		.thumb_func
 1378              		.type	test_printn, %function
 1379              	test_printn:
 1380              	.LFB227:
 1381              		.loc 1 148 0
 1382              		.cfi_startproc
 1383              		@ args = 0, pretend = 0, frame = 16
 1384              		@ frame_needed = 0, uses_anonymous_args = 0
 1385              	.LVL27:
 1386 0000 70B5     		push	{r4, r5, r6, lr}
 1387              		.cfi_def_cfa_offset 16
 1388              		.cfi_offset 4, -16
 1389              		.cfi_offset 5, -12
 1390              		.cfi_offset 6, -8
 1391              		.cfi_offset 14, -4
 1392 0002 84B0     		sub	sp, sp, #16
 1393              		.cfi_def_cfa_offset 32
 1394              		.loc 1 151 0
 1395 0004 48B3     		cbz	r0, .L26
 1396 0006 0DF10105 		add	r5, sp, #1
 1397              		.loc 1 156 0
 1398 000a 4CF6CD46 		movw	r6, #52429
 1399 000e 2B46     		mov	r3, r5
 1400 0010 CCF6CC46 		movt	r6, 52428
 1401              	.LVL28:
 1402              	.L22:
 1403 0014 A6FB0012 		umull	r1, r2, r6, r0
 1404 0018 D208     		lsrs	r2, r2, #3
 1405 001a 02EB8201 		add	r1, r2, r2, lsl #2
 1406 001e A0EB4101 		sub	r1, r0, r1, lsl #1
 1407 0022 3031     		adds	r1, r1, #48
 1408 0024 C9B2     		uxtb	r1, r1
 1409 0026 03F8011C 		strb	r1, [r3, #-1]
 1410 002a 1C46     		mov	r4, r3
 1411              	.LVL29:
 1412              		.loc 1 155 0
 1413 002c 1046     		mov	r0, r2
 1414 002e 0133     		adds	r3, r3, #1
 1415              	.LVL30:
 1416 0030 002A     		cmp	r2, #0
 1417 0032 EFD1     		bne	.L22
 1418              		.loc 1 157 0 discriminator 1
 1419 0034 6B46     		mov	r3, sp
 1420 0036 9C42     		cmp	r4, r3
 1421 0038 0DD9     		bls	.L18
 1422 003a 40F20006 		movw	r6, #:lower16:.LANCHOR0
 1423 003e C0F20006 		movt	r6, #:upper16:.LANCHOR0
 1424 0042 02E0     		b	.L25
 1425              	.LVL31:
 1426              	.L27:
 1427 0044 14F8021C 		ldrb	r1, [r4, #-2]	@ zero_extendqisi2
ARM GAS  /tmp/ccoNZDVu.s 			page 89


 1428 0048 013C     		subs	r4, r4, #1
 1429              	.LVL32:
 1430              	.L25:
 1431              		.loc 1 158 0
 1432 004a 3068     		ldr	r0, [r6]
 1433              	.LVL33:
 1434 004c 0368     		ldr	r3, [r0]
 1435 004e 9B68     		ldr	r3, [r3, #8]
 1436 0050 9847     		blx	r3
 1437              	.LVL34:
 1438              		.loc 1 157 0
 1439 0052 AC42     		cmp	r4, r5
 1440 0054 F6D1     		bne	.L27
 1441              	.LVL35:
 1442              	.L18:
 1443              		.loc 1 160 0
 1444 0056 04B0     		add	sp, sp, #16
 1445              		@ sp needed
 1446 0058 70BD     		pop	{r4, r5, r6, pc}
 1447              	.LVL36:
 1448              	.L26:
 1449              	.LBB124:
 1450              	.LBB125:
 1451              		.loc 1 152 0
 1452 005a 40F20003 		movw	r3, #:lower16:.LANCHOR0
 1453 005e C0F20003 		movt	r3, #:upper16:.LANCHOR0
 1454 0062 1868     		ldr	r0, [r3]
 1455              	.LVL37:
 1456 0064 3021     		movs	r1, #48
 1457 0066 0368     		ldr	r3, [r0]
 1458 0068 9B68     		ldr	r3, [r3, #8]
 1459 006a 9847     		blx	r3
 1460              	.LVL38:
 1461              	.LBE125:
 1462              	.LBE124:
 1463              		.loc 1 160 0
 1464 006c 04B0     		add	sp, sp, #16
 1465              		@ sp needed
 1466 006e 70BD     		pop	{r4, r5, r6, pc}
 1467              		.cfi_endproc
 1468              	.LFE227:
 1469              		.size	test_printn, .-test_printn
 1470              		.section	.text.test_print,"ax",%progbits
 1471              		.align	2
 1472              		.p2align 4,,15
 1473              		.global	test_print
 1474              		.thumb
 1475              		.thumb_func
 1476              		.type	test_print, %function
 1477              	test_print:
 1478              	.LFB228:
 1479              		.loc 1 169 0
 1480              		.cfi_startproc
 1481              		@ args = 0, pretend = 0, frame = 0
 1482              		@ frame_needed = 0, uses_anonymous_args = 0
 1483              	.LVL39:
 1484 0000 38B5     		push	{r3, r4, r5, lr}
ARM GAS  /tmp/ccoNZDVu.s 			page 90


 1485              		.cfi_def_cfa_offset 16
 1486              		.cfi_offset 3, -16
 1487              		.cfi_offset 4, -12
 1488              		.cfi_offset 5, -8
 1489              		.cfi_offset 14, -4
 1490              		.loc 1 171 0
 1491 0002 0178     		ldrb	r1, [r0]	@ zero_extendqisi2
 1492 0004 61B1     		cbz	r1, .L28
 1493 0006 40F20005 		movw	r5, #:lower16:.LANCHOR0
 1494 000a 0446     		mov	r4, r0
 1495 000c C0F20005 		movt	r5, #:upper16:.LANCHOR0
 1496              	.LVL40:
 1497              	.L31:
 1498              		.loc 1 172 0
 1499 0010 2868     		ldr	r0, [r5]
 1500              	.LVL41:
 1501 0012 0368     		ldr	r3, [r0]
 1502 0014 9B68     		ldr	r3, [r3, #8]
 1503 0016 9847     		blx	r3
 1504              	.LVL42:
 1505              		.loc 1 171 0
 1506 0018 14F8011F 		ldrb	r1, [r4, #1]!	@ zero_extendqisi2
 1507              	.LVL43:
 1508 001c 0029     		cmp	r1, #0
 1509 001e F7D1     		bne	.L31
 1510              	.LVL44:
 1511              	.L28:
 1512 0020 38BD     		pop	{r3, r4, r5, pc}
 1513              		.cfi_endproc
 1514              	.LFE228:
 1515              		.size	test_print, .-test_print
 1516 0022 00BFAFF3 		.section	.text.test_println,"ax",%progbits
 1516      0080AFF3 
 1516      0080AFF3 
 1516      0080
 1517              		.align	2
 1518              		.p2align 4,,15
 1519              		.global	test_println
 1520              		.thumb
 1521              		.thumb_func
 1522              		.type	test_println, %function
 1523              	test_println:
 1524              	.LFB229:
 1525              		.loc 1 182 0
 1526              		.cfi_startproc
 1527              		@ args = 0, pretend = 0, frame = 0
 1528              		@ frame_needed = 0, uses_anonymous_args = 0
 1529              	.LVL45:
 1530 0000 38B5     		push	{r3, r4, r5, lr}
 1531              		.cfi_def_cfa_offset 16
 1532              		.cfi_offset 3, -16
 1533              		.cfi_offset 4, -12
 1534              		.cfi_offset 5, -8
 1535              		.cfi_offset 14, -4
 1536              	.LBB126:
 1537              	.LBB127:
 1538              		.loc 1 171 0
ARM GAS  /tmp/ccoNZDVu.s 			page 91


 1539 0002 0178     		ldrb	r1, [r0]	@ zero_extendqisi2
 1540 0004 40F20005 		movw	r5, #:lower16:.LANCHOR0
 1541 0008 A1B1     		cbz	r1, .L43
 1542 000a 0446     		mov	r4, r0
 1543 000c C0F20005 		movt	r5, #:upper16:.LANCHOR0
 1544              	.LVL46:
 1545              	.L38:
 1546              		.loc 1 172 0
 1547 0010 2868     		ldr	r0, [r5]
 1548              	.LVL47:
 1549 0012 0368     		ldr	r3, [r0]
 1550 0014 9B68     		ldr	r3, [r3, #8]
 1551 0016 9847     		blx	r3
 1552              	.LVL48:
 1553              		.loc 1 171 0
 1554 0018 14F8011F 		ldrb	r1, [r4, #1]!	@ zero_extendqisi2
 1555              	.LVL49:
 1556 001c 0029     		cmp	r1, #0
 1557 001e F7D1     		bne	.L38
 1558              	.LVL50:
 1559              	.L37:
 1560              	.LBE127:
 1561              	.LBE126:
 1562              		.loc 1 185 0
 1563 0020 2868     		ldr	r0, [r5]
 1564 0022 40F20001 		movw	r1, #:lower16:.LC0
 1565 0026 0368     		ldr	r3, [r0]
 1566 0028 C0F20001 		movt	r1, #:upper16:.LC0
 1567 002c 1B68     		ldr	r3, [r3]
 1568 002e 0222     		movs	r2, #2
 1569 0030 9847     		blx	r3
 1570              	.LVL51:
 1571 0032 38BD     		pop	{r3, r4, r5, pc}
 1572              	.LVL52:
 1573              	.L43:
 1574 0034 C0F20005 		movt	r5, #:upper16:.LANCHOR0
 1575 0038 F2E7     		b	.L37
 1576              		.cfi_endproc
 1577              	.LFE229:
 1578              		.size	test_println, .-test_println
 1579 003a 00BFAFF3 		.section	.text.test_emit_token,"ax",%progbits
 1579      0080
 1580              		.align	2
 1581              		.p2align 4,,15
 1582              		.global	test_emit_token
 1583              		.thumb
 1584              		.thumb_func
 1585              		.type	test_emit_token, %function
 1586              	test_emit_token:
 1587              	.LFB230:
 1588              		.loc 1 195 0
 1589              		.cfi_startproc
 1590              		@ args = 0, pretend = 0, frame = 0
 1591              		@ frame_needed = 0, uses_anonymous_args = 0
 1592              		@ link register save eliminated.
 1593              	.LVL53:
 1594              	.LBB128:
ARM GAS  /tmp/ccoNZDVu.s 			page 92


 1595              	.LBB129:
 1596              	.LBB130:
 1597              	.LBB131:
 1598              	.LBB132:
 1599              		.file 4 "../../../os/common/ext/CMSIS/include/cmsis_gcc.h"
 1600              		.loc 4 264 0
 1601 0000 2023     		movs	r3, #32
 1602              	@ 264 "../../../os/common/ext/CMSIS/include/cmsis_gcc.h" 1
 1603 0002 83F31188 		MSR basepri, r3
 1604              	@ 0 "" 2
 1605              		.thumb
 1606              	.LBE132:
 1607              	.LBE131:
 1608              	.LBE130:
 1609              	.LBE129:
 1610              	.LBE128:
 1611              		.loc 1 198 0
 1612 0006 40F20003 		movw	r3, #:lower16:.LANCHOR5
 1613 000a C0F20003 		movt	r3, #:upper16:.LANCHOR5
 1614 000e 1A68     		ldr	r2, [r3]
 1615 0010 0449     		ldr	r1, .L46
 1616 0012 8A42     		cmp	r2, r1
 1617              		.loc 1 199 0
 1618 0014 3EBF     		ittt	cc
 1619 0016 511C     		addcc	r1, r2, #1
 1620 0018 1960     		strcc	r1, [r3]
 1621              	.LVL54:
 1622 001a 1070     		strbcc	r0, [r2]
 1623              	.LBB133:
 1624              	.LBB134:
 1625              	.LBB135:
 1626              	.LBB136:
 1627              	.LBB137:
 1628              	.LBB138:
 1629              		.loc 4 264 0
 1630 001c 0023     		movs	r3, #0
 1631              	@ 264 "../../../os/common/ext/CMSIS/include/cmsis_gcc.h" 1
 1632 001e 83F31188 		MSR basepri, r3
 1633              	@ 0 "" 2
 1634              		.thumb
 1635 0022 7047     		bx	lr
 1636              	.L47:
 1637              		.align	2
 1638              	.L46:
 1639 0024 10000000 		.word	.LANCHOR4+16
 1640              	.LBE138:
 1641              	.LBE137:
 1642              	.LBE136:
 1643              	.LBE135:
 1644              	.LBE134:
 1645              	.LBE133:
 1646              		.cfi_endproc
 1647              	.LFE230:
 1648              		.size	test_emit_token, .-test_emit_token
 1649 0028 AFF30080 		.section	.text.test_emit_token_i,"ax",%progbits
 1649      AFF30080 
 1650              		.align	2
ARM GAS  /tmp/ccoNZDVu.s 			page 93


 1651              		.p2align 4,,15
 1652              		.global	test_emit_token_i
 1653              		.thumb
 1654              		.thumb_func
 1655              		.type	test_emit_token_i, %function
 1656              	test_emit_token_i:
 1657              	.LFB231:
 1658              		.loc 1 210 0
 1659              		.cfi_startproc
 1660              		@ args = 0, pretend = 0, frame = 0
 1661              		@ frame_needed = 0, uses_anonymous_args = 0
 1662              		@ link register save eliminated.
 1663              	.LVL55:
 1664              		.loc 1 212 0
 1665 0000 40F20003 		movw	r3, #:lower16:.LANCHOR5
 1666 0004 C0F20003 		movt	r3, #:upper16:.LANCHOR5
 1667 0008 1A68     		ldr	r2, [r3]
 1668 000a 0349     		ldr	r1, .L50
 1669 000c 8A42     		cmp	r2, r1
 1670              		.loc 1 213 0
 1671 000e 3EBF     		ittt	cc
 1672 0010 511C     		addcc	r1, r2, #1
 1673 0012 1070     		strbcc	r0, [r2]
 1674 0014 1960     		strcc	r1, [r3]
 1675 0016 7047     		bx	lr
 1676              	.L51:
 1677              		.align	2
 1678              	.L50:
 1679 0018 10000000 		.word	.LANCHOR4+16
 1680              		.cfi_endproc
 1681              	.LFE231:
 1682              		.size	test_emit_token_i, .-test_emit_token_i
 1683 001c AFF30080 		.section	.text.test_execute,"ax",%progbits
 1684              		.align	2
 1685              		.p2align 4,,15
 1686              		.global	test_execute
 1687              		.thumb
 1688              		.thumb_func
 1689              		.type	test_execute, %function
 1690              	test_execute:
 1691              	.LFB232:
 1692              		.loc 1 227 0
 1693              		.cfi_startproc
 1694              		@ args = 0, pretend = 0, frame = 16
 1695              		@ frame_needed = 0, uses_anonymous_args = 0
 1696              	.LVL56:
 1697 0000 2DE9F04F 		push	{r4, r5, r6, r7, r8, r9, r10, fp, lr}
 1698              		.cfi_def_cfa_offset 36
 1699              		.cfi_offset 4, -36
 1700              		.cfi_offset 5, -32
 1701              		.cfi_offset 6, -28
 1702              		.cfi_offset 7, -24
 1703              		.cfi_offset 8, -20
 1704              		.cfi_offset 9, -16
 1705              		.cfi_offset 10, -12
 1706              		.cfi_offset 11, -8
 1707              		.cfi_offset 14, -4
ARM GAS  /tmp/ccoNZDVu.s 			page 94


 1708              		.loc 1 230 0
 1709 0004 40F20004 		movw	r4, #:lower16:.LANCHOR0
 1710 0008 C0F20004 		movt	r4, #:upper16:.LANCHOR0
 1711 000c 2060     		str	r0, [r4]
 1712              		.loc 1 231 0
 1713 000e 40F20000 		movw	r0, #:lower16:.LC1
 1714              	.LVL57:
 1715              		.loc 1 227 0
 1716 0012 85B0     		sub	sp, sp, #20
 1717              		.cfi_def_cfa_offset 56
 1718              		.loc 1 231 0
 1719 0014 C0F20000 		movt	r0, #:upper16:.LC1
 1720 0018 FFF7FEFF 		bl	test_println
 1721              	.LVL58:
 1722              		.loc 1 233 0
 1723 001c 40F20000 		movw	r0, #:lower16:.LC2
 1724 0020 C0F20000 		movt	r0, #:upper16:.LC2
 1725 0024 FFF7FEFF 		bl	test_println
 1726              	.LVL59:
 1727              		.loc 1 237 0
 1728 0028 40F20000 		movw	r0, #:lower16:.LC3
 1729 002c C0F20000 		movt	r0, #:upper16:.LC3
 1730 0030 40F20005 		movw	r5, #:lower16:.LC4
 1731 0034 FFF7FEFF 		bl	test_println
 1732              	.LVL60:
 1733 0038 C0F20005 		movt	r5, #:upper16:.LC4
 1734              	.LBB171:
 1735              	.LBB172:
 1736              		.loc 1 171 0
 1737 003c 2A21     		movs	r1, #42
 1738              	.LVL61:
 1739              	.L54:
 1740              		.loc 1 172 0
 1741 003e 2068     		ldr	r0, [r4]
 1742              	.LVL62:
 1743 0040 0368     		ldr	r3, [r0]
 1744 0042 9B68     		ldr	r3, [r3, #8]
 1745 0044 9847     		blx	r3
 1746              	.LVL63:
 1747              		.loc 1 171 0
 1748 0046 15F8011F 		ldrb	r1, [r5, #1]!	@ zero_extendqisi2
 1749              	.LVL64:
 1750 004a 0029     		cmp	r1, #0
 1751 004c F7D1     		bne	.L54
 1752              	.LBE172:
 1753              	.LBE171:
 1754              		.loc 1 239 0
 1755 004e 40F20000 		movw	r0, #:lower16:.LC14
 1756 0052 C0F20000 		movt	r0, #:upper16:.LC14
 1757 0056 40F20005 		movw	r5, #:lower16:.LC15
 1758              	.LVL65:
 1759 005a FFF7FEFF 		bl	test_println
 1760              	.LVL66:
 1761 005e C0F20005 		movt	r5, #:upper16:.LC15
 1762              	.LBB173:
 1763              	.LBB174:
 1764              		.loc 1 171 0
ARM GAS  /tmp/ccoNZDVu.s 			page 95


 1765 0062 2A21     		movs	r1, #42
 1766              	.LVL67:
 1767              	.L87:
 1768              		.loc 1 172 0
 1769 0064 2068     		ldr	r0, [r4]
 1770              	.LVL68:
 1771 0066 0368     		ldr	r3, [r0]
 1772 0068 9B68     		ldr	r3, [r3, #8]
 1773 006a 9847     		blx	r3
 1774              	.LVL69:
 1775              		.loc 1 171 0
 1776 006c 15F8011F 		ldrb	r1, [r5, #1]!	@ zero_extendqisi2
 1777              	.LVL70:
 1778 0070 0029     		cmp	r1, #0
 1779 0072 F7D1     		bne	.L87
 1780              	.LBE174:
 1781              	.LBE173:
 1782              		.loc 1 242 0
 1783 0074 40F20000 		movw	r0, #:lower16:.LC16
 1784 0078 C0F20000 		movt	r0, #:upper16:.LC16
 1785 007c 40F20005 		movw	r5, #:lower16:.LC17
 1786              	.LVL71:
 1787 0080 FFF7FEFF 		bl	test_println
 1788              	.LVL72:
 1789 0084 C0F20005 		movt	r5, #:upper16:.LC17
 1790              	.LBB175:
 1791              	.LBB176:
 1792              		.loc 1 171 0
 1793 0088 2A21     		movs	r1, #42
 1794              	.LVL73:
 1795              	.L88:
 1796              		.loc 1 172 0
 1797 008a 2068     		ldr	r0, [r4]
 1798              	.LVL74:
 1799 008c 0368     		ldr	r3, [r0]
 1800 008e 9B68     		ldr	r3, [r3, #8]
 1801 0090 9847     		blx	r3
 1802              	.LVL75:
 1803              		.loc 1 171 0
 1804 0092 15F8011F 		ldrb	r1, [r5, #1]!	@ zero_extendqisi2
 1805              	.LVL76:
 1806 0096 0029     		cmp	r1, #0
 1807 0098 F7D1     		bne	.L88
 1808              	.LBE176:
 1809              	.LBE175:
 1810              		.loc 1 246 0
 1811 009a 40F20000 		movw	r0, #:lower16:.LC5
 1812 009e C0F20000 		movt	r0, #:upper16:.LC5
 1813 00a2 0191     		str	r1, [sp, #4]
 1814              		.loc 1 255 0
 1815 00a4 40F20007 		movw	r7, #:lower16:test_suite
 1816              		.loc 1 246 0
 1817 00a8 FFF7FEFF 		bl	test_println
 1818              	.LVL77:
 1819              		.loc 1 249 0
 1820 00ac FFF7FEFF 		bl	test_print_port_info
 1821              	.LVL78:
ARM GAS  /tmp/ccoNZDVu.s 			page 96


 1822              		.loc 1 251 0
 1823 00b0 40F20000 		movw	r0, #:lower16:.LC1
 1824 00b4 C0F20000 		movt	r0, #:upper16:.LC1
 1825              		.loc 1 255 0
 1826 00b8 C0F20007 		movt	r7, #:upper16:test_suite
 1827              		.loc 1 251 0
 1828 00bc FFF7FEFF 		bl	test_println
 1829              	.LVL79:
 1830              		.loc 1 253 0
 1831 00c0 40F20002 		movw	r2, #:lower16:.LANCHOR2
 1832 00c4 0199     		ldr	r1, [sp, #4]
 1833              		.loc 1 255 0
 1834 00c6 3B68     		ldr	r3, [r7]
 1835              		.loc 1 253 0
 1836 00c8 C0F20002 		movt	r2, #:upper16:.LANCHOR2
 1837 00cc 0392     		str	r2, [sp, #12]
 1838 00ce 1170     		strb	r1, [r2]
 1839              	.LVL80:
 1840              		.loc 1 255 0
 1841 00d0 002B     		cmp	r3, #0
 1842 00d2 00F0DB80 		beq	.L58
 1843              	.LBB177:
 1844              	.LBB178:
 1845              	.LBB179:
 1846              	.LBB180:
 1847              		.loc 1 67 0
 1848 00d6 40F20005 		movw	r5, #:lower16:.LANCHOR5
 1849              	.LVL81:
 1850 00da 40F20009 		movw	r9, #:lower16:.LANCHOR4
 1851 00de 0437     		adds	r7, r7, #4
 1852              	.LBE180:
 1853              	.LBE179:
 1854              	.LBE178:
 1855              	.LBE177:
 1856              		.loc 1 254 0
 1857 00e0 0291     		str	r1, [sp, #8]
 1858              	.LBB188:
 1859              	.LBB185:
 1860              	.LBB183:
 1861              	.LBB181:
 1862              		.loc 1 67 0
 1863 00e2 C0F20005 		movt	r5, #:upper16:.LANCHOR5
 1864 00e6 C0F20009 		movt	r9, #:upper16:.LANCHOR4
 1865              	.LVL82:
 1866              	.L59:
 1867 00ea 029A     		ldr	r2, [sp, #8]
 1868              	.LBE181:
 1869              	.LBE183:
 1870              	.LBE185:
 1871              	.LBE188:
 1872              	.LBB189:
 1873              	.LBB190:
 1874              		.loc 1 171 0 discriminator 1
 1875 00ec 0026     		movs	r6, #0
 1876              	.LVL83:
 1877              	.LBE190:
 1878              	.LBE189:
ARM GAS  /tmp/ccoNZDVu.s 			page 97


 1879              		.loc 1 257 0 discriminator 1
 1880 00ee 53F82630 		ldr	r3, [r3, r6, lsl #2]
 1881 00f2 0132     		adds	r2, r2, #1
 1882 00f4 0292     		str	r2, [sp, #8]
 1883              	.LVL84:
 1884 00f6 4FEA8608 		lsl	r8, r6, #2
 1885 00fa 002B     		cmp	r3, #0
 1886 00fc 00F0C180 		beq	.L109
 1887              	.LVL85:
 1888              	.L82:
 1889 0100 40F2000A 		movw	r10, #:lower16:.LC6
 1890              		.loc 1 258 0
 1891 0104 FFF7FEFF 		bl	print_line
 1892              	.LVL86:
 1893 0108 C0F2000A 		movt	r10, #:upper16:.LC6
 1894              	.LBB193:
 1895              	.LBB194:
 1896              		.loc 1 171 0
 1897 010c 2D21     		movs	r1, #45
 1898              	.LVL87:
 1899              	.L61:
 1900              		.loc 1 172 0
 1901 010e 2068     		ldr	r0, [r4]
 1902              	.LVL88:
 1903 0110 40F2000B 		movw	fp, #:lower16:.LANCHOR0
 1904 0114 0368     		ldr	r3, [r0]
 1905 0116 C0F2000B 		movt	fp, #:upper16:.LANCHOR0
 1906 011a 9B68     		ldr	r3, [r3, #8]
 1907 011c 9847     		blx	r3
 1908              	.LVL89:
 1909              		.loc 1 171 0
 1910 011e 1AF8011F 		ldrb	r1, [r10, #1]!	@ zero_extendqisi2
 1911              	.LVL90:
 1912 0122 0029     		cmp	r1, #0
 1913 0124 F3D1     		bne	.L61
 1914              	.LBE194:
 1915              	.LBE193:
 1916              		.loc 1 260 0
 1917 0126 0298     		ldr	r0, [sp, #8]
 1918 0128 FFF7FEFF 		bl	test_printn
 1919              	.LVL91:
 1920              	.LBB195:
 1921              	.LBB196:
 1922              		.loc 1 172 0
 1923 012c DBF80000 		ldr	r0, [fp]
 1924              	.LVL92:
 1925 0130 2E21     		movs	r1, #46
 1926 0132 0368     		ldr	r3, [r0]
 1927              	.LBE196:
 1928              	.LBE195:
 1929              		.loc 1 262 0
 1930 0134 0136     		adds	r6, r6, #1
 1931              	.LVL93:
 1932              	.LBB198:
 1933              	.LBB197:
 1934              		.loc 1 172 0
 1935 0136 9B68     		ldr	r3, [r3, #8]
ARM GAS  /tmp/ccoNZDVu.s 			page 98


 1936 0138 9847     		blx	r3
 1937              	.LVL94:
 1938 013a 40F2000B 		movw	fp, #:lower16:.LC18
 1939              	.LBE197:
 1940              	.LBE198:
 1941              		.loc 1 262 0
 1942 013e 3046     		mov	r0, r6
 1943 0140 FFF7FEFF 		bl	test_printn
 1944              	.LVL95:
 1945 0144 C0F2000B 		movt	fp, #:upper16:.LC18
 1946              	.LBB199:
 1947              	.LBB200:
 1948              		.loc 1 171 0
 1949 0148 2021     		movs	r1, #32
 1950              	.LVL96:
 1951              	.L89:
 1952              		.loc 1 172 0
 1953 014a 2068     		ldr	r0, [r4]
 1954              	.LVL97:
 1955 014c 0268     		ldr	r2, [r0]
 1956 014e 9268     		ldr	r2, [r2, #8]
 1957 0150 9047     		blx	r2
 1958              	.LVL98:
 1959              		.loc 1 171 0
 1960 0152 1BF8011F 		ldrb	r1, [fp, #1]!	@ zero_extendqisi2
 1961              	.LVL99:
 1962 0156 0029     		cmp	r1, #0
 1963 0158 F7D1     		bne	.L89
 1964              	.LBE200:
 1965              	.LBE199:
 1966              		.loc 1 264 0
 1967 015a 57F8043C 		ldr	r3, [r7, #-4]
 1968 015e 53F80830 		ldr	r3, [r3, r8]
 1969 0162 1B68     		ldr	r3, [r3]
 1970              	.LVL100:
 1971              	.LBB201:
 1972              	.LBB202:
 1973              		.loc 1 171 0
 1974 0164 1978     		ldrb	r1, [r3]	@ zero_extendqisi2
 1975 0166 9B46     		mov	fp, r3
 1976              	.LVL101:
 1977 0168 39B1     		cbz	r1, .L66
 1978              	.LVL102:
 1979              	.L67:
 1980              		.loc 1 172 0
 1981 016a 2068     		ldr	r0, [r4]
 1982              	.LVL103:
 1983 016c 0268     		ldr	r2, [r0]
 1984 016e 9268     		ldr	r2, [r2, #8]
 1985 0170 9047     		blx	r2
 1986              	.LVL104:
 1987              		.loc 1 171 0
 1988 0172 1BF8011F 		ldrb	r1, [fp, #1]!	@ zero_extendqisi2
 1989              	.LVL105:
 1990 0176 0029     		cmp	r1, #0
 1991 0178 F7D1     		bne	.L67
 1992              	.LVL106:
ARM GAS  /tmp/ccoNZDVu.s 			page 99


 1993              	.L66:
 1994              	.LBE202:
 1995              	.LBE201:
 1996              		.loc 1 265 0
 1997 017a 40F20000 		movw	r0, #:lower16:.LC7
 1998 017e C0F20000 		movt	r0, #:upper16:.LC7
 1999 0182 FFF7FEFF 		bl	test_println
 2000              	.LVL107:
 2001              	.LBB203:
 2002              	.LBB204:
 2003              		.file 5 "../../../os/hal/osal/rt/osal.h"
 2004              		.loc 5 673 0
 2005 0186 C820     		movs	r0, #200
 2006 0188 FFF7FEFF 		bl	chThdSleep
 2007              	.LVL108:
 2008              	.LBE204:
 2009              	.LBE203:
 2010              		.loc 1 269 0
 2011 018c 57F8042C 		ldr	r2, [r7, #-4]
 2012              	.LBB205:
 2013              	.LBB186:
 2014              		.loc 1 81 0
 2015 0190 40F2000B 		movw	fp, #:lower16:.LANCHOR1
 2016              	.LBE186:
 2017              	.LBE205:
 2018              		.loc 1 269 0
 2019 0194 52F80880 		ldr	r8, [r2, r8]
 2020              	.LVL109:
 2021              	.LBB206:
 2022              	.LBB187:
 2023              		.loc 1 81 0
 2024 0198 C0F2000B 		movt	fp, #:upper16:.LANCHOR1
 2025              		.loc 1 83 0
 2026 019c D8F80420 		ldr	r2, [r8, #4]
 2027              		.loc 1 81 0
 2028 01a0 0021     		movs	r1, #0
 2029              	.LBB184:
 2030              	.LBB182:
 2031              		.loc 1 67 0
 2032 01a2 C5F80090 		str	r9, [r5]
 2033              	.LBE182:
 2034              	.LBE184:
 2035              		.loc 1 81 0
 2036 01a6 8BF80010 		strb	r1, [fp]
 2037              		.loc 1 83 0
 2038 01aa 02B1     		cbz	r2, .L65
 2039              		.loc 1 84 0
 2040 01ac 9047     		blx	r2
 2041              	.LVL110:
 2042              	.L65:
 2043              		.loc 1 85 0
 2044 01ae D8F80C20 		ldr	r2, [r8, #12]
 2045 01b2 9047     		blx	r2
 2046              	.LVL111:
 2047              		.loc 1 86 0
 2048 01b4 D8F80820 		ldr	r2, [r8, #8]
 2049 01b8 02B1     		cbz	r2, .L68
ARM GAS  /tmp/ccoNZDVu.s 			page 100


 2050              		.loc 1 87 0
 2051 01ba 9047     		blx	r2
 2052              	.LVL112:
 2053              	.L68:
 2054              	.LBE187:
 2055              	.LBE206:
 2056              		.loc 1 270 0
 2057 01bc 9BF80030 		ldrb	r3, [fp]	@ zero_extendqisi2
 2058 01c0 002B     		cmp	r3, #0
 2059 01c2 00F08680 		beq	.L69
 2060 01c6 40F20008 		movw	r8, #:lower16:.LC8
 2061              	.LVL113:
 2062 01ca C0F20008 		movt	r8, #:upper16:.LC8
 2063              	.LBB207:
 2064              	.LBB208:
 2065              		.loc 1 171 0
 2066 01ce 2D21     		movs	r1, #45
 2067              	.L71:
 2068              	.LVL114:
 2069              		.loc 1 172 0
 2070 01d0 2068     		ldr	r0, [r4]
 2071              	.LVL115:
 2072 01d2 0368     		ldr	r3, [r0]
 2073 01d4 9B68     		ldr	r3, [r3, #8]
 2074 01d6 9847     		blx	r3
 2075              	.LVL116:
 2076              		.loc 1 171 0
 2077 01d8 18F8011F 		ldrb	r1, [r8, #1]!	@ zero_extendqisi2
 2078              	.LVL117:
 2079 01dc 0029     		cmp	r1, #0
 2080 01de F7D1     		bne	.L71
 2081              	.LBE208:
 2082              	.LBE207:
 2083              		.loc 1 272 0
 2084 01e0 40F20003 		movw	r3, #:lower16:.LANCHOR6
 2085 01e4 C0F20003 		movt	r3, #:upper16:.LANCHOR6
 2086 01e8 1868     		ldr	r0, [r3]
 2087 01ea 40F20008 		movw	r8, #:lower16:.LC19
 2088              	.LVL118:
 2089 01ee FFF7FEFF 		bl	test_printn
 2090              	.LVL119:
 2091 01f2 C0F20008 		movt	r8, #:upper16:.LC19
 2092              	.LBB209:
 2093              	.LBB191:
 2094              		.loc 1 171 0
 2095 01f6 2021     		movs	r1, #32
 2096              	.LVL120:
 2097              	.L90:
 2098              		.loc 1 172 0
 2099 01f8 2068     		ldr	r0, [r4]
 2100              	.LVL121:
 2101 01fa 0368     		ldr	r3, [r0]
 2102 01fc 9B68     		ldr	r3, [r3, #8]
 2103 01fe 9847     		blx	r3
 2104              	.LVL122:
 2105              		.loc 1 171 0
 2106 0200 18F8011F 		ldrb	r1, [r8, #1]!	@ zero_extendqisi2
ARM GAS  /tmp/ccoNZDVu.s 			page 101


 2107              	.LVL123:
 2108 0204 0029     		cmp	r1, #0
 2109 0206 F7D1     		bne	.L90
 2110              	.LVL124:
 2111              	.LBE191:
 2112              	.LBE209:
 2113              	.LBB210:
 2114              	.LBB211:
 2115              		.loc 1 73 0
 2116 0208 2B68     		ldr	r3, [r5]
 2117 020a 4B45     		cmp	r3, r9
 2118 020c 88BF     		it	hi
 2119 020e DFF8E880 		ldrhi	r8, .L111
 2120              	.LVL125:
 2121 0212 0AD9     		bls	.L75
 2122              	.LVL126:
 2123              	.L76:
 2124              		.loc 1 74 0
 2125 0214 2068     		ldr	r0, [r4]
 2126 0216 18F8011C 		ldrb	r1, [r8, #-1]	@ zero_extendqisi2
 2127 021a 0368     		ldr	r3, [r0]
 2128 021c 9B68     		ldr	r3, [r3, #8]
 2129 021e 9847     		blx	r3
 2130              	.LVL127:
 2131              		.loc 1 73 0
 2132 0220 2B68     		ldr	r3, [r5]
 2133              	.LVL128:
 2134 0222 9845     		cmp	r8, r3
 2135 0224 08F10108 		add	r8, r8, #1
 2136              	.LVL129:
 2137 0228 F4D3     		bcc	.L76
 2138              	.LVL130:
 2139              	.L75:
 2140 022a 40F20008 		movw	r8, #:lower16:.LC9
 2141 022e C0F20008 		movt	r8, #:upper16:.LC9
 2142              	.LBE211:
 2143              	.LBE210:
 2144              	.LBB212:
 2145              	.LBB192:
 2146              		.loc 1 171 0
 2147 0232 5D21     		movs	r1, #93
 2148              	.L74:
 2149              	.LVL131:
 2150              	.LBE192:
 2151              	.LBE212:
 2152              	.LBB213:
 2153              	.LBB214:
 2154              		.loc 1 172 0
 2155 0234 2068     		ldr	r0, [r4]
 2156              	.LVL132:
 2157 0236 0368     		ldr	r3, [r0]
 2158 0238 9B68     		ldr	r3, [r3, #8]
 2159 023a 9847     		blx	r3
 2160              	.LVL133:
 2161              		.loc 1 171 0
 2162 023c 18F8011F 		ldrb	r1, [r8, #1]!	@ zero_extendqisi2
 2163              	.LVL134:
ARM GAS  /tmp/ccoNZDVu.s 			page 102


 2164 0240 0029     		cmp	r1, #0
 2165 0242 F7D1     		bne	.L74
 2166              	.LBE214:
 2167              	.LBE213:
 2168              		.loc 1 276 0
 2169 0244 40F20003 		movw	r3, #:lower16:.LANCHOR3
 2170 0248 C0F20003 		movt	r3, #:upper16:.LANCHOR3
 2171 024c 1B68     		ldr	r3, [r3]
 2172              	.LVL135:
 2173              	.LBB215:
 2174              	.LBB216:
 2175              		.loc 1 171 0
 2176 024e 1978     		ldrb	r1, [r3]	@ zero_extendqisi2
 2177 0250 9846     		mov	r8, r3
 2178              	.LVL136:
 2179 0252 39B1     		cbz	r1, .L80
 2180              	.LVL137:
 2181              	.L81:
 2182              		.loc 1 172 0
 2183 0254 2068     		ldr	r0, [r4]
 2184              	.LVL138:
 2185 0256 0368     		ldr	r3, [r0]
 2186 0258 9B68     		ldr	r3, [r3, #8]
 2187 025a 9847     		blx	r3
 2188              	.LVL139:
 2189              		.loc 1 171 0
 2190 025c 18F8011F 		ldrb	r1, [r8, #1]!	@ zero_extendqisi2
 2191              	.LVL140:
 2192 0260 0029     		cmp	r1, #0
 2193 0262 F7D1     		bne	.L81
 2194              	.LVL141:
 2195              	.L80:
 2196              	.LBE216:
 2197              	.LBE215:
 2198              		.loc 1 277 0
 2199 0264 40F20000 		movw	r0, #:lower16:.LC10
 2200 0268 C0F20000 		movt	r0, #:upper16:.LC10
 2201 026c FFF7FEFF 		bl	test_println
 2202              	.LVL142:
 2203              	.L79:
 2204 0270 57F8043C 		ldr	r3, [r7, #-4]
 2205              	.LVL143:
 2206 0274 4FEA8608 		lsl	r8, r6, #2
 2207              		.loc 1 257 0 discriminator 1
 2208 0278 53F82630 		ldr	r3, [r3, r6, lsl #2]
 2209 027c 002B     		cmp	r3, #0
 2210 027e 7FF43FAF 		bne	.L82
 2211              	.LVL144:
 2212              	.L109:
 2213              		.loc 1 255 0
 2214 0282 57F8043B 		ldr	r3, [r7], #4
 2215 0286 002B     		cmp	r3, #0
 2216 0288 7FF42FAF 		bne	.L59
 2217              	.LVL145:
 2218              	.L58:
 2219              		.loc 1 285 0
 2220 028c FFF7FEFF 		bl	print_line
ARM GAS  /tmp/ccoNZDVu.s 			page 103


 2221              	.LVL146:
 2222              		.loc 1 286 0
 2223 0290 40F20000 		movw	r0, #:lower16:.LC1
 2224 0294 C0F20000 		movt	r0, #:upper16:.LC1
 2225 0298 40F20005 		movw	r5, #:lower16:.LC20
 2226 029c FFF7FEFF 		bl	test_println
 2227              	.LVL147:
 2228 02a0 C0F20005 		movt	r5, #:upper16:.LC20
 2229              	.LBB217:
 2230              	.LBB218:
 2231              		.loc 1 171 0
 2232 02a4 4621     		movs	r1, #70
 2233              	.LVL148:
 2234              	.L91:
 2235              		.loc 1 172 0
 2236 02a6 2068     		ldr	r0, [r4]
 2237              	.LVL149:
 2238 02a8 0368     		ldr	r3, [r0]
 2239 02aa 9B68     		ldr	r3, [r3, #8]
 2240 02ac 9847     		blx	r3
 2241              	.LVL150:
 2242              		.loc 1 171 0
 2243 02ae 15F8011F 		ldrb	r1, [r5, #1]!	@ zero_extendqisi2
 2244              	.LVL151:
 2245 02b2 0029     		cmp	r1, #0
 2246 02b4 F7D1     		bne	.L91
 2247              	.LBE218:
 2248              	.LBE217:
 2249              		.loc 1 288 0
 2250 02b6 039A     		ldr	r2, [sp, #12]
 2251 02b8 1378     		ldrb	r3, [r2]	@ zero_extendqisi2
 2252 02ba 8BB9     		cbnz	r3, .L110
 2253              		.loc 1 291 0
 2254 02bc 40F20000 		movw	r0, #:lower16:.LC13
 2255 02c0 C0F20000 		movt	r0, #:upper16:.LC13
 2256 02c4 FFF7FEFF 		bl	test_println
 2257              	.LVL152:
 2258              		.loc 1 297 0
 2259 02c8 039B     		ldr	r3, [sp, #12]
 2260 02ca 1878     		ldrb	r0, [r3]	@ zero_extendqisi2
 2261              		.loc 1 298 0
 2262 02cc 05B0     		add	sp, sp, #20
 2263              		@ sp needed
 2264 02ce BDE8F08F 		pop	{r4, r5, r6, r7, r8, r9, r10, fp, pc}
 2265              	.LVL153:
 2266              	.L69:
 2267              		.loc 1 280 0
 2268 02d2 40F20000 		movw	r0, #:lower16:.LC11
 2269 02d6 C0F20000 		movt	r0, #:upper16:.LC11
 2270 02da FFF7FEFF 		bl	test_println
 2271              	.LVL154:
 2272 02de C7E7     		b	.L79
 2273              	.LVL155:
 2274              	.L110:
 2275              		.loc 1 289 0
 2276 02e0 40F20000 		movw	r0, #:lower16:.LC12
 2277 02e4 C0F20000 		movt	r0, #:upper16:.LC12
ARM GAS  /tmp/ccoNZDVu.s 			page 104


 2278 02e8 FFF7FEFF 		bl	test_println
 2279              	.LVL156:
 2280              		.loc 1 297 0
 2281 02ec 039B     		ldr	r3, [sp, #12]
 2282 02ee 1878     		ldrb	r0, [r3]	@ zero_extendqisi2
 2283              		.loc 1 298 0
 2284 02f0 05B0     		add	sp, sp, #20
 2285              		@ sp needed
 2286 02f2 BDE8F08F 		pop	{r4, r5, r6, r7, r8, r9, r10, fp, pc}
 2287              	.LVL157:
 2288              	.L112:
 2289 02f6 00BF     		.align	2
 2290              	.L111:
 2291 02f8 01000000 		.word	.LANCHOR4+1
 2292              		.cfi_endproc
 2293              	.LFE232:
 2294              		.size	test_execute, .-test_execute
 2295              		.global	test_global_fail
 2296              		.global	test_step
 2297 02fc AFF30080 		.section	.bss.test_failure_message,"aw",%nobits
 2298              		.align	2
 2299              		.set	.LANCHOR3,. + 0
 2300              		.type	test_failure_message, %object
 2301              		.size	test_failure_message, 4
 2302              	test_failure_message:
 2303 0000 00000000 		.space	4
 2304              		.section	.bss.test_local_fail,"aw",%nobits
 2305              		.set	.LANCHOR1,. + 0
 2306              		.type	test_local_fail, %object
 2307              		.size	test_local_fail, 1
 2308              	test_local_fail:
 2309 0000 00       		.space	1
 2310              		.section	.rodata.str1.4,"aMS",%progbits,1
 2311              		.align	2
 2312              	.LC0:
 2313 0000 0D0A00   		.ascii	"\015\012\000"
 2314 0003 00       		.space	1
 2315              	.LC1:
 2316 0004 00       		.ascii	"\000"
 2317 0005 000000   		.space	3
 2318              	.LC2:
 2319 0008 2A2A2A20 		.ascii	"*** ChibiOS/RT Test Suite\000"
 2319      43686962 
 2319      694F532F 
 2319      52542054 
 2319      65737420 
 2320 0022 0000     		.space	2
 2321              	.LC3:
 2322 0024 2A2A2A00 		.ascii	"***\000"
 2323              	.LC4:
 2324 0028 2A2A2A20 		.ascii	"*** Compiled:     \000"
 2324      436F6D70 
 2324      696C6564 
 2324      3A202020 
 2324      202000
 2325 003b 00       		.space	1
 2326              	.LC5:
ARM GAS  /tmp/ccoNZDVu.s 			page 105


 2327 003c 53542053 		.ascii	"ST STM32VL-Discovery\000"
 2327      544D3332 
 2327      564C2D44 
 2327      6973636F 
 2327      76657279 
 2328 0051 000000   		.space	3
 2329              	.LC6:
 2330 0054 2D2D2D20 		.ascii	"--- Test Case \000"
 2330      54657374 
 2330      20436173 
 2330      652000
 2331 0063 00       		.space	1
 2332              	.LC7:
 2333 0064 2900     		.ascii	")\000"
 2334 0066 0000     		.space	2
 2335              	.LC8:
 2336 0068 2D2D2D20 		.ascii	"--- Result: FAILURE (#\000"
 2336      52657375 
 2336      6C743A20 
 2336      4641494C 
 2336      55524520 
 2337 007f 00       		.space	1
 2338              	.LC9:
 2339 0080 5D202200 		.ascii	"] \"\000"
 2340              	.LC10:
 2341 0084 222900   		.ascii	"\")\000"
 2342 0087 00       		.space	1
 2343              	.LC11:
 2344 0088 2D2D2D20 		.ascii	"--- Result: SUCCESS\000"
 2344      52657375 
 2344      6C743A20 
 2344      53554343 
 2344      45535300 
 2345              	.LC12:
 2346 009c 4641494C 		.ascii	"FAILURE\000"
 2346      55524500 
 2347              	.LC13:
 2348 00a4 53554343 		.ascii	"SUCCESS\000"
 2348      45535300 
 2349              	.LC14:
 2350 00ac 4E6F7620 		.ascii	"Nov 26 2017 - 19:02:47\000"
 2350      32362032 
 2350      30313720 
 2350      2D203139 
 2350      3A30323A 
 2351 00c3 00       		.space	1
 2352              	.LC15:
 2353 00c4 2A2A2A20 		.ascii	"*** Platform:     \000"
 2353      506C6174 
 2353      666F726D 
 2353      3A202020 
 2353      202000
 2354 00d7 00       		.space	1
 2355              	.LC16:
 2356 00d8 53544D33 		.ascii	"STM32F100 Value Line Medium Density\000"
 2356      32463130 
 2356      30205661 
ARM GAS  /tmp/ccoNZDVu.s 			page 106


 2356      6C756520 
 2356      4C696E65 
 2357              	.LC17:
 2358 00fc 2A2A2A20 		.ascii	"*** Test Board:   \000"
 2358      54657374 
 2358      20426F61 
 2358      72643A20 
 2358      202000
 2359 010f 00       		.space	1
 2360              	.LC18:
 2361 0110 202800   		.ascii	" (\000"
 2362 0113 00       		.space	1
 2363              	.LC19:
 2364 0114 205B00   		.ascii	" [\000"
 2365 0117 00       		.space	1
 2366              	.LC20:
 2367 0118 46696E61 		.ascii	"Final result: \000"
 2367      6C207265 
 2367      73756C74 
 2367      3A2000
 2368 0127 00       		.section	.bss.test_chp,"aw",%nobits
 2369              		.align	2
 2370              		.set	.LANCHOR0,. + 0
 2371              		.type	test_chp, %object
 2372              		.size	test_chp, 4
 2373              	test_chp:
 2374 0000 00000000 		.space	4
 2375              		.section	.bss.test_tokp,"aw",%nobits
 2376              		.align	2
 2377              		.set	.LANCHOR5,. + 0
 2378              		.type	test_tokp, %object
 2379              		.size	test_tokp, 4
 2380              	test_tokp:
 2381 0000 00000000 		.space	4
 2382              		.section	.bss.test_step,"aw",%nobits
 2383              		.align	2
 2384              		.set	.LANCHOR6,. + 0
 2385              		.type	test_step, %object
 2386              		.size	test_step, 4
 2387              	test_step:
 2388 0000 00000000 		.space	4
 2389              		.section	.bss.test_tokens_buffer,"aw",%nobits
 2390              		.align	2
 2391              		.set	.LANCHOR4,. + 0
 2392              		.type	test_tokens_buffer, %object
 2393              		.size	test_tokens_buffer, 16
 2394              	test_tokens_buffer:
 2395 0000 00000000 		.space	16
 2395      00000000 
 2395      00000000 
 2395      00000000 
 2396              		.section	.bss.test_global_fail,"aw",%nobits
 2397              		.set	.LANCHOR2,. + 0
 2398              		.type	test_global_fail, %object
 2399              		.size	test_global_fail, 1
 2400              	test_global_fail:
 2401 0000 00       		.space	1
ARM GAS  /tmp/ccoNZDVu.s 			page 107


 2402              		.text
 2403              	.Letext0:
 2404              		.file 6 "/home/julian/MEGA/semestre_ix/Embebidos/arm-2013.11/lib/gcc/arm-none-eabi/4.8.1/include/s
 2405              		.file 7 "/home/julian/MEGA/semestre_ix/Embebidos/arm-2013.11/arm-none-eabi/include/stdint.h"
 2406              		.file 8 "../../../os/common/ports/ARMCMx/compilers/GCC/chtypes.h"
 2407              		.file 9 "../../../os/rt/include/chsystypes.h"
 2408              		.file 10 "../../../os/rt/include/chschd.h"
 2409              		.file 11 "../../../os/common/ports/ARMCMx/chcore.h"
 2410              		.file 12 "../../../os/common/ports/ARMCMx/chcore_v7m.h"
 2411              		.file 13 "../../../os/hal/ports/STM32/LLD/TIMv1/stm32_tim.h"
 2412              		.file 14 "../../../os/rt/include/chsem.h"
 2413              		.file 15 "../../../os/rt/include/chmtx.h"
 2414              		.file 16 "../../../os/hal/include/hal_streams.h"
 2415              		.file 17 "../../../test/lib/ch_test.h"
 2416              		.file 18 "../../../os/common/ports/ARMCMx/chcore_timer.h"
 2417              		.file 19 "../../../os/rt/include/chsys.h"
 2418              		.file 20 "../../../os/common/ext/CMSIS/include/core_cm3.h"
 2419              		.file 21 "../../../test/rt/source/test/test_root.h"
 2420              		.file 22 "../../../os/rt/include/chthreads.h"
 2421              		.section	.debug_info,"",%progbits
 2422              	.Ldebug_info0:
 2423 0000 8F120000 		.4byte	0x128f
 2424 0004 0400     		.2byte	0x4
 2425 0006 00000000 		.4byte	.Ldebug_abbrev0
 2426 000a 04       		.byte	0x4
 2427 000b 01       		.uleb128 0x1
 2428 000c 14060000 		.4byte	.LASF149
 2429 0010 01       		.byte	0x1
 2430 0011 06070000 		.4byte	.LASF150
 2431 0015 EC040000 		.4byte	.LASF151
 2432 0019 98000000 		.4byte	.Ldebug_ranges0+0x98
 2433 001d 00000000 		.4byte	0
 2434 0021 00000000 		.4byte	.Ldebug_line0
 2435 0025 02       		.uleb128 0x2
 2436 0026 04       		.byte	0x4
 2437 0027 05       		.byte	0x5
 2438 0028 696E7400 		.ascii	"int\000"
 2439 002c 03       		.uleb128 0x3
 2440 002d 12000000 		.4byte	.LASF2
 2441 0031 06       		.byte	0x6
 2442 0032 D4       		.byte	0xd4
 2443 0033 37000000 		.4byte	0x37
 2444 0037 04       		.uleb128 0x4
 2445 0038 04       		.byte	0x4
 2446 0039 07       		.byte	0x7
 2447 003a 27020000 		.4byte	.LASF0
 2448 003e 04       		.uleb128 0x4
 2449 003f 01       		.byte	0x1
 2450 0040 06       		.byte	0x6
 2451 0041 15010000 		.4byte	.LASF1
 2452 0045 03       		.uleb128 0x3
 2453 0046 E3060000 		.4byte	.LASF3
 2454 004a 07       		.byte	0x7
 2455 004b 2A       		.byte	0x2a
 2456 004c 50000000 		.4byte	0x50
 2457 0050 04       		.uleb128 0x4
 2458 0051 01       		.byte	0x1
ARM GAS  /tmp/ccoNZDVu.s 			page 108


 2459 0052 08       		.byte	0x8
 2460 0053 D6030000 		.4byte	.LASF4
 2461 0057 04       		.uleb128 0x4
 2462 0058 02       		.byte	0x2
 2463 0059 05       		.byte	0x5
 2464 005a EC030000 		.4byte	.LASF5
 2465 005e 03       		.uleb128 0x3
 2466 005f A3010000 		.4byte	.LASF6
 2467 0063 07       		.byte	0x7
 2468 0064 36       		.byte	0x36
 2469 0065 69000000 		.4byte	0x69
 2470 0069 04       		.uleb128 0x4
 2471 006a 02       		.byte	0x2
 2472 006b 07       		.byte	0x7
 2473 006c AB050000 		.4byte	.LASF7
 2474 0070 03       		.uleb128 0x3
 2475 0071 CE030000 		.4byte	.LASF8
 2476 0075 07       		.byte	0x7
 2477 0076 4F       		.byte	0x4f
 2478 0077 7B000000 		.4byte	0x7b
 2479 007b 04       		.uleb128 0x4
 2480 007c 04       		.byte	0x4
 2481 007d 05       		.byte	0x5
 2482 007e 60010000 		.4byte	.LASF9
 2483 0082 03       		.uleb128 0x3
 2484 0083 81040000 		.4byte	.LASF10
 2485 0087 07       		.byte	0x7
 2486 0088 50       		.byte	0x50
 2487 0089 8D000000 		.4byte	0x8d
 2488 008d 04       		.uleb128 0x4
 2489 008e 04       		.byte	0x4
 2490 008f 07       		.byte	0x7
 2491 0090 B3040000 		.4byte	.LASF11
 2492 0094 04       		.uleb128 0x4
 2493 0095 08       		.byte	0x8
 2494 0096 05       		.byte	0x5
 2495 0097 95010000 		.4byte	.LASF12
 2496 009b 03       		.uleb128 0x3
 2497 009c 2B000000 		.4byte	.LASF13
 2498 00a0 07       		.byte	0x7
 2499 00a1 78       		.byte	0x78
 2500 00a2 A6000000 		.4byte	0xa6
 2501 00a6 04       		.uleb128 0x4
 2502 00a7 08       		.byte	0x8
 2503 00a8 07       		.byte	0x7
 2504 00a9 65000000 		.4byte	.LASF14
 2505 00ad 03       		.uleb128 0x3
 2506 00ae 64070000 		.4byte	.LASF15
 2507 00b2 08       		.byte	0x8
 2508 00b3 3C       		.byte	0x3c
 2509 00b4 45000000 		.4byte	0x45
 2510 00b8 03       		.uleb128 0x3
 2511 00b9 69010000 		.4byte	.LASF16
 2512 00bd 08       		.byte	0x8
 2513 00be 3D       		.byte	0x3d
 2514 00bf 45000000 		.4byte	0x45
 2515 00c3 03       		.uleb128 0x3
ARM GAS  /tmp/ccoNZDVu.s 			page 109


 2516 00c4 93030000 		.4byte	.LASF17
 2517 00c8 08       		.byte	0x8
 2518 00c9 3E       		.byte	0x3e
 2519 00ca 45000000 		.4byte	0x45
 2520 00ce 03       		.uleb128 0x3
 2521 00cf B0030000 		.4byte	.LASF18
 2522 00d3 08       		.byte	0x8
 2523 00d4 40       		.byte	0x40
 2524 00d5 82000000 		.4byte	0x82
 2525 00d9 03       		.uleb128 0x3
 2526 00da 80020000 		.4byte	.LASF19
 2527 00de 08       		.byte	0x8
 2528 00df 41       		.byte	0x41
 2529 00e0 70000000 		.4byte	0x70
 2530 00e4 03       		.uleb128 0x3
 2531 00e5 C0020000 		.4byte	.LASF20
 2532 00e9 08       		.byte	0x8
 2533 00ea 43       		.byte	0x43
 2534 00eb 82000000 		.4byte	0x82
 2535 00ef 03       		.uleb128 0x3
 2536 00f0 0E020000 		.4byte	.LASF21
 2537 00f4 08       		.byte	0x8
 2538 00f5 45       		.byte	0x45
 2539 00f6 70000000 		.4byte	0x70
 2540 00fa 03       		.uleb128 0x3
 2541 00fb 6F050000 		.4byte	.LASF22
 2542 00ff 09       		.byte	0x9
 2543 0100 35       		.byte	0x35
 2544 0101 5E000000 		.4byte	0x5e
 2545 0105 03       		.uleb128 0x3
 2546 0106 49050000 		.4byte	.LASF23
 2547 010a 09       		.byte	0x9
 2548 010b 3F       		.byte	0x3f
 2549 010c 10010000 		.4byte	0x110
 2550 0110 05       		.uleb128 0x5
 2551 0111 6B020000 		.4byte	.LASF41
 2552 0115 44       		.byte	0x44
 2553 0116 0A       		.byte	0xa
 2554 0117 9A       		.byte	0x9a
 2555 0118 EE010000 		.4byte	0x1ee
 2556 011c 06       		.uleb128 0x6
 2557 011d 5A020000 		.4byte	.LASF24
 2558 0121 0A       		.byte	0xa
 2559 0122 9B       		.byte	0x9b
 2560 0123 23020000 		.4byte	0x223
 2561 0127 00       		.byte	0
 2562 0128 06       		.uleb128 0x6
 2563 0129 6C030000 		.4byte	.LASF25
 2564 012d 0A       		.byte	0xa
 2565 012e 9C       		.byte	0x9c
 2566 012f CE000000 		.4byte	0xce
 2567 0133 08       		.byte	0x8
 2568 0134 07       		.uleb128 0x7
 2569 0135 63747800 		.ascii	"ctx\000"
 2570 0139 0A       		.byte	0xa
 2571 013a 9D       		.byte	0x9d
 2572 013b 34040000 		.4byte	0x434
ARM GAS  /tmp/ccoNZDVu.s 			page 110


 2573 013f 0C       		.byte	0xc
 2574 0140 06       		.uleb128 0x6
 2575 0141 F9050000 		.4byte	.LASF26
 2576 0145 0A       		.byte	0xa
 2577 0146 9F       		.byte	0x9f
 2578 0147 F9010000 		.4byte	0x1f9
 2579 014b 10       		.byte	0x10
 2580 014c 06       		.uleb128 0x6
 2581 014d D6040000 		.4byte	.LASF27
 2582 0151 0A       		.byte	0xa
 2583 0152 A0       		.byte	0xa0
 2584 0153 F9010000 		.4byte	0x1f9
 2585 0157 14       		.byte	0x14
 2586 0158 06       		.uleb128 0x6
 2587 0159 55020000 		.4byte	.LASF28
 2588 015d 0A       		.byte	0xa
 2589 015e A7       		.byte	0xa7
 2590 015f BB060000 		.4byte	0x6bb
 2591 0163 18       		.byte	0x18
 2592 0164 06       		.uleb128 0x6
 2593 0165 C5040000 		.4byte	.LASF29
 2594 0169 0A       		.byte	0xa
 2595 016a B0       		.byte	0xb0
 2596 016b CD060000 		.4byte	0x6cd
 2597 016f 1C       		.byte	0x1c
 2598 0170 06       		.uleb128 0x6
 2599 0171 5A010000 		.4byte	.LASF30
 2600 0175 0A       		.byte	0xa
 2601 0176 B5       		.byte	0xb5
 2602 0177 B8000000 		.4byte	0xb8
 2603 017b 20       		.byte	0x20
 2604 017c 06       		.uleb128 0x6
 2605 017d 00070000 		.4byte	.LASF31
 2606 0181 0A       		.byte	0xa
 2607 0182 B9       		.byte	0xb9
 2608 0183 AD000000 		.4byte	0xad
 2609 0187 21       		.byte	0x21
 2610 0188 06       		.uleb128 0x6
 2611 0189 9B030000 		.4byte	.LASF32
 2612 018d 0A       		.byte	0xa
 2613 018e BE       		.byte	0xbe
 2614 018f C3000000 		.4byte	0xc3
 2615 0193 22       		.byte	0x22
 2616 0194 08       		.uleb128 0x8
 2617 0195 7500     		.ascii	"u\000"
 2618 0197 0A       		.byte	0xa
 2619 0198 0F01     		.2byte	0x10f
 2620 019a F0050000 		.4byte	0x5f0
 2621 019e 24       		.byte	0x24
 2622 019f 09       		.uleb128 0x9
 2623 01a0 D7010000 		.4byte	.LASF33
 2624 01a4 0A       		.byte	0xa
 2625 01a5 1401     		.2byte	0x114
 2626 01a7 FF010000 		.4byte	0x1ff
 2627 01ab 28       		.byte	0x28
 2628 01ac 09       		.uleb128 0x9
 2629 01ad 51010000 		.4byte	.LASF34
ARM GAS  /tmp/ccoNZDVu.s 			page 111


 2630 01b1 0A       		.byte	0xa
 2631 01b2 1A01     		.2byte	0x11a
 2632 01b4 23020000 		.4byte	0x223
 2633 01b8 2C       		.byte	0x2c
 2634 01b9 09       		.uleb128 0x9
 2635 01ba 86020000 		.4byte	.LASF35
 2636 01be 0A       		.byte	0xa
 2637 01bf 2001     		.2byte	0x120
 2638 01c1 E4000000 		.4byte	0xe4
 2639 01c5 34       		.byte	0x34
 2640 01c6 09       		.uleb128 0x9
 2641 01c7 7E070000 		.4byte	.LASF36
 2642 01cb 0A       		.byte	0xa
 2643 01cc 2701     		.2byte	0x127
 2644 01ce B5060000 		.4byte	0x6b5
 2645 01d2 38       		.byte	0x38
 2646 01d3 09       		.uleb128 0x9
 2647 01d4 F8020000 		.4byte	.LASF37
 2648 01d8 0A       		.byte	0xa
 2649 01d9 2B01     		.2byte	0x12b
 2650 01db CE000000 		.4byte	0xce
 2651 01df 3C       		.byte	0x3c
 2652 01e0 09       		.uleb128 0x9
 2653 01e1 60020000 		.4byte	.LASF38
 2654 01e5 0A       		.byte	0xa
 2655 01e6 3201     		.2byte	0x132
 2656 01e8 D6020000 		.4byte	0x2d6
 2657 01ec 40       		.byte	0x40
 2658 01ed 00       		.byte	0
 2659 01ee 03       		.uleb128 0x3
 2660 01ef 0A030000 		.4byte	.LASF39
 2661 01f3 09       		.byte	0x9
 2662 01f4 44       		.byte	0x44
 2663 01f5 F9010000 		.4byte	0x1f9
 2664 01f9 0A       		.uleb128 0xa
 2665 01fa 04       		.byte	0x4
 2666 01fb 05010000 		.4byte	0x105
 2667 01ff 03       		.uleb128 0x3
 2668 0200 43070000 		.4byte	.LASF40
 2669 0204 09       		.byte	0x9
 2670 0205 49       		.byte	0x49
 2671 0206 0A020000 		.4byte	0x20a
 2672 020a 05       		.uleb128 0x5
 2673 020b 9D040000 		.4byte	.LASF42
 2674 020f 04       		.byte	0x4
 2675 0210 0A       		.byte	0xa
 2676 0211 88       		.byte	0x88
 2677 0212 23020000 		.4byte	0x223
 2678 0216 06       		.uleb128 0x6
 2679 0217 19000000 		.4byte	.LASF43
 2680 021b 0A       		.byte	0xa
 2681 021c 89       		.byte	0x89
 2682 021d F9010000 		.4byte	0x1f9
 2683 0221 00       		.byte	0
 2684 0222 00       		.byte	0
 2685 0223 03       		.uleb128 0x3
 2686 0224 B7060000 		.4byte	.LASF44
ARM GAS  /tmp/ccoNZDVu.s 			page 112


 2687 0228 09       		.byte	0x9
 2688 0229 50       		.byte	0x50
 2689 022a 2E020000 		.4byte	0x22e
 2690 022e 05       		.uleb128 0x5
 2691 022f DC000000 		.4byte	.LASF45
 2692 0233 08       		.byte	0x8
 2693 0234 0A       		.byte	0xa
 2694 0235 8F       		.byte	0x8f
 2695 0236 53020000 		.4byte	0x253
 2696 023a 06       		.uleb128 0x6
 2697 023b 19000000 		.4byte	.LASF43
 2698 023f 0A       		.byte	0xa
 2699 0240 90       		.byte	0x90
 2700 0241 F9010000 		.4byte	0x1f9
 2701 0245 00       		.byte	0
 2702 0246 06       		.uleb128 0x6
 2703 0247 34000000 		.4byte	.LASF46
 2704 024b 0A       		.byte	0xa
 2705 024c 91       		.byte	0x91
 2706 024d F9010000 		.4byte	0x1f9
 2707 0251 04       		.byte	0x4
 2708 0252 00       		.byte	0
 2709 0253 03       		.uleb128 0x3
 2710 0254 00000000 		.4byte	.LASF47
 2711 0258 09       		.byte	0x9
 2712 0259 57       		.byte	0x57
 2713 025a 5E020000 		.4byte	0x25e
 2714 025e 0B       		.uleb128 0xb
 2715 025f B2020000 		.4byte	.LASF48
 2716 0263 1C       		.byte	0x1c
 2717 0264 0A       		.byte	0xa
 2718 0265 6A01     		.2byte	0x16a
 2719 0267 BA020000 		.4byte	0x2ba
 2720 026b 09       		.uleb128 0x9
 2721 026c 5A020000 		.4byte	.LASF24
 2722 0270 0A       		.byte	0xa
 2723 0271 6B01     		.2byte	0x16b
 2724 0273 23020000 		.4byte	0x223
 2725 0277 00       		.byte	0
 2726 0278 09       		.uleb128 0x9
 2727 0279 6C030000 		.4byte	.LASF25
 2728 027d 0A       		.byte	0xa
 2729 027e 6C01     		.2byte	0x16c
 2730 0280 CE000000 		.4byte	0xce
 2731 0284 08       		.byte	0x8
 2732 0285 08       		.uleb128 0x8
 2733 0286 63747800 		.ascii	"ctx\000"
 2734 028a 0A       		.byte	0xa
 2735 028b 6E01     		.2byte	0x16e
 2736 028d 34040000 		.4byte	0x434
 2737 0291 0C       		.byte	0xc
 2738 0292 09       		.uleb128 0x9
 2739 0293 F9050000 		.4byte	.LASF26
 2740 0297 0A       		.byte	0xa
 2741 0298 7101     		.2byte	0x171
 2742 029a F9010000 		.4byte	0x1f9
 2743 029e 10       		.byte	0x10
ARM GAS  /tmp/ccoNZDVu.s 			page 113


 2744 029f 09       		.uleb128 0x9
 2745 02a0 D6040000 		.4byte	.LASF27
 2746 02a4 0A       		.byte	0xa
 2747 02a5 7201     		.2byte	0x172
 2748 02a7 F9010000 		.4byte	0x1f9
 2749 02ab 14       		.byte	0x14
 2750 02ac 09       		.uleb128 0x9
 2751 02ad 71030000 		.4byte	.LASF49
 2752 02b1 0A       		.byte	0xa
 2753 02b2 7501     		.2byte	0x175
 2754 02b4 F9010000 		.4byte	0x1f9
 2755 02b8 18       		.byte	0x18
 2756 02b9 00       		.byte	0
 2757 02ba 03       		.uleb128 0x3
 2758 02bb 79050000 		.4byte	.LASF50
 2759 02bf 09       		.byte	0x9
 2760 02c0 5C       		.byte	0x5c
 2761 02c1 C5020000 		.4byte	0x2c5
 2762 02c5 0A       		.uleb128 0xa
 2763 02c6 04       		.byte	0x4
 2764 02c7 CB020000 		.4byte	0x2cb
 2765 02cb 0C       		.uleb128 0xc
 2766 02cc D6020000 		.4byte	0x2d6
 2767 02d0 0D       		.uleb128 0xd
 2768 02d1 D6020000 		.4byte	0x2d6
 2769 02d5 00       		.byte	0
 2770 02d6 0E       		.uleb128 0xe
 2771 02d7 04       		.byte	0x4
 2772 02d8 03       		.uleb128 0x3
 2773 02d9 A0030000 		.4byte	.LASF51
 2774 02dd 09       		.byte	0x9
 2775 02de 61       		.byte	0x61
 2776 02df E3020000 		.4byte	0x2e3
 2777 02e3 0B       		.uleb128 0xb
 2778 02e4 40040000 		.4byte	.LASF52
 2779 02e8 14       		.byte	0x14
 2780 02e9 0A       		.byte	0xa
 2781 02ea 4501     		.2byte	0x145
 2782 02ec 32030000 		.4byte	0x332
 2783 02f0 09       		.uleb128 0x9
 2784 02f1 19000000 		.4byte	.LASF43
 2785 02f5 0A       		.byte	0xa
 2786 02f6 4601     		.2byte	0x146
 2787 02f8 D3060000 		.4byte	0x6d3
 2788 02fc 00       		.byte	0
 2789 02fd 09       		.uleb128 0x9
 2790 02fe 34000000 		.4byte	.LASF46
 2791 0302 0A       		.byte	0xa
 2792 0303 4701     		.2byte	0x147
 2793 0305 D3060000 		.4byte	0x6d3
 2794 0309 04       		.byte	0x4
 2795 030a 09       		.uleb128 0x9
 2796 030b 1E000000 		.4byte	.LASF53
 2797 030f 0A       		.byte	0xa
 2798 0310 4801     		.2byte	0x148
 2799 0312 FA000000 		.4byte	0xfa
 2800 0316 08       		.byte	0x8
ARM GAS  /tmp/ccoNZDVu.s 			page 114


 2801 0317 09       		.uleb128 0x9
 2802 0318 8B010000 		.4byte	.LASF54
 2803 031c 0A       		.byte	0xa
 2804 031d 4901     		.2byte	0x149
 2805 031f BA020000 		.4byte	0x2ba
 2806 0323 0C       		.byte	0xc
 2807 0324 08       		.uleb128 0x8
 2808 0325 70617200 		.ascii	"par\000"
 2809 0329 0A       		.byte	0xa
 2810 032a 4B01     		.2byte	0x14b
 2811 032c D6020000 		.4byte	0x2d6
 2812 0330 10       		.byte	0x10
 2813 0331 00       		.byte	0
 2814 0332 03       		.uleb128 0x3
 2815 0333 B4000000 		.4byte	.LASF55
 2816 0337 09       		.byte	0x9
 2817 0338 66       		.byte	0x66
 2818 0339 3D030000 		.4byte	0x33d
 2819 033d 0B       		.uleb128 0xb
 2820 033e 1D030000 		.4byte	.LASF56
 2821 0342 0C       		.byte	0xc
 2822 0343 0A       		.byte	0xa
 2823 0344 5501     		.2byte	0x155
 2824 0346 7F030000 		.4byte	0x37f
 2825 034a 09       		.uleb128 0x9
 2826 034b 19000000 		.4byte	.LASF43
 2827 034f 0A       		.byte	0xa
 2828 0350 5601     		.2byte	0x156
 2829 0352 D3060000 		.4byte	0x6d3
 2830 0356 00       		.byte	0
 2831 0357 09       		.uleb128 0x9
 2832 0358 34000000 		.4byte	.LASF46
 2833 035c 0A       		.byte	0xa
 2834 035d 5801     		.2byte	0x158
 2835 035f D3060000 		.4byte	0x6d3
 2836 0363 04       		.byte	0x4
 2837 0364 09       		.uleb128 0x9
 2838 0365 1E000000 		.4byte	.LASF53
 2839 0369 0A       		.byte	0xa
 2840 036a 5A01     		.2byte	0x15a
 2841 036c FA000000 		.4byte	0xfa
 2842 0370 08       		.byte	0x8
 2843 0371 09       		.uleb128 0x9
 2844 0372 F6030000 		.4byte	.LASF57
 2845 0376 0A       		.byte	0xa
 2846 0377 6201     		.2byte	0x162
 2847 0379 FA000000 		.4byte	0xfa
 2848 037d 0A       		.byte	0xa
 2849 037e 00       		.byte	0
 2850 037f 03       		.uleb128 0x3
 2851 0380 45000000 		.4byte	.LASF58
 2852 0384 09       		.byte	0x9
 2853 0385 6B       		.byte	0x6b
 2854 0386 8A030000 		.4byte	0x38a
 2855 038a 0B       		.uleb128 0xb
 2856 038b B8030000 		.4byte	.LASF59
 2857 038f 04       		.byte	0x4
ARM GAS  /tmp/ccoNZDVu.s 			page 115


 2858 0390 0A       		.byte	0xa
 2859 0391 7C01     		.2byte	0x17c
 2860 0393 A5030000 		.4byte	0x3a5
 2861 0397 09       		.uleb128 0x9
 2862 0398 90050000 		.4byte	.LASF60
 2863 039c 0A       		.byte	0xa
 2864 039d 8401     		.2byte	0x184
 2865 039f D9060000 		.4byte	0x6d9
 2866 03a3 00       		.byte	0
 2867 03a4 00       		.byte	0
 2868 03a5 03       		.uleb128 0x3
 2869 03a6 8F020000 		.4byte	.LASF61
 2870 03aa 09       		.byte	0x9
 2871 03ab 70       		.byte	0x70
 2872 03ac B0030000 		.4byte	0x3b0
 2873 03b0 0B       		.uleb128 0xb
 2874 03b1 06040000 		.4byte	.LASF62
 2875 03b5 70       		.byte	0x70
 2876 03b6 0A       		.byte	0xa
 2877 03b7 9C01     		.2byte	0x19c
 2878 03b9 F2030000 		.4byte	0x3f2
 2879 03bd 09       		.uleb128 0x9
 2880 03be DD060000 		.4byte	.LASF63
 2881 03c2 0A       		.byte	0xa
 2882 03c3 A001     		.2byte	0x1a0
 2883 03c5 53020000 		.4byte	0x253
 2884 03c9 00       		.byte	0
 2885 03ca 09       		.uleb128 0x9
 2886 03cb 3E010000 		.4byte	.LASF64
 2887 03cf 0A       		.byte	0xa
 2888 03d0 A401     		.2byte	0x1a4
 2889 03d2 32030000 		.4byte	0x332
 2890 03d6 1C       		.byte	0x1c
 2891 03d7 08       		.uleb128 0x8
 2892 03d8 64626700 		.ascii	"dbg\000"
 2893 03dc 0A       		.byte	0xa
 2894 03dd A801     		.2byte	0x1a8
 2895 03df 7F030000 		.4byte	0x37f
 2896 03e3 28       		.byte	0x28
 2897 03e4 09       		.uleb128 0x9
 2898 03e5 75020000 		.4byte	.LASF65
 2899 03e9 0A       		.byte	0xa
 2900 03ea AC01     		.2byte	0x1ac
 2901 03ec 05010000 		.4byte	0x105
 2902 03f0 2C       		.byte	0x2c
 2903 03f1 00       		.byte	0
 2904 03f2 04       		.uleb128 0x4
 2905 03f3 04       		.byte	0x4
 2906 03f4 07       		.byte	0x7
 2907 03f5 01030000 		.4byte	.LASF66
 2908 03f9 0F       		.uleb128 0xf
 2909 03fa 82000000 		.4byte	0x82
 2910 03fe 10       		.uleb128 0x10
 2911 03ff 82000000 		.4byte	0x82
 2912 0403 0E040000 		.4byte	0x40e
 2913 0407 11       		.uleb128 0x11
 2914 0408 F2030000 		.4byte	0x3f2
ARM GAS  /tmp/ccoNZDVu.s 			page 116


 2915 040c 01       		.byte	0x1
 2916 040d 00       		.byte	0
 2917 040e 10       		.uleb128 0x10
 2918 040f 82000000 		.4byte	0x82
 2919 0413 1E040000 		.4byte	0x41e
 2920 0417 11       		.uleb128 0x11
 2921 0418 F2030000 		.4byte	0x3f2
 2922 041c 03       		.byte	0x3
 2923 041d 00       		.byte	0
 2924 041e 03       		.uleb128 0x3
 2925 041f B9010000 		.4byte	.LASF67
 2926 0423 0B       		.byte	0xb
 2927 0424 65       		.byte	0x65
 2928 0425 D6020000 		.4byte	0x2d6
 2929 0429 03       		.uleb128 0x3
 2930 042a D1020000 		.4byte	.LASF68
 2931 042e 0B       		.byte	0xb
 2932 042f 6D       		.byte	0x6d
 2933 0430 9B000000 		.4byte	0x9b
 2934 0434 05       		.uleb128 0x5
 2935 0435 3E030000 		.4byte	.LASF69
 2936 0439 04       		.byte	0x4
 2937 043a 0B       		.byte	0xb
 2938 043b 89       		.byte	0x89
 2939 043c 4C040000 		.4byte	0x44c
 2940 0440 07       		.uleb128 0x7
 2941 0441 737000   		.ascii	"sp\000"
 2942 0444 0B       		.byte	0xb
 2943 0445 8A       		.byte	0x8a
 2944 0446 C8040000 		.4byte	0x4c8
 2945 044a 00       		.byte	0
 2946 044b 00       		.byte	0
 2947 044c 0B       		.uleb128 0xb
 2948 044d 39000000 		.4byte	.LASF70
 2949 0451 24       		.byte	0x24
 2950 0452 0C       		.byte	0xc
 2951 0453 5901     		.2byte	0x159
 2952 0455 C8040000 		.4byte	0x4c8
 2953 0459 08       		.uleb128 0x8
 2954 045a 723400   		.ascii	"r4\000"
 2955 045d 0C       		.byte	0xc
 2956 045e 6C01     		.2byte	0x16c
 2957 0460 1E040000 		.4byte	0x41e
 2958 0464 00       		.byte	0
 2959 0465 08       		.uleb128 0x8
 2960 0466 723500   		.ascii	"r5\000"
 2961 0469 0C       		.byte	0xc
 2962 046a 6D01     		.2byte	0x16d
 2963 046c 1E040000 		.4byte	0x41e
 2964 0470 04       		.byte	0x4
 2965 0471 08       		.uleb128 0x8
 2966 0472 723600   		.ascii	"r6\000"
 2967 0475 0C       		.byte	0xc
 2968 0476 6E01     		.2byte	0x16e
 2969 0478 1E040000 		.4byte	0x41e
 2970 047c 08       		.byte	0x8
 2971 047d 08       		.uleb128 0x8
ARM GAS  /tmp/ccoNZDVu.s 			page 117


 2972 047e 723700   		.ascii	"r7\000"
 2973 0481 0C       		.byte	0xc
 2974 0482 6F01     		.2byte	0x16f
 2975 0484 1E040000 		.4byte	0x41e
 2976 0488 0C       		.byte	0xc
 2977 0489 08       		.uleb128 0x8
 2978 048a 723800   		.ascii	"r8\000"
 2979 048d 0C       		.byte	0xc
 2980 048e 7001     		.2byte	0x170
 2981 0490 1E040000 		.4byte	0x41e
 2982 0494 10       		.byte	0x10
 2983 0495 08       		.uleb128 0x8
 2984 0496 723900   		.ascii	"r9\000"
 2985 0499 0C       		.byte	0xc
 2986 049a 7101     		.2byte	0x171
 2987 049c 1E040000 		.4byte	0x41e
 2988 04a0 14       		.byte	0x14
 2989 04a1 08       		.uleb128 0x8
 2990 04a2 72313000 		.ascii	"r10\000"
 2991 04a6 0C       		.byte	0xc
 2992 04a7 7201     		.2byte	0x172
 2993 04a9 1E040000 		.4byte	0x41e
 2994 04ad 18       		.byte	0x18
 2995 04ae 08       		.uleb128 0x8
 2996 04af 72313100 		.ascii	"r11\000"
 2997 04b3 0C       		.byte	0xc
 2998 04b4 7301     		.2byte	0x173
 2999 04b6 1E040000 		.4byte	0x41e
 3000 04ba 1C       		.byte	0x1c
 3001 04bb 08       		.uleb128 0x8
 3002 04bc 6C7200   		.ascii	"lr\000"
 3003 04bf 0C       		.byte	0xc
 3004 04c0 7401     		.2byte	0x174
 3005 04c2 1E040000 		.4byte	0x41e
 3006 04c6 20       		.byte	0x20
 3007 04c7 00       		.byte	0
 3008 04c8 0A       		.uleb128 0xa
 3009 04c9 04       		.byte	0x4
 3010 04ca 4C040000 		.4byte	0x44c
 3011 04ce 12       		.uleb128 0x12
 3012 04cf 60       		.byte	0x60
 3013 04d0 0D       		.byte	0xd
 3014 04d1 A101     		.2byte	0x1a1
 3015 04d3 DA050000 		.4byte	0x5da
 3016 04d7 08       		.uleb128 0x8
 3017 04d8 43523100 		.ascii	"CR1\000"
 3018 04dc 0D       		.byte	0xd
 3019 04dd A201     		.2byte	0x1a2
 3020 04df F9030000 		.4byte	0x3f9
 3021 04e3 00       		.byte	0
 3022 04e4 08       		.uleb128 0x8
 3023 04e5 43523200 		.ascii	"CR2\000"
 3024 04e9 0D       		.byte	0xd
 3025 04ea A301     		.2byte	0x1a3
 3026 04ec F9030000 		.4byte	0x3f9
 3027 04f0 04       		.byte	0x4
 3028 04f1 09       		.uleb128 0x9
ARM GAS  /tmp/ccoNZDVu.s 			page 118


 3029 04f2 66020000 		.4byte	.LASF71
 3030 04f6 0D       		.byte	0xd
 3031 04f7 A401     		.2byte	0x1a4
 3032 04f9 F9030000 		.4byte	0x3f9
 3033 04fd 08       		.byte	0x8
 3034 04fe 09       		.uleb128 0x9
 3035 04ff 0D000000 		.4byte	.LASF72
 3036 0503 0D       		.byte	0xd
 3037 0504 A501     		.2byte	0x1a5
 3038 0506 F9030000 		.4byte	0x3f9
 3039 050a 0C       		.byte	0xc
 3040 050b 08       		.uleb128 0x8
 3041 050c 535200   		.ascii	"SR\000"
 3042 050f 0D       		.byte	0xd
 3043 0510 A601     		.2byte	0x1a6
 3044 0512 F9030000 		.4byte	0x3f9
 3045 0516 10       		.byte	0x10
 3046 0517 08       		.uleb128 0x8
 3047 0518 45475200 		.ascii	"EGR\000"
 3048 051c 0D       		.byte	0xd
 3049 051d A701     		.2byte	0x1a7
 3050 051f F9030000 		.4byte	0x3f9
 3051 0523 14       		.byte	0x14
 3052 0524 09       		.uleb128 0x9
 3053 0525 03010000 		.4byte	.LASF73
 3054 0529 0D       		.byte	0xd
 3055 052a A801     		.2byte	0x1a8
 3056 052c F9030000 		.4byte	0x3f9
 3057 0530 18       		.byte	0x18
 3058 0531 09       		.uleb128 0x9
 3059 0532 09010000 		.4byte	.LASF74
 3060 0536 0D       		.byte	0xd
 3061 0537 A901     		.2byte	0x1a9
 3062 0539 F9030000 		.4byte	0x3f9
 3063 053d 1C       		.byte	0x1c
 3064 053e 09       		.uleb128 0x9
 3065 053f 90010000 		.4byte	.LASF75
 3066 0543 0D       		.byte	0xd
 3067 0544 AA01     		.2byte	0x1aa
 3068 0546 F9030000 		.4byte	0x3f9
 3069 054a 20       		.byte	0x20
 3070 054b 08       		.uleb128 0x8
 3071 054c 434E5400 		.ascii	"CNT\000"
 3072 0550 0D       		.byte	0xd
 3073 0551 AB01     		.2byte	0x1ab
 3074 0553 F9030000 		.4byte	0x3f9
 3075 0557 24       		.byte	0x24
 3076 0558 08       		.uleb128 0x8
 3077 0559 50534300 		.ascii	"PSC\000"
 3078 055d 0D       		.byte	0xd
 3079 055e AC01     		.2byte	0x1ac
 3080 0560 F9030000 		.4byte	0x3f9
 3081 0564 28       		.byte	0x28
 3082 0565 08       		.uleb128 0x8
 3083 0566 41525200 		.ascii	"ARR\000"
 3084 056a 0D       		.byte	0xd
 3085 056b AD01     		.2byte	0x1ad
ARM GAS  /tmp/ccoNZDVu.s 			page 119


 3086 056d F9030000 		.4byte	0x3f9
 3087 0571 2C       		.byte	0x2c
 3088 0572 08       		.uleb128 0x8
 3089 0573 52435200 		.ascii	"RCR\000"
 3090 0577 0D       		.byte	0xd
 3091 0578 AE01     		.2byte	0x1ae
 3092 057a F9030000 		.4byte	0x3f9
 3093 057e 30       		.byte	0x30
 3094 057f 08       		.uleb128 0x8
 3095 0580 43435200 		.ascii	"CCR\000"
 3096 0584 0D       		.byte	0xd
 3097 0585 AF01     		.2byte	0x1af
 3098 0587 DA050000 		.4byte	0x5da
 3099 058b 34       		.byte	0x34
 3100 058c 09       		.uleb128 0x9
 3101 058d D7000000 		.4byte	.LASF76
 3102 0591 0D       		.byte	0xd
 3103 0592 B001     		.2byte	0x1b0
 3104 0594 F9030000 		.4byte	0x3f9
 3105 0598 44       		.byte	0x44
 3106 0599 08       		.uleb128 0x8
 3107 059a 44435200 		.ascii	"DCR\000"
 3108 059e 0D       		.byte	0xd
 3109 059f B101     		.2byte	0x1b1
 3110 05a1 F9030000 		.4byte	0x3f9
 3111 05a5 48       		.byte	0x48
 3112 05a6 09       		.uleb128 0x9
 3113 05a7 44050000 		.4byte	.LASF77
 3114 05ab 0D       		.byte	0xd
 3115 05ac B201     		.2byte	0x1b2
 3116 05ae F9030000 		.4byte	0x3f9
 3117 05b2 4C       		.byte	0x4c
 3118 05b3 08       		.uleb128 0x8
 3119 05b4 4F5200   		.ascii	"OR\000"
 3120 05b7 0D       		.byte	0xd
 3121 05b8 B301     		.2byte	0x1b3
 3122 05ba F9030000 		.4byte	0x3f9
 3123 05be 50       		.byte	0x50
 3124 05bf 09       		.uleb128 0x9
 3125 05c0 0F010000 		.4byte	.LASF78
 3126 05c4 0D       		.byte	0xd
 3127 05c5 B401     		.2byte	0x1b4
 3128 05c7 F9030000 		.4byte	0x3f9
 3129 05cb 54       		.byte	0x54
 3130 05cc 09       		.uleb128 0x9
 3131 05cd 5E040000 		.4byte	.LASF79
 3132 05d1 0D       		.byte	0xd
 3133 05d2 B501     		.2byte	0x1b5
 3134 05d4 DF050000 		.4byte	0x5df
 3135 05d8 58       		.byte	0x58
 3136 05d9 00       		.byte	0
 3137 05da 0F       		.uleb128 0xf
 3138 05db 0E040000 		.4byte	0x40e
 3139 05df 0F       		.uleb128 0xf
 3140 05e0 FE030000 		.4byte	0x3fe
 3141 05e4 13       		.uleb128 0x13
 3142 05e5 A6020000 		.4byte	.LASF80
ARM GAS  /tmp/ccoNZDVu.s 			page 120


 3143 05e9 0D       		.byte	0xd
 3144 05ea B601     		.2byte	0x1b6
 3145 05ec CE040000 		.4byte	0x4ce
 3146 05f0 14       		.uleb128 0x14
 3147 05f1 04       		.byte	0x4
 3148 05f2 0A       		.byte	0xa
 3149 05f3 D2       		.byte	0xd2
 3150 05f4 53060000 		.4byte	0x653
 3151 05f8 15       		.uleb128 0x15
 3152 05f9 24000000 		.4byte	.LASF81
 3153 05fd 0A       		.byte	0xa
 3154 05fe D9       		.byte	0xd9
 3155 05ff D9000000 		.4byte	0xd9
 3156 0603 15       		.uleb128 0x15
 3157 0604 90000000 		.4byte	.LASF82
 3158 0608 0A       		.byte	0xa
 3159 0609 E0       		.byte	0xe0
 3160 060a D9000000 		.4byte	0xd9
 3161 060e 15       		.uleb128 0x15
 3162 060f 2F070000 		.4byte	.LASF83
 3163 0613 0A       		.byte	0xa
 3164 0614 E7       		.byte	0xe7
 3165 0615 D6020000 		.4byte	0x2d6
 3166 0619 15       		.uleb128 0x15
 3167 061a 46020000 		.4byte	.LASF84
 3168 061e 0A       		.byte	0xa
 3169 061f EE       		.byte	0xee
 3170 0620 53060000 		.4byte	0x653
 3171 0624 15       		.uleb128 0x15
 3172 0625 AC000000 		.4byte	.LASF85
 3173 0629 0A       		.byte	0xa
 3174 062a F3       		.byte	0xf3
 3175 062b D9000000 		.4byte	0xd9
 3176 062f 15       		.uleb128 0x15
 3177 0630 34020000 		.4byte	.LASF86
 3178 0634 0A       		.byte	0xa
 3179 0635 FC       		.byte	0xfc
 3180 0636 7E060000 		.4byte	0x67e
 3181 063a 16       		.uleb128 0x16
 3182 063b 8A040000 		.4byte	.LASF87
 3183 063f 0A       		.byte	0xa
 3184 0640 0501     		.2byte	0x105
 3185 0642 B5060000 		.4byte	0x6b5
 3186 0646 16       		.uleb128 0x16
 3187 0647 FF030000 		.4byte	.LASF88
 3188 064b 0A       		.byte	0xa
 3189 064c 0D01     		.2byte	0x10d
 3190 064e E4000000 		.4byte	0xe4
 3191 0652 00       		.byte	0
 3192 0653 0A       		.uleb128 0xa
 3193 0654 04       		.byte	0x4
 3194 0655 EE010000 		.4byte	0x1ee
 3195 0659 05       		.uleb128 0x5
 3196 065a 51040000 		.4byte	.LASF89
 3197 065e 0C       		.byte	0xc
 3198 065f 0E       		.byte	0xe
 3199 0660 34       		.byte	0x34
ARM GAS  /tmp/ccoNZDVu.s 			page 121


 3200 0661 7E060000 		.4byte	0x67e
 3201 0665 06       		.uleb128 0x6
 3202 0666 5A020000 		.4byte	.LASF24
 3203 066a 0E       		.byte	0xe
 3204 066b 35       		.byte	0x35
 3205 066c 23020000 		.4byte	0x223
 3206 0670 00       		.byte	0
 3207 0671 07       		.uleb128 0x7
 3208 0672 636E7400 		.ascii	"cnt\000"
 3209 0676 0E       		.byte	0xe
 3210 0677 37       		.byte	0x37
 3211 0678 EF000000 		.4byte	0xef
 3212 067c 08       		.byte	0x8
 3213 067d 00       		.byte	0
 3214 067e 0A       		.uleb128 0xa
 3215 067f 04       		.byte	0x4
 3216 0680 59060000 		.4byte	0x659
 3217 0684 05       		.uleb128 0x5
 3218 0685 C7060000 		.4byte	.LASF90
 3219 0689 10       		.byte	0x10
 3220 068a 0F       		.byte	0xf
 3221 068b 39       		.byte	0x39
 3222 068c B5060000 		.4byte	0x6b5
 3223 0690 06       		.uleb128 0x6
 3224 0691 5A020000 		.4byte	.LASF24
 3225 0695 0F       		.byte	0xf
 3226 0696 3A       		.byte	0x3a
 3227 0697 23020000 		.4byte	0x223
 3228 069b 00       		.byte	0
 3229 069c 06       		.uleb128 0x6
 3230 069d AD040000 		.4byte	.LASF91
 3231 06a1 0F       		.byte	0xf
 3232 06a2 3C       		.byte	0x3c
 3233 06a3 F9010000 		.4byte	0x1f9
 3234 06a7 08       		.byte	0x8
 3235 06a8 06       		.uleb128 0x6
 3236 06a9 19000000 		.4byte	.LASF43
 3237 06ad 0F       		.byte	0xf
 3238 06ae 3E       		.byte	0x3e
 3239 06af E9060000 		.4byte	0x6e9
 3240 06b3 0C       		.byte	0xc
 3241 06b4 00       		.byte	0
 3242 06b5 0A       		.uleb128 0xa
 3243 06b6 04       		.byte	0x4
 3244 06b7 84060000 		.4byte	0x684
 3245 06bb 0A       		.uleb128 0xa
 3246 06bc 04       		.byte	0x4
 3247 06bd C1060000 		.4byte	0x6c1
 3248 06c1 17       		.uleb128 0x17
 3249 06c2 C6060000 		.4byte	0x6c6
 3250 06c6 04       		.uleb128 0x4
 3251 06c7 01       		.byte	0x1
 3252 06c8 08       		.byte	0x8
 3253 06c9 D1040000 		.4byte	.LASF92
 3254 06cd 0A       		.uleb128 0xa
 3255 06ce 04       		.byte	0x4
 3256 06cf 29040000 		.4byte	0x429
ARM GAS  /tmp/ccoNZDVu.s 			page 122


 3257 06d3 0A       		.uleb128 0xa
 3258 06d4 04       		.byte	0x4
 3259 06d5 D8020000 		.4byte	0x2d8
 3260 06d9 0F       		.uleb128 0xf
 3261 06da BB060000 		.4byte	0x6bb
 3262 06de 03       		.uleb128 0x3
 3263 06df EB010000 		.4byte	.LASF93
 3264 06e3 0F       		.byte	0xf
 3265 06e4 34       		.byte	0x34
 3266 06e5 84060000 		.4byte	0x684
 3267 06e9 0A       		.uleb128 0xa
 3268 06ea 04       		.byte	0x4
 3269 06eb DE060000 		.4byte	0x6de
 3270 06ef 04       		.uleb128 0x4
 3271 06f0 01       		.byte	0x1
 3272 06f1 02       		.byte	0x2
 3273 06f2 C8030000 		.4byte	.LASF94
 3274 06f6 0A       		.uleb128 0xa
 3275 06f7 04       		.byte	0x4
 3276 06f8 45000000 		.4byte	0x45
 3277 06fc 05       		.uleb128 0x5
 3278 06fd 10040000 		.4byte	.LASF95
 3279 0701 10       		.byte	0x10
 3280 0702 10       		.byte	0x10
 3281 0703 46       		.byte	0x46
 3282 0704 39070000 		.4byte	0x739
 3283 0708 06       		.uleb128 0x6
 3284 0709 F2020000 		.4byte	.LASF96
 3285 070d 10       		.byte	0x10
 3286 070e 47       		.byte	0x47
 3287 070f 5D070000 		.4byte	0x75d
 3288 0713 00       		.byte	0
 3289 0714 06       		.uleb128 0x6
 3290 0715 CC040000 		.4byte	.LASF97
 3291 0719 10       		.byte	0x10
 3292 071a 47       		.byte	0x47
 3293 071b 7C070000 		.4byte	0x77c
 3294 071f 04       		.byte	0x4
 3295 0720 07       		.uleb128 0x7
 3296 0721 70757400 		.ascii	"put\000"
 3297 0725 10       		.byte	0x10
 3298 0726 47       		.byte	0x47
 3299 0727 96070000 		.4byte	0x796
 3300 072b 08       		.byte	0x8
 3301 072c 07       		.uleb128 0x7
 3302 072d 67657400 		.ascii	"get\000"
 3303 0731 10       		.byte	0x10
 3304 0732 47       		.byte	0x47
 3305 0733 AB070000 		.4byte	0x7ab
 3306 0737 0C       		.byte	0xc
 3307 0738 00       		.byte	0
 3308 0739 18       		.uleb128 0x18
 3309 073a 2C000000 		.4byte	0x2c
 3310 073e 52070000 		.4byte	0x752
 3311 0742 0D       		.uleb128 0xd
 3312 0743 D6020000 		.4byte	0x2d6
 3313 0747 0D       		.uleb128 0xd
ARM GAS  /tmp/ccoNZDVu.s 			page 123


 3314 0748 52070000 		.4byte	0x752
 3315 074c 0D       		.uleb128 0xd
 3316 074d 2C000000 		.4byte	0x2c
 3317 0751 00       		.byte	0
 3318 0752 0A       		.uleb128 0xa
 3319 0753 04       		.byte	0x4
 3320 0754 58070000 		.4byte	0x758
 3321 0758 17       		.uleb128 0x17
 3322 0759 45000000 		.4byte	0x45
 3323 075d 0A       		.uleb128 0xa
 3324 075e 04       		.byte	0x4
 3325 075f 39070000 		.4byte	0x739
 3326 0763 18       		.uleb128 0x18
 3327 0764 2C000000 		.4byte	0x2c
 3328 0768 7C070000 		.4byte	0x77c
 3329 076c 0D       		.uleb128 0xd
 3330 076d D6020000 		.4byte	0x2d6
 3331 0771 0D       		.uleb128 0xd
 3332 0772 F6060000 		.4byte	0x6f6
 3333 0776 0D       		.uleb128 0xd
 3334 0777 2C000000 		.4byte	0x2c
 3335 077b 00       		.byte	0
 3336 077c 0A       		.uleb128 0xa
 3337 077d 04       		.byte	0x4
 3338 077e 63070000 		.4byte	0x763
 3339 0782 18       		.uleb128 0x18
 3340 0783 D9000000 		.4byte	0xd9
 3341 0787 96070000 		.4byte	0x796
 3342 078b 0D       		.uleb128 0xd
 3343 078c D6020000 		.4byte	0x2d6
 3344 0790 0D       		.uleb128 0xd
 3345 0791 45000000 		.4byte	0x45
 3346 0795 00       		.byte	0
 3347 0796 0A       		.uleb128 0xa
 3348 0797 04       		.byte	0x4
 3349 0798 82070000 		.4byte	0x782
 3350 079c 18       		.uleb128 0x18
 3351 079d D9000000 		.4byte	0xd9
 3352 07a1 AB070000 		.4byte	0x7ab
 3353 07a5 0D       		.uleb128 0xd
 3354 07a6 D6020000 		.4byte	0x2d6
 3355 07aa 00       		.byte	0
 3356 07ab 0A       		.uleb128 0xa
 3357 07ac 04       		.byte	0x4
 3358 07ad 9C070000 		.4byte	0x79c
 3359 07b1 19       		.uleb128 0x19
 3360 07b2 04       		.byte	0x4
 3361 07b3 10       		.byte	0x10
 3362 07b4 4F       		.byte	0x4f
 3363 07b5 C6070000 		.4byte	0x7c6
 3364 07b9 07       		.uleb128 0x7
 3365 07ba 766D7400 		.ascii	"vmt\000"
 3366 07be 10       		.byte	0x10
 3367 07bf 51       		.byte	0x51
 3368 07c0 C6070000 		.4byte	0x7c6
 3369 07c4 00       		.byte	0
 3370 07c5 00       		.byte	0
ARM GAS  /tmp/ccoNZDVu.s 			page 124


 3371 07c6 0A       		.uleb128 0xa
 3372 07c7 04       		.byte	0x4
 3373 07c8 CC070000 		.4byte	0x7cc
 3374 07cc 17       		.uleb128 0x17
 3375 07cd FC060000 		.4byte	0x6fc
 3376 07d1 03       		.uleb128 0x3
 3377 07d2 F9010000 		.4byte	.LASF98
 3378 07d6 10       		.byte	0x10
 3379 07d7 53       		.byte	0x53
 3380 07d8 B1070000 		.4byte	0x7b1
 3381 07dc 0A       		.uleb128 0xa
 3382 07dd 04       		.byte	0x4
 3383 07de E2070000 		.4byte	0x7e2
 3384 07e2 1A       		.uleb128 0x1a
 3385 07e3 19       		.uleb128 0x19
 3386 07e4 10       		.byte	0x10
 3387 07e5 11       		.byte	0x11
 3388 07e6 3D       		.byte	0x3d
 3389 07e7 1C080000 		.4byte	0x81c
 3390 07eb 06       		.uleb128 0x6
 3391 07ec 55020000 		.4byte	.LASF28
 3392 07f0 11       		.byte	0x11
 3393 07f1 3E       		.byte	0x3e
 3394 07f2 BB060000 		.4byte	0x6bb
 3395 07f6 00       		.byte	0
 3396 07f7 06       		.uleb128 0x6
 3397 07f8 4B030000 		.4byte	.LASF99
 3398 07fc 11       		.byte	0x11
 3399 07fd 3F       		.byte	0x3f
 3400 07fe DC070000 		.4byte	0x7dc
 3401 0802 04       		.byte	0x4
 3402 0803 06       		.uleb128 0x6
 3403 0804 FA000000 		.4byte	.LASF100
 3404 0808 11       		.byte	0x11
 3405 0809 40       		.byte	0x40
 3406 080a DC070000 		.4byte	0x7dc
 3407 080e 08       		.byte	0x8
 3408 080f 06       		.uleb128 0x6
 3409 0810 E4030000 		.4byte	.LASF101
 3410 0814 11       		.byte	0x11
 3411 0815 41       		.byte	0x41
 3412 0816 DC070000 		.4byte	0x7dc
 3413 081a 0C       		.byte	0xc
 3414 081b 00       		.byte	0
 3415 081c 03       		.uleb128 0x3
 3416 081d DC020000 		.4byte	.LASF102
 3417 0821 11       		.byte	0x11
 3418 0822 42       		.byte	0x42
 3419 0823 E3070000 		.4byte	0x7e3
 3420 0827 1B       		.uleb128 0x1b
 3421 0828 82050000 		.4byte	.LASF108
 3422 082c 04       		.byte	0x4
 3423 082d 0601     		.2byte	0x106
 3424 082f 03       		.byte	0x3
 3425 0830 41080000 		.4byte	0x841
 3426 0834 1C       		.uleb128 0x1c
 3427 0835 F3010000 		.4byte	.LASF111
ARM GAS  /tmp/ccoNZDVu.s 			page 125


 3428 0839 04       		.byte	0x4
 3429 083a 0601     		.2byte	0x106
 3430 083c 82000000 		.4byte	0x82
 3431 0840 00       		.byte	0
 3432 0841 1D       		.uleb128 0x1d
 3433 0842 6E040000 		.4byte	.LASF105
 3434 0846 02       		.byte	0x2
 3435 0847 8B       		.byte	0x8b
 3436 0848 FA000000 		.4byte	0xfa
 3437 084c 03       		.byte	0x3
 3438 084d 1E       		.uleb128 0x1e
 3439 084e 5B000000 		.4byte	.LASF103
 3440 0852 0C       		.byte	0xc
 3441 0853 5202     		.2byte	0x252
 3442 0855 03       		.byte	0x3
 3443 0856 1E       		.uleb128 0x1e
 3444 0857 45010000 		.4byte	.LASF104
 3445 085b 0C       		.byte	0xc
 3446 085c 6A02     		.2byte	0x26a
 3447 085e 03       		.byte	0x3
 3448 085f 1D       		.uleb128 0x1d
 3449 0860 BE050000 		.4byte	.LASF106
 3450 0864 12       		.byte	0x12
 3451 0865 69       		.byte	0x69
 3452 0866 FA000000 		.4byte	0xfa
 3453 086a 03       		.byte	0x3
 3454 086b 1E       		.uleb128 0x1e
 3455 086c 28040000 		.4byte	.LASF107
 3456 0870 13       		.byte	0x13
 3457 0871 7601     		.2byte	0x176
 3458 0873 03       		.byte	0x3
 3459 0874 1B       		.uleb128 0x1b
 3460 0875 6C070000 		.4byte	.LASF109
 3461 0879 13       		.byte	0x13
 3462 087a 8201     		.2byte	0x182
 3463 087c 03       		.byte	0x3
 3464 087d 8F080000 		.4byte	0x88f
 3465 0881 1F       		.uleb128 0x1f
 3466 0882 EB050000 		.4byte	.LASF121
 3467 0886 9F080000 		.4byte	0x89f
 3468 088a 6C070000 		.4byte	.LASF109
 3469 088e 00       		.byte	0
 3470 088f 10       		.uleb128 0x10
 3471 0890 C6060000 		.4byte	0x6c6
 3472 0894 9F080000 		.4byte	0x89f
 3473 0898 11       		.uleb128 0x11
 3474 0899 F2030000 		.4byte	0x3f2
 3475 089d 0B       		.byte	0xb
 3476 089e 00       		.byte	0
 3477 089f 17       		.uleb128 0x17
 3478 08a0 8F080000 		.4byte	0x88f
 3479 08a4 20       		.uleb128 0x20
 3480 08a5 14020000 		.4byte	.LASF110
 3481 08a9 03       		.byte	0x3
 3482 08aa 8801     		.2byte	0x188
 3483 08ac FA000000 		.4byte	0xfa
 3484 08b0 03       		.byte	0x3
ARM GAS  /tmp/ccoNZDVu.s 			page 126


 3485 08b1 21       		.uleb128 0x21
 3486 08b2 52070000 		.4byte	.LASF116
 3487 08b6 03       		.byte	0x3
 3488 08b7 C001     		.2byte	0x1c0
 3489 08b9 EF060000 		.4byte	0x6ef
 3490 08bd 03       		.byte	0x3
 3491 08be E7080000 		.4byte	0x8e7
 3492 08c2 1C       		.uleb128 0x1c
 3493 08c3 67030000 		.4byte	.LASF112
 3494 08c7 03       		.byte	0x3
 3495 08c8 C001     		.2byte	0x1c0
 3496 08ca FA000000 		.4byte	0xfa
 3497 08ce 1C       		.uleb128 0x1c
 3498 08cf 78070000 		.4byte	.LASF113
 3499 08d3 03       		.byte	0x3
 3500 08d4 C101     		.2byte	0x1c1
 3501 08d6 FA000000 		.4byte	0xfa
 3502 08da 22       		.uleb128 0x22
 3503 08db 656E6400 		.ascii	"end\000"
 3504 08df 03       		.byte	0x3
 3505 08e0 C201     		.2byte	0x1c2
 3506 08e2 FA000000 		.4byte	0xfa
 3507 08e6 00       		.byte	0
 3508 08e7 23       		.uleb128 0x23
 3509 08e8 22070000 		.4byte	.LASF114
 3510 08ec 01       		.byte	0x1
 3511 08ed 41       		.byte	0x41
 3512 08ee 01       		.byte	0x1
 3513 08ef 24       		.uleb128 0x24
 3514 08f0 9B020000 		.4byte	.LASF118
 3515 08f4 01       		.byte	0x1
 3516 08f5 66       		.byte	0x66
 3517 08f6 EF060000 		.4byte	0x6ef
 3518 08fa 01       		.byte	0x1
 3519 08fb 0B090000 		.4byte	0x90b
 3520 08ff 25       		.uleb128 0x25
 3521 0900 6D736700 		.ascii	"msg\000"
 3522 0904 01       		.byte	0x1
 3523 0905 66       		.byte	0x66
 3524 0906 BB060000 		.4byte	0x6bb
 3525 090a 00       		.byte	0
 3526 090b 20       		.uleb128 0x20
 3527 090c C2010000 		.4byte	.LASF115
 3528 0910 05       		.byte	0x5
 3529 0911 6802     		.2byte	0x268
 3530 0913 FA000000 		.4byte	0xfa
 3531 0917 03       		.byte	0x3
 3532 0918 21       		.uleb128 0x21
 3533 0919 79030000 		.4byte	.LASF117
 3534 091d 05       		.byte	0x5
 3535 091e 7B02     		.2byte	0x27b
 3536 0920 EF060000 		.4byte	0x6ef
 3537 0924 03       		.byte	0x3
 3538 0925 4E090000 		.4byte	0x94e
 3539 0929 1C       		.uleb128 0x1c
 3540 092a 67030000 		.4byte	.LASF112
 3541 092e 05       		.byte	0x5
ARM GAS  /tmp/ccoNZDVu.s 			page 127


 3542 092f 7B02     		.2byte	0x27b
 3543 0931 FA000000 		.4byte	0xfa
 3544 0935 1C       		.uleb128 0x1c
 3545 0936 78070000 		.4byte	.LASF113
 3546 093a 05       		.byte	0x5
 3547 093b 7C02     		.2byte	0x27c
 3548 093d FA000000 		.4byte	0xfa
 3549 0941 22       		.uleb128 0x22
 3550 0942 656E6400 		.ascii	"end\000"
 3551 0946 05       		.byte	0x5
 3552 0947 7D02     		.2byte	0x27d
 3553 0949 FA000000 		.4byte	0xfa
 3554 094d 00       		.byte	0
 3555 094e 24       		.uleb128 0x24
 3556 094f 36070000 		.4byte	.LASF119
 3557 0953 01       		.byte	0x1
 3558 0954 6E       		.byte	0x6e
 3559 0955 EF060000 		.4byte	0x6ef
 3560 0959 01       		.byte	0x1
 3561 095a 75090000 		.4byte	0x975
 3562 095e 26       		.uleb128 0x26
 3563 095f 86000000 		.4byte	.LASF120
 3564 0963 01       		.byte	0x1
 3565 0964 6E       		.byte	0x6e
 3566 0965 EF060000 		.4byte	0x6ef
 3567 0969 25       		.uleb128 0x25
 3568 096a 6D736700 		.ascii	"msg\000"
 3569 096e 01       		.byte	0x1
 3570 096f 6E       		.byte	0x6e
 3571 0970 BB060000 		.4byte	0x6bb
 3572 0974 00       		.byte	0
 3573 0975 27       		.uleb128 0x27
 3574 0976 91040000 		.4byte	.LASF122
 3575 097a 01       		.byte	0x1
 3576 097b 94       		.byte	0x94
 3577 097c 01       		.byte	0x1
 3578 097d 9F090000 		.4byte	0x99f
 3579 0981 25       		.uleb128 0x25
 3580 0982 6E00     		.ascii	"n\000"
 3581 0984 01       		.byte	0x1
 3582 0985 94       		.byte	0x94
 3583 0986 82000000 		.4byte	0x82
 3584 098a 28       		.uleb128 0x28
 3585 098b 62756600 		.ascii	"buf\000"
 3586 098f 01       		.byte	0x1
 3587 0990 95       		.byte	0x95
 3588 0991 9F090000 		.4byte	0x99f
 3589 0995 28       		.uleb128 0x28
 3590 0996 7000     		.ascii	"p\000"
 3591 0998 01       		.byte	0x1
 3592 0999 95       		.byte	0x95
 3593 099a AF090000 		.4byte	0x9af
 3594 099e 00       		.byte	0
 3595 099f 10       		.uleb128 0x10
 3596 09a0 C6060000 		.4byte	0x6c6
 3597 09a4 AF090000 		.4byte	0x9af
 3598 09a8 11       		.uleb128 0x11
ARM GAS  /tmp/ccoNZDVu.s 			page 128


 3599 09a9 F2030000 		.4byte	0x3f2
 3600 09ad 0F       		.byte	0xf
 3601 09ae 00       		.byte	0
 3602 09af 0A       		.uleb128 0xa
 3603 09b0 04       		.byte	0x4
 3604 09b1 C6060000 		.4byte	0x6c6
 3605 09b5 27       		.uleb128 0x27
 3606 09b6 E7020000 		.4byte	.LASF123
 3607 09ba 01       		.byte	0x1
 3608 09bb A9       		.byte	0xa9
 3609 09bc 01       		.byte	0x1
 3610 09bd CD090000 		.4byte	0x9cd
 3611 09c1 26       		.uleb128 0x26
 3612 09c2 CC020000 		.4byte	.LASF124
 3613 09c6 01       		.byte	0x1
 3614 09c7 A9       		.byte	0xa9
 3615 09c8 BB060000 		.4byte	0x6bb
 3616 09cc 00       		.byte	0
 3617 09cd 1E       		.uleb128 0x1e
 3618 09ce DF010000 		.4byte	.LASF125
 3619 09d2 05       		.byte	0x5
 3620 09d3 EB01     		.2byte	0x1eb
 3621 09d5 03       		.byte	0x3
 3622 09d6 1E       		.uleb128 0x1e
 3623 09d7 32040000 		.4byte	.LASF126
 3624 09db 05       		.byte	0x5
 3625 09dc F601     		.2byte	0x1f6
 3626 09de 03       		.byte	0x3
 3627 09df 1B       		.uleb128 0x1b
 3628 09e0 DC040000 		.4byte	.LASF127
 3629 09e4 05       		.byte	0x5
 3630 09e5 9F02     		.2byte	0x29f
 3631 09e7 03       		.byte	0x3
 3632 09e8 F9090000 		.4byte	0x9f9
 3633 09ec 1C       		.uleb128 0x1c
 3634 09ed 67030000 		.4byte	.LASF112
 3635 09f1 05       		.byte	0x5
 3636 09f2 9F02     		.2byte	0x29f
 3637 09f4 FA000000 		.4byte	0xfa
 3638 09f8 00       		.byte	0
 3639 09f9 29       		.uleb128 0x29
 3640 09fa 3B020000 		.4byte	.LASF152
 3641 09fe 01       		.byte	0x1
 3642 09ff 5A       		.byte	0x5a
 3643 0a00 00000000 		.4byte	.LFB222
 3644 0a04 36000000 		.4byte	.LFE222-.LFB222
 3645 0a08 01       		.uleb128 0x1
 3646 0a09 9C       		.byte	0x9c
 3647 0a0a 400A0000 		.4byte	0xa40
 3648 0a0e 2A       		.uleb128 0x2a
 3649 0a0f 6900     		.ascii	"i\000"
 3650 0a11 01       		.byte	0x1
 3651 0a12 5B       		.byte	0x5b
 3652 0a13 37000000 		.4byte	0x37
 3653 0a17 00000000 		.4byte	.LLST0
 3654 0a1b 2B       		.uleb128 0x2b
 3655 0a1c 1A000000 		.4byte	.LVL2
ARM GAS  /tmp/ccoNZDVu.s 			page 129


 3656 0a20 2B0A0000 		.4byte	0xa2b
 3657 0a24 2C       		.uleb128 0x2c
 3658 0a25 01       		.uleb128 0x1
 3659 0a26 51       		.byte	0x51
 3660 0a27 02       		.uleb128 0x2
 3661 0a28 08       		.byte	0x8
 3662 0a29 2D       		.byte	0x2d
 3663 0a2a 00       		.byte	0
 3664 0a2b 2D       		.uleb128 0x2d
 3665 0a2c 34000000 		.4byte	.LVL4
 3666 0a30 2C       		.uleb128 0x2c
 3667 0a31 01       		.uleb128 0x1
 3668 0a32 52       		.byte	0x52
 3669 0a33 01       		.uleb128 0x1
 3670 0a34 32       		.byte	0x32
 3671 0a35 2C       		.uleb128 0x2c
 3672 0a36 01       		.uleb128 0x1
 3673 0a37 51       		.byte	0x51
 3674 0a38 05       		.uleb128 0x5
 3675 0a39 03       		.byte	0x3
 3676 0a3a 00000000 		.4byte	.LC0
 3677 0a3e 00       		.byte	0
 3678 0a3f 00       		.byte	0
 3679 0a40 2E       		.uleb128 0x2e
 3680 0a41 EF080000 		.4byte	0x8ef
 3681 0a45 00000000 		.4byte	.LFB223
 3682 0a49 2A000000 		.4byte	.LFE223-.LFB223
 3683 0a4d 01       		.uleb128 0x1
 3684 0a4e 9C       		.byte	0x9c
 3685 0a4f 5D0A0000 		.4byte	0xa5d
 3686 0a53 2F       		.uleb128 0x2f
 3687 0a54 FF080000 		.4byte	0x8ff
 3688 0a58 44000000 		.4byte	.LLST1
 3689 0a5c 00       		.byte	0
 3690 0a5d 2E       		.uleb128 0x2e
 3691 0a5e 4E090000 		.4byte	0x94e
 3692 0a62 00000000 		.4byte	.LFB224
 3693 0a66 32000000 		.4byte	.LFE224-.LFB224
 3694 0a6a 01       		.uleb128 0x1
 3695 0a6b 9C       		.byte	0x9c
 3696 0a6c 9A0A0000 		.4byte	0xa9a
 3697 0a70 2F       		.uleb128 0x2f
 3698 0a71 5E090000 		.4byte	0x95e
 3699 0a75 66000000 		.4byte	.LLST2
 3700 0a79 30       		.uleb128 0x30
 3701 0a7a 69090000 		.4byte	0x969
 3702 0a7e 01       		.uleb128 0x1
 3703 0a7f 51       		.byte	0x51
 3704 0a80 31       		.uleb128 0x31
 3705 0a81 EF080000 		.4byte	0x8ef
 3706 0a85 04000000 		.4byte	.LBB102
 3707 0a89 20000000 		.4byte	.LBE102-.LBB102
 3708 0a8d 01       		.byte	0x1
 3709 0a8e 71       		.byte	0x71
 3710 0a8f 2F       		.uleb128 0x2f
 3711 0a90 FF080000 		.4byte	0x8ff
 3712 0a94 A0000000 		.4byte	.LLST3
ARM GAS  /tmp/ccoNZDVu.s 			page 130


 3713 0a98 00       		.byte	0
 3714 0a99 00       		.byte	0
 3715 0a9a 32       		.uleb128 0x32
 3716 0a9b 51030000 		.4byte	.LASF129
 3717 0a9f 01       		.byte	0x1
 3718 0aa0 75       		.byte	0x75
 3719 0aa1 EF060000 		.4byte	0x6ef
 3720 0aa5 00000000 		.4byte	.LFB225
 3721 0aa9 56000000 		.4byte	.LFE225-.LFB225
 3722 0aad 01       		.uleb128 0x1
 3723 0aae 9C       		.byte	0x9c
 3724 0aaf 040B0000 		.4byte	0xb04
 3725 0ab3 33       		.uleb128 0x33
 3726 0ab4 4C020000 		.4byte	.LASF128
 3727 0ab8 01       		.byte	0x1
 3728 0ab9 75       		.byte	0x75
 3729 0aba AF090000 		.4byte	0x9af
 3730 0abe B3000000 		.4byte	.LLST4
 3731 0ac2 34       		.uleb128 0x34
 3732 0ac3 6D736700 		.ascii	"msg\000"
 3733 0ac7 01       		.byte	0x1
 3734 0ac8 75       		.byte	0x75
 3735 0ac9 BB060000 		.4byte	0x6bb
 3736 0acd 01       		.uleb128 0x1
 3737 0ace 51       		.byte	0x51
 3738 0acf 2A       		.uleb128 0x2a
 3739 0ad0 637000   		.ascii	"cp\000"
 3740 0ad3 01       		.byte	0x1
 3741 0ad4 76       		.byte	0x76
 3742 0ad5 AF090000 		.4byte	0x9af
 3743 0ad9 DE000000 		.4byte	.LLST5
 3744 0add 35       		.uleb128 0x35
 3745 0ade E7080000 		.4byte	0x8e7
 3746 0ae2 2C000000 		.4byte	.LBB104
 3747 0ae6 02000000 		.4byte	.LBE104-.LBB104
 3748 0aea 01       		.byte	0x1
 3749 0aeb 80       		.byte	0x80
 3750 0aec 31       		.uleb128 0x31
 3751 0aed EF080000 		.4byte	0x8ef
 3752 0af1 32000000 		.4byte	.LBB106
 3753 0af5 20000000 		.4byte	.LBE106-.LBB106
 3754 0af9 01       		.byte	0x1
 3755 0afa 7A       		.byte	0x7a
 3756 0afb 30       		.uleb128 0x30
 3757 0afc FF080000 		.4byte	0x8ff
 3758 0b00 01       		.uleb128 0x1
 3759 0b01 51       		.byte	0x51
 3760 0b02 00       		.byte	0
 3761 0b03 00       		.byte	0
 3762 0b04 32       		.uleb128 0x32
 3763 0b05 72010000 		.4byte	.LASF130
 3764 0b09 01       		.byte	0x1
 3765 0b0a 85       		.byte	0x85
 3766 0b0b EF060000 		.4byte	0x6ef
 3767 0b0f 00000000 		.4byte	.LFB226
 3768 0b13 3E000000 		.4byte	.LFE226-.LFB226
 3769 0b17 01       		.uleb128 0x1
ARM GAS  /tmp/ccoNZDVu.s 			page 131


 3770 0b18 9C       		.byte	0x9c
 3771 0b19 220C0000 		.4byte	0xc22
 3772 0b1d 33       		.uleb128 0x33
 3773 0b1e 78070000 		.4byte	.LASF113
 3774 0b22 01       		.byte	0x1
 3775 0b23 85       		.byte	0x85
 3776 0b24 FA000000 		.4byte	0xfa
 3777 0b28 19010000 		.4byte	.LLST6
 3778 0b2c 36       		.uleb128 0x36
 3779 0b2d 656E6400 		.ascii	"end\000"
 3780 0b31 01       		.byte	0x1
 3781 0b32 86       		.byte	0x86
 3782 0b33 FA000000 		.4byte	0xfa
 3783 0b37 3A010000 		.4byte	.LLST7
 3784 0b3b 34       		.uleb128 0x34
 3785 0b3c 6D736700 		.ascii	"msg\000"
 3786 0b40 01       		.byte	0x1
 3787 0b41 87       		.byte	0x87
 3788 0b42 BB060000 		.4byte	0x6bb
 3789 0b46 01       		.uleb128 0x1
 3790 0b47 52       		.byte	0x52
 3791 0b48 37       		.uleb128 0x37
 3792 0b49 0B090000 		.4byte	0x90b
 3793 0b4d 00000000 		.4byte	.LBB108
 3794 0b51 06000000 		.4byte	.LBE108-.LBB108
 3795 0b55 01       		.byte	0x1
 3796 0b56 89       		.byte	0x89
 3797 0b57 8D0B0000 		.4byte	0xb8d
 3798 0b5b 38       		.uleb128 0x38
 3799 0b5c A4080000 		.4byte	0x8a4
 3800 0b60 00000000 		.4byte	.LBB109
 3801 0b64 06000000 		.4byte	.LBE109-.LBB109
 3802 0b68 05       		.byte	0x5
 3803 0b69 6A02     		.2byte	0x26a
 3804 0b6b 38       		.uleb128 0x38
 3805 0b6c 5F080000 		.4byte	0x85f
 3806 0b70 00000000 		.4byte	.LBB110
 3807 0b74 06000000 		.4byte	.LBE110-.LBB110
 3808 0b78 03       		.byte	0x3
 3809 0b79 8D01     		.2byte	0x18d
 3810 0b7b 35       		.uleb128 0x35
 3811 0b7c 41080000 		.4byte	0x841
 3812 0b80 00000000 		.4byte	.LBB111
 3813 0b84 06000000 		.4byte	.LBE111-.LBB111
 3814 0b88 12       		.byte	0x12
 3815 0b89 6B       		.byte	0x6b
 3816 0b8a 00       		.byte	0
 3817 0b8b 00       		.byte	0
 3818 0b8c 00       		.byte	0
 3819 0b8d 37       		.uleb128 0x37
 3820 0b8e 18090000 		.4byte	0x918
 3821 0b92 06000000 		.4byte	.LBB113
 3822 0b96 04000000 		.4byte	.LBE113-.LBB113
 3823 0b9a 01       		.byte	0x1
 3824 0b9b 89       		.byte	0x89
 3825 0b9c E80B0000 		.4byte	0xbe8
 3826 0ba0 2F       		.uleb128 0x2f
ARM GAS  /tmp/ccoNZDVu.s 			page 132


 3827 0ba1 41090000 		.4byte	0x941
 3828 0ba5 5B010000 		.4byte	.LLST8
 3829 0ba9 2F       		.uleb128 0x2f
 3830 0baa 35090000 		.4byte	0x935
 3831 0bae 7C010000 		.4byte	.LLST9
 3832 0bb2 2F       		.uleb128 0x2f
 3833 0bb3 29090000 		.4byte	0x929
 3834 0bb7 8F010000 		.4byte	.LLST10
 3835 0bbb 38       		.uleb128 0x38
 3836 0bbc B1080000 		.4byte	0x8b1
 3837 0bc0 06000000 		.4byte	.LBB114
 3838 0bc4 04000000 		.4byte	.LBE114-.LBB114
 3839 0bc8 05       		.byte	0x5
 3840 0bc9 7F02     		.2byte	0x27f
 3841 0bcb 2F       		.uleb128 0x2f
 3842 0bcc DA080000 		.4byte	0x8da
 3843 0bd0 5B010000 		.4byte	.LLST8
 3844 0bd4 2F       		.uleb128 0x2f
 3845 0bd5 CE080000 		.4byte	0x8ce
 3846 0bd9 7C010000 		.4byte	.LLST9
 3847 0bdd 2F       		.uleb128 0x2f
 3848 0bde C2080000 		.4byte	0x8c2
 3849 0be2 8F010000 		.4byte	.LLST10
 3850 0be6 00       		.byte	0
 3851 0be7 00       		.byte	0
 3852 0be8 39       		.uleb128 0x39
 3853 0be9 4E090000 		.4byte	0x94e
 3854 0bed 0A000000 		.4byte	.LBB116
 3855 0bf1 00000000 		.4byte	.Ldebug_ranges0+0
 3856 0bf5 01       		.byte	0x1
 3857 0bf6 89       		.byte	0x89
 3858 0bf7 30       		.uleb128 0x30
 3859 0bf8 69090000 		.4byte	0x969
 3860 0bfc 01       		.uleb128 0x1
 3861 0bfd 52       		.byte	0x52
 3862 0bfe 2F       		.uleb128 0x2f
 3863 0bff 5E090000 		.4byte	0x95e
 3864 0c03 A2010000 		.4byte	.LLST14
 3865 0c07 31       		.uleb128 0x31
 3866 0c08 EF080000 		.4byte	0x8ef
 3867 0c0c 18000000 		.4byte	.LBB118
 3868 0c10 20000000 		.4byte	.LBE118-.LBB118
 3869 0c14 01       		.byte	0x1
 3870 0c15 71       		.byte	0x71
 3871 0c16 2F       		.uleb128 0x2f
 3872 0c17 FF080000 		.4byte	0x8ff
 3873 0c1b E7010000 		.4byte	.LLST15
 3874 0c1f 00       		.byte	0
 3875 0c20 00       		.byte	0
 3876 0c21 00       		.byte	0
 3877 0c22 3A       		.uleb128 0x3a
 3878 0c23 75090000 		.4byte	0x975
 3879 0c27 00000000 		.4byte	.LFB227
 3880 0c2b 70000000 		.4byte	.LFE227-.LFB227
 3881 0c2f 01       		.uleb128 0x1
 3882 0c30 9C       		.byte	0x9c
 3883 0c31 800C0000 		.4byte	0xc80
ARM GAS  /tmp/ccoNZDVu.s 			page 133


 3884 0c35 2F       		.uleb128 0x2f
 3885 0c36 81090000 		.4byte	0x981
 3886 0c3a FA010000 		.4byte	.LLST16
 3887 0c3e 3B       		.uleb128 0x3b
 3888 0c3f 8A090000 		.4byte	0x98a
 3889 0c43 02       		.uleb128 0x2
 3890 0c44 91       		.byte	0x91
 3891 0c45 60       		.sleb128 -32
 3892 0c46 3C       		.uleb128 0x3c
 3893 0c47 95090000 		.4byte	0x995
 3894 0c4b 3C020000 		.4byte	.LLST17
 3895 0c4f 3D       		.uleb128 0x3d
 3896 0c50 5A000000 		.4byte	.LBB124
 3897 0c54 12000000 		.4byte	.LBE124-.LBB124
 3898 0c58 3E       		.uleb128 0x3e
 3899 0c59 81090000 		.4byte	0x981
 3900 0c5d 00       		.byte	0
 3901 0c5e 3D       		.uleb128 0x3d
 3902 0c5f 5A000000 		.4byte	.LBB125
 3903 0c63 12000000 		.4byte	.LBE125-.LBB125
 3904 0c67 3F       		.uleb128 0x3f
 3905 0c68 8A090000 		.4byte	0x98a
 3906 0c6c 3F       		.uleb128 0x3f
 3907 0c6d 95090000 		.4byte	0x995
 3908 0c71 2D       		.uleb128 0x2d
 3909 0c72 6C000000 		.4byte	.LVL38
 3910 0c76 2C       		.uleb128 0x2c
 3911 0c77 01       		.uleb128 0x1
 3912 0c78 51       		.byte	0x51
 3913 0c79 02       		.uleb128 0x2
 3914 0c7a 08       		.byte	0x8
 3915 0c7b 30       		.byte	0x30
 3916 0c7c 00       		.byte	0
 3917 0c7d 00       		.byte	0
 3918 0c7e 00       		.byte	0
 3919 0c7f 00       		.byte	0
 3920 0c80 3A       		.uleb128 0x3a
 3921 0c81 B5090000 		.4byte	0x9b5
 3922 0c85 00000000 		.4byte	.LFB228
 3923 0c89 22000000 		.4byte	.LFE228-.LFB228
 3924 0c8d 01       		.uleb128 0x1
 3925 0c8e 9C       		.byte	0x9c
 3926 0c8f 9D0C0000 		.4byte	0xc9d
 3927 0c93 2F       		.uleb128 0x2f
 3928 0c94 C1090000 		.4byte	0x9c1
 3929 0c98 8C020000 		.4byte	.LLST18
 3930 0c9c 00       		.byte	0
 3931 0c9d 40       		.uleb128 0x40
 3932 0c9e 31010000 		.4byte	.LASF131
 3933 0ca2 01       		.byte	0x1
 3934 0ca3 B6       		.byte	0xb6
 3935 0ca4 00000000 		.4byte	.LFB229
 3936 0ca8 3A000000 		.4byte	.LFE229-.LFB229
 3937 0cac 01       		.uleb128 0x1
 3938 0cad 9C       		.byte	0x9c
 3939 0cae F30C0000 		.4byte	0xcf3
 3940 0cb2 33       		.uleb128 0x33
ARM GAS  /tmp/ccoNZDVu.s 			page 134


 3941 0cb3 CC020000 		.4byte	.LASF124
 3942 0cb7 01       		.byte	0x1
 3943 0cb8 B6       		.byte	0xb6
 3944 0cb9 BB060000 		.4byte	0x6bb
 3945 0cbd C2020000 		.4byte	.LLST19
 3946 0cc1 37       		.uleb128 0x37
 3947 0cc2 B5090000 		.4byte	0x9b5
 3948 0cc6 02000000 		.4byte	.LBB126
 3949 0cca 1E000000 		.4byte	.LBE126-.LBB126
 3950 0cce 01       		.byte	0x1
 3951 0ccf B8       		.byte	0xb8
 3952 0cd0 DE0C0000 		.4byte	0xcde
 3953 0cd4 2F       		.uleb128 0x2f
 3954 0cd5 C1090000 		.4byte	0x9c1
 3955 0cd9 EE020000 		.4byte	.LLST20
 3956 0cdd 00       		.byte	0
 3957 0cde 2D       		.uleb128 0x2d
 3958 0cdf 32000000 		.4byte	.LVL51
 3959 0ce3 2C       		.uleb128 0x2c
 3960 0ce4 01       		.uleb128 0x1
 3961 0ce5 52       		.byte	0x52
 3962 0ce6 01       		.uleb128 0x1
 3963 0ce7 32       		.byte	0x32
 3964 0ce8 2C       		.uleb128 0x2c
 3965 0ce9 01       		.uleb128 0x1
 3966 0cea 51       		.byte	0x51
 3967 0ceb 05       		.uleb128 0x5
 3968 0cec 03       		.byte	0x3
 3969 0ced 00000000 		.4byte	.LC0
 3970 0cf1 00       		.byte	0
 3971 0cf2 00       		.byte	0
 3972 0cf3 41       		.uleb128 0x41
 3973 0cf4 21010000 		.4byte	.LASF132
 3974 0cf8 01       		.byte	0x1
 3975 0cf9 C3       		.byte	0xc3
 3976 0cfa 00000000 		.4byte	.LFB230
 3977 0cfe 28000000 		.4byte	.LFE230-.LFB230
 3978 0d02 01       		.uleb128 0x1
 3979 0d03 9C       		.byte	0x9c
 3980 0d04 BB0D0000 		.4byte	0xdbb
 3981 0d08 42       		.uleb128 0x42
 3982 0d09 8D030000 		.4byte	.LASF133
 3983 0d0d 01       		.byte	0x1
 3984 0d0e C3       		.byte	0xc3
 3985 0d0f C6060000 		.4byte	0x6c6
 3986 0d13 01       		.uleb128 0x1
 3987 0d14 50       		.byte	0x50
 3988 0d15 37       		.uleb128 0x37
 3989 0d16 CD090000 		.4byte	0x9cd
 3990 0d1a 00000000 		.4byte	.LBB128
 3991 0d1e 06000000 		.4byte	.LBE128-.LBB128
 3992 0d22 01       		.byte	0x1
 3993 0d23 C5       		.byte	0xc5
 3994 0d24 620D0000 		.4byte	0xd62
 3995 0d28 38       		.uleb128 0x38
 3996 0d29 6B080000 		.4byte	0x86b
 3997 0d2d 00000000 		.4byte	.LBB129
ARM GAS  /tmp/ccoNZDVu.s 			page 135


 3998 0d31 06000000 		.4byte	.LBE129-.LBB129
 3999 0d35 05       		.byte	0x5
 4000 0d36 ED01     		.2byte	0x1ed
 4001 0d38 38       		.uleb128 0x38
 4002 0d39 4D080000 		.4byte	0x84d
 4003 0d3d 00000000 		.4byte	.LBB130
 4004 0d41 06000000 		.4byte	.LBE130-.LBB130
 4005 0d45 13       		.byte	0x13
 4006 0d46 7801     		.2byte	0x178
 4007 0d48 38       		.uleb128 0x38
 4008 0d49 27080000 		.4byte	0x827
 4009 0d4d 00000000 		.4byte	.LBB131
 4010 0d51 06000000 		.4byte	.LBE131-.LBB131
 4011 0d55 0C       		.byte	0xc
 4012 0d56 5A02     		.2byte	0x25a
 4013 0d58 3E       		.uleb128 0x3e
 4014 0d59 34080000 		.4byte	0x834
 4015 0d5d 20       		.byte	0x20
 4016 0d5e 00       		.byte	0
 4017 0d5f 00       		.byte	0
 4018 0d60 00       		.byte	0
 4019 0d61 00       		.byte	0
 4020 0d62 31       		.uleb128 0x31
 4021 0d63 D6090000 		.4byte	0x9d6
 4022 0d67 1C000000 		.4byte	.LBB133
 4023 0d6b 0C000000 		.4byte	.LBE133-.LBB133
 4024 0d6f 01       		.byte	0x1
 4025 0d70 C8       		.byte	0xc8
 4026 0d71 38       		.uleb128 0x38
 4027 0d72 74080000 		.4byte	0x874
 4028 0d76 1C000000 		.4byte	.LBB134
 4029 0d7a 0C000000 		.4byte	.LBE134-.LBB134
 4030 0d7e 05       		.byte	0x5
 4031 0d7f F801     		.2byte	0x1f8
 4032 0d81 3D       		.uleb128 0x3d
 4033 0d82 1C000000 		.4byte	.LBB135
 4034 0d86 0C000000 		.4byte	.LBE135-.LBB135
 4035 0d8a 3F       		.uleb128 0x3f
 4036 0d8b 81080000 		.4byte	0x881
 4037 0d8f 38       		.uleb128 0x38
 4038 0d90 56080000 		.4byte	0x856
 4039 0d94 1C000000 		.4byte	.LBB136
 4040 0d98 0C000000 		.4byte	.LBE136-.LBB136
 4041 0d9c 13       		.byte	0x13
 4042 0d9d 8F01     		.2byte	0x18f
 4043 0d9f 38       		.uleb128 0x38
 4044 0da0 27080000 		.4byte	0x827
 4045 0da4 1C000000 		.4byte	.LBB137
 4046 0da8 0C000000 		.4byte	.LBE137-.LBB137
 4047 0dac 0C       		.byte	0xc
 4048 0dad 6D02     		.2byte	0x26d
 4049 0daf 3E       		.uleb128 0x3e
 4050 0db0 34080000 		.4byte	0x834
 4051 0db4 00       		.byte	0
 4052 0db5 00       		.byte	0
 4053 0db6 00       		.byte	0
 4054 0db7 00       		.byte	0
ARM GAS  /tmp/ccoNZDVu.s 			page 136


 4055 0db8 00       		.byte	0
 4056 0db9 00       		.byte	0
 4057 0dba 00       		.byte	0
 4058 0dbb 41       		.uleb128 0x41
 4059 0dbc 5D050000 		.4byte	.LASF134
 4060 0dc0 01       		.byte	0x1
 4061 0dc1 D2       		.byte	0xd2
 4062 0dc2 00000000 		.4byte	.LFB231
 4063 0dc6 1C000000 		.4byte	.LFE231-.LFB231
 4064 0dca 01       		.uleb128 0x1
 4065 0dcb 9C       		.byte	0x9c
 4066 0dcc DE0D0000 		.4byte	0xdde
 4067 0dd0 42       		.uleb128 0x42
 4068 0dd1 8D030000 		.4byte	.LASF133
 4069 0dd5 01       		.byte	0x1
 4070 0dd6 D2       		.byte	0xd2
 4071 0dd7 C6060000 		.4byte	0x6c6
 4072 0ddb 01       		.uleb128 0x1
 4073 0ddc 50       		.byte	0x50
 4074 0ddd 00       		.byte	0
 4075 0dde 43       		.uleb128 0x43
 4076 0ddf D0060000 		.4byte	.LASF135
 4077 0de3 01       		.byte	0x1
 4078 0de4 4D       		.byte	0x4d
 4079 0de5 01       		.byte	0x1
 4080 0de6 F60D0000 		.4byte	0xdf6
 4081 0dea 25       		.uleb128 0x25
 4082 0deb 74637000 		.ascii	"tcp\000"
 4083 0def 01       		.byte	0x1
 4084 0df0 4D       		.byte	0x4d
 4085 0df1 F60D0000 		.4byte	0xdf6
 4086 0df5 00       		.byte	0
 4087 0df6 0A       		.uleb128 0xa
 4088 0df7 04       		.byte	0x4
 4089 0df8 FC0D0000 		.4byte	0xdfc
 4090 0dfc 17       		.uleb128 0x17
 4091 0dfd 1C080000 		.4byte	0x81c
 4092 0e01 43       		.uleb128 0x43
 4093 0e02 AC010000 		.4byte	.LASF136
 4094 0e06 01       		.byte	0x1
 4095 0e07 46       		.byte	0x46
 4096 0e08 01       		.byte	0x1
 4097 0e09 180E0000 		.4byte	0xe18
 4098 0e0d 28       		.uleb128 0x28
 4099 0e0e 637000   		.ascii	"cp\000"
 4100 0e11 01       		.byte	0x1
 4101 0e12 47       		.byte	0x47
 4102 0e13 AF090000 		.4byte	0x9af
 4103 0e17 00       		.byte	0
 4104 0e18 44       		.uleb128 0x44
 4105 0e19 ED000000 		.4byte	.LASF137
 4106 0e1d 01       		.byte	0x1
 4107 0e1e E3       		.byte	0xe3
 4108 0e1f D9000000 		.4byte	0xd9
 4109 0e23 00000000 		.4byte	.LFB232
 4110 0e27 FC020000 		.4byte	.LFE232-.LFB232
 4111 0e2b 01       		.uleb128 0x1
ARM GAS  /tmp/ccoNZDVu.s 			page 137


 4112 0e2c 9C       		.byte	0x9c
 4113 0e2d BF110000 		.4byte	0x11bf
 4114 0e31 33       		.uleb128 0x33
 4115 0e32 54000000 		.4byte	.LASF138
 4116 0e36 01       		.byte	0x1
 4117 0e37 E3       		.byte	0xe3
 4118 0e38 BF110000 		.4byte	0x11bf
 4119 0e3c 2F030000 		.4byte	.LLST21
 4120 0e40 2A       		.uleb128 0x2a
 4121 0e41 6900     		.ascii	"i\000"
 4122 0e43 01       		.byte	0x1
 4123 0e44 E4       		.byte	0xe4
 4124 0e45 25000000 		.4byte	0x25
 4125 0e49 5F030000 		.4byte	.LLST22
 4126 0e4d 2A       		.uleb128 0x2a
 4127 0e4e 6A00     		.ascii	"j\000"
 4128 0e50 01       		.byte	0x1
 4129 0e51 E4       		.byte	0xe4
 4130 0e52 25000000 		.4byte	0x25
 4131 0e56 B8030000 		.4byte	.LLST23
 4132 0e5a 37       		.uleb128 0x37
 4133 0e5b B5090000 		.4byte	0x9b5
 4134 0e5f 3C000000 		.4byte	.LBB171
 4135 0e63 12000000 		.4byte	.LBE171-.LBB171
 4136 0e67 01       		.byte	0x1
 4137 0e68 EE       		.byte	0xee
 4138 0e69 770E0000 		.4byte	0xe77
 4139 0e6d 2F       		.uleb128 0x2f
 4140 0e6e C1090000 		.4byte	0x9c1
 4141 0e72 F0030000 		.4byte	.LLST24
 4142 0e76 00       		.byte	0
 4143 0e77 37       		.uleb128 0x37
 4144 0e78 B5090000 		.4byte	0x9b5
 4145 0e7c 62000000 		.4byte	.LBB173
 4146 0e80 12000000 		.4byte	.LBE173-.LBB173
 4147 0e84 01       		.byte	0x1
 4148 0e85 F1       		.byte	0xf1
 4149 0e86 940E0000 		.4byte	0xe94
 4150 0e8a 2F       		.uleb128 0x2f
 4151 0e8b C1090000 		.4byte	0x9c1
 4152 0e8f 2B040000 		.4byte	.LLST25
 4153 0e93 00       		.byte	0
 4154 0e94 37       		.uleb128 0x37
 4155 0e95 B5090000 		.4byte	0x9b5
 4156 0e99 88000000 		.4byte	.LBB175
 4157 0e9d 12000000 		.4byte	.LBE175-.LBB175
 4158 0ea1 01       		.byte	0x1
 4159 0ea2 F5       		.byte	0xf5
 4160 0ea3 B10E0000 		.4byte	0xeb1
 4161 0ea7 2F       		.uleb128 0x2f
 4162 0ea8 C1090000 		.4byte	0x9c1
 4163 0eac 66040000 		.4byte	.LLST26
 4164 0eb0 00       		.byte	0
 4165 0eb1 45       		.uleb128 0x45
 4166 0eb2 DE0D0000 		.4byte	0xdde
 4167 0eb6 D6000000 		.4byte	.LBB177
 4168 0eba 18000000 		.4byte	.Ldebug_ranges0+0x18
ARM GAS  /tmp/ccoNZDVu.s 			page 138


 4169 0ebe 01       		.byte	0x1
 4170 0ebf 0D01     		.2byte	0x10d
 4171 0ec1 DE0E0000 		.4byte	0xede
 4172 0ec5 2F       		.uleb128 0x2f
 4173 0ec6 EA0D0000 		.4byte	0xdea
 4174 0eca A1040000 		.4byte	.LLST27
 4175 0ece 46       		.uleb128 0x46
 4176 0ecf E7080000 		.4byte	0x8e7
 4177 0ed3 D6000000 		.4byte	.LBB179
 4178 0ed7 40000000 		.4byte	.Ldebug_ranges0+0x40
 4179 0edb 01       		.byte	0x1
 4180 0edc 50       		.byte	0x50
 4181 0edd 00       		.byte	0
 4182 0ede 45       		.uleb128 0x45
 4183 0edf B5090000 		.4byte	0x9b5
 4184 0ee3 EC000000 		.4byte	.LBB189
 4185 0ee7 60000000 		.4byte	.Ldebug_ranges0+0x60
 4186 0eeb 01       		.byte	0x1
 4187 0eec 1101     		.2byte	0x111
 4188 0eee FC0E0000 		.4byte	0xefc
 4189 0ef2 2F       		.uleb128 0x2f
 4190 0ef3 C1090000 		.4byte	0x9c1
 4191 0ef7 BF040000 		.4byte	.LLST28
 4192 0efb 00       		.byte	0
 4193 0efc 47       		.uleb128 0x47
 4194 0efd B5090000 		.4byte	0x9b5
 4195 0f01 0C010000 		.4byte	.LBB193
 4196 0f05 1A000000 		.4byte	.LBE193-.LBB193
 4197 0f09 01       		.byte	0x1
 4198 0f0a 0301     		.2byte	0x103
 4199 0f0c 1A0F0000 		.4byte	0xf1a
 4200 0f10 2F       		.uleb128 0x2f
 4201 0f11 C1090000 		.4byte	0x9c1
 4202 0f15 FA040000 		.4byte	.LLST29
 4203 0f19 00       		.byte	0
 4204 0f1a 45       		.uleb128 0x45
 4205 0f1b B5090000 		.4byte	0x9b5
 4206 0f1f 2C010000 		.4byte	.LBB195
 4207 0f23 80000000 		.4byte	.Ldebug_ranges0+0x80
 4208 0f27 01       		.byte	0x1
 4209 0f28 0501     		.2byte	0x105
 4210 0f2a 400F0000 		.4byte	0xf40
 4211 0f2e 48       		.uleb128 0x48
 4212 0f2f C1090000 		.4byte	0x9c1
 4213 0f33 2D       		.uleb128 0x2d
 4214 0f34 3A010000 		.4byte	.LVL94
 4215 0f38 2C       		.uleb128 0x2c
 4216 0f39 01       		.uleb128 0x1
 4217 0f3a 51       		.byte	0x51
 4218 0f3b 02       		.uleb128 0x2
 4219 0f3c 08       		.byte	0x8
 4220 0f3d 2E       		.byte	0x2e
 4221 0f3e 00       		.byte	0
 4222 0f3f 00       		.byte	0
 4223 0f40 47       		.uleb128 0x47
 4224 0f41 B5090000 		.4byte	0x9b5
 4225 0f45 48010000 		.4byte	.LBB199
ARM GAS  /tmp/ccoNZDVu.s 			page 139


 4226 0f49 12000000 		.4byte	.LBE199-.LBB199
 4227 0f4d 01       		.byte	0x1
 4228 0f4e 0701     		.2byte	0x107
 4229 0f50 5E0F0000 		.4byte	0xf5e
 4230 0f54 2F       		.uleb128 0x2f
 4231 0f55 C1090000 		.4byte	0x9c1
 4232 0f59 40050000 		.4byte	.LLST31
 4233 0f5d 00       		.byte	0
 4234 0f5e 47       		.uleb128 0x47
 4235 0f5f B5090000 		.4byte	0x9b5
 4236 0f63 64010000 		.4byte	.LBB201
 4237 0f67 16000000 		.4byte	.LBE201-.LBB201
 4238 0f6b 01       		.byte	0x1
 4239 0f6c 0801     		.2byte	0x108
 4240 0f6e 7C0F0000 		.4byte	0xf7c
 4241 0f72 2F       		.uleb128 0x2f
 4242 0f73 C1090000 		.4byte	0x9c1
 4243 0f77 7B050000 		.4byte	.LLST32
 4244 0f7b 00       		.byte	0
 4245 0f7c 47       		.uleb128 0x47
 4246 0f7d DF090000 		.4byte	0x9df
 4247 0f81 86010000 		.4byte	.LBB203
 4248 0f85 06000000 		.4byte	.LBE203-.LBB203
 4249 0f89 01       		.byte	0x1
 4250 0f8a 0B01     		.2byte	0x10b
 4251 0f8c AA0F0000 		.4byte	0xfaa
 4252 0f90 2F       		.uleb128 0x2f
 4253 0f91 EC090000 		.4byte	0x9ec
 4254 0f95 B1050000 		.4byte	.LLST33
 4255 0f99 49       		.uleb128 0x49
 4256 0f9a 8C010000 		.4byte	.LVL108
 4257 0f9e 79120000 		.4byte	0x1279
 4258 0fa2 2C       		.uleb128 0x2c
 4259 0fa3 01       		.uleb128 0x1
 4260 0fa4 50       		.byte	0x50
 4261 0fa5 02       		.uleb128 0x2
 4262 0fa6 08       		.byte	0x8
 4263 0fa7 C8       		.byte	0xc8
 4264 0fa8 00       		.byte	0
 4265 0fa9 00       		.byte	0
 4266 0faa 47       		.uleb128 0x47
 4267 0fab B5090000 		.4byte	0x9b5
 4268 0faf CE010000 		.4byte	.LBB207
 4269 0fb3 12000000 		.4byte	.LBE207-.LBB207
 4270 0fb7 01       		.byte	0x1
 4271 0fb8 0F01     		.2byte	0x10f
 4272 0fba C80F0000 		.4byte	0xfc8
 4273 0fbe 2F       		.uleb128 0x2f
 4274 0fbf C1090000 		.4byte	0x9c1
 4275 0fc3 D3050000 		.4byte	.LLST34
 4276 0fc7 00       		.byte	0
 4277 0fc8 47       		.uleb128 0x47
 4278 0fc9 010E0000 		.4byte	0xe01
 4279 0fcd 08020000 		.4byte	.LBB210
 4280 0fd1 2A000000 		.4byte	.LBE210-.LBB210
 4281 0fd5 01       		.byte	0x1
 4282 0fd6 1201     		.2byte	0x112
ARM GAS  /tmp/ccoNZDVu.s 			page 140


 4283 0fd8 F00F0000 		.4byte	0xff0
 4284 0fdc 3D       		.uleb128 0x3d
 4285 0fdd 08020000 		.4byte	.LBB211
 4286 0fe1 2A000000 		.4byte	.LBE211-.LBB211
 4287 0fe5 3C       		.uleb128 0x3c
 4288 0fe6 0D0E0000 		.4byte	0xe0d
 4289 0fea FE050000 		.4byte	.LLST35
 4290 0fee 00       		.byte	0
 4291 0fef 00       		.byte	0
 4292 0ff0 47       		.uleb128 0x47
 4293 0ff1 B5090000 		.4byte	0x9b5
 4294 0ff5 34020000 		.4byte	.LBB213
 4295 0ff9 10000000 		.4byte	.LBE213-.LBB213
 4296 0ffd 01       		.byte	0x1
 4297 0ffe 1301     		.2byte	0x113
 4298 1000 0E100000 		.4byte	0x100e
 4299 1004 2F       		.uleb128 0x2f
 4300 1005 C1090000 		.4byte	0x9c1
 4301 1009 3B060000 		.4byte	.LLST36
 4302 100d 00       		.byte	0
 4303 100e 47       		.uleb128 0x47
 4304 100f B5090000 		.4byte	0x9b5
 4305 1013 4E020000 		.4byte	.LBB215
 4306 1017 16000000 		.4byte	.LBE215-.LBB215
 4307 101b 01       		.byte	0x1
 4308 101c 1401     		.2byte	0x114
 4309 101e 2C100000 		.4byte	0x102c
 4310 1022 2F       		.uleb128 0x2f
 4311 1023 C1090000 		.4byte	0x9c1
 4312 1027 66060000 		.4byte	.LLST37
 4313 102b 00       		.byte	0
 4314 102c 47       		.uleb128 0x47
 4315 102d B5090000 		.4byte	0x9b5
 4316 1031 A4020000 		.4byte	.LBB217
 4317 1035 12000000 		.4byte	.LBE217-.LBB217
 4318 1039 01       		.byte	0x1
 4319 103a 1F01     		.2byte	0x11f
 4320 103c 4A100000 		.4byte	0x104a
 4321 1040 2F       		.uleb128 0x2f
 4322 1041 C1090000 		.4byte	0x9c1
 4323 1045 9C060000 		.4byte	.LLST38
 4324 1049 00       		.byte	0
 4325 104a 4A       		.uleb128 0x4a
 4326 104b 1C000000 		.4byte	.LVL58
 4327 104f 9D0C0000 		.4byte	0xc9d
 4328 1053 61100000 		.4byte	0x1061
 4329 1057 2C       		.uleb128 0x2c
 4330 1058 01       		.uleb128 0x1
 4331 1059 50       		.byte	0x50
 4332 105a 05       		.uleb128 0x5
 4333 105b 03       		.byte	0x3
 4334 105c 04000000 		.4byte	.LC1
 4335 1060 00       		.byte	0
 4336 1061 4A       		.uleb128 0x4a
 4337 1062 28000000 		.4byte	.LVL59
 4338 1066 9D0C0000 		.4byte	0xc9d
 4339 106a 78100000 		.4byte	0x1078
ARM GAS  /tmp/ccoNZDVu.s 			page 141


 4340 106e 2C       		.uleb128 0x2c
 4341 106f 01       		.uleb128 0x1
 4342 1070 50       		.byte	0x50
 4343 1071 05       		.uleb128 0x5
 4344 1072 03       		.byte	0x3
 4345 1073 08000000 		.4byte	.LC2
 4346 1077 00       		.byte	0
 4347 1078 4A       		.uleb128 0x4a
 4348 1079 38000000 		.4byte	.LVL60
 4349 107d 9D0C0000 		.4byte	0xc9d
 4350 1081 8F100000 		.4byte	0x108f
 4351 1085 2C       		.uleb128 0x2c
 4352 1086 01       		.uleb128 0x1
 4353 1087 50       		.byte	0x50
 4354 1088 05       		.uleb128 0x5
 4355 1089 03       		.byte	0x3
 4356 108a 24000000 		.4byte	.LC3
 4357 108e 00       		.byte	0
 4358 108f 4A       		.uleb128 0x4a
 4359 1090 5E000000 		.4byte	.LVL66
 4360 1094 9D0C0000 		.4byte	0xc9d
 4361 1098 A6100000 		.4byte	0x10a6
 4362 109c 2C       		.uleb128 0x2c
 4363 109d 01       		.uleb128 0x1
 4364 109e 50       		.byte	0x50
 4365 109f 05       		.uleb128 0x5
 4366 10a0 03       		.byte	0x3
 4367 10a1 AC000000 		.4byte	.LC14
 4368 10a5 00       		.byte	0
 4369 10a6 4A       		.uleb128 0x4a
 4370 10a7 84000000 		.4byte	.LVL72
 4371 10ab 9D0C0000 		.4byte	0xc9d
 4372 10af BD100000 		.4byte	0x10bd
 4373 10b3 2C       		.uleb128 0x2c
 4374 10b4 01       		.uleb128 0x1
 4375 10b5 50       		.byte	0x50
 4376 10b6 05       		.uleb128 0x5
 4377 10b7 03       		.byte	0x3
 4378 10b8 D8000000 		.4byte	.LC16
 4379 10bc 00       		.byte	0
 4380 10bd 4A       		.uleb128 0x4a
 4381 10be AC000000 		.4byte	.LVL77
 4382 10c2 9D0C0000 		.4byte	0xc9d
 4383 10c6 D4100000 		.4byte	0x10d4
 4384 10ca 2C       		.uleb128 0x2c
 4385 10cb 01       		.uleb128 0x1
 4386 10cc 50       		.byte	0x50
 4387 10cd 05       		.uleb128 0x5
 4388 10ce 03       		.byte	0x3
 4389 10cf 3C000000 		.4byte	.LC5
 4390 10d3 00       		.byte	0
 4391 10d4 4B       		.uleb128 0x4b
 4392 10d5 B0000000 		.4byte	.LVL78
 4393 10d9 8B120000 		.4byte	0x128b
 4394 10dd 4A       		.uleb128 0x4a
 4395 10de C0000000 		.4byte	.LVL79
 4396 10e2 9D0C0000 		.4byte	0xc9d
ARM GAS  /tmp/ccoNZDVu.s 			page 142


 4397 10e6 F4100000 		.4byte	0x10f4
 4398 10ea 2C       		.uleb128 0x2c
 4399 10eb 01       		.uleb128 0x1
 4400 10ec 50       		.byte	0x50
 4401 10ed 05       		.uleb128 0x5
 4402 10ee 03       		.byte	0x3
 4403 10ef 04000000 		.4byte	.LC1
 4404 10f3 00       		.byte	0
 4405 10f4 4B       		.uleb128 0x4b
 4406 10f5 08010000 		.4byte	.LVL86
 4407 10f9 F9090000 		.4byte	0x9f9
 4408 10fd 4A       		.uleb128 0x4a
 4409 10fe 2C010000 		.4byte	.LVL91
 4410 1102 75090000 		.4byte	0x975
 4411 1106 12110000 		.4byte	0x1112
 4412 110a 2C       		.uleb128 0x2c
 4413 110b 01       		.uleb128 0x1
 4414 110c 50       		.byte	0x50
 4415 110d 03       		.uleb128 0x3
 4416 110e 91       		.byte	0x91
 4417 110f 50       		.sleb128 -48
 4418 1110 06       		.byte	0x6
 4419 1111 00       		.byte	0
 4420 1112 4A       		.uleb128 0x4a
 4421 1113 44010000 		.4byte	.LVL95
 4422 1117 75090000 		.4byte	0x975
 4423 111b 26110000 		.4byte	0x1126
 4424 111f 2C       		.uleb128 0x2c
 4425 1120 01       		.uleb128 0x1
 4426 1121 50       		.byte	0x50
 4427 1122 02       		.uleb128 0x2
 4428 1123 76       		.byte	0x76
 4429 1124 00       		.sleb128 0
 4430 1125 00       		.byte	0
 4431 1126 4A       		.uleb128 0x4a
 4432 1127 86010000 		.4byte	.LVL107
 4433 112b 9D0C0000 		.4byte	0xc9d
 4434 112f 3D110000 		.4byte	0x113d
 4435 1133 2C       		.uleb128 0x2c
 4436 1134 01       		.uleb128 0x1
 4437 1135 50       		.byte	0x50
 4438 1136 05       		.uleb128 0x5
 4439 1137 03       		.byte	0x3
 4440 1138 64000000 		.4byte	.LC7
 4441 113c 00       		.byte	0
 4442 113d 4B       		.uleb128 0x4b
 4443 113e F2010000 		.4byte	.LVL119
 4444 1142 75090000 		.4byte	0x975
 4445 1146 4A       		.uleb128 0x4a
 4446 1147 70020000 		.4byte	.LVL142
 4447 114b 9D0C0000 		.4byte	0xc9d
 4448 114f 5D110000 		.4byte	0x115d
 4449 1153 2C       		.uleb128 0x2c
 4450 1154 01       		.uleb128 0x1
 4451 1155 50       		.byte	0x50
 4452 1156 05       		.uleb128 0x5
 4453 1157 03       		.byte	0x3
ARM GAS  /tmp/ccoNZDVu.s 			page 143


 4454 1158 84000000 		.4byte	.LC10
 4455 115c 00       		.byte	0
 4456 115d 4B       		.uleb128 0x4b
 4457 115e 90020000 		.4byte	.LVL146
 4458 1162 F9090000 		.4byte	0x9f9
 4459 1166 4A       		.uleb128 0x4a
 4460 1167 A0020000 		.4byte	.LVL147
 4461 116b 9D0C0000 		.4byte	0xc9d
 4462 116f 7D110000 		.4byte	0x117d
 4463 1173 2C       		.uleb128 0x2c
 4464 1174 01       		.uleb128 0x1
 4465 1175 50       		.byte	0x50
 4466 1176 05       		.uleb128 0x5
 4467 1177 03       		.byte	0x3
 4468 1178 04000000 		.4byte	.LC1
 4469 117c 00       		.byte	0
 4470 117d 4A       		.uleb128 0x4a
 4471 117e C8020000 		.4byte	.LVL152
 4472 1182 9D0C0000 		.4byte	0xc9d
 4473 1186 94110000 		.4byte	0x1194
 4474 118a 2C       		.uleb128 0x2c
 4475 118b 01       		.uleb128 0x1
 4476 118c 50       		.byte	0x50
 4477 118d 05       		.uleb128 0x5
 4478 118e 03       		.byte	0x3
 4479 118f A4000000 		.4byte	.LC13
 4480 1193 00       		.byte	0
 4481 1194 4A       		.uleb128 0x4a
 4482 1195 DE020000 		.4byte	.LVL154
 4483 1199 9D0C0000 		.4byte	0xc9d
 4484 119d AB110000 		.4byte	0x11ab
 4485 11a1 2C       		.uleb128 0x2c
 4486 11a2 01       		.uleb128 0x1
 4487 11a3 50       		.byte	0x50
 4488 11a4 05       		.uleb128 0x5
 4489 11a5 03       		.byte	0x3
 4490 11a6 88000000 		.4byte	.LC11
 4491 11aa 00       		.byte	0
 4492 11ab 49       		.uleb128 0x49
 4493 11ac EC020000 		.4byte	.LVL156
 4494 11b0 9D0C0000 		.4byte	0xc9d
 4495 11b4 2C       		.uleb128 0x2c
 4496 11b5 01       		.uleb128 0x1
 4497 11b6 50       		.byte	0x50
 4498 11b7 05       		.uleb128 0x5
 4499 11b8 03       		.byte	0x3
 4500 11b9 9C000000 		.4byte	.LC12
 4501 11bd 00       		.byte	0
 4502 11be 00       		.byte	0
 4503 11bf 0A       		.uleb128 0xa
 4504 11c0 04       		.byte	0x4
 4505 11c1 D1070000 		.4byte	0x7d1
 4506 11c5 4C       		.uleb128 0x4c
 4507 11c6 DB050000 		.4byte	.LASF139
 4508 11ca 01       		.byte	0x1
 4509 11cb 37       		.byte	0x37
 4510 11cc EF060000 		.4byte	0x6ef
ARM GAS  /tmp/ccoNZDVu.s 			page 144


 4511 11d0 05       		.uleb128 0x5
 4512 11d1 03       		.byte	0x3
 4513 11d2 00000000 		.4byte	test_local_fail
 4514 11d6 4C       		.uleb128 0x4c
 4515 11d7 EB060000 		.4byte	.LASF140
 4516 11db 01       		.byte	0x1
 4517 11dc 38       		.byte	0x38
 4518 11dd BB060000 		.4byte	0x6bb
 4519 11e1 05       		.uleb128 0x5
 4520 11e2 03       		.byte	0x3
 4521 11e3 00000000 		.4byte	test_failure_message
 4522 11e7 4C       		.uleb128 0x4c
 4523 11e8 99000000 		.4byte	.LASF141
 4524 11ec 01       		.byte	0x1
 4525 11ed 39       		.byte	0x39
 4526 11ee 9F090000 		.4byte	0x99f
 4527 11f2 05       		.uleb128 0x5
 4528 11f3 03       		.byte	0x3
 4529 11f4 00000000 		.4byte	test_tokens_buffer
 4530 11f8 4C       		.uleb128 0x4c
 4531 11f9 7C000000 		.4byte	.LASF142
 4532 11fd 01       		.byte	0x1
 4533 11fe 3A       		.byte	0x3a
 4534 11ff AF090000 		.4byte	0x9af
 4535 1203 05       		.uleb128 0x5
 4536 1204 03       		.byte	0x3
 4537 1205 00000000 		.4byte	test_tokp
 4538 1209 4C       		.uleb128 0x4c
 4539 120a D2050000 		.4byte	.LASF143
 4540 120e 01       		.byte	0x1
 4541 120f 3B       		.byte	0x3b
 4542 1210 BF110000 		.4byte	0x11bf
 4543 1214 05       		.uleb128 0x5
 4544 1215 03       		.byte	0x3
 4545 1216 00000000 		.4byte	test_chp
 4546 121a 4D       		.uleb128 0x4d
 4547 121b CA000000 		.4byte	.LASF144
 4548 121f 14       		.byte	0x14
 4549 1220 9606     		.2byte	0x696
 4550 1222 26120000 		.4byte	0x1226
 4551 1226 0F       		.uleb128 0xf
 4552 1227 70000000 		.4byte	0x70
 4553 122b 4E       		.uleb128 0x4e
 4554 122c 636800   		.ascii	"ch\000"
 4555 122f 0A       		.byte	0xa
 4556 1230 D201     		.2byte	0x1d2
 4557 1232 A5030000 		.4byte	0x3a5
 4558 1236 4F       		.uleb128 0x4f
 4559 1237 34030000 		.4byte	.LASF145
 4560 123b 01       		.byte	0x1
 4561 123c 28       		.byte	0x28
 4562 123d 37000000 		.4byte	0x37
 4563 1241 05       		.uleb128 0x5
 4564 1242 03       		.byte	0x3
 4565 1243 00000000 		.4byte	test_step
 4566 1247 4F       		.uleb128 0x4f
 4567 1248 9A050000 		.4byte	.LASF146
ARM GAS  /tmp/ccoNZDVu.s 			page 145


 4568 124c 01       		.byte	0x1
 4569 124d 2D       		.byte	0x2d
 4570 124e EF060000 		.4byte	0x6ef
 4571 1252 05       		.uleb128 0x5
 4572 1253 03       		.byte	0x3
 4573 1254 00000000 		.4byte	test_global_fail
 4574 1258 10       		.uleb128 0x10
 4575 1259 63120000 		.4byte	0x1263
 4576 125d 63120000 		.4byte	0x1263
 4577 1261 50       		.uleb128 0x50
 4578 1262 00       		.byte	0
 4579 1263 0A       		.uleb128 0xa
 4580 1264 04       		.byte	0x4
 4581 1265 69120000 		.4byte	0x1269
 4582 1269 17       		.uleb128 0x17
 4583 126a F60D0000 		.4byte	0xdf6
 4584 126e 51       		.uleb128 0x51
 4585 126f 52050000 		.4byte	.LASF147
 4586 1273 15       		.byte	0x15
 4587 1274 2D       		.byte	0x2d
 4588 1275 58120000 		.4byte	0x1258
 4589 1279 52       		.uleb128 0x52
 4590 127a 63040000 		.4byte	.LASF148
 4591 127e 16       		.byte	0x16
 4592 127f 0901     		.2byte	0x109
 4593 1281 8B120000 		.4byte	0x128b
 4594 1285 0D       		.uleb128 0xd
 4595 1286 FA000000 		.4byte	0xfa
 4596 128a 00       		.byte	0
 4597 128b 53       		.uleb128 0x53
 4598 128c FF050000 		.4byte	.LASF153
 4599 1290 15       		.byte	0x15
 4600 1291 5F       		.byte	0x5f
 4601 1292 00       		.byte	0
 4602              		.section	.debug_abbrev,"",%progbits
 4603              	.Ldebug_abbrev0:
 4604 0000 01       		.uleb128 0x1
 4605 0001 11       		.uleb128 0x11
 4606 0002 01       		.byte	0x1
 4607 0003 25       		.uleb128 0x25
 4608 0004 0E       		.uleb128 0xe
 4609 0005 13       		.uleb128 0x13
 4610 0006 0B       		.uleb128 0xb
 4611 0007 03       		.uleb128 0x3
 4612 0008 0E       		.uleb128 0xe
 4613 0009 1B       		.uleb128 0x1b
 4614 000a 0E       		.uleb128 0xe
 4615 000b 55       		.uleb128 0x55
 4616 000c 17       		.uleb128 0x17
 4617 000d 11       		.uleb128 0x11
 4618 000e 01       		.uleb128 0x1
 4619 000f 10       		.uleb128 0x10
 4620 0010 17       		.uleb128 0x17
 4621 0011 00       		.byte	0
 4622 0012 00       		.byte	0
 4623 0013 02       		.uleb128 0x2
 4624 0014 24       		.uleb128 0x24
ARM GAS  /tmp/ccoNZDVu.s 			page 146


 4625 0015 00       		.byte	0
 4626 0016 0B       		.uleb128 0xb
 4627 0017 0B       		.uleb128 0xb
 4628 0018 3E       		.uleb128 0x3e
 4629 0019 0B       		.uleb128 0xb
 4630 001a 03       		.uleb128 0x3
 4631 001b 08       		.uleb128 0x8
 4632 001c 00       		.byte	0
 4633 001d 00       		.byte	0
 4634 001e 03       		.uleb128 0x3
 4635 001f 16       		.uleb128 0x16
 4636 0020 00       		.byte	0
 4637 0021 03       		.uleb128 0x3
 4638 0022 0E       		.uleb128 0xe
 4639 0023 3A       		.uleb128 0x3a
 4640 0024 0B       		.uleb128 0xb
 4641 0025 3B       		.uleb128 0x3b
 4642 0026 0B       		.uleb128 0xb
 4643 0027 49       		.uleb128 0x49
 4644 0028 13       		.uleb128 0x13
 4645 0029 00       		.byte	0
 4646 002a 00       		.byte	0
 4647 002b 04       		.uleb128 0x4
 4648 002c 24       		.uleb128 0x24
 4649 002d 00       		.byte	0
 4650 002e 0B       		.uleb128 0xb
 4651 002f 0B       		.uleb128 0xb
 4652 0030 3E       		.uleb128 0x3e
 4653 0031 0B       		.uleb128 0xb
 4654 0032 03       		.uleb128 0x3
 4655 0033 0E       		.uleb128 0xe
 4656 0034 00       		.byte	0
 4657 0035 00       		.byte	0
 4658 0036 05       		.uleb128 0x5
 4659 0037 13       		.uleb128 0x13
 4660 0038 01       		.byte	0x1
 4661 0039 03       		.uleb128 0x3
 4662 003a 0E       		.uleb128 0xe
 4663 003b 0B       		.uleb128 0xb
 4664 003c 0B       		.uleb128 0xb
 4665 003d 3A       		.uleb128 0x3a
 4666 003e 0B       		.uleb128 0xb
 4667 003f 3B       		.uleb128 0x3b
 4668 0040 0B       		.uleb128 0xb
 4669 0041 01       		.uleb128 0x1
 4670 0042 13       		.uleb128 0x13
 4671 0043 00       		.byte	0
 4672 0044 00       		.byte	0
 4673 0045 06       		.uleb128 0x6
 4674 0046 0D       		.uleb128 0xd
 4675 0047 00       		.byte	0
 4676 0048 03       		.uleb128 0x3
 4677 0049 0E       		.uleb128 0xe
 4678 004a 3A       		.uleb128 0x3a
 4679 004b 0B       		.uleb128 0xb
 4680 004c 3B       		.uleb128 0x3b
 4681 004d 0B       		.uleb128 0xb
ARM GAS  /tmp/ccoNZDVu.s 			page 147


 4682 004e 49       		.uleb128 0x49
 4683 004f 13       		.uleb128 0x13
 4684 0050 38       		.uleb128 0x38
 4685 0051 0B       		.uleb128 0xb
 4686 0052 00       		.byte	0
 4687 0053 00       		.byte	0
 4688 0054 07       		.uleb128 0x7
 4689 0055 0D       		.uleb128 0xd
 4690 0056 00       		.byte	0
 4691 0057 03       		.uleb128 0x3
 4692 0058 08       		.uleb128 0x8
 4693 0059 3A       		.uleb128 0x3a
 4694 005a 0B       		.uleb128 0xb
 4695 005b 3B       		.uleb128 0x3b
 4696 005c 0B       		.uleb128 0xb
 4697 005d 49       		.uleb128 0x49
 4698 005e 13       		.uleb128 0x13
 4699 005f 38       		.uleb128 0x38
 4700 0060 0B       		.uleb128 0xb
 4701 0061 00       		.byte	0
 4702 0062 00       		.byte	0
 4703 0063 08       		.uleb128 0x8
 4704 0064 0D       		.uleb128 0xd
 4705 0065 00       		.byte	0
 4706 0066 03       		.uleb128 0x3
 4707 0067 08       		.uleb128 0x8
 4708 0068 3A       		.uleb128 0x3a
 4709 0069 0B       		.uleb128 0xb
 4710 006a 3B       		.uleb128 0x3b
 4711 006b 05       		.uleb128 0x5
 4712 006c 49       		.uleb128 0x49
 4713 006d 13       		.uleb128 0x13
 4714 006e 38       		.uleb128 0x38
 4715 006f 0B       		.uleb128 0xb
 4716 0070 00       		.byte	0
 4717 0071 00       		.byte	0
 4718 0072 09       		.uleb128 0x9
 4719 0073 0D       		.uleb128 0xd
 4720 0074 00       		.byte	0
 4721 0075 03       		.uleb128 0x3
 4722 0076 0E       		.uleb128 0xe
 4723 0077 3A       		.uleb128 0x3a
 4724 0078 0B       		.uleb128 0xb
 4725 0079 3B       		.uleb128 0x3b
 4726 007a 05       		.uleb128 0x5
 4727 007b 49       		.uleb128 0x49
 4728 007c 13       		.uleb128 0x13
 4729 007d 38       		.uleb128 0x38
 4730 007e 0B       		.uleb128 0xb
 4731 007f 00       		.byte	0
 4732 0080 00       		.byte	0
 4733 0081 0A       		.uleb128 0xa
 4734 0082 0F       		.uleb128 0xf
 4735 0083 00       		.byte	0
 4736 0084 0B       		.uleb128 0xb
 4737 0085 0B       		.uleb128 0xb
 4738 0086 49       		.uleb128 0x49
ARM GAS  /tmp/ccoNZDVu.s 			page 148


 4739 0087 13       		.uleb128 0x13
 4740 0088 00       		.byte	0
 4741 0089 00       		.byte	0
 4742 008a 0B       		.uleb128 0xb
 4743 008b 13       		.uleb128 0x13
 4744 008c 01       		.byte	0x1
 4745 008d 03       		.uleb128 0x3
 4746 008e 0E       		.uleb128 0xe
 4747 008f 0B       		.uleb128 0xb
 4748 0090 0B       		.uleb128 0xb
 4749 0091 3A       		.uleb128 0x3a
 4750 0092 0B       		.uleb128 0xb
 4751 0093 3B       		.uleb128 0x3b
 4752 0094 05       		.uleb128 0x5
 4753 0095 01       		.uleb128 0x1
 4754 0096 13       		.uleb128 0x13
 4755 0097 00       		.byte	0
 4756 0098 00       		.byte	0
 4757 0099 0C       		.uleb128 0xc
 4758 009a 15       		.uleb128 0x15
 4759 009b 01       		.byte	0x1
 4760 009c 27       		.uleb128 0x27
 4761 009d 19       		.uleb128 0x19
 4762 009e 01       		.uleb128 0x1
 4763 009f 13       		.uleb128 0x13
 4764 00a0 00       		.byte	0
 4765 00a1 00       		.byte	0
 4766 00a2 0D       		.uleb128 0xd
 4767 00a3 05       		.uleb128 0x5
 4768 00a4 00       		.byte	0
 4769 00a5 49       		.uleb128 0x49
 4770 00a6 13       		.uleb128 0x13
 4771 00a7 00       		.byte	0
 4772 00a8 00       		.byte	0
 4773 00a9 0E       		.uleb128 0xe
 4774 00aa 0F       		.uleb128 0xf
 4775 00ab 00       		.byte	0
 4776 00ac 0B       		.uleb128 0xb
 4777 00ad 0B       		.uleb128 0xb
 4778 00ae 00       		.byte	0
 4779 00af 00       		.byte	0
 4780 00b0 0F       		.uleb128 0xf
 4781 00b1 35       		.uleb128 0x35
 4782 00b2 00       		.byte	0
 4783 00b3 49       		.uleb128 0x49
 4784 00b4 13       		.uleb128 0x13
 4785 00b5 00       		.byte	0
 4786 00b6 00       		.byte	0
 4787 00b7 10       		.uleb128 0x10
 4788 00b8 01       		.uleb128 0x1
 4789 00b9 01       		.byte	0x1
 4790 00ba 49       		.uleb128 0x49
 4791 00bb 13       		.uleb128 0x13
 4792 00bc 01       		.uleb128 0x1
 4793 00bd 13       		.uleb128 0x13
 4794 00be 00       		.byte	0
 4795 00bf 00       		.byte	0
ARM GAS  /tmp/ccoNZDVu.s 			page 149


 4796 00c0 11       		.uleb128 0x11
 4797 00c1 21       		.uleb128 0x21
 4798 00c2 00       		.byte	0
 4799 00c3 49       		.uleb128 0x49
 4800 00c4 13       		.uleb128 0x13
 4801 00c5 2F       		.uleb128 0x2f
 4802 00c6 0B       		.uleb128 0xb
 4803 00c7 00       		.byte	0
 4804 00c8 00       		.byte	0
 4805 00c9 12       		.uleb128 0x12
 4806 00ca 13       		.uleb128 0x13
 4807 00cb 01       		.byte	0x1
 4808 00cc 0B       		.uleb128 0xb
 4809 00cd 0B       		.uleb128 0xb
 4810 00ce 3A       		.uleb128 0x3a
 4811 00cf 0B       		.uleb128 0xb
 4812 00d0 3B       		.uleb128 0x3b
 4813 00d1 05       		.uleb128 0x5
 4814 00d2 01       		.uleb128 0x1
 4815 00d3 13       		.uleb128 0x13
 4816 00d4 00       		.byte	0
 4817 00d5 00       		.byte	0
 4818 00d6 13       		.uleb128 0x13
 4819 00d7 16       		.uleb128 0x16
 4820 00d8 00       		.byte	0
 4821 00d9 03       		.uleb128 0x3
 4822 00da 0E       		.uleb128 0xe
 4823 00db 3A       		.uleb128 0x3a
 4824 00dc 0B       		.uleb128 0xb
 4825 00dd 3B       		.uleb128 0x3b
 4826 00de 05       		.uleb128 0x5
 4827 00df 49       		.uleb128 0x49
 4828 00e0 13       		.uleb128 0x13
 4829 00e1 00       		.byte	0
 4830 00e2 00       		.byte	0
 4831 00e3 14       		.uleb128 0x14
 4832 00e4 17       		.uleb128 0x17
 4833 00e5 01       		.byte	0x1
 4834 00e6 0B       		.uleb128 0xb
 4835 00e7 0B       		.uleb128 0xb
 4836 00e8 3A       		.uleb128 0x3a
 4837 00e9 0B       		.uleb128 0xb
 4838 00ea 3B       		.uleb128 0x3b
 4839 00eb 0B       		.uleb128 0xb
 4840 00ec 01       		.uleb128 0x1
 4841 00ed 13       		.uleb128 0x13
 4842 00ee 00       		.byte	0
 4843 00ef 00       		.byte	0
 4844 00f0 15       		.uleb128 0x15
 4845 00f1 0D       		.uleb128 0xd
 4846 00f2 00       		.byte	0
 4847 00f3 03       		.uleb128 0x3
 4848 00f4 0E       		.uleb128 0xe
 4849 00f5 3A       		.uleb128 0x3a
 4850 00f6 0B       		.uleb128 0xb
 4851 00f7 3B       		.uleb128 0x3b
 4852 00f8 0B       		.uleb128 0xb
ARM GAS  /tmp/ccoNZDVu.s 			page 150


 4853 00f9 49       		.uleb128 0x49
 4854 00fa 13       		.uleb128 0x13
 4855 00fb 00       		.byte	0
 4856 00fc 00       		.byte	0
 4857 00fd 16       		.uleb128 0x16
 4858 00fe 0D       		.uleb128 0xd
 4859 00ff 00       		.byte	0
 4860 0100 03       		.uleb128 0x3
 4861 0101 0E       		.uleb128 0xe
 4862 0102 3A       		.uleb128 0x3a
 4863 0103 0B       		.uleb128 0xb
 4864 0104 3B       		.uleb128 0x3b
 4865 0105 05       		.uleb128 0x5
 4866 0106 49       		.uleb128 0x49
 4867 0107 13       		.uleb128 0x13
 4868 0108 00       		.byte	0
 4869 0109 00       		.byte	0
 4870 010a 17       		.uleb128 0x17
 4871 010b 26       		.uleb128 0x26
 4872 010c 00       		.byte	0
 4873 010d 49       		.uleb128 0x49
 4874 010e 13       		.uleb128 0x13
 4875 010f 00       		.byte	0
 4876 0110 00       		.byte	0
 4877 0111 18       		.uleb128 0x18
 4878 0112 15       		.uleb128 0x15
 4879 0113 01       		.byte	0x1
 4880 0114 27       		.uleb128 0x27
 4881 0115 19       		.uleb128 0x19
 4882 0116 49       		.uleb128 0x49
 4883 0117 13       		.uleb128 0x13
 4884 0118 01       		.uleb128 0x1
 4885 0119 13       		.uleb128 0x13
 4886 011a 00       		.byte	0
 4887 011b 00       		.byte	0
 4888 011c 19       		.uleb128 0x19
 4889 011d 13       		.uleb128 0x13
 4890 011e 01       		.byte	0x1
 4891 011f 0B       		.uleb128 0xb
 4892 0120 0B       		.uleb128 0xb
 4893 0121 3A       		.uleb128 0x3a
 4894 0122 0B       		.uleb128 0xb
 4895 0123 3B       		.uleb128 0x3b
 4896 0124 0B       		.uleb128 0xb
 4897 0125 01       		.uleb128 0x1
 4898 0126 13       		.uleb128 0x13
 4899 0127 00       		.byte	0
 4900 0128 00       		.byte	0
 4901 0129 1A       		.uleb128 0x1a
 4902 012a 15       		.uleb128 0x15
 4903 012b 00       		.byte	0
 4904 012c 27       		.uleb128 0x27
 4905 012d 19       		.uleb128 0x19
 4906 012e 00       		.byte	0
 4907 012f 00       		.byte	0
 4908 0130 1B       		.uleb128 0x1b
 4909 0131 2E       		.uleb128 0x2e
ARM GAS  /tmp/ccoNZDVu.s 			page 151


 4910 0132 01       		.byte	0x1
 4911 0133 03       		.uleb128 0x3
 4912 0134 0E       		.uleb128 0xe
 4913 0135 3A       		.uleb128 0x3a
 4914 0136 0B       		.uleb128 0xb
 4915 0137 3B       		.uleb128 0x3b
 4916 0138 05       		.uleb128 0x5
 4917 0139 27       		.uleb128 0x27
 4918 013a 19       		.uleb128 0x19
 4919 013b 20       		.uleb128 0x20
 4920 013c 0B       		.uleb128 0xb
 4921 013d 01       		.uleb128 0x1
 4922 013e 13       		.uleb128 0x13
 4923 013f 00       		.byte	0
 4924 0140 00       		.byte	0
 4925 0141 1C       		.uleb128 0x1c
 4926 0142 05       		.uleb128 0x5
 4927 0143 00       		.byte	0
 4928 0144 03       		.uleb128 0x3
 4929 0145 0E       		.uleb128 0xe
 4930 0146 3A       		.uleb128 0x3a
 4931 0147 0B       		.uleb128 0xb
 4932 0148 3B       		.uleb128 0x3b
 4933 0149 05       		.uleb128 0x5
 4934 014a 49       		.uleb128 0x49
 4935 014b 13       		.uleb128 0x13
 4936 014c 00       		.byte	0
 4937 014d 00       		.byte	0
 4938 014e 1D       		.uleb128 0x1d
 4939 014f 2E       		.uleb128 0x2e
 4940 0150 00       		.byte	0
 4941 0151 03       		.uleb128 0x3
 4942 0152 0E       		.uleb128 0xe
 4943 0153 3A       		.uleb128 0x3a
 4944 0154 0B       		.uleb128 0xb
 4945 0155 3B       		.uleb128 0x3b
 4946 0156 0B       		.uleb128 0xb
 4947 0157 27       		.uleb128 0x27
 4948 0158 19       		.uleb128 0x19
 4949 0159 49       		.uleb128 0x49
 4950 015a 13       		.uleb128 0x13
 4951 015b 20       		.uleb128 0x20
 4952 015c 0B       		.uleb128 0xb
 4953 015d 00       		.byte	0
 4954 015e 00       		.byte	0
 4955 015f 1E       		.uleb128 0x1e
 4956 0160 2E       		.uleb128 0x2e
 4957 0161 00       		.byte	0
 4958 0162 03       		.uleb128 0x3
 4959 0163 0E       		.uleb128 0xe
 4960 0164 3A       		.uleb128 0x3a
 4961 0165 0B       		.uleb128 0xb
 4962 0166 3B       		.uleb128 0x3b
 4963 0167 05       		.uleb128 0x5
 4964 0168 27       		.uleb128 0x27
 4965 0169 19       		.uleb128 0x19
 4966 016a 20       		.uleb128 0x20
ARM GAS  /tmp/ccoNZDVu.s 			page 152


 4967 016b 0B       		.uleb128 0xb
 4968 016c 00       		.byte	0
 4969 016d 00       		.byte	0
 4970 016e 1F       		.uleb128 0x1f
 4971 016f 34       		.uleb128 0x34
 4972 0170 00       		.byte	0
 4973 0171 03       		.uleb128 0x3
 4974 0172 0E       		.uleb128 0xe
 4975 0173 49       		.uleb128 0x49
 4976 0174 13       		.uleb128 0x13
 4977 0175 34       		.uleb128 0x34
 4978 0176 19       		.uleb128 0x19
 4979 0177 1C       		.uleb128 0x1c
 4980 0178 0E       		.uleb128 0xe
 4981 0179 00       		.byte	0
 4982 017a 00       		.byte	0
 4983 017b 20       		.uleb128 0x20
 4984 017c 2E       		.uleb128 0x2e
 4985 017d 00       		.byte	0
 4986 017e 03       		.uleb128 0x3
 4987 017f 0E       		.uleb128 0xe
 4988 0180 3A       		.uleb128 0x3a
 4989 0181 0B       		.uleb128 0xb
 4990 0182 3B       		.uleb128 0x3b
 4991 0183 05       		.uleb128 0x5
 4992 0184 27       		.uleb128 0x27
 4993 0185 19       		.uleb128 0x19
 4994 0186 49       		.uleb128 0x49
 4995 0187 13       		.uleb128 0x13
 4996 0188 20       		.uleb128 0x20
 4997 0189 0B       		.uleb128 0xb
 4998 018a 00       		.byte	0
 4999 018b 00       		.byte	0
 5000 018c 21       		.uleb128 0x21
 5001 018d 2E       		.uleb128 0x2e
 5002 018e 01       		.byte	0x1
 5003 018f 03       		.uleb128 0x3
 5004 0190 0E       		.uleb128 0xe
 5005 0191 3A       		.uleb128 0x3a
 5006 0192 0B       		.uleb128 0xb
 5007 0193 3B       		.uleb128 0x3b
 5008 0194 05       		.uleb128 0x5
 5009 0195 27       		.uleb128 0x27
 5010 0196 19       		.uleb128 0x19
 5011 0197 49       		.uleb128 0x49
 5012 0198 13       		.uleb128 0x13
 5013 0199 20       		.uleb128 0x20
 5014 019a 0B       		.uleb128 0xb
 5015 019b 01       		.uleb128 0x1
 5016 019c 13       		.uleb128 0x13
 5017 019d 00       		.byte	0
 5018 019e 00       		.byte	0
 5019 019f 22       		.uleb128 0x22
 5020 01a0 05       		.uleb128 0x5
 5021 01a1 00       		.byte	0
 5022 01a2 03       		.uleb128 0x3
 5023 01a3 08       		.uleb128 0x8
ARM GAS  /tmp/ccoNZDVu.s 			page 153


 5024 01a4 3A       		.uleb128 0x3a
 5025 01a5 0B       		.uleb128 0xb
 5026 01a6 3B       		.uleb128 0x3b
 5027 01a7 05       		.uleb128 0x5
 5028 01a8 49       		.uleb128 0x49
 5029 01a9 13       		.uleb128 0x13
 5030 01aa 00       		.byte	0
 5031 01ab 00       		.byte	0
 5032 01ac 23       		.uleb128 0x23
 5033 01ad 2E       		.uleb128 0x2e
 5034 01ae 00       		.byte	0
 5035 01af 03       		.uleb128 0x3
 5036 01b0 0E       		.uleb128 0xe
 5037 01b1 3A       		.uleb128 0x3a
 5038 01b2 0B       		.uleb128 0xb
 5039 01b3 3B       		.uleb128 0x3b
 5040 01b4 0B       		.uleb128 0xb
 5041 01b5 27       		.uleb128 0x27
 5042 01b6 19       		.uleb128 0x19
 5043 01b7 20       		.uleb128 0x20
 5044 01b8 0B       		.uleb128 0xb
 5045 01b9 00       		.byte	0
 5046 01ba 00       		.byte	0
 5047 01bb 24       		.uleb128 0x24
 5048 01bc 2E       		.uleb128 0x2e
 5049 01bd 01       		.byte	0x1
 5050 01be 3F       		.uleb128 0x3f
 5051 01bf 19       		.uleb128 0x19
 5052 01c0 03       		.uleb128 0x3
 5053 01c1 0E       		.uleb128 0xe
 5054 01c2 3A       		.uleb128 0x3a
 5055 01c3 0B       		.uleb128 0xb
 5056 01c4 3B       		.uleb128 0x3b
 5057 01c5 0B       		.uleb128 0xb
 5058 01c6 27       		.uleb128 0x27
 5059 01c7 19       		.uleb128 0x19
 5060 01c8 49       		.uleb128 0x49
 5061 01c9 13       		.uleb128 0x13
 5062 01ca 20       		.uleb128 0x20
 5063 01cb 0B       		.uleb128 0xb
 5064 01cc 01       		.uleb128 0x1
 5065 01cd 13       		.uleb128 0x13
 5066 01ce 00       		.byte	0
 5067 01cf 00       		.byte	0
 5068 01d0 25       		.uleb128 0x25
 5069 01d1 05       		.uleb128 0x5
 5070 01d2 00       		.byte	0
 5071 01d3 03       		.uleb128 0x3
 5072 01d4 08       		.uleb128 0x8
 5073 01d5 3A       		.uleb128 0x3a
 5074 01d6 0B       		.uleb128 0xb
 5075 01d7 3B       		.uleb128 0x3b
 5076 01d8 0B       		.uleb128 0xb
 5077 01d9 49       		.uleb128 0x49
 5078 01da 13       		.uleb128 0x13
 5079 01db 00       		.byte	0
 5080 01dc 00       		.byte	0
ARM GAS  /tmp/ccoNZDVu.s 			page 154


 5081 01dd 26       		.uleb128 0x26
 5082 01de 05       		.uleb128 0x5
 5083 01df 00       		.byte	0
 5084 01e0 03       		.uleb128 0x3
 5085 01e1 0E       		.uleb128 0xe
 5086 01e2 3A       		.uleb128 0x3a
 5087 01e3 0B       		.uleb128 0xb
 5088 01e4 3B       		.uleb128 0x3b
 5089 01e5 0B       		.uleb128 0xb
 5090 01e6 49       		.uleb128 0x49
 5091 01e7 13       		.uleb128 0x13
 5092 01e8 00       		.byte	0
 5093 01e9 00       		.byte	0
 5094 01ea 27       		.uleb128 0x27
 5095 01eb 2E       		.uleb128 0x2e
 5096 01ec 01       		.byte	0x1
 5097 01ed 3F       		.uleb128 0x3f
 5098 01ee 19       		.uleb128 0x19
 5099 01ef 03       		.uleb128 0x3
 5100 01f0 0E       		.uleb128 0xe
 5101 01f1 3A       		.uleb128 0x3a
 5102 01f2 0B       		.uleb128 0xb
 5103 01f3 3B       		.uleb128 0x3b
 5104 01f4 0B       		.uleb128 0xb
 5105 01f5 27       		.uleb128 0x27
 5106 01f6 19       		.uleb128 0x19
 5107 01f7 20       		.uleb128 0x20
 5108 01f8 0B       		.uleb128 0xb
 5109 01f9 01       		.uleb128 0x1
 5110 01fa 13       		.uleb128 0x13
 5111 01fb 00       		.byte	0
 5112 01fc 00       		.byte	0
 5113 01fd 28       		.uleb128 0x28
 5114 01fe 34       		.uleb128 0x34
 5115 01ff 00       		.byte	0
 5116 0200 03       		.uleb128 0x3
 5117 0201 08       		.uleb128 0x8
 5118 0202 3A       		.uleb128 0x3a
 5119 0203 0B       		.uleb128 0xb
 5120 0204 3B       		.uleb128 0x3b
 5121 0205 0B       		.uleb128 0xb
 5122 0206 49       		.uleb128 0x49
 5123 0207 13       		.uleb128 0x13
 5124 0208 00       		.byte	0
 5125 0209 00       		.byte	0
 5126 020a 29       		.uleb128 0x29
 5127 020b 2E       		.uleb128 0x2e
 5128 020c 01       		.byte	0x1
 5129 020d 03       		.uleb128 0x3
 5130 020e 0E       		.uleb128 0xe
 5131 020f 3A       		.uleb128 0x3a
 5132 0210 0B       		.uleb128 0xb
 5133 0211 3B       		.uleb128 0x3b
 5134 0212 0B       		.uleb128 0xb
 5135 0213 27       		.uleb128 0x27
 5136 0214 19       		.uleb128 0x19
 5137 0215 11       		.uleb128 0x11
ARM GAS  /tmp/ccoNZDVu.s 			page 155


 5138 0216 01       		.uleb128 0x1
 5139 0217 12       		.uleb128 0x12
 5140 0218 06       		.uleb128 0x6
 5141 0219 40       		.uleb128 0x40
 5142 021a 18       		.uleb128 0x18
 5143 021b 9742     		.uleb128 0x2117
 5144 021d 19       		.uleb128 0x19
 5145 021e 01       		.uleb128 0x1
 5146 021f 13       		.uleb128 0x13
 5147 0220 00       		.byte	0
 5148 0221 00       		.byte	0
 5149 0222 2A       		.uleb128 0x2a
 5150 0223 34       		.uleb128 0x34
 5151 0224 00       		.byte	0
 5152 0225 03       		.uleb128 0x3
 5153 0226 08       		.uleb128 0x8
 5154 0227 3A       		.uleb128 0x3a
 5155 0228 0B       		.uleb128 0xb
 5156 0229 3B       		.uleb128 0x3b
 5157 022a 0B       		.uleb128 0xb
 5158 022b 49       		.uleb128 0x49
 5159 022c 13       		.uleb128 0x13
 5160 022d 02       		.uleb128 0x2
 5161 022e 17       		.uleb128 0x17
 5162 022f 00       		.byte	0
 5163 0230 00       		.byte	0
 5164 0231 2B       		.uleb128 0x2b
 5165 0232 898201   		.uleb128 0x4109
 5166 0235 01       		.byte	0x1
 5167 0236 11       		.uleb128 0x11
 5168 0237 01       		.uleb128 0x1
 5169 0238 01       		.uleb128 0x1
 5170 0239 13       		.uleb128 0x13
 5171 023a 00       		.byte	0
 5172 023b 00       		.byte	0
 5173 023c 2C       		.uleb128 0x2c
 5174 023d 8A8201   		.uleb128 0x410a
 5175 0240 00       		.byte	0
 5176 0241 02       		.uleb128 0x2
 5177 0242 18       		.uleb128 0x18
 5178 0243 9142     		.uleb128 0x2111
 5179 0245 18       		.uleb128 0x18
 5180 0246 00       		.byte	0
 5181 0247 00       		.byte	0
 5182 0248 2D       		.uleb128 0x2d
 5183 0249 898201   		.uleb128 0x4109
 5184 024c 01       		.byte	0x1
 5185 024d 11       		.uleb128 0x11
 5186 024e 01       		.uleb128 0x1
 5187 024f 00       		.byte	0
 5188 0250 00       		.byte	0
 5189 0251 2E       		.uleb128 0x2e
 5190 0252 2E       		.uleb128 0x2e
 5191 0253 01       		.byte	0x1
 5192 0254 31       		.uleb128 0x31
 5193 0255 13       		.uleb128 0x13
 5194 0256 11       		.uleb128 0x11
ARM GAS  /tmp/ccoNZDVu.s 			page 156


 5195 0257 01       		.uleb128 0x1
 5196 0258 12       		.uleb128 0x12
 5197 0259 06       		.uleb128 0x6
 5198 025a 40       		.uleb128 0x40
 5199 025b 18       		.uleb128 0x18
 5200 025c 9742     		.uleb128 0x2117
 5201 025e 19       		.uleb128 0x19
 5202 025f 01       		.uleb128 0x1
 5203 0260 13       		.uleb128 0x13
 5204 0261 00       		.byte	0
 5205 0262 00       		.byte	0
 5206 0263 2F       		.uleb128 0x2f
 5207 0264 05       		.uleb128 0x5
 5208 0265 00       		.byte	0
 5209 0266 31       		.uleb128 0x31
 5210 0267 13       		.uleb128 0x13
 5211 0268 02       		.uleb128 0x2
 5212 0269 17       		.uleb128 0x17
 5213 026a 00       		.byte	0
 5214 026b 00       		.byte	0
 5215 026c 30       		.uleb128 0x30
 5216 026d 05       		.uleb128 0x5
 5217 026e 00       		.byte	0
 5218 026f 31       		.uleb128 0x31
 5219 0270 13       		.uleb128 0x13
 5220 0271 02       		.uleb128 0x2
 5221 0272 18       		.uleb128 0x18
 5222 0273 00       		.byte	0
 5223 0274 00       		.byte	0
 5224 0275 31       		.uleb128 0x31
 5225 0276 1D       		.uleb128 0x1d
 5226 0277 01       		.byte	0x1
 5227 0278 31       		.uleb128 0x31
 5228 0279 13       		.uleb128 0x13
 5229 027a 11       		.uleb128 0x11
 5230 027b 01       		.uleb128 0x1
 5231 027c 12       		.uleb128 0x12
 5232 027d 06       		.uleb128 0x6
 5233 027e 58       		.uleb128 0x58
 5234 027f 0B       		.uleb128 0xb
 5235 0280 59       		.uleb128 0x59
 5236 0281 0B       		.uleb128 0xb
 5237 0282 00       		.byte	0
 5238 0283 00       		.byte	0
 5239 0284 32       		.uleb128 0x32
 5240 0285 2E       		.uleb128 0x2e
 5241 0286 01       		.byte	0x1
 5242 0287 3F       		.uleb128 0x3f
 5243 0288 19       		.uleb128 0x19
 5244 0289 03       		.uleb128 0x3
 5245 028a 0E       		.uleb128 0xe
 5246 028b 3A       		.uleb128 0x3a
 5247 028c 0B       		.uleb128 0xb
 5248 028d 3B       		.uleb128 0x3b
 5249 028e 0B       		.uleb128 0xb
 5250 028f 27       		.uleb128 0x27
 5251 0290 19       		.uleb128 0x19
ARM GAS  /tmp/ccoNZDVu.s 			page 157


 5252 0291 49       		.uleb128 0x49
 5253 0292 13       		.uleb128 0x13
 5254 0293 11       		.uleb128 0x11
 5255 0294 01       		.uleb128 0x1
 5256 0295 12       		.uleb128 0x12
 5257 0296 06       		.uleb128 0x6
 5258 0297 40       		.uleb128 0x40
 5259 0298 18       		.uleb128 0x18
 5260 0299 9742     		.uleb128 0x2117
 5261 029b 19       		.uleb128 0x19
 5262 029c 01       		.uleb128 0x1
 5263 029d 13       		.uleb128 0x13
 5264 029e 00       		.byte	0
 5265 029f 00       		.byte	0
 5266 02a0 33       		.uleb128 0x33
 5267 02a1 05       		.uleb128 0x5
 5268 02a2 00       		.byte	0
 5269 02a3 03       		.uleb128 0x3
 5270 02a4 0E       		.uleb128 0xe
 5271 02a5 3A       		.uleb128 0x3a
 5272 02a6 0B       		.uleb128 0xb
 5273 02a7 3B       		.uleb128 0x3b
 5274 02a8 0B       		.uleb128 0xb
 5275 02a9 49       		.uleb128 0x49
 5276 02aa 13       		.uleb128 0x13
 5277 02ab 02       		.uleb128 0x2
 5278 02ac 17       		.uleb128 0x17
 5279 02ad 00       		.byte	0
 5280 02ae 00       		.byte	0
 5281 02af 34       		.uleb128 0x34
 5282 02b0 05       		.uleb128 0x5
 5283 02b1 00       		.byte	0
 5284 02b2 03       		.uleb128 0x3
 5285 02b3 08       		.uleb128 0x8
 5286 02b4 3A       		.uleb128 0x3a
 5287 02b5 0B       		.uleb128 0xb
 5288 02b6 3B       		.uleb128 0x3b
 5289 02b7 0B       		.uleb128 0xb
 5290 02b8 49       		.uleb128 0x49
 5291 02b9 13       		.uleb128 0x13
 5292 02ba 02       		.uleb128 0x2
 5293 02bb 18       		.uleb128 0x18
 5294 02bc 00       		.byte	0
 5295 02bd 00       		.byte	0
 5296 02be 35       		.uleb128 0x35
 5297 02bf 1D       		.uleb128 0x1d
 5298 02c0 00       		.byte	0
 5299 02c1 31       		.uleb128 0x31
 5300 02c2 13       		.uleb128 0x13
 5301 02c3 11       		.uleb128 0x11
 5302 02c4 01       		.uleb128 0x1
 5303 02c5 12       		.uleb128 0x12
 5304 02c6 06       		.uleb128 0x6
 5305 02c7 58       		.uleb128 0x58
 5306 02c8 0B       		.uleb128 0xb
 5307 02c9 59       		.uleb128 0x59
 5308 02ca 0B       		.uleb128 0xb
ARM GAS  /tmp/ccoNZDVu.s 			page 158


 5309 02cb 00       		.byte	0
 5310 02cc 00       		.byte	0
 5311 02cd 36       		.uleb128 0x36
 5312 02ce 05       		.uleb128 0x5
 5313 02cf 00       		.byte	0
 5314 02d0 03       		.uleb128 0x3
 5315 02d1 08       		.uleb128 0x8
 5316 02d2 3A       		.uleb128 0x3a
 5317 02d3 0B       		.uleb128 0xb
 5318 02d4 3B       		.uleb128 0x3b
 5319 02d5 0B       		.uleb128 0xb
 5320 02d6 49       		.uleb128 0x49
 5321 02d7 13       		.uleb128 0x13
 5322 02d8 02       		.uleb128 0x2
 5323 02d9 17       		.uleb128 0x17
 5324 02da 00       		.byte	0
 5325 02db 00       		.byte	0
 5326 02dc 37       		.uleb128 0x37
 5327 02dd 1D       		.uleb128 0x1d
 5328 02de 01       		.byte	0x1
 5329 02df 31       		.uleb128 0x31
 5330 02e0 13       		.uleb128 0x13
 5331 02e1 11       		.uleb128 0x11
 5332 02e2 01       		.uleb128 0x1
 5333 02e3 12       		.uleb128 0x12
 5334 02e4 06       		.uleb128 0x6
 5335 02e5 58       		.uleb128 0x58
 5336 02e6 0B       		.uleb128 0xb
 5337 02e7 59       		.uleb128 0x59
 5338 02e8 0B       		.uleb128 0xb
 5339 02e9 01       		.uleb128 0x1
 5340 02ea 13       		.uleb128 0x13
 5341 02eb 00       		.byte	0
 5342 02ec 00       		.byte	0
 5343 02ed 38       		.uleb128 0x38
 5344 02ee 1D       		.uleb128 0x1d
 5345 02ef 01       		.byte	0x1
 5346 02f0 31       		.uleb128 0x31
 5347 02f1 13       		.uleb128 0x13
 5348 02f2 11       		.uleb128 0x11
 5349 02f3 01       		.uleb128 0x1
 5350 02f4 12       		.uleb128 0x12
 5351 02f5 06       		.uleb128 0x6
 5352 02f6 58       		.uleb128 0x58
 5353 02f7 0B       		.uleb128 0xb
 5354 02f8 59       		.uleb128 0x59
 5355 02f9 05       		.uleb128 0x5
 5356 02fa 00       		.byte	0
 5357 02fb 00       		.byte	0
 5358 02fc 39       		.uleb128 0x39
 5359 02fd 1D       		.uleb128 0x1d
 5360 02fe 01       		.byte	0x1
 5361 02ff 31       		.uleb128 0x31
 5362 0300 13       		.uleb128 0x13
 5363 0301 52       		.uleb128 0x52
 5364 0302 01       		.uleb128 0x1
 5365 0303 55       		.uleb128 0x55
ARM GAS  /tmp/ccoNZDVu.s 			page 159


 5366 0304 17       		.uleb128 0x17
 5367 0305 58       		.uleb128 0x58
 5368 0306 0B       		.uleb128 0xb
 5369 0307 59       		.uleb128 0x59
 5370 0308 0B       		.uleb128 0xb
 5371 0309 00       		.byte	0
 5372 030a 00       		.byte	0
 5373 030b 3A       		.uleb128 0x3a
 5374 030c 2E       		.uleb128 0x2e
 5375 030d 01       		.byte	0x1
 5376 030e 31       		.uleb128 0x31
 5377 030f 13       		.uleb128 0x13
 5378 0310 11       		.uleb128 0x11
 5379 0311 01       		.uleb128 0x1
 5380 0312 12       		.uleb128 0x12
 5381 0313 06       		.uleb128 0x6
 5382 0314 40       		.uleb128 0x40
 5383 0315 18       		.uleb128 0x18
 5384 0316 9642     		.uleb128 0x2116
 5385 0318 19       		.uleb128 0x19
 5386 0319 01       		.uleb128 0x1
 5387 031a 13       		.uleb128 0x13
 5388 031b 00       		.byte	0
 5389 031c 00       		.byte	0
 5390 031d 3B       		.uleb128 0x3b
 5391 031e 34       		.uleb128 0x34
 5392 031f 00       		.byte	0
 5393 0320 31       		.uleb128 0x31
 5394 0321 13       		.uleb128 0x13
 5395 0322 02       		.uleb128 0x2
 5396 0323 18       		.uleb128 0x18
 5397 0324 00       		.byte	0
 5398 0325 00       		.byte	0
 5399 0326 3C       		.uleb128 0x3c
 5400 0327 34       		.uleb128 0x34
 5401 0328 00       		.byte	0
 5402 0329 31       		.uleb128 0x31
 5403 032a 13       		.uleb128 0x13
 5404 032b 02       		.uleb128 0x2
 5405 032c 17       		.uleb128 0x17
 5406 032d 00       		.byte	0
 5407 032e 00       		.byte	0
 5408 032f 3D       		.uleb128 0x3d
 5409 0330 0B       		.uleb128 0xb
 5410 0331 01       		.byte	0x1
 5411 0332 11       		.uleb128 0x11
 5412 0333 01       		.uleb128 0x1
 5413 0334 12       		.uleb128 0x12
 5414 0335 06       		.uleb128 0x6
 5415 0336 00       		.byte	0
 5416 0337 00       		.byte	0
 5417 0338 3E       		.uleb128 0x3e
 5418 0339 05       		.uleb128 0x5
 5419 033a 00       		.byte	0
 5420 033b 31       		.uleb128 0x31
 5421 033c 13       		.uleb128 0x13
 5422 033d 1C       		.uleb128 0x1c
ARM GAS  /tmp/ccoNZDVu.s 			page 160


 5423 033e 0B       		.uleb128 0xb
 5424 033f 00       		.byte	0
 5425 0340 00       		.byte	0
 5426 0341 3F       		.uleb128 0x3f
 5427 0342 34       		.uleb128 0x34
 5428 0343 00       		.byte	0
 5429 0344 31       		.uleb128 0x31
 5430 0345 13       		.uleb128 0x13
 5431 0346 00       		.byte	0
 5432 0347 00       		.byte	0
 5433 0348 40       		.uleb128 0x40
 5434 0349 2E       		.uleb128 0x2e
 5435 034a 01       		.byte	0x1
 5436 034b 3F       		.uleb128 0x3f
 5437 034c 19       		.uleb128 0x19
 5438 034d 03       		.uleb128 0x3
 5439 034e 0E       		.uleb128 0xe
 5440 034f 3A       		.uleb128 0x3a
 5441 0350 0B       		.uleb128 0xb
 5442 0351 3B       		.uleb128 0x3b
 5443 0352 0B       		.uleb128 0xb
 5444 0353 27       		.uleb128 0x27
 5445 0354 19       		.uleb128 0x19
 5446 0355 11       		.uleb128 0x11
 5447 0356 01       		.uleb128 0x1
 5448 0357 12       		.uleb128 0x12
 5449 0358 06       		.uleb128 0x6
 5450 0359 40       		.uleb128 0x40
 5451 035a 18       		.uleb128 0x18
 5452 035b 9642     		.uleb128 0x2116
 5453 035d 19       		.uleb128 0x19
 5454 035e 01       		.uleb128 0x1
 5455 035f 13       		.uleb128 0x13
 5456 0360 00       		.byte	0
 5457 0361 00       		.byte	0
 5458 0362 41       		.uleb128 0x41
 5459 0363 2E       		.uleb128 0x2e
 5460 0364 01       		.byte	0x1
 5461 0365 3F       		.uleb128 0x3f
 5462 0366 19       		.uleb128 0x19
 5463 0367 03       		.uleb128 0x3
 5464 0368 0E       		.uleb128 0xe
 5465 0369 3A       		.uleb128 0x3a
 5466 036a 0B       		.uleb128 0xb
 5467 036b 3B       		.uleb128 0x3b
 5468 036c 0B       		.uleb128 0xb
 5469 036d 27       		.uleb128 0x27
 5470 036e 19       		.uleb128 0x19
 5471 036f 11       		.uleb128 0x11
 5472 0370 01       		.uleb128 0x1
 5473 0371 12       		.uleb128 0x12
 5474 0372 06       		.uleb128 0x6
 5475 0373 40       		.uleb128 0x40
 5476 0374 18       		.uleb128 0x18
 5477 0375 9742     		.uleb128 0x2117
 5478 0377 19       		.uleb128 0x19
 5479 0378 01       		.uleb128 0x1
ARM GAS  /tmp/ccoNZDVu.s 			page 161


 5480 0379 13       		.uleb128 0x13
 5481 037a 00       		.byte	0
 5482 037b 00       		.byte	0
 5483 037c 42       		.uleb128 0x42
 5484 037d 05       		.uleb128 0x5
 5485 037e 00       		.byte	0
 5486 037f 03       		.uleb128 0x3
 5487 0380 0E       		.uleb128 0xe
 5488 0381 3A       		.uleb128 0x3a
 5489 0382 0B       		.uleb128 0xb
 5490 0383 3B       		.uleb128 0x3b
 5491 0384 0B       		.uleb128 0xb
 5492 0385 49       		.uleb128 0x49
 5493 0386 13       		.uleb128 0x13
 5494 0387 02       		.uleb128 0x2
 5495 0388 18       		.uleb128 0x18
 5496 0389 00       		.byte	0
 5497 038a 00       		.byte	0
 5498 038b 43       		.uleb128 0x43
 5499 038c 2E       		.uleb128 0x2e
 5500 038d 01       		.byte	0x1
 5501 038e 03       		.uleb128 0x3
 5502 038f 0E       		.uleb128 0xe
 5503 0390 3A       		.uleb128 0x3a
 5504 0391 0B       		.uleb128 0xb
 5505 0392 3B       		.uleb128 0x3b
 5506 0393 0B       		.uleb128 0xb
 5507 0394 27       		.uleb128 0x27
 5508 0395 19       		.uleb128 0x19
 5509 0396 20       		.uleb128 0x20
 5510 0397 0B       		.uleb128 0xb
 5511 0398 01       		.uleb128 0x1
 5512 0399 13       		.uleb128 0x13
 5513 039a 00       		.byte	0
 5514 039b 00       		.byte	0
 5515 039c 44       		.uleb128 0x44
 5516 039d 2E       		.uleb128 0x2e
 5517 039e 01       		.byte	0x1
 5518 039f 3F       		.uleb128 0x3f
 5519 03a0 19       		.uleb128 0x19
 5520 03a1 03       		.uleb128 0x3
 5521 03a2 0E       		.uleb128 0xe
 5522 03a3 3A       		.uleb128 0x3a
 5523 03a4 0B       		.uleb128 0xb
 5524 03a5 3B       		.uleb128 0x3b
 5525 03a6 0B       		.uleb128 0xb
 5526 03a7 27       		.uleb128 0x27
 5527 03a8 19       		.uleb128 0x19
 5528 03a9 49       		.uleb128 0x49
 5529 03aa 13       		.uleb128 0x13
 5530 03ab 11       		.uleb128 0x11
 5531 03ac 01       		.uleb128 0x1
 5532 03ad 12       		.uleb128 0x12
 5533 03ae 06       		.uleb128 0x6
 5534 03af 40       		.uleb128 0x40
 5535 03b0 18       		.uleb128 0x18
 5536 03b1 9642     		.uleb128 0x2116
ARM GAS  /tmp/ccoNZDVu.s 			page 162


 5537 03b3 19       		.uleb128 0x19
 5538 03b4 01       		.uleb128 0x1
 5539 03b5 13       		.uleb128 0x13
 5540 03b6 00       		.byte	0
 5541 03b7 00       		.byte	0
 5542 03b8 45       		.uleb128 0x45
 5543 03b9 1D       		.uleb128 0x1d
 5544 03ba 01       		.byte	0x1
 5545 03bb 31       		.uleb128 0x31
 5546 03bc 13       		.uleb128 0x13
 5547 03bd 52       		.uleb128 0x52
 5548 03be 01       		.uleb128 0x1
 5549 03bf 55       		.uleb128 0x55
 5550 03c0 17       		.uleb128 0x17
 5551 03c1 58       		.uleb128 0x58
 5552 03c2 0B       		.uleb128 0xb
 5553 03c3 59       		.uleb128 0x59
 5554 03c4 05       		.uleb128 0x5
 5555 03c5 01       		.uleb128 0x1
 5556 03c6 13       		.uleb128 0x13
 5557 03c7 00       		.byte	0
 5558 03c8 00       		.byte	0
 5559 03c9 46       		.uleb128 0x46
 5560 03ca 1D       		.uleb128 0x1d
 5561 03cb 00       		.byte	0
 5562 03cc 31       		.uleb128 0x31
 5563 03cd 13       		.uleb128 0x13
 5564 03ce 52       		.uleb128 0x52
 5565 03cf 01       		.uleb128 0x1
 5566 03d0 55       		.uleb128 0x55
 5567 03d1 17       		.uleb128 0x17
 5568 03d2 58       		.uleb128 0x58
 5569 03d3 0B       		.uleb128 0xb
 5570 03d4 59       		.uleb128 0x59
 5571 03d5 0B       		.uleb128 0xb
 5572 03d6 00       		.byte	0
 5573 03d7 00       		.byte	0
 5574 03d8 47       		.uleb128 0x47
 5575 03d9 1D       		.uleb128 0x1d
 5576 03da 01       		.byte	0x1
 5577 03db 31       		.uleb128 0x31
 5578 03dc 13       		.uleb128 0x13
 5579 03dd 11       		.uleb128 0x11
 5580 03de 01       		.uleb128 0x1
 5581 03df 12       		.uleb128 0x12
 5582 03e0 06       		.uleb128 0x6
 5583 03e1 58       		.uleb128 0x58
 5584 03e2 0B       		.uleb128 0xb
 5585 03e3 59       		.uleb128 0x59
 5586 03e4 05       		.uleb128 0x5
 5587 03e5 01       		.uleb128 0x1
 5588 03e6 13       		.uleb128 0x13
 5589 03e7 00       		.byte	0
 5590 03e8 00       		.byte	0
 5591 03e9 48       		.uleb128 0x48
 5592 03ea 05       		.uleb128 0x5
 5593 03eb 00       		.byte	0
ARM GAS  /tmp/ccoNZDVu.s 			page 163


 5594 03ec 31       		.uleb128 0x31
 5595 03ed 13       		.uleb128 0x13
 5596 03ee 00       		.byte	0
 5597 03ef 00       		.byte	0
 5598 03f0 49       		.uleb128 0x49
 5599 03f1 898201   		.uleb128 0x4109
 5600 03f4 01       		.byte	0x1
 5601 03f5 11       		.uleb128 0x11
 5602 03f6 01       		.uleb128 0x1
 5603 03f7 31       		.uleb128 0x31
 5604 03f8 13       		.uleb128 0x13
 5605 03f9 00       		.byte	0
 5606 03fa 00       		.byte	0
 5607 03fb 4A       		.uleb128 0x4a
 5608 03fc 898201   		.uleb128 0x4109
 5609 03ff 01       		.byte	0x1
 5610 0400 11       		.uleb128 0x11
 5611 0401 01       		.uleb128 0x1
 5612 0402 31       		.uleb128 0x31
 5613 0403 13       		.uleb128 0x13
 5614 0404 01       		.uleb128 0x1
 5615 0405 13       		.uleb128 0x13
 5616 0406 00       		.byte	0
 5617 0407 00       		.byte	0
 5618 0408 4B       		.uleb128 0x4b
 5619 0409 898201   		.uleb128 0x4109
 5620 040c 00       		.byte	0
 5621 040d 11       		.uleb128 0x11
 5622 040e 01       		.uleb128 0x1
 5623 040f 31       		.uleb128 0x31
 5624 0410 13       		.uleb128 0x13
 5625 0411 00       		.byte	0
 5626 0412 00       		.byte	0
 5627 0413 4C       		.uleb128 0x4c
 5628 0414 34       		.uleb128 0x34
 5629 0415 00       		.byte	0
 5630 0416 03       		.uleb128 0x3
 5631 0417 0E       		.uleb128 0xe
 5632 0418 3A       		.uleb128 0x3a
 5633 0419 0B       		.uleb128 0xb
 5634 041a 3B       		.uleb128 0x3b
 5635 041b 0B       		.uleb128 0xb
 5636 041c 49       		.uleb128 0x49
 5637 041d 13       		.uleb128 0x13
 5638 041e 02       		.uleb128 0x2
 5639 041f 18       		.uleb128 0x18
 5640 0420 00       		.byte	0
 5641 0421 00       		.byte	0
 5642 0422 4D       		.uleb128 0x4d
 5643 0423 34       		.uleb128 0x34
 5644 0424 00       		.byte	0
 5645 0425 03       		.uleb128 0x3
 5646 0426 0E       		.uleb128 0xe
 5647 0427 3A       		.uleb128 0x3a
 5648 0428 0B       		.uleb128 0xb
 5649 0429 3B       		.uleb128 0x3b
 5650 042a 05       		.uleb128 0x5
ARM GAS  /tmp/ccoNZDVu.s 			page 164


 5651 042b 49       		.uleb128 0x49
 5652 042c 13       		.uleb128 0x13
 5653 042d 3F       		.uleb128 0x3f
 5654 042e 19       		.uleb128 0x19
 5655 042f 3C       		.uleb128 0x3c
 5656 0430 19       		.uleb128 0x19
 5657 0431 00       		.byte	0
 5658 0432 00       		.byte	0
 5659 0433 4E       		.uleb128 0x4e
 5660 0434 34       		.uleb128 0x34
 5661 0435 00       		.byte	0
 5662 0436 03       		.uleb128 0x3
 5663 0437 08       		.uleb128 0x8
 5664 0438 3A       		.uleb128 0x3a
 5665 0439 0B       		.uleb128 0xb
 5666 043a 3B       		.uleb128 0x3b
 5667 043b 05       		.uleb128 0x5
 5668 043c 49       		.uleb128 0x49
 5669 043d 13       		.uleb128 0x13
 5670 043e 3F       		.uleb128 0x3f
 5671 043f 19       		.uleb128 0x19
 5672 0440 3C       		.uleb128 0x3c
 5673 0441 19       		.uleb128 0x19
 5674 0442 00       		.byte	0
 5675 0443 00       		.byte	0
 5676 0444 4F       		.uleb128 0x4f
 5677 0445 34       		.uleb128 0x34
 5678 0446 00       		.byte	0
 5679 0447 03       		.uleb128 0x3
 5680 0448 0E       		.uleb128 0xe
 5681 0449 3A       		.uleb128 0x3a
 5682 044a 0B       		.uleb128 0xb
 5683 044b 3B       		.uleb128 0x3b
 5684 044c 0B       		.uleb128 0xb
 5685 044d 49       		.uleb128 0x49
 5686 044e 13       		.uleb128 0x13
 5687 044f 3F       		.uleb128 0x3f
 5688 0450 19       		.uleb128 0x19
 5689 0451 02       		.uleb128 0x2
 5690 0452 18       		.uleb128 0x18
 5691 0453 00       		.byte	0
 5692 0454 00       		.byte	0
 5693 0455 50       		.uleb128 0x50
 5694 0456 21       		.uleb128 0x21
 5695 0457 00       		.byte	0
 5696 0458 00       		.byte	0
 5697 0459 00       		.byte	0
 5698 045a 51       		.uleb128 0x51
 5699 045b 34       		.uleb128 0x34
 5700 045c 00       		.byte	0
 5701 045d 03       		.uleb128 0x3
 5702 045e 0E       		.uleb128 0xe
 5703 045f 3A       		.uleb128 0x3a
 5704 0460 0B       		.uleb128 0xb
 5705 0461 3B       		.uleb128 0x3b
 5706 0462 0B       		.uleb128 0xb
 5707 0463 49       		.uleb128 0x49
ARM GAS  /tmp/ccoNZDVu.s 			page 165


 5708 0464 13       		.uleb128 0x13
 5709 0465 3F       		.uleb128 0x3f
 5710 0466 19       		.uleb128 0x19
 5711 0467 3C       		.uleb128 0x3c
 5712 0468 19       		.uleb128 0x19
 5713 0469 00       		.byte	0
 5714 046a 00       		.byte	0
 5715 046b 52       		.uleb128 0x52
 5716 046c 2E       		.uleb128 0x2e
 5717 046d 01       		.byte	0x1
 5718 046e 3F       		.uleb128 0x3f
 5719 046f 19       		.uleb128 0x19
 5720 0470 03       		.uleb128 0x3
 5721 0471 0E       		.uleb128 0xe
 5722 0472 3A       		.uleb128 0x3a
 5723 0473 0B       		.uleb128 0xb
 5724 0474 3B       		.uleb128 0x3b
 5725 0475 05       		.uleb128 0x5
 5726 0476 27       		.uleb128 0x27
 5727 0477 19       		.uleb128 0x19
 5728 0478 3C       		.uleb128 0x3c
 5729 0479 19       		.uleb128 0x19
 5730 047a 01       		.uleb128 0x1
 5731 047b 13       		.uleb128 0x13
 5732 047c 00       		.byte	0
 5733 047d 00       		.byte	0
 5734 047e 53       		.uleb128 0x53
 5735 047f 2E       		.uleb128 0x2e
 5736 0480 00       		.byte	0
 5737 0481 3F       		.uleb128 0x3f
 5738 0482 19       		.uleb128 0x19
 5739 0483 03       		.uleb128 0x3
 5740 0484 0E       		.uleb128 0xe
 5741 0485 3A       		.uleb128 0x3a
 5742 0486 0B       		.uleb128 0xb
 5743 0487 3B       		.uleb128 0x3b
 5744 0488 0B       		.uleb128 0xb
 5745 0489 27       		.uleb128 0x27
 5746 048a 19       		.uleb128 0x19
 5747 048b 3C       		.uleb128 0x3c
 5748 048c 19       		.uleb128 0x19
 5749 048d 00       		.byte	0
 5750 048e 00       		.byte	0
 5751 048f 00       		.byte	0
 5752              		.section	.debug_loc,"",%progbits
 5753              	.Ldebug_loc0:
 5754              	.LLST0:
 5755 0000 00000000 		.4byte	.LVL0
 5756 0004 0C000000 		.4byte	.LVL1
 5757 0008 0200     		.2byte	0x2
 5758 000a 30       		.byte	0x30
 5759 000b 9F       		.byte	0x9f
 5760 000c 0C000000 		.4byte	.LVL1
 5761 0010 1A000000 		.4byte	.LVL2
 5762 0014 0600     		.2byte	0x6
 5763 0016 08       		.byte	0x8
 5764 0017 4C       		.byte	0x4c
ARM GAS  /tmp/ccoNZDVu.s 			page 166


 5765 0018 75       		.byte	0x75
 5766 0019 00       		.sleb128 0
 5767 001a 1C       		.byte	0x1c
 5768 001b 9F       		.byte	0x9f
 5769 001c 1A000000 		.4byte	.LVL2
 5770 0020 1C000000 		.4byte	.LVL3
 5771 0024 0600     		.2byte	0x6
 5772 0026 08       		.byte	0x8
 5773 0027 4D       		.byte	0x4d
 5774 0028 75       		.byte	0x75
 5775 0029 00       		.sleb128 0
 5776 002a 1C       		.byte	0x1c
 5777 002b 9F       		.byte	0x9f
 5778 002c 1C000000 		.4byte	.LVL3
 5779 0030 36000000 		.4byte	.LFE222
 5780 0034 0600     		.2byte	0x6
 5781 0036 08       		.byte	0x8
 5782 0037 4C       		.byte	0x4c
 5783 0038 75       		.byte	0x75
 5784 0039 00       		.sleb128 0
 5785 003a 1C       		.byte	0x1c
 5786 003b 9F       		.byte	0x9f
 5787 003c 00000000 		.4byte	0
 5788 0040 00000000 		.4byte	0
 5789              	.LLST1:
 5790 0044 00000000 		.4byte	.LVL5
 5791 0048 22000000 		.4byte	.LVL6
 5792 004c 0100     		.2byte	0x1
 5793 004e 50       		.byte	0x50
 5794 004f 22000000 		.4byte	.LVL6
 5795 0053 2A000000 		.4byte	.LFE223
 5796 0057 0500     		.2byte	0x5
 5797 0059 03       		.byte	0x3
 5798 005a 00000000 		.4byte	test_failure_message
 5799 005e 00000000 		.4byte	0
 5800 0062 00000000 		.4byte	0
 5801              	.LLST2:
 5802 0066 00000000 		.4byte	.LVL7
 5803 006a 12000000 		.4byte	.LVL9
 5804 006e 0100     		.2byte	0x1
 5805 0070 50       		.byte	0x50
 5806 0071 12000000 		.4byte	.LVL9
 5807 0075 2A000000 		.4byte	.LVL10
 5808 0079 0400     		.2byte	0x4
 5809 007b F3       		.byte	0xf3
 5810 007c 01       		.uleb128 0x1
 5811 007d 50       		.byte	0x50
 5812 007e 9F       		.byte	0x9f
 5813 007f 2A000000 		.4byte	.LVL10
 5814 0083 2C000000 		.4byte	.LVL11
 5815 0087 0100     		.2byte	0x1
 5816 0089 50       		.byte	0x50
 5817 008a 2C000000 		.4byte	.LVL11
 5818 008e 32000000 		.4byte	.LFE224
 5819 0092 0400     		.2byte	0x4
 5820 0094 F3       		.byte	0xf3
 5821 0095 01       		.uleb128 0x1
ARM GAS  /tmp/ccoNZDVu.s 			page 167


 5822 0096 50       		.byte	0x50
 5823 0097 9F       		.byte	0x9f
 5824 0098 00000000 		.4byte	0
 5825 009c 00000000 		.4byte	0
 5826              	.LLST3:
 5827 00a0 04000000 		.4byte	.LVL8
 5828 00a4 2A000000 		.4byte	.LVL10
 5829 00a8 0100     		.2byte	0x1
 5830 00aa 51       		.byte	0x51
 5831 00ab 00000000 		.4byte	0
 5832 00af 00000000 		.4byte	0
 5833              	.LLST4:
 5834 00b3 00000000 		.4byte	.LVL12
 5835 00b7 20000000 		.4byte	.LVL15
 5836 00bb 0100     		.2byte	0x1
 5837 00bd 50       		.byte	0x50
 5838 00be 20000000 		.4byte	.LVL15
 5839 00c2 24000000 		.4byte	.LVL16
 5840 00c6 0300     		.2byte	0x3
 5841 00c8 70       		.byte	0x70
 5842 00c9 7F       		.sleb128 -1
 5843 00ca 9F       		.byte	0x9f
 5844 00cb 24000000 		.4byte	.LVL16
 5845 00cf 2A000000 		.4byte	.LVL17
 5846 00d3 0100     		.2byte	0x1
 5847 00d5 50       		.byte	0x50
 5848 00d6 00000000 		.4byte	0
 5849 00da 00000000 		.4byte	0
 5850              	.LLST5:
 5851 00de 00000000 		.4byte	.LVL12
 5852 00e2 18000000 		.4byte	.LVL13
 5853 00e6 0600     		.2byte	0x6
 5854 00e8 03       		.byte	0x3
 5855 00e9 00000000 		.4byte	test_tokens_buffer
 5856 00ed 9F       		.byte	0x9f
 5857 00ee 18000000 		.4byte	.LVL13
 5858 00f2 1C000000 		.4byte	.LVL14
 5859 00f6 0100     		.2byte	0x1
 5860 00f8 53       		.byte	0x53
 5861 00f9 1C000000 		.4byte	.LVL14
 5862 00fd 24000000 		.4byte	.LVL16
 5863 0101 0300     		.2byte	0x3
 5864 0103 73       		.byte	0x73
 5865 0104 7F       		.sleb128 -1
 5866 0105 9F       		.byte	0x9f
 5867 0106 24000000 		.4byte	.LVL16
 5868 010a 32000000 		.4byte	.LVL18
 5869 010e 0100     		.2byte	0x1
 5870 0110 53       		.byte	0x53
 5871 0111 00000000 		.4byte	0
 5872 0115 00000000 		.4byte	0
 5873              	.LLST6:
 5874 0119 00000000 		.4byte	.LVL19
 5875 011d 16000000 		.4byte	.LVL24
 5876 0121 0100     		.2byte	0x1
 5877 0123 50       		.byte	0x50
 5878 0124 16000000 		.4byte	.LVL24
ARM GAS  /tmp/ccoNZDVu.s 			page 168


 5879 0128 3E000000 		.4byte	.LFE226
 5880 012c 0400     		.2byte	0x4
 5881 012e F3       		.byte	0xf3
 5882 012f 01       		.uleb128 0x1
 5883 0130 50       		.byte	0x50
 5884 0131 9F       		.byte	0x9f
 5885 0132 00000000 		.4byte	0
 5886 0136 00000000 		.4byte	0
 5887              	.LLST7:
 5888 013a 00000000 		.4byte	.LVL19
 5889 013e 08000000 		.4byte	.LVL21
 5890 0142 0100     		.2byte	0x1
 5891 0144 51       		.byte	0x51
 5892 0145 08000000 		.4byte	.LVL21
 5893 0149 3E000000 		.4byte	.LFE226
 5894 014d 0400     		.2byte	0x4
 5895 014f F3       		.byte	0xf3
 5896 0150 01       		.uleb128 0x1
 5897 0151 51       		.byte	0x51
 5898 0152 9F       		.byte	0x9f
 5899 0153 00000000 		.4byte	0
 5900 0157 00000000 		.4byte	0
 5901              	.LLST8:
 5902 015b 06000000 		.4byte	.LVL20
 5903 015f 08000000 		.4byte	.LVL21
 5904 0163 0100     		.2byte	0x1
 5905 0165 51       		.byte	0x51
 5906 0166 08000000 		.4byte	.LVL21
 5907 016a 3E000000 		.4byte	.LFE226
 5908 016e 0400     		.2byte	0x4
 5909 0170 F3       		.byte	0xf3
 5910 0171 01       		.uleb128 0x1
 5911 0172 51       		.byte	0x51
 5912 0173 9F       		.byte	0x9f
 5913 0174 00000000 		.4byte	0
 5914 0178 00000000 		.4byte	0
 5915              	.LLST9:
 5916 017c 06000000 		.4byte	.LVL20
 5917 0180 16000000 		.4byte	.LVL24
 5918 0184 0100     		.2byte	0x1
 5919 0186 50       		.byte	0x50
 5920 0187 00000000 		.4byte	0
 5921 018b 00000000 		.4byte	0
 5922              	.LLST10:
 5923 018f 06000000 		.4byte	.LVL20
 5924 0193 0A000000 		.4byte	.LVL22
 5925 0197 0100     		.2byte	0x1
 5926 0199 53       		.byte	0x53
 5927 019a 00000000 		.4byte	0
 5928 019e 00000000 		.4byte	0
 5929              	.LLST14:
 5930 01a2 06000000 		.4byte	.LVL20
 5931 01a6 08000000 		.4byte	.LVL21
 5932 01aa 1400     		.2byte	0x14
 5933 01ac 73       		.byte	0x73
 5934 01ad 00       		.sleb128 0
 5935 01ae 70       		.byte	0x70
ARM GAS  /tmp/ccoNZDVu.s 			page 169


 5936 01af 00       		.sleb128 0
 5937 01b0 1C       		.byte	0x1c
 5938 01b1 0A       		.byte	0xa
 5939 01b2 FFFF     		.2byte	0xffff
 5940 01b4 1A       		.byte	0x1a
 5941 01b5 71       		.byte	0x71
 5942 01b6 00       		.sleb128 0
 5943 01b7 70       		.byte	0x70
 5944 01b8 00       		.sleb128 0
 5945 01b9 1C       		.byte	0x1c
 5946 01ba 0A       		.byte	0xa
 5947 01bb FFFF     		.2byte	0xffff
 5948 01bd 1A       		.byte	0x1a
 5949 01be 2D       		.byte	0x2d
 5950 01bf 9F       		.byte	0x9f
 5951 01c0 08000000 		.4byte	.LVL21
 5952 01c4 0A000000 		.4byte	.LVL22
 5953 01c8 1500     		.2byte	0x15
 5954 01ca 73       		.byte	0x73
 5955 01cb 00       		.sleb128 0
 5956 01cc 70       		.byte	0x70
 5957 01cd 00       		.sleb128 0
 5958 01ce 1C       		.byte	0x1c
 5959 01cf 0A       		.byte	0xa
 5960 01d0 FFFF     		.2byte	0xffff
 5961 01d2 1A       		.byte	0x1a
 5962 01d3 F3       		.byte	0xf3
 5963 01d4 01       		.uleb128 0x1
 5964 01d5 51       		.byte	0x51
 5965 01d6 70       		.byte	0x70
 5966 01d7 00       		.sleb128 0
 5967 01d8 1C       		.byte	0x1c
 5968 01d9 0A       		.byte	0xa
 5969 01da FFFF     		.2byte	0xffff
 5970 01dc 1A       		.byte	0x1a
 5971 01dd 2D       		.byte	0x2d
 5972 01de 9F       		.byte	0x9f
 5973 01df 00000000 		.4byte	0
 5974 01e3 00000000 		.4byte	0
 5975              	.LLST15:
 5976 01e7 18000000 		.4byte	.LVL25
 5977 01eb 38000000 		.4byte	.LVL26
 5978 01ef 0100     		.2byte	0x1
 5979 01f1 52       		.byte	0x52
 5980 01f2 00000000 		.4byte	0
 5981 01f6 00000000 		.4byte	0
 5982              	.LLST16:
 5983 01fa 00000000 		.4byte	.LVL27
 5984 01fe 14000000 		.4byte	.LVL28
 5985 0202 0100     		.2byte	0x1
 5986 0204 50       		.byte	0x50
 5987 0205 14000000 		.4byte	.LVL28
 5988 0209 2C000000 		.4byte	.LVL29
 5989 020d 0100     		.2byte	0x1
 5990 020f 50       		.byte	0x50
 5991 0210 2C000000 		.4byte	.LVL29
 5992 0214 44000000 		.4byte	.LVL31
ARM GAS  /tmp/ccoNZDVu.s 			page 170


 5993 0218 0100     		.2byte	0x1
 5994 021a 52       		.byte	0x52
 5995 021b 5A000000 		.4byte	.LVL36
 5996 021f 64000000 		.4byte	.LVL37
 5997 0223 0100     		.2byte	0x1
 5998 0225 50       		.byte	0x50
 5999 0226 64000000 		.4byte	.LVL37
 6000 022a 70000000 		.4byte	.LFE227
 6001 022e 0400     		.2byte	0x4
 6002 0230 F3       		.byte	0xf3
 6003 0231 01       		.uleb128 0x1
 6004 0232 50       		.byte	0x50
 6005 0233 9F       		.byte	0x9f
 6006 0234 00000000 		.4byte	0
 6007 0238 00000000 		.4byte	0
 6008              	.LLST17:
 6009 023c 14000000 		.4byte	.LVL28
 6010 0240 2C000000 		.4byte	.LVL29
 6011 0244 0300     		.2byte	0x3
 6012 0246 73       		.byte	0x73
 6013 0247 7F       		.sleb128 -1
 6014 0248 9F       		.byte	0x9f
 6015 0249 2C000000 		.4byte	.LVL29
 6016 024d 30000000 		.4byte	.LVL30
 6017 0251 0100     		.2byte	0x1
 6018 0253 53       		.byte	0x53
 6019 0254 30000000 		.4byte	.LVL30
 6020 0258 44000000 		.4byte	.LVL31
 6021 025c 0100     		.2byte	0x1
 6022 025e 54       		.byte	0x54
 6023 025f 44000000 		.4byte	.LVL31
 6024 0263 4A000000 		.4byte	.LVL32
 6025 0267 0300     		.2byte	0x3
 6026 0269 74       		.byte	0x74
 6027 026a 7F       		.sleb128 -1
 6028 026b 9F       		.byte	0x9f
 6029 026c 4A000000 		.4byte	.LVL32
 6030 0270 4C000000 		.4byte	.LVL33
 6031 0274 0100     		.2byte	0x1
 6032 0276 54       		.byte	0x54
 6033 0277 4C000000 		.4byte	.LVL33
 6034 027b 56000000 		.4byte	.LVL35
 6035 027f 0300     		.2byte	0x3
 6036 0281 74       		.byte	0x74
 6037 0282 7F       		.sleb128 -1
 6038 0283 9F       		.byte	0x9f
 6039 0284 00000000 		.4byte	0
 6040 0288 00000000 		.4byte	0
 6041              	.LLST18:
 6042 028c 00000000 		.4byte	.LVL39
 6043 0290 10000000 		.4byte	.LVL40
 6044 0294 0100     		.2byte	0x1
 6045 0296 50       		.byte	0x50
 6046 0297 10000000 		.4byte	.LVL40
 6047 029b 12000000 		.4byte	.LVL41
 6048 029f 0100     		.2byte	0x1
 6049 02a1 54       		.byte	0x54
ARM GAS  /tmp/ccoNZDVu.s 			page 171


 6050 02a2 12000000 		.4byte	.LVL41
 6051 02a6 1C000000 		.4byte	.LVL43
 6052 02aa 0300     		.2byte	0x3
 6053 02ac 74       		.byte	0x74
 6054 02ad 01       		.sleb128 1
 6055 02ae 9F       		.byte	0x9f
 6056 02af 1C000000 		.4byte	.LVL43
 6057 02b3 20000000 		.4byte	.LVL44
 6058 02b7 0100     		.2byte	0x1
 6059 02b9 54       		.byte	0x54
 6060 02ba 00000000 		.4byte	0
 6061 02be 00000000 		.4byte	0
 6062              	.LLST19:
 6063 02c2 00000000 		.4byte	.LVL45
 6064 02c6 10000000 		.4byte	.LVL46
 6065 02ca 0100     		.2byte	0x1
 6066 02cc 50       		.byte	0x50
 6067 02cd 10000000 		.4byte	.LVL46
 6068 02d1 34000000 		.4byte	.LVL52
 6069 02d5 0400     		.2byte	0x4
 6070 02d7 F3       		.byte	0xf3
 6071 02d8 01       		.uleb128 0x1
 6072 02d9 50       		.byte	0x50
 6073 02da 9F       		.byte	0x9f
 6074 02db 34000000 		.4byte	.LVL52
 6075 02df 3A000000 		.4byte	.LFE229
 6076 02e3 0100     		.2byte	0x1
 6077 02e5 50       		.byte	0x50
 6078 02e6 00000000 		.4byte	0
 6079 02ea 00000000 		.4byte	0
 6080              	.LLST20:
 6081 02ee 00000000 		.4byte	.LVL45
 6082 02f2 10000000 		.4byte	.LVL46
 6083 02f6 0100     		.2byte	0x1
 6084 02f8 50       		.byte	0x50
 6085 02f9 10000000 		.4byte	.LVL46
 6086 02fd 12000000 		.4byte	.LVL47
 6087 0301 0100     		.2byte	0x1
 6088 0303 54       		.byte	0x54
 6089 0304 12000000 		.4byte	.LVL47
 6090 0308 1C000000 		.4byte	.LVL49
 6091 030c 0300     		.2byte	0x3
 6092 030e 74       		.byte	0x74
 6093 030f 01       		.sleb128 1
 6094 0310 9F       		.byte	0x9f
 6095 0311 1C000000 		.4byte	.LVL49
 6096 0315 20000000 		.4byte	.LVL50
 6097 0319 0100     		.2byte	0x1
 6098 031b 54       		.byte	0x54
 6099 031c 34000000 		.4byte	.LVL52
 6100 0320 3A000000 		.4byte	.LFE229
 6101 0324 0100     		.2byte	0x1
 6102 0326 50       		.byte	0x50
 6103 0327 00000000 		.4byte	0
 6104 032b 00000000 		.4byte	0
 6105              	.LLST21:
 6106 032f 00000000 		.4byte	.LVL56
ARM GAS  /tmp/ccoNZDVu.s 			page 172


 6107 0333 12000000 		.4byte	.LVL57
 6108 0337 0100     		.2byte	0x1
 6109 0339 50       		.byte	0x50
 6110 033a 12000000 		.4byte	.LVL57
 6111 033e 1B000000 		.4byte	.LVL58-1
 6112 0342 0500     		.2byte	0x5
 6113 0344 03       		.byte	0x3
 6114 0345 00000000 		.4byte	test_chp
 6115 0349 1B000000 		.4byte	.LVL58-1
 6116 034d FC020000 		.4byte	.LFE232
 6117 0351 0400     		.2byte	0x4
 6118 0353 F3       		.byte	0xf3
 6119 0354 01       		.uleb128 0x1
 6120 0355 50       		.byte	0x50
 6121 0356 9F       		.byte	0x9f
 6122 0357 00000000 		.4byte	0
 6123 035b 00000000 		.4byte	0
 6124              	.LLST22:
 6125 035f D0000000 		.4byte	.LVL80
 6126 0363 EA000000 		.4byte	.LVL82
 6127 0367 0200     		.2byte	0x2
 6128 0369 30       		.byte	0x30
 6129 036a 9F       		.byte	0x9f
 6130 036b EA000000 		.4byte	.LVL82
 6131 036f F6000000 		.4byte	.LVL84
 6132 0373 0200     		.2byte	0x2
 6133 0375 91       		.byte	0x91
 6134 0376 50       		.sleb128 -48
 6135 0377 F6000000 		.4byte	.LVL84
 6136 037b 00010000 		.4byte	.LVL85
 6137 037f 0300     		.2byte	0x3
 6138 0381 72       		.byte	0x72
 6139 0382 7F       		.sleb128 -1
 6140 0383 9F       		.byte	0x9f
 6141 0384 00010000 		.4byte	.LVL85
 6142 0388 82020000 		.4byte	.LVL144
 6143 038c 0600     		.2byte	0x6
 6144 038e 91       		.byte	0x91
 6145 038f 50       		.sleb128 -48
 6146 0390 06       		.byte	0x6
 6147 0391 31       		.byte	0x31
 6148 0392 1C       		.byte	0x1c
 6149 0393 9F       		.byte	0x9f
 6150 0394 82020000 		.4byte	.LVL144
 6151 0398 8C020000 		.4byte	.LVL145
 6152 039c 0200     		.2byte	0x2
 6153 039e 91       		.byte	0x91
 6154 039f 50       		.sleb128 -48
 6155 03a0 D2020000 		.4byte	.LVL153
 6156 03a4 E0020000 		.4byte	.LVL155
 6157 03a8 0600     		.2byte	0x6
 6158 03aa 91       		.byte	0x91
 6159 03ab 50       		.sleb128 -48
 6160 03ac 06       		.byte	0x6
 6161 03ad 31       		.byte	0x31
 6162 03ae 1C       		.byte	0x1c
 6163 03af 9F       		.byte	0x9f
ARM GAS  /tmp/ccoNZDVu.s 			page 173


 6164 03b0 00000000 		.4byte	0
 6165 03b4 00000000 		.4byte	0
 6166              	.LLST23:
 6167 03b8 EE000000 		.4byte	.LVL83
 6168 03bc 36010000 		.4byte	.LVL93
 6169 03c0 0100     		.2byte	0x1
 6170 03c2 56       		.byte	0x56
 6171 03c3 36010000 		.4byte	.LVL93
 6172 03c7 74020000 		.4byte	.LVL143
 6173 03cb 0300     		.2byte	0x3
 6174 03cd 76       		.byte	0x76
 6175 03ce 7F       		.sleb128 -1
 6176 03cf 9F       		.byte	0x9f
 6177 03d0 74020000 		.4byte	.LVL143
 6178 03d4 8C020000 		.4byte	.LVL145
 6179 03d8 0100     		.2byte	0x1
 6180 03da 56       		.byte	0x56
 6181 03db D2020000 		.4byte	.LVL153
 6182 03df E0020000 		.4byte	.LVL155
 6183 03e3 0300     		.2byte	0x3
 6184 03e5 76       		.byte	0x76
 6185 03e6 7F       		.sleb128 -1
 6186 03e7 9F       		.byte	0x9f
 6187 03e8 00000000 		.4byte	0
 6188 03ec 00000000 		.4byte	0
 6189              	.LLST24:
 6190 03f0 38000000 		.4byte	.LVL60
 6191 03f4 3E000000 		.4byte	.LVL61
 6192 03f8 0600     		.2byte	0x6
 6193 03fa 03       		.byte	0x3
 6194 03fb 28000000 		.4byte	.LC4
 6195 03ff 9F       		.byte	0x9f
 6196 0400 3E000000 		.4byte	.LVL61
 6197 0404 40000000 		.4byte	.LVL62
 6198 0408 0100     		.2byte	0x1
 6199 040a 55       		.byte	0x55
 6200 040b 40000000 		.4byte	.LVL62
 6201 040f 4A000000 		.4byte	.LVL64
 6202 0413 0300     		.2byte	0x3
 6203 0415 75       		.byte	0x75
 6204 0416 01       		.sleb128 1
 6205 0417 9F       		.byte	0x9f
 6206 0418 4A000000 		.4byte	.LVL64
 6207 041c 5A000000 		.4byte	.LVL65
 6208 0420 0100     		.2byte	0x1
 6209 0422 55       		.byte	0x55
 6210 0423 00000000 		.4byte	0
 6211 0427 00000000 		.4byte	0
 6212              	.LLST25:
 6213 042b 5E000000 		.4byte	.LVL66
 6214 042f 64000000 		.4byte	.LVL67
 6215 0433 0600     		.2byte	0x6
 6216 0435 03       		.byte	0x3
 6217 0436 C4000000 		.4byte	.LC15
 6218 043a 9F       		.byte	0x9f
 6219 043b 64000000 		.4byte	.LVL67
 6220 043f 66000000 		.4byte	.LVL68
ARM GAS  /tmp/ccoNZDVu.s 			page 174


 6221 0443 0100     		.2byte	0x1
 6222 0445 55       		.byte	0x55
 6223 0446 66000000 		.4byte	.LVL68
 6224 044a 70000000 		.4byte	.LVL70
 6225 044e 0300     		.2byte	0x3
 6226 0450 75       		.byte	0x75
 6227 0451 01       		.sleb128 1
 6228 0452 9F       		.byte	0x9f
 6229 0453 70000000 		.4byte	.LVL70
 6230 0457 80000000 		.4byte	.LVL71
 6231 045b 0100     		.2byte	0x1
 6232 045d 55       		.byte	0x55
 6233 045e 00000000 		.4byte	0
 6234 0462 00000000 		.4byte	0
 6235              	.LLST26:
 6236 0466 84000000 		.4byte	.LVL72
 6237 046a 8A000000 		.4byte	.LVL73
 6238 046e 0600     		.2byte	0x6
 6239 0470 03       		.byte	0x3
 6240 0471 FC000000 		.4byte	.LC17
 6241 0475 9F       		.byte	0x9f
 6242 0476 8A000000 		.4byte	.LVL73
 6243 047a 8C000000 		.4byte	.LVL74
 6244 047e 0100     		.2byte	0x1
 6245 0480 55       		.byte	0x55
 6246 0481 8C000000 		.4byte	.LVL74
 6247 0485 96000000 		.4byte	.LVL76
 6248 0489 0300     		.2byte	0x3
 6249 048b 75       		.byte	0x75
 6250 048c 01       		.sleb128 1
 6251 048d 9F       		.byte	0x9f
 6252 048e 96000000 		.4byte	.LVL76
 6253 0492 DA000000 		.4byte	.LVL81
 6254 0496 0100     		.2byte	0x1
 6255 0498 55       		.byte	0x55
 6256 0499 00000000 		.4byte	0
 6257 049d 00000000 		.4byte	0
 6258              	.LLST27:
 6259 04a1 98010000 		.4byte	.LVL109
 6260 04a5 CA010000 		.4byte	.LVL113
 6261 04a9 0100     		.2byte	0x1
 6262 04ab 58       		.byte	0x58
 6263 04ac D2020000 		.4byte	.LVL153
 6264 04b0 E0020000 		.4byte	.LVL155
 6265 04b4 0100     		.2byte	0x1
 6266 04b6 58       		.byte	0x58
 6267 04b7 00000000 		.4byte	0
 6268 04bb 00000000 		.4byte	0
 6269              	.LLST28:
 6270 04bf F2010000 		.4byte	.LVL119
 6271 04c3 F8010000 		.4byte	.LVL120
 6272 04c7 0600     		.2byte	0x6
 6273 04c9 03       		.byte	0x3
 6274 04ca 14010000 		.4byte	.LC19
 6275 04ce 9F       		.byte	0x9f
 6276 04cf F8010000 		.4byte	.LVL120
 6277 04d3 FA010000 		.4byte	.LVL121
ARM GAS  /tmp/ccoNZDVu.s 			page 175


 6278 04d7 0100     		.2byte	0x1
 6279 04d9 58       		.byte	0x58
 6280 04da FA010000 		.4byte	.LVL121
 6281 04de 04020000 		.4byte	.LVL123
 6282 04e2 0300     		.2byte	0x3
 6283 04e4 78       		.byte	0x78
 6284 04e5 01       		.sleb128 1
 6285 04e6 9F       		.byte	0x9f
 6286 04e7 04020000 		.4byte	.LVL123
 6287 04eb 12020000 		.4byte	.LVL125
 6288 04ef 0100     		.2byte	0x1
 6289 04f1 58       		.byte	0x58
 6290 04f2 00000000 		.4byte	0
 6291 04f6 00000000 		.4byte	0
 6292              	.LLST29:
 6293 04fa 08010000 		.4byte	.LVL86
 6294 04fe 0E010000 		.4byte	.LVL87
 6295 0502 0600     		.2byte	0x6
 6296 0504 03       		.byte	0x3
 6297 0505 54000000 		.4byte	.LC6
 6298 0509 9F       		.byte	0x9f
 6299 050a 0E010000 		.4byte	.LVL87
 6300 050e 10010000 		.4byte	.LVL88
 6301 0512 0100     		.2byte	0x1
 6302 0514 5A       		.byte	0x5a
 6303 0515 10010000 		.4byte	.LVL88
 6304 0519 22010000 		.4byte	.LVL90
 6305 051d 0300     		.2byte	0x3
 6306 051f 7A       		.byte	0x7a
 6307 0520 01       		.sleb128 1
 6308 0521 9F       		.byte	0x9f
 6309 0522 22010000 		.4byte	.LVL90
 6310 0526 82020000 		.4byte	.LVL144
 6311 052a 0100     		.2byte	0x1
 6312 052c 5A       		.byte	0x5a
 6313 052d D2020000 		.4byte	.LVL153
 6314 0531 E0020000 		.4byte	.LVL155
 6315 0535 0100     		.2byte	0x1
 6316 0537 5A       		.byte	0x5a
 6317 0538 00000000 		.4byte	0
 6318 053c 00000000 		.4byte	0
 6319              	.LLST31:
 6320 0540 44010000 		.4byte	.LVL95
 6321 0544 4A010000 		.4byte	.LVL96
 6322 0548 0600     		.2byte	0x6
 6323 054a 03       		.byte	0x3
 6324 054b 10010000 		.4byte	.LC18
 6325 054f 9F       		.byte	0x9f
 6326 0550 4A010000 		.4byte	.LVL96
 6327 0554 4C010000 		.4byte	.LVL97
 6328 0558 0100     		.2byte	0x1
 6329 055a 5B       		.byte	0x5b
 6330 055b 4C010000 		.4byte	.LVL97
 6331 055f 56010000 		.4byte	.LVL99
 6332 0563 0300     		.2byte	0x3
 6333 0565 7B       		.byte	0x7b
 6334 0566 01       		.sleb128 1
ARM GAS  /tmp/ccoNZDVu.s 			page 176


 6335 0567 9F       		.byte	0x9f
 6336 0568 56010000 		.4byte	.LVL99
 6337 056c 68010000 		.4byte	.LVL101
 6338 0570 0100     		.2byte	0x1
 6339 0572 5B       		.byte	0x5b
 6340 0573 00000000 		.4byte	0
 6341 0577 00000000 		.4byte	0
 6342              	.LLST32:
 6343 057b 64010000 		.4byte	.LVL100
 6344 057f 6A010000 		.4byte	.LVL102
 6345 0583 0100     		.2byte	0x1
 6346 0585 53       		.byte	0x53
 6347 0586 6A010000 		.4byte	.LVL102
 6348 058a 6C010000 		.4byte	.LVL103
 6349 058e 0100     		.2byte	0x1
 6350 0590 5B       		.byte	0x5b
 6351 0591 6C010000 		.4byte	.LVL103
 6352 0595 76010000 		.4byte	.LVL105
 6353 0599 0300     		.2byte	0x3
 6354 059b 7B       		.byte	0x7b
 6355 059c 01       		.sleb128 1
 6356 059d 9F       		.byte	0x9f
 6357 059e 76010000 		.4byte	.LVL105
 6358 05a2 7A010000 		.4byte	.LVL106
 6359 05a6 0100     		.2byte	0x1
 6360 05a8 5B       		.byte	0x5b
 6361 05a9 00000000 		.4byte	0
 6362 05ad 00000000 		.4byte	0
 6363              	.LLST33:
 6364 05b1 86010000 		.4byte	.LVL107
 6365 05b5 82020000 		.4byte	.LVL144
 6366 05b9 0300     		.2byte	0x3
 6367 05bb 08       		.byte	0x8
 6368 05bc C8       		.byte	0xc8
 6369 05bd 9F       		.byte	0x9f
 6370 05be D2020000 		.4byte	.LVL153
 6371 05c2 E0020000 		.4byte	.LVL155
 6372 05c6 0300     		.2byte	0x3
 6373 05c8 08       		.byte	0x8
 6374 05c9 C8       		.byte	0xc8
 6375 05ca 9F       		.byte	0x9f
 6376 05cb 00000000 		.4byte	0
 6377 05cf 00000000 		.4byte	0
 6378              	.LLST34:
 6379 05d3 D0010000 		.4byte	.LVL114
 6380 05d7 D2010000 		.4byte	.LVL115
 6381 05db 0100     		.2byte	0x1
 6382 05dd 58       		.byte	0x58
 6383 05de D2010000 		.4byte	.LVL115
 6384 05e2 DC010000 		.4byte	.LVL117
 6385 05e6 0300     		.2byte	0x3
 6386 05e8 78       		.byte	0x78
 6387 05e9 01       		.sleb128 1
 6388 05ea 9F       		.byte	0x9f
 6389 05eb DC010000 		.4byte	.LVL117
 6390 05ef EE010000 		.4byte	.LVL118
 6391 05f3 0100     		.2byte	0x1
ARM GAS  /tmp/ccoNZDVu.s 			page 177


 6392 05f5 58       		.byte	0x58
 6393 05f6 00000000 		.4byte	0
 6394 05fa 00000000 		.4byte	0
 6395              	.LLST35:
 6396 05fe 08020000 		.4byte	.LVL124
 6397 0602 14020000 		.4byte	.LVL126
 6398 0606 0600     		.2byte	0x6
 6399 0608 03       		.byte	0x3
 6400 0609 00000000 		.4byte	test_tokens_buffer
 6401 060d 9F       		.byte	0x9f
 6402 060e 14020000 		.4byte	.LVL126
 6403 0612 22020000 		.4byte	.LVL128
 6404 0616 0300     		.2byte	0x3
 6405 0618 78       		.byte	0x78
 6406 0619 7F       		.sleb128 -1
 6407 061a 9F       		.byte	0x9f
 6408 061b 22020000 		.4byte	.LVL128
 6409 061f 28020000 		.4byte	.LVL129
 6410 0623 0100     		.2byte	0x1
 6411 0625 58       		.byte	0x58
 6412 0626 28020000 		.4byte	.LVL129
 6413 062a 2A020000 		.4byte	.LVL130
 6414 062e 0300     		.2byte	0x3
 6415 0630 78       		.byte	0x78
 6416 0631 7F       		.sleb128 -1
 6417 0632 9F       		.byte	0x9f
 6418 0633 00000000 		.4byte	0
 6419 0637 00000000 		.4byte	0
 6420              	.LLST36:
 6421 063b 34020000 		.4byte	.LVL131
 6422 063f 36020000 		.4byte	.LVL132
 6423 0643 0100     		.2byte	0x1
 6424 0645 58       		.byte	0x58
 6425 0646 36020000 		.4byte	.LVL132
 6426 064a 40020000 		.4byte	.LVL134
 6427 064e 0300     		.2byte	0x3
 6428 0650 78       		.byte	0x78
 6429 0651 01       		.sleb128 1
 6430 0652 9F       		.byte	0x9f
 6431 0653 40020000 		.4byte	.LVL134
 6432 0657 52020000 		.4byte	.LVL136
 6433 065b 0100     		.2byte	0x1
 6434 065d 58       		.byte	0x58
 6435 065e 00000000 		.4byte	0
 6436 0662 00000000 		.4byte	0
 6437              	.LLST37:
 6438 0666 4E020000 		.4byte	.LVL135
 6439 066a 54020000 		.4byte	.LVL137
 6440 066e 0100     		.2byte	0x1
 6441 0670 53       		.byte	0x53
 6442 0671 54020000 		.4byte	.LVL137
 6443 0675 56020000 		.4byte	.LVL138
 6444 0679 0100     		.2byte	0x1
 6445 067b 58       		.byte	0x58
 6446 067c 56020000 		.4byte	.LVL138
 6447 0680 60020000 		.4byte	.LVL140
 6448 0684 0300     		.2byte	0x3
ARM GAS  /tmp/ccoNZDVu.s 			page 178


 6449 0686 78       		.byte	0x78
 6450 0687 01       		.sleb128 1
 6451 0688 9F       		.byte	0x9f
 6452 0689 60020000 		.4byte	.LVL140
 6453 068d 64020000 		.4byte	.LVL141
 6454 0691 0100     		.2byte	0x1
 6455 0693 58       		.byte	0x58
 6456 0694 00000000 		.4byte	0
 6457 0698 00000000 		.4byte	0
 6458              	.LLST38:
 6459 069c A0020000 		.4byte	.LVL147
 6460 06a0 A6020000 		.4byte	.LVL148
 6461 06a4 0600     		.2byte	0x6
 6462 06a6 03       		.byte	0x3
 6463 06a7 18010000 		.4byte	.LC20
 6464 06ab 9F       		.byte	0x9f
 6465 06ac A6020000 		.4byte	.LVL148
 6466 06b0 A8020000 		.4byte	.LVL149
 6467 06b4 0100     		.2byte	0x1
 6468 06b6 55       		.byte	0x55
 6469 06b7 A8020000 		.4byte	.LVL149
 6470 06bb B2020000 		.4byte	.LVL151
 6471 06bf 0300     		.2byte	0x3
 6472 06c1 75       		.byte	0x75
 6473 06c2 01       		.sleb128 1
 6474 06c3 9F       		.byte	0x9f
 6475 06c4 B2020000 		.4byte	.LVL151
 6476 06c8 D2020000 		.4byte	.LVL153
 6477 06cc 0100     		.2byte	0x1
 6478 06ce 55       		.byte	0x55
 6479 06cf E0020000 		.4byte	.LVL155
 6480 06d3 F6020000 		.4byte	.LVL157
 6481 06d7 0100     		.2byte	0x1
 6482 06d9 55       		.byte	0x55
 6483 06da 00000000 		.4byte	0
 6484 06de 00000000 		.4byte	0
 6485              		.section	.debug_aranges,"",%progbits
 6486 0000 6C000000 		.4byte	0x6c
 6487 0004 0200     		.2byte	0x2
 6488 0006 00000000 		.4byte	.Ldebug_info0
 6489 000a 04       		.byte	0x4
 6490 000b 00       		.byte	0
 6491 000c 0000     		.2byte	0
 6492 000e 0000     		.2byte	0
 6493 0010 00000000 		.4byte	.LFB222
 6494 0014 36000000 		.4byte	.LFE222-.LFB222
 6495 0018 00000000 		.4byte	.LFB223
 6496 001c 2A000000 		.4byte	.LFE223-.LFB223
 6497 0020 00000000 		.4byte	.LFB224
 6498 0024 32000000 		.4byte	.LFE224-.LFB224
 6499 0028 00000000 		.4byte	.LFB225
 6500 002c 56000000 		.4byte	.LFE225-.LFB225
 6501 0030 00000000 		.4byte	.LFB226
 6502 0034 3E000000 		.4byte	.LFE226-.LFB226
 6503 0038 00000000 		.4byte	.LFB227
 6504 003c 70000000 		.4byte	.LFE227-.LFB227
 6505 0040 00000000 		.4byte	.LFB228
ARM GAS  /tmp/ccoNZDVu.s 			page 179


 6506 0044 22000000 		.4byte	.LFE228-.LFB228
 6507 0048 00000000 		.4byte	.LFB229
 6508 004c 3A000000 		.4byte	.LFE229-.LFB229
 6509 0050 00000000 		.4byte	.LFB230
 6510 0054 28000000 		.4byte	.LFE230-.LFB230
 6511 0058 00000000 		.4byte	.LFB231
 6512 005c 1C000000 		.4byte	.LFE231-.LFB231
 6513 0060 00000000 		.4byte	.LFB232
 6514 0064 FC020000 		.4byte	.LFE232-.LFB232
 6515 0068 00000000 		.4byte	0
 6516 006c 00000000 		.4byte	0
 6517              		.section	.debug_ranges,"",%progbits
 6518              	.Ldebug_ranges0:
 6519 0000 0A000000 		.4byte	.LBB116
 6520 0004 10000000 		.4byte	.LBE116
 6521 0008 12000000 		.4byte	.LBB121
 6522 000c 38000000 		.4byte	.LBE121
 6523 0010 00000000 		.4byte	0
 6524 0014 00000000 		.4byte	0
 6525 0018 D6000000 		.4byte	.LBB177
 6526 001c E0000000 		.4byte	.LBE177
 6527 0020 E2000000 		.4byte	.LBB188
 6528 0024 EC000000 		.4byte	.LBE188
 6529 0028 90010000 		.4byte	.LBB205
 6530 002c 94010000 		.4byte	.LBE205
 6531 0030 98010000 		.4byte	.LBB206
 6532 0034 BC010000 		.4byte	.LBE206
 6533 0038 00000000 		.4byte	0
 6534 003c 00000000 		.4byte	0
 6535 0040 D6000000 		.4byte	.LBB179
 6536 0044 E0000000 		.4byte	.LBE179
 6537 0048 E2000000 		.4byte	.LBB183
 6538 004c EC000000 		.4byte	.LBE183
 6539 0050 A2010000 		.4byte	.LBB184
 6540 0054 A6010000 		.4byte	.LBE184
 6541 0058 00000000 		.4byte	0
 6542 005c 00000000 		.4byte	0
 6543 0060 EC000000 		.4byte	.LBB189
 6544 0064 EE000000 		.4byte	.LBE189
 6545 0068 F6010000 		.4byte	.LBB209
 6546 006c 08020000 		.4byte	.LBE209
 6547 0070 32020000 		.4byte	.LBB212
 6548 0074 34020000 		.4byte	.LBE212
 6549 0078 00000000 		.4byte	0
 6550 007c 00000000 		.4byte	0
 6551 0080 2C010000 		.4byte	.LBB195
 6552 0084 34010000 		.4byte	.LBE195
 6553 0088 36010000 		.4byte	.LBB198
 6554 008c 3E010000 		.4byte	.LBE198
 6555 0090 00000000 		.4byte	0
 6556 0094 00000000 		.4byte	0
 6557 0098 00000000 		.4byte	.LFB222
 6558 009c 36000000 		.4byte	.LFE222
 6559 00a0 00000000 		.4byte	.LFB223
 6560 00a4 2A000000 		.4byte	.LFE223
 6561 00a8 00000000 		.4byte	.LFB224
 6562 00ac 32000000 		.4byte	.LFE224
ARM GAS  /tmp/ccoNZDVu.s 			page 180


 6563 00b0 00000000 		.4byte	.LFB225
 6564 00b4 56000000 		.4byte	.LFE225
 6565 00b8 00000000 		.4byte	.LFB226
 6566 00bc 3E000000 		.4byte	.LFE226
 6567 00c0 00000000 		.4byte	.LFB227
 6568 00c4 70000000 		.4byte	.LFE227
 6569 00c8 00000000 		.4byte	.LFB228
 6570 00cc 22000000 		.4byte	.LFE228
 6571 00d0 00000000 		.4byte	.LFB229
 6572 00d4 3A000000 		.4byte	.LFE229
 6573 00d8 00000000 		.4byte	.LFB230
 6574 00dc 28000000 		.4byte	.LFE230
 6575 00e0 00000000 		.4byte	.LFB231
 6576 00e4 1C000000 		.4byte	.LFE231
 6577 00e8 00000000 		.4byte	.LFB232
 6578 00ec FC020000 		.4byte	.LFE232
 6579 00f0 00000000 		.4byte	0
 6580 00f4 00000000 		.4byte	0
 6581              		.section	.debug_line,"",%progbits
 6582              	.Ldebug_line0:
 6583 0000 38050000 		.section	.debug_str,"MS",%progbits,1
 6583      0200ED02 
 6583      00000201 
 6583      FB0E0D00 
 6583      01010101 
 6584              	.LASF47:
 6585 0000 72656164 		.ascii	"ready_list_t\000"
 6585      795F6C69 
 6585      73745F74 
 6585      00
 6586              	.LASF72:
 6587 000d 44494552 		.ascii	"DIER\000"
 6587      00
 6588              	.LASF2:
 6589 0012 73697A65 		.ascii	"size_t\000"
 6589      5F7400
 6590              	.LASF43:
 6591 0019 6E657874 		.ascii	"next\000"
 6591      00
 6592              	.LASF53:
 6593 001e 64656C74 		.ascii	"delta\000"
 6593      6100
 6594              	.LASF81:
 6595 0024 7264796D 		.ascii	"rdymsg\000"
 6595      736700
 6596              	.LASF13:
 6597 002b 75696E74 		.ascii	"uint64_t\000"
 6597      36345F74 
 6597      00
 6598              	.LASF46:
 6599 0034 70726576 		.ascii	"prev\000"
 6599      00
 6600              	.LASF70:
 6601 0039 706F7274 		.ascii	"port_intctx\000"
 6601      5F696E74 
 6601      63747800 
 6602              	.LASF58:
ARM GAS  /tmp/ccoNZDVu.s 			page 181


 6603 0045 73797374 		.ascii	"system_debug_t\000"
 6603      656D5F64 
 6603      65627567 
 6603      5F7400
 6604              	.LASF138:
 6605 0054 73747265 		.ascii	"stream\000"
 6605      616D00
 6606              	.LASF103:
 6607 005b 706F7274 		.ascii	"port_lock\000"
 6607      5F6C6F63 
 6607      6B00
 6608              	.LASF14:
 6609 0065 6C6F6E67 		.ascii	"long long unsigned int\000"
 6609      206C6F6E 
 6609      6720756E 
 6609      7369676E 
 6609      65642069 
 6610              	.LASF142:
 6611 007c 74657374 		.ascii	"test_tokp\000"
 6611      5F746F6B 
 6611      7000
 6612              	.LASF120:
 6613 0086 636F6E64 		.ascii	"condition\000"
 6613      6974696F 
 6613      6E00
 6614              	.LASF82:
 6615 0090 65786974 		.ascii	"exitcode\000"
 6615      636F6465 
 6615      00
 6616              	.LASF141:
 6617 0099 74657374 		.ascii	"test_tokens_buffer\000"
 6617      5F746F6B 
 6617      656E735F 
 6617      62756666 
 6617      657200
 6618              	.LASF85:
 6619 00ac 73656E74 		.ascii	"sentmsg\000"
 6619      6D736700 
 6620              	.LASF55:
 6621 00b4 76697274 		.ascii	"virtual_timers_list_t\000"
 6621      75616C5F 
 6621      74696D65 
 6621      72735F6C 
 6621      6973745F 
 6622              	.LASF144:
 6623 00ca 49544D5F 		.ascii	"ITM_RxBuffer\000"
 6623      52784275 
 6623      66666572 
 6623      00
 6624              	.LASF76:
 6625 00d7 42445452 		.ascii	"BDTR\000"
 6625      00
 6626              	.LASF45:
 6627 00dc 63685F74 		.ascii	"ch_threads_queue\000"
 6627      68726561 
 6627      64735F71 
 6627      75657565 
ARM GAS  /tmp/ccoNZDVu.s 			page 182


 6627      00
 6628              	.LASF137:
 6629 00ed 74657374 		.ascii	"test_execute\000"
 6629      5F657865 
 6629      63757465 
 6629      00
 6630              	.LASF100:
 6631 00fa 74656172 		.ascii	"teardown\000"
 6631      646F776E 
 6631      00
 6632              	.LASF73:
 6633 0103 43434D52 		.ascii	"CCMR1\000"
 6633      3100
 6634              	.LASF74:
 6635 0109 43434D52 		.ascii	"CCMR2\000"
 6635      3200
 6636              	.LASF78:
 6637 010f 43434D52 		.ascii	"CCMR3\000"
 6637      3300
 6638              	.LASF1:
 6639 0115 7369676E 		.ascii	"signed char\000"
 6639      65642063 
 6639      68617200 
 6640              	.LASF132:
 6641 0121 74657374 		.ascii	"test_emit_token\000"
 6641      5F656D69 
 6641      745F746F 
 6641      6B656E00 
 6642              	.LASF131:
 6643 0131 74657374 		.ascii	"test_println\000"
 6643      5F707269 
 6643      6E746C6E 
 6643      00
 6644              	.LASF64:
 6645 013e 76746C69 		.ascii	"vtlist\000"
 6645      737400
 6646              	.LASF104:
 6647 0145 706F7274 		.ascii	"port_unlock\000"
 6647      5F756E6C 
 6647      6F636B00 
 6648              	.LASF34:
 6649 0151 6D736771 		.ascii	"msgqueue\000"
 6649      75657565 
 6649      00
 6650              	.LASF30:
 6651 015a 73746174 		.ascii	"state\000"
 6651      6500
 6652              	.LASF9:
 6653 0160 6C6F6E67 		.ascii	"long int\000"
 6653      20696E74 
 6653      00
 6654              	.LASF16:
 6655 0169 74737461 		.ascii	"tstate_t\000"
 6655      74655F74 
 6655      00
 6656              	.LASF130:
 6657 0172 5F746573 		.ascii	"_test_assert_time_window\000"
ARM GAS  /tmp/ccoNZDVu.s 			page 183


 6657      745F6173 
 6657      73657274 
 6657      5F74696D 
 6657      655F7769 
 6658              	.LASF54:
 6659 018b 66756E63 		.ascii	"func\000"
 6659      00
 6660              	.LASF75:
 6661 0190 43434552 		.ascii	"CCER\000"
 6661      00
 6662              	.LASF12:
 6663 0195 6C6F6E67 		.ascii	"long long int\000"
 6663      206C6F6E 
 6663      6720696E 
 6663      7400
 6664              	.LASF6:
 6665 01a3 75696E74 		.ascii	"uint16_t\000"
 6665      31365F74 
 6665      00
 6666              	.LASF136:
 6667 01ac 7072696E 		.ascii	"print_tokens\000"
 6667      745F746F 
 6667      6B656E73 
 6667      00
 6668              	.LASF67:
 6669 01b9 72656761 		.ascii	"regarm_t\000"
 6669      726D5F74 
 6669      00
 6670              	.LASF115:
 6671 01c2 6F73616C 		.ascii	"osalOsGetSystemTimeX\000"
 6671      4F734765 
 6671      74537973 
 6671      74656D54 
 6671      696D6558 
 6672              	.LASF33:
 6673 01d7 77616974 		.ascii	"waiting\000"
 6673      696E6700 
 6674              	.LASF125:
 6675 01df 6F73616C 		.ascii	"osalSysLock\000"
 6675      5379734C 
 6675      6F636B00 
 6676              	.LASF93:
 6677 01eb 6D757465 		.ascii	"mutex_t\000"
 6677      785F7400 
 6678              	.LASF111:
 6679 01f3 76616C75 		.ascii	"value\000"
 6679      6500
 6680              	.LASF98:
 6681 01f9 42617365 		.ascii	"BaseSequentialStream\000"
 6681      53657175 
 6681      656E7469 
 6681      616C5374 
 6681      7265616D 
 6682              	.LASF21:
 6683 020e 636E745F 		.ascii	"cnt_t\000"
 6683      7400
 6684              	.LASF110:
ARM GAS  /tmp/ccoNZDVu.s 			page 184


 6685 0214 63685654 		.ascii	"chVTGetSystemTimeX\000"
 6685      47657453 
 6685      79737465 
 6685      6D54696D 
 6685      655800
 6686              	.LASF0:
 6687 0227 756E7369 		.ascii	"unsigned int\000"
 6687      676E6564 
 6687      20696E74 
 6687      00
 6688              	.LASF86:
 6689 0234 77747365 		.ascii	"wtsemp\000"
 6689      6D7000
 6690              	.LASF152:
 6691 023b 7072696E 		.ascii	"print_line\000"
 6691      745F6C69 
 6691      6E6500
 6692              	.LASF84:
 6693 0246 77747472 		.ascii	"wttrp\000"
 6693      7000
 6694              	.LASF128:
 6695 024c 65787065 		.ascii	"expected\000"
 6695      63746564 
 6695      00
 6696              	.LASF28:
 6697 0255 6E616D65 		.ascii	"name\000"
 6697      00
 6698              	.LASF24:
 6699 025a 71756575 		.ascii	"queue\000"
 6699      6500
 6700              	.LASF38:
 6701 0260 6D706F6F 		.ascii	"mpool\000"
 6701      6C00
 6702              	.LASF71:
 6703 0266 534D4352 		.ascii	"SMCR\000"
 6703      00
 6704              	.LASF41:
 6705 026b 63685F74 		.ascii	"ch_thread\000"
 6705      68726561 
 6705      6400
 6706              	.LASF65:
 6707 0275 6D61696E 		.ascii	"mainthread\000"
 6707      74687265 
 6707      616400
 6708              	.LASF19:
 6709 0280 6D73675F 		.ascii	"msg_t\000"
 6709      7400
 6710              	.LASF35:
 6711 0286 6570656E 		.ascii	"epending\000"
 6711      64696E67 
 6711      00
 6712              	.LASF61:
 6713 028f 63685F73 		.ascii	"ch_system_t\000"
 6713      79737465 
 6713      6D5F7400 
 6714              	.LASF118:
 6715 029b 5F746573 		.ascii	"_test_fail\000"
ARM GAS  /tmp/ccoNZDVu.s 			page 185


 6715      745F6661 
 6715      696C00
 6716              	.LASF80:
 6717 02a6 73746D33 		.ascii	"stm32_tim_t\000"
 6717      325F7469 
 6717      6D5F7400 
 6718              	.LASF48:
 6719 02b2 63685F72 		.ascii	"ch_ready_list\000"
 6719      65616479 
 6719      5F6C6973 
 6719      7400
 6720              	.LASF20:
 6721 02c0 6576656E 		.ascii	"eventmask_t\000"
 6721      746D6173 
 6721      6B5F7400 
 6722              	.LASF124:
 6723 02cc 6D736770 		.ascii	"msgp\000"
 6723      00
 6724              	.LASF68:
 6725 02d1 73746B61 		.ascii	"stkalign_t\000"
 6725      6C69676E 
 6725      5F7400
 6726              	.LASF102:
 6727 02dc 74657374 		.ascii	"testcase_t\000"
 6727      63617365 
 6727      5F7400
 6728              	.LASF123:
 6729 02e7 74657374 		.ascii	"test_print\000"
 6729      5F707269 
 6729      6E7400
 6730              	.LASF96:
 6731 02f2 77726974 		.ascii	"write\000"
 6731      6500
 6732              	.LASF37:
 6733 02f8 7265616C 		.ascii	"realprio\000"
 6733      7072696F 
 6733      00
 6734              	.LASF66:
 6735 0301 73697A65 		.ascii	"sizetype\000"
 6735      74797065 
 6735      00
 6736              	.LASF39:
 6737 030a 74687265 		.ascii	"thread_reference_t\000"
 6737      61645F72 
 6737      65666572 
 6737      656E6365 
 6737      5F7400
 6738              	.LASF56:
 6739 031d 63685F76 		.ascii	"ch_virtual_timers_list\000"
 6739      69727475 
 6739      616C5F74 
 6739      696D6572 
 6739      735F6C69 
 6740              	.LASF145:
 6741 0334 74657374 		.ascii	"test_step\000"
 6741      5F737465 
 6741      7000
ARM GAS  /tmp/ccoNZDVu.s 			page 186


 6742              	.LASF69:
 6743 033e 706F7274 		.ascii	"port_context\000"
 6743      5F636F6E 
 6743      74657874 
 6743      00
 6744              	.LASF99:
 6745 034b 73657475 		.ascii	"setup\000"
 6745      7000
 6746              	.LASF129:
 6747 0351 5F746573 		.ascii	"_test_assert_sequence\000"
 6747      745F6173 
 6747      73657274 
 6747      5F736571 
 6747      75656E63 
 6748              	.LASF112:
 6749 0367 74696D65 		.ascii	"time\000"
 6749      00
 6750              	.LASF25:
 6751 036c 7072696F 		.ascii	"prio\000"
 6751      00
 6752              	.LASF49:
 6753 0371 63757272 		.ascii	"current\000"
 6753      656E7400 
 6754              	.LASF117:
 6755 0379 6F73616C 		.ascii	"osalOsIsTimeWithinX\000"
 6755      4F734973 
 6755      54696D65 
 6755      57697468 
 6755      696E5800 
 6756              	.LASF133:
 6757 038d 746F6B65 		.ascii	"token\000"
 6757      6E00
 6758              	.LASF17:
 6759 0393 74726566 		.ascii	"trefs_t\000"
 6759      735F7400 
 6760              	.LASF32:
 6761 039b 72656673 		.ascii	"refs\000"
 6761      00
 6762              	.LASF51:
 6763 03a0 76697274 		.ascii	"virtual_timer_t\000"
 6763      75616C5F 
 6763      74696D65 
 6763      725F7400 
 6764              	.LASF18:
 6765 03b0 74707269 		.ascii	"tprio_t\000"
 6765      6F5F7400 
 6766              	.LASF59:
 6767 03b8 63685F73 		.ascii	"ch_system_debug\000"
 6767      79737465 
 6767      6D5F6465 
 6767      62756700 
 6768              	.LASF94:
 6769 03c8 5F426F6F 		.ascii	"_Bool\000"
 6769      6C00
 6770              	.LASF8:
 6771 03ce 696E7433 		.ascii	"int32_t\000"
 6771      325F7400 
ARM GAS  /tmp/ccoNZDVu.s 			page 187


 6772              	.LASF4:
 6773 03d6 756E7369 		.ascii	"unsigned char\000"
 6773      676E6564 
 6773      20636861 
 6773      7200
 6774              	.LASF101:
 6775 03e4 65786563 		.ascii	"execute\000"
 6775      75746500 
 6776              	.LASF5:
 6777 03ec 73686F72 		.ascii	"short int\000"
 6777      7420696E 
 6777      7400
 6778              	.LASF57:
 6779 03f6 6C617374 		.ascii	"lasttime\000"
 6779      74696D65 
 6779      00
 6780              	.LASF88:
 6781 03ff 65776D61 		.ascii	"ewmask\000"
 6781      736B00
 6782              	.LASF62:
 6783 0406 63685F73 		.ascii	"ch_system\000"
 6783      79737465 
 6783      6D00
 6784              	.LASF95:
 6785 0410 42617365 		.ascii	"BaseSequentialStreamVMT\000"
 6785      53657175 
 6785      656E7469 
 6785      616C5374 
 6785      7265616D 
 6786              	.LASF107:
 6787 0428 63685379 		.ascii	"chSysLock\000"
 6787      734C6F63 
 6787      6B00
 6788              	.LASF126:
 6789 0432 6F73616C 		.ascii	"osalSysUnlock\000"
 6789      53797355 
 6789      6E6C6F63 
 6789      6B00
 6790              	.LASF52:
 6791 0440 63685F76 		.ascii	"ch_virtual_timer\000"
 6791      69727475 
 6791      616C5F74 
 6791      696D6572 
 6791      00
 6792              	.LASF89:
 6793 0451 63685F73 		.ascii	"ch_semaphore\000"
 6793      656D6170 
 6793      686F7265 
 6793      00
 6794              	.LASF79:
 6795 045e 43435852 		.ascii	"CCXR\000"
 6795      00
 6796              	.LASF148:
 6797 0463 63685468 		.ascii	"chThdSleep\000"
 6797      64536C65 
 6797      657000
 6798              	.LASF105:
ARM GAS  /tmp/ccoNZDVu.s 			page 188


 6799 046e 73745F6C 		.ascii	"st_lld_get_counter\000"
 6799      6C645F67 
 6799      65745F63 
 6799      6F756E74 
 6799      657200
 6800              	.LASF10:
 6801 0481 75696E74 		.ascii	"uint32_t\000"
 6801      33325F74 
 6801      00
 6802              	.LASF87:
 6803 048a 77746D74 		.ascii	"wtmtxp\000"
 6803      787000
 6804              	.LASF122:
 6805 0491 74657374 		.ascii	"test_printn\000"
 6805      5F707269 
 6805      6E746E00 
 6806              	.LASF42:
 6807 049d 63685F74 		.ascii	"ch_threads_list\000"
 6807      68726561 
 6807      64735F6C 
 6807      69737400 
 6808              	.LASF91:
 6809 04ad 6F776E65 		.ascii	"owner\000"
 6809      7200
 6810              	.LASF11:
 6811 04b3 6C6F6E67 		.ascii	"long unsigned int\000"
 6811      20756E73 
 6811      69676E65 
 6811      6420696E 
 6811      7400
 6812              	.LASF29:
 6813 04c5 77616261 		.ascii	"wabase\000"
 6813      736500
 6814              	.LASF97:
 6815 04cc 72656164 		.ascii	"read\000"
 6815      00
 6816              	.LASF92:
 6817 04d1 63686172 		.ascii	"char\000"
 6817      00
 6818              	.LASF27:
 6819 04d6 6F6C6465 		.ascii	"older\000"
 6819      7200
 6820              	.LASF127:
 6821 04dc 6F73616C 		.ascii	"osalThreadSleep\000"
 6821      54687265 
 6821      6164536C 
 6821      65657000 
 6822              	.LASF151:
 6823 04ec 2F686F6D 		.ascii	"/home/julian/MEGA/semestre_ix/Crasby/ChibiOS_17.6.2"
 6823      652F6A75 
 6823      6C69616E 
 6823      2F4D4547 
 6823      412F7365 
 6824 051f 2F64656D 		.ascii	"/demos/STM32/RT2-STM32F100-DISCOVERY\000"
 6824      6F732F53 
 6824      544D3332 
 6824      2F525432 
ARM GAS  /tmp/ccoNZDVu.s 			page 189


 6824      2D53544D 
 6825              	.LASF77:
 6826 0544 444D4152 		.ascii	"DMAR\000"
 6826      00
 6827              	.LASF23:
 6828 0549 74687265 		.ascii	"thread_t\000"
 6828      61645F74 
 6828      00
 6829              	.LASF147:
 6830 0552 74657374 		.ascii	"test_suite\000"
 6830      5F737569 
 6830      746500
 6831              	.LASF134:
 6832 055d 74657374 		.ascii	"test_emit_token_i\000"
 6832      5F656D69 
 6832      745F746F 
 6832      6B656E5F 
 6832      6900
 6833              	.LASF22:
 6834 056f 73797374 		.ascii	"systime_t\000"
 6834      696D655F 
 6834      7400
 6835              	.LASF50:
 6836 0579 76746675 		.ascii	"vtfunc_t\000"
 6836      6E635F74 
 6836      00
 6837              	.LASF108:
 6838 0582 5F5F7365 		.ascii	"__set_BASEPRI\000"
 6838      745F4241 
 6838      53455052 
 6838      4900
 6839              	.LASF60:
 6840 0590 70616E69 		.ascii	"panic_msg\000"
 6840      635F6D73 
 6840      6700
 6841              	.LASF146:
 6842 059a 74657374 		.ascii	"test_global_fail\000"
 6842      5F676C6F 
 6842      62616C5F 
 6842      6661696C 
 6842      00
 6843              	.LASF7:
 6844 05ab 73686F72 		.ascii	"short unsigned int\000"
 6844      7420756E 
 6844      7369676E 
 6844      65642069 
 6844      6E7400
 6845              	.LASF106:
 6846 05be 706F7274 		.ascii	"port_timer_get_time\000"
 6846      5F74696D 
 6846      65725F67 
 6846      65745F74 
 6846      696D6500 
 6847              	.LASF143:
 6848 05d2 74657374 		.ascii	"test_chp\000"
 6848      5F636870 
 6848      00
ARM GAS  /tmp/ccoNZDVu.s 			page 190


 6849              	.LASF139:
 6850 05db 74657374 		.ascii	"test_local_fail\000"
 6850      5F6C6F63 
 6850      616C5F66 
 6850      61696C00 
 6851              	.LASF121:
 6852 05eb 5F5F6675 		.ascii	"__func__.5178\000"
 6852      6E635F5F 
 6852      2E353137 
 6852      3800
 6853              	.LASF26:
 6854 05f9 6E657765 		.ascii	"newer\000"
 6854      7200
 6855              	.LASF153:
 6856 05ff 74657374 		.ascii	"test_print_port_info\000"
 6856      5F707269 
 6856      6E745F70 
 6856      6F72745F 
 6856      696E666F 
 6857              	.LASF149:
 6858 0614 474E5520 		.ascii	"GNU C 4.8.1 -mcpu=cortex-m3 -mno-thumb-interwork -m"
 6858      4320342E 
 6858      382E3120 
 6858      2D6D6370 
 6858      753D636F 
 6859 0647 7468756D 		.ascii	"thumb -ggdb -O2 -fomit-frame-pointer -falign-functi"
 6859      62202D67 
 6859      67646220 
 6859      2D4F3220 
 6859      2D666F6D 
 6860 067a 6F6E733D 		.ascii	"ons=16 -ffunction-sections -fdata-sections -fno-com"
 6860      3136202D 
 6860      6666756E 
 6860      6374696F 
 6860      6E2D7365 
 6861 06ad 6D6F6E20 		.ascii	"mon -flto\000"
 6861      2D666C74 
 6861      6F00
 6862              	.LASF44:
 6863 06b7 74687265 		.ascii	"threads_queue_t\000"
 6863      6164735F 
 6863      71756575 
 6863      655F7400 
 6864              	.LASF90:
 6865 06c7 63685F6D 		.ascii	"ch_mutex\000"
 6865      75746578 
 6865      00
 6866              	.LASF135:
 6867 06d0 65786563 		.ascii	"execute_test\000"
 6867      7574655F 
 6867      74657374 
 6867      00
 6868              	.LASF63:
 6869 06dd 726C6973 		.ascii	"rlist\000"
 6869      7400
 6870              	.LASF3:
 6871 06e3 75696E74 		.ascii	"uint8_t\000"
ARM GAS  /tmp/ccoNZDVu.s 			page 191


 6871      385F7400 
 6872              	.LASF140:
 6873 06eb 74657374 		.ascii	"test_failure_message\000"
 6873      5F666169 
 6873      6C757265 
 6873      5F6D6573 
 6873      73616765 
 6874              	.LASF31:
 6875 0700 666C6167 		.ascii	"flags\000"
 6875      7300
 6876              	.LASF150:
 6877 0706 2E2E2F2E 		.ascii	"../../../test/lib/ch_test.c\000"
 6877      2E2F2E2E 
 6877      2F746573 
 6877      742F6C69 
 6877      622F6368 
 6878              	.LASF114:
 6879 0722 636C6561 		.ascii	"clear_tokens\000"
 6879      725F746F 
 6879      6B656E73 
 6879      00
 6880              	.LASF83:
 6881 072f 77746F62 		.ascii	"wtobjp\000"
 6881      6A7000
 6882              	.LASF119:
 6883 0736 5F746573 		.ascii	"_test_assert\000"
 6883      745F6173 
 6883      73657274 
 6883      00
 6884              	.LASF40:
 6885 0743 74687265 		.ascii	"threads_list_t\000"
 6885      6164735F 
 6885      6C697374 
 6885      5F7400
 6886              	.LASF116:
 6887 0752 63685654 		.ascii	"chVTIsTimeWithinX\000"
 6887      49735469 
 6887      6D655769 
 6887      7468696E 
 6887      5800
 6888              	.LASF15:
 6889 0764 746D6F64 		.ascii	"tmode_t\000"
 6889      655F7400 
 6890              	.LASF109:
 6891 076c 63685379 		.ascii	"chSysUnlock\000"
 6891      73556E6C 
 6891      6F636B00 
 6892              	.LASF113:
 6893 0778 73746172 		.ascii	"start\000"
 6893      7400
 6894              	.LASF36:
 6895 077e 6D74786C 		.ascii	"mtxlist\000"
 6895      69737400 
 6896              		.comm	__gnu_lto_v1,1,1
 6897              		.ident	"GCC: (Sourcery CodeBench Lite 2013.11-24) 4.8.1"
ARM GAS  /tmp/ccoNZDVu.s 			page 192


DEFINED SYMBOLS
                            *ABS*:00000000 ch_test.c
     /tmp/ccoNZDVu.s:1028   .text.print_line:00000000 $t
     /tmp/ccoNZDVu.s:1033   .text.print_line:00000000 print_line
     /tmp/ccoNZDVu.s:2370   .bss.test_chp:00000000 .LANCHOR0
     /tmp/ccoNZDVu.s:2312   .rodata.str1.4:00000000 .LC0
     /tmp/ccoNZDVu.s:1082   .text._test_fail:00000000 $t
     /tmp/ccoNZDVu.s:1088   .text._test_fail:00000000 _test_fail
     /tmp/ccoNZDVu.s:2305   .bss.test_local_fail:00000000 .LANCHOR1
     /tmp/ccoNZDVu.s:2299   .bss.test_failure_message:00000000 .LANCHOR3
     /tmp/ccoNZDVu.s:2397   .bss.test_global_fail:00000000 .LANCHOR2
     /tmp/ccoNZDVu.s:1129   .text._test_assert:00000000 $t
     /tmp/ccoNZDVu.s:1135   .text._test_assert:00000000 _test_assert
     /tmp/ccoNZDVu.s:1188   .text._test_assert_sequence:00000000 $t
     /tmp/ccoNZDVu.s:1194   .text._test_assert_sequence:00000000 _test_assert_sequence
     /tmp/ccoNZDVu.s:2377   .bss.test_tokp:00000000 .LANCHOR5
     /tmp/ccoNZDVu.s:2391   .bss.test_tokens_buffer:00000000 .LANCHOR4
     /tmp/ccoNZDVu.s:1276   .text._test_assert_time_window:00000000 $t
     /tmp/ccoNZDVu.s:1282   .text._test_assert_time_window:00000000 _test_assert_time_window
     /tmp/ccoNZDVu.s:1373   .text.test_printn:00000000 $t
     /tmp/ccoNZDVu.s:1379   .text.test_printn:00000000 test_printn
     /tmp/ccoNZDVu.s:1471   .text.test_print:00000000 $t
     /tmp/ccoNZDVu.s:1477   .text.test_print:00000000 test_print
     /tmp/ccoNZDVu.s:1517   .text.test_println:00000000 $t
     /tmp/ccoNZDVu.s:1523   .text.test_println:00000000 test_println
     /tmp/ccoNZDVu.s:1580   .text.test_emit_token:00000000 $t
     /tmp/ccoNZDVu.s:1586   .text.test_emit_token:00000000 test_emit_token
     /tmp/ccoNZDVu.s:1639   .text.test_emit_token:00000024 $d
     /tmp/ccoNZDVu.s:1650   .text.test_emit_token_i:00000000 $t
     /tmp/ccoNZDVu.s:1656   .text.test_emit_token_i:00000000 test_emit_token_i
     /tmp/ccoNZDVu.s:1679   .text.test_emit_token_i:00000018 $d
     /tmp/ccoNZDVu.s:1684   .text.test_execute:00000000 $t
     /tmp/ccoNZDVu.s:1690   .text.test_execute:00000000 test_execute
     /tmp/ccoNZDVu.s:2315   .rodata.str1.4:00000004 .LC1
     /tmp/ccoNZDVu.s:2318   .rodata.str1.4:00000008 .LC2
     /tmp/ccoNZDVu.s:2321   .rodata.str1.4:00000024 .LC3
     /tmp/ccoNZDVu.s:2323   .rodata.str1.4:00000028 .LC4
     /tmp/ccoNZDVu.s:2349   .rodata.str1.4:000000ac .LC14
     /tmp/ccoNZDVu.s:2352   .rodata.str1.4:000000c4 .LC15
     /tmp/ccoNZDVu.s:2355   .rodata.str1.4:000000d8 .LC16
     /tmp/ccoNZDVu.s:2357   .rodata.str1.4:000000fc .LC17
     /tmp/ccoNZDVu.s:2326   .rodata.str1.4:0000003c .LC5
     /tmp/ccoNZDVu.s:2329   .rodata.str1.4:00000054 .LC6
     /tmp/ccoNZDVu.s:2360   .rodata.str1.4:00000110 .LC18
     /tmp/ccoNZDVu.s:2332   .rodata.str1.4:00000064 .LC7
     /tmp/ccoNZDVu.s:2335   .rodata.str1.4:00000068 .LC8
     /tmp/ccoNZDVu.s:2384   .bss.test_step:00000000 .LANCHOR6
     /tmp/ccoNZDVu.s:2363   .rodata.str1.4:00000114 .LC19
     /tmp/ccoNZDVu.s:2338   .rodata.str1.4:00000080 .LC9
     /tmp/ccoNZDVu.s:2340   .rodata.str1.4:00000084 .LC10
     /tmp/ccoNZDVu.s:2366   .rodata.str1.4:00000118 .LC20
     /tmp/ccoNZDVu.s:2347   .rodata.str1.4:000000a4 .LC13
     /tmp/ccoNZDVu.s:2343   .rodata.str1.4:00000088 .LC11
     /tmp/ccoNZDVu.s:2345   .rodata.str1.4:0000009c .LC12
     /tmp/ccoNZDVu.s:2291   .text.test_execute:000002f8 $d
     /tmp/ccoNZDVu.s:2400   .bss.test_global_fail:00000000 test_global_fail
     /tmp/ccoNZDVu.s:2387   .bss.test_step:00000000 test_step
ARM GAS  /tmp/ccoNZDVu.s 			page 193


     /tmp/ccoNZDVu.s:2298   .bss.test_failure_message:00000000 $d
     /tmp/ccoNZDVu.s:2302   .bss.test_failure_message:00000000 test_failure_message
     /tmp/ccoNZDVu.s:2308   .bss.test_local_fail:00000000 test_local_fail
     /tmp/ccoNZDVu.s:2309   .bss.test_local_fail:00000000 $d
     /tmp/ccoNZDVu.s:2311   .rodata.str1.4:00000000 $d
     /tmp/ccoNZDVu.s:2369   .bss.test_chp:00000000 $d
     /tmp/ccoNZDVu.s:2373   .bss.test_chp:00000000 test_chp
     /tmp/ccoNZDVu.s:2376   .bss.test_tokp:00000000 $d
     /tmp/ccoNZDVu.s:2380   .bss.test_tokp:00000000 test_tokp
     /tmp/ccoNZDVu.s:2383   .bss.test_step:00000000 $d
     /tmp/ccoNZDVu.s:2390   .bss.test_tokens_buffer:00000000 $d
     /tmp/ccoNZDVu.s:2394   .bss.test_tokens_buffer:00000000 test_tokens_buffer
     /tmp/ccoNZDVu.s:2401   .bss.test_global_fail:00000000 $d
                            *COM*:00000001 __gnu_lto_v1
                     .debug_frame:00000010 $d
     /tmp/ccoNZDVu.s:1649   .text.test_emit_token:00000028 $t
     /tmp/ccoNZDVu.s:1683   .text.test_emit_token_i:0000001c $t
     /tmp/ccoNZDVu.s:2297   .text.test_execute:000002fc $t

UNDEFINED SYMBOLS
test_suite
test_print_port_info
chThdSleep
