ARM GAS  /tmp/cc1wk5Dk.s 			page 1


   1              		.syntax unified
   2              		.cpu cortex-m3
   3              		.fpu softvfp
   4              		.eabi_attribute 20, 1
   5              		.eabi_attribute 21, 1
   6              		.eabi_attribute 23, 3
   7              		.eabi_attribute 24, 1
   8              		.eabi_attribute 25, 1
   9              		.eabi_attribute 26, 1
  10              		.eabi_attribute 30, 2
  11              		.eabi_attribute 34, 1
  12              		.eabi_attribute 18, 4
  13              		.thumb
  14              		.file	"chmemcore.c"
  15              		.text
  16              	.Ltext0:
  17              		.section	.gnu.lto_.jmpfuncs.409d94d9fc457e2e,"",%progbits
  18 0000 789C6362 		.ascii	"x\234cb`b\300\006\270\2404\013\020\261\263\262\2631"
  18      6062C006 
  18      B8A0340B 
  18      10B1B3B2 
  18      B331
  19 0012 30000002 		.ascii	"0\000\000\0027\0000"
  19      370030
  20              		.text
  21              		.section	.gnu.lto_.inline.409d94d9fc457e2e,"",%progbits
  22 0000 789C6362 		.ascii	"x\234cb`b\300\006*\2404\013\003\003+\013#\003\023\313"
  22      6062C006 
  22      2AA0340B 
  22      03032B0B 
  22      230313CB 
  23 0014 027906B6 		.ascii	"\002y\006\266\005\362L\0201a!F&FF\020\033D\260Hl\331"
  23      05F24C10 
  23      31612146 
  23      26464610 
  23      1B44B048 
  24 002a CA089165 		.ascii	"\312\010\221e\373\240\307\303\300t\201\237\005$\307"
  24      FBA0C7C3 
  24      C074819F 
  24      0524C7
  25 0039 CA202AC2 		.ascii	"\312 *\302\310\004V\002V\314\"s\345\012\232:\016\220"
  25      C8045602 
  25      56CC2273 
  25      E50A9A3A 
  25      0E90
  26 004b 3A360636 		.ascii	":6\0066V\240\025@1\270\025\014\000\016\301\015\204"
  26      56A01540 
  26      31B8150C 
  26      000EC10D 
  26      84
  27              		.text
  28              		.section	.gnu.lto_.pureconst.409d94d9fc457e2e,"",%progbits
  29 0000 789C6362 		.ascii	"x\234cb`b\340d\200\000\026\006\011\026\011V+6\026\000"
  29      6062E064 
  29      80001606 
  29      09160956 
  29      2B361600 
ARM GAS  /tmp/cc1wk5Dk.s 			page 2


  30 0014 032C008F 		.ascii	"\003,\000\217"
  31              		.text
  32              		.section	.gnu.lto__core_init.409d94d9fc457e2e,"",%progbits
  33 0000 789C9D4F 		.ascii	"x\234\235O=K\304@\020\235\267\271\003\013\005[;\321"
  33      3D4BC440 
  33      109DB7B9 
  33      030B055B 
  33      3BD1
  34 0012 4A94A4D7 		.ascii	"J\224\244\327\336_p\202VK\022\003\027p/z)-2Q\221+\024"
  34      DE5F7082 
  34      564B1203 
  34      17702F7A 
  34      292D3251 
  35 0029 622182DA 		.ascii	"b!\202\332\034bc\241\376\003S\0356\012\332h\031\361"
  35      1C6263A1 
  35      FE03531D 
  35      360ADA68 
  35      19F1
  36 003b 5F5C61DC 		.ascii	"_\\a\334|x\310\3319\354\356\314\316\274y\363F\220\240"
  36      7C78C8D9 
  36      39ECEECC 
  36      CEBC79F3 
  36      4690A0
  37 004e 719BD157 		.ascii	"q\233\321W\201hU{\030\004\221<\023\305\023\002(\002"
  37      8168557B 
  37      1804913C 
  37      13C51302 
  37      2802
  38 0060 024502D1 		.ascii	"\002E\002\321\006J\354\235H\263<\277}\035\234\035\341"
  38      064AEC9D 
  38      48B33CBF 
  38      7D1D9C1D 
  38      E1
  39 0071 523474A6 		.ascii	"R4t\246I\007\314\311\354\034\3659K\322\267\303S\360"
  39      4907CCC9 
  39      EC1CF539 
  39      4BD2B7C3 
  39      53F0
  40 0083 079FF057 		.ascii	"\007\237\360W\236\303\207\236\266\004r1\232e\343\012"
  40      9EC3879E 
  40      B6047231 
  40      9A65E30A 
  41 0093 230575CF 		.ascii	"#\005u\317\373\200\031\367i\217\363<*[\226\307Z\256"
  41      FB8019F7 
  41      698FF33C 
  41      2A5B96C7 
  41      5AAE
  42 00a5 F14B7455 		.ascii	"\361KtUi\351\267P\267\246K\332\033O\2647\334\17786m"
  42      69E9B750 
  42      B7A64BDA 
  42      1B4FB437 
  42      DC7F3836 
  43 00ba F4D1A445 		.ascii	"\364\321\244E\272am+>pA\3471\363\264\017\261KC\356\025"
  43      BA616D2B 
  43      3E7041E7 
  43      31F3B40F 
  43      B14B43EE 
ARM GAS  /tmp/cc1wk5Dk.s 			page 3


  44 00cf 91A14A8A 		.ascii	"\221\241J\212u\255\317()\235zX\205\340\035\037\015\205"
  44      75ADCF28 
  44      299D7A58 
  44      85E01D1F 
  44      0D85
  45 00e1 2A57F27E 		.ascii	"*W\362~\376\233\027\177y\253U^(\316\036\347+\326\037"
  45      FE9B177F 
  45      79AB555E 
  45      28CE1EE7 
  45      2BD61F
  46 00f4 6B69B8DE 		.ascii	"ki\270\336\245\000,\230\246U\235 \264\334@\251\240\243"
  46      A5002C98 
  46      A6559D20 
  46      B4DC40A9 
  46      A0A3
  47 0106 A32DDFB1 		.ascii	"\243-\337\261\302\256k\271m\345)7\350z\246KSR\266={"
  47      C2AE6BB9 
  47      6DE52937 
  47      E87AA64B 
  47      5352B63D 
  48 011b 5B3A76E8 		.ascii	"[:v\350I9Y\377\274\316\246\224\337\302\215w}"
  48      493959FF 
  48      BCCEA694 
  48      DFC28D77 
  48      7D
  49              		.text
  50              		.section	.gnu.lto_chCoreAllocAlignedWithOffsetI.409d94d9fc457e2e,"",%progbits
  51 0000 789C9554 		.ascii	"x\234\225TAk\023A\024~of7\033\322\244IS\025\361Tz\323"
  51      416B1341 
  51      147E6F66 
  51      371BD2A4 
  51      495315F1 
  52 0017 4A025E3D 		.ascii	"J\002^=\364\340_0\240\307f\0151\3406\322z\020<t\322"
  52      F4E05F30 
  52      A0C7660D 
  52      31E036D2 
  52      7A103C74 
  53 002c E4505068 		.ascii	"\344PPh\021<\250\027k\025TD=\026\252\230\203HzP\314"
  53      113CA817 
  53      6B155444 
  53      3D16AA98 
  53      83487A50 
  54 0041 514F8152 		.ascii	"QO\201R\021*\202\327\"\256\337\233\315\2566\027\351"
  54      112A82D7 
  54      22AEDF9B 
  54      CDAE3617 
  54      E9
  55 0052 90BC99F9 		.ascii	"\220\274\231\371\276\367\336\274\367\355\354*R4:\316"
  55      BEF7DEBC 
  55      F7EDEC2A 
  55      52343ACE 
  56 0062 E1FF4213 		.ascii	"\341\377B\023\235\301\314)b\265\366\221\250\225V\312"
  56      9DC1CC29 
  56      62B5F691 
  56      A89556CA 
  57 0072 FDE691C9 		.ascii	"\375\346\221\311\350'\357\211LV\017\267N\264u\330\215"
  57      E827EF89 
ARM GAS  /tmp/cc1wk5Dk.s 			page 4


  57      4C560FB7 
  57      4EB475D8 
  57      8D
  58 0083 DC5C6659 		.ascii	"\334\\fY\020\323\222\322\216\313K\027Y\222\252iZ7\346"
  58      10D392D2 
  58      8ECB4B17 
  58      5992AA69 
  58      5A37E6
  59 0096 F660777F 		.ascii	"\366`w\177\300wM\267\363\300\374\012C\346\006\243\200"
  59      C0774DB7 
  59      F3C0FC0A 
  59      43E606A3 
  59      80
  60 00a7 D34C3ED3 		.ascii	"\323L>\323\005lx\312N\3129XQ\024k\372\227z\246\323\015"
  60      056C78CA 
  60      4ECA3958 
  60      51146BFA 
  60      977AA6D3 
  61 00bc C3591B55 		.ascii	"\303Y\033U\372_\324K\325\035\204\341\3637\257vnq\361"
  61      FA5FD44B 
  61      D51D84E1 
  61      F337AF76 
  61      6E71F1
  62 00cf 285383B5 		.ascii	"(S\203\265\346\200\311\201a\027['%\306\023\223&`\031"
  62      E680C981 
  62      61175B27 
  62      25C61393 
  62      266019
  63 00e2 AC680CAC 		.ascii	"\254h\014\254\312\312*'\304\270\230\274\230\202\230"
  63      CACA2A27 
  63      C4B898BC 
  63      988298
  64 00f1 099AE375 		.ascii	"\011\232\343u\236\246\"\346\015\314\223\342\210\341"
  64      9EA622E6 
  64      0DCC93E2 
  64      88E1
  65 00ff 52C798B5 		.ascii	"R\307\230\265\251\210\214\250\200\241\241o\331\363\260"
  65      A9888CA8 
  65      80A1A16F 
  65      D9F3B0
  66 010e 224A8595 		.ascii	"\"J\205\225\314\372\003\265W\332;\253'\346\3701\012"
  66      CCFA03B5 
  66      57DA3BAB 
  66      27E6F831 
  66      0A
  67 011f A9B35B67 		.ascii	"\251\263[g]g\224/\204\216\321\024\010\351\313\0151\362"
  67      5D67942F 
  67      848ED114 
  67      08E9CB0D 
  67      31F2
  68 0131 24ECF2D3 		.ascii	"$\354\362\323\204\365\352\222\037\001[\355j\214\245"
  68      84F5EA92 
  68      1F015BED 
  68      6A8CA5
  69 0140 6D9047B4 		.ascii	"m\220G\264M*\302\320\025`\033\372e\363\367'\025{ff\350"
  69      4D2AC2D0 
  69      15601BFA 
ARM GAS  /tmp/cc1wk5Dk.s 			page 5


  69      65F3F727 
  69      157B6666 
  70 0155 142ABF4F 		.ascii	"\024*\277O\367Z\306\024\032\234\272A\373fEV^ \205XA"
  70      F75AC614 
  70      1A9CBA41 
  70      FB664556 
  70      5E208558 
  71 016a 3D2B6395 		.ascii	"=+c\225cAq\330\315\344\374,\222\324y\314\246\376\221"
  71      634171D8 
  71      CDE4FC2C 
  71      92D479CC 
  71      A6FE91
  72 017d A0391023 		.ascii	"\2409\020#m\214[T\217\240y\020r\206\363\267\271\366"
  72      6D8C5B54 
  72      8FA07910 
  72      7286F3B7 
  72      B9F6
  73 018f 56C2166C 		.ascii	"V\302\026l\177y\233|\257},\206'\300\374\323\\\2446\340"
  73      7F799B7C 
  73      AF7D2C86 
  73      27C0FCD3 
  73      5CA436E0 
  74 01a3 A8B4F6DE 		.ascii	"\250\264\366\336\352\361\330\263h\235\323\007\2347\254"
  74      EAF1D8B3 
  74      689DD307 
  74      9C37AC
  75 01b2 73712846 		.ascii	"sq(F\330KN\233<\214\030\261\032=z\267\333\312%)l\342"
  75      D84B4E9B 
  75      3C8C18B1 
  75      1A3D7AB7 
  75      DBCA2529 
  76 01c8 7854D02E 		.ascii	"xT\320.^\013\015\237\257\255;\234\210>\342\344\320\243"
  76      5E0B0D9F 
  76      AFAD3B9C 
  76      883EE2E4 
  76      D0A3
  77 01da 59DC85E5 		.ascii	"Y\334\205\345\355\315\207?\207U\316\3203\203q\366\220"
  77      EDCD873F 
  77      8755CED0 
  77      338371F6 
  77      90
  78 01eb CF26495C 		.ascii	"\317&I\\A\016\271a}\274\211\002[\3763\261\204\340\021"
  78      410EB961 
  78      7DBC8902 
  78      5BFE33B1 
  78      84E011
  79 01fe E8EF6F8F 		.ascii	"\350\357o\217@\031\347u?;D\024\020\271\240,a\362-8Y"
  79      4019E775 
  79      3F3B4414 
  79      10B9A02C 
  79      61F22D38 
  80 0213 2A95A35F 		.ascii	"*\225\243_s\261\3547\203\2409\217\325\225F\265\274\270"
  80      73B1EC37 
  80      83A0398F 
  80      D59546B5 
  80      BCB8
  81 0225 E097FDCB 		.ascii	"\340\227\375\313A-\360\233\013\265\222O|\325\231\257"
ARM GAS  /tmp/cc1wk5Dk.s 			page 6


  81      412DF09B 
  81      0BB5924F 
  81      7CD599AF 
  82 0235 5DBFF607 		.ascii	"]\277\366\007+x\345\036"
  82      2B78E51E 
  83              		.text
  84              		.section	.gnu.lto_chCoreAllocAlignedWithOffset.409d94d9fc457e2e,"",%progbits
  85 0000 789C9D54 		.ascii	"x\234\235T]h\024W\024>\347\316\314f\263\233\2305?\245"
  85      5D681457 
  85      143EE7CE 
  85      CC66B39B 
  85      98353FA5 
  86 0014 4A898B50 		.ascii	"J\211\213P\260j\263\365\245}\350\203\225<\365!/\246"
  86      B06AB3F5 
  86      A57DE883 
  86      953CF521 
  86      2FA6
  87 0026 81F64926 		.ascii	"\201\366I&\343d3\220\315\206\235(j\037\274\273k\251"
  87      E3643390 
  87      CD869D28 
  87      6A1FBCBB 
  87      6BA9
  88 0038 60C12006 		.ascii	"`\301 \006D\021Mm\254Q\241\245-%\251\255\335R\221D1"
  88      44114D6D 
  88      AC51A1A5 
  88      2D25A9AD 
  88      DD529144 
  89 004d 554B1145 		.ascii	"UK\021E\351B@Z\"b\336\244-N\317\275wfv7\004\327vH\316"
  89      E942405A 
  89      2262DEA4 
  89      2D4ECFBD 
  89      77667637 
  90 0066 BDF79CF3 		.ascii	"\275\367\234\363\235\377=\014\030,\377\272\351\377v"
  90      9DFF3D0C 
  90      182CFFBA 
  90      E9FF76
  91 0075 04E0219D 		.ascii	"\004\340!\235\030\001dc\363\000\371(c\306\037\015\300"
  91      18016463 
  91      F300F928 
  91      63C61F0D 
  91      C0
  92 0086 63DAB9AB 		.ascii	"c\332\271\253\000\274I\363\237\272z\352h(5\003Q\\\000"
  92      00BC49F3 
  92      9FBA7AEA 
  92      68283503 
  92      515C00
  93 0099 613FD374 		.ascii	"a?\323t\003\367\177\200\302\250\266\036&8?R\376\350"
  93      03F77F80 
  93      C2A8B61E 
  93      26383F52 
  93      FEE8
  94 00ab C2CC1A7E 		.ascii	"\302\314\032~\2720\306\237y\036:H\3567#X\010\357\323"
  94      BA30C69F 
  94      791E3A48 
  94      EE372358 
  94      08EFD3
  95 00be 0393F260 		.ascii	"\003\223\362`zm<\012Y\272\363\361\321j\244\306`\313"
ARM GAS  /tmp/cc1wk5Dk.s 			page 7


  95      7A6D3C0A 
  95      59BAF3F1 
  95      D16AA4C6 
  95      60CB
  96 00d0 8B21F9CC 		.ascii	"\213!\371\314\316Y~\240\344y[%\352\315z\250/X\251\354"
  96      CE597EA0 
  96      E4795B25 
  96      EACD7AA8 
  96      2F58A9EC 
  97 00e4 798F7EBB 		.ascii	"y\217~\273\270p\031[\327j\230A\320\211\240A\204E\301"
  97      B870195B 
  97      D76A9841 
  97      D089A041 
  97      8445C1
  98 00f7 41BD5190 		.ascii	"A\275Q\220\230 q0q\002\327C\023=\264fAV\011v\213 \011"
  98      98207130 
  98      7102D743 
  98      133DB466 
  98      41560976 
  99 010e 41560BD2 		.ascii	"AV\013\322JZ\223\244\325F\347\031:\333\205b\007\021"
  99      4A5A93A4 
  99      D546E719 
  99      3ADB8562 
  99      0711
 100 0120 83DC1970 		.ascii	"\203\334\031p\200\363\261\244\237\345\357\327>\251\316"
 100      80F3B1A4 
 100      9FE5EFD7 
 100      3EA9CE
 101 012f D230F12C 		.ascii	"\3220\361,\262:\001\203\220\323\367\036QQ\373>B\320"
 101      B23A0183 
 101      90D3F71E 
 101      5151FB3E 
 101      42D0
 102 0141 A9CD4121 		.ascii	"\251\315A!\032\024\241\2744u\343'<R\344\252\024\270"
 102      1A14A1BC 
 102      3475E327 
 102      3C52E4AA 
 102      14B8
 103 0153 CEC10883 		.ascii	"\316\301\010\203\201z\265\020\274H\222.\363PX\272_<"
 103      817AB510 
 103      BC48922E 
 103      F35058BA 
 103      5F3C
 104 0165 BBD68F36 		.ascii	"\273\326\2176\010\273\264\360\353\011m\203\211S\224"
 104      08BBB4F0 
 104      EB096D83 
 104      895394
 105 0174 55C8FB7B 		.ascii	"U\310\373{\374i\374\225\3605w\237F\314\304\317)Y\013"
 105      FC69FC95 
 105      F035779F 
 105      46CCC4CF 
 105      29590B
 106 0187 853F918E 		.ascii	"\205?\221\216\006rD\020.\323\225\344\232\232\303N\370"
 106      06724410 
 106      2ED395E4 
 106      9A9AC34E 
 106      F8
ARM GAS  /tmp/cc1wk5Dk.s 			page 8


 107 0198 054FF263 		.ascii	"\005O\362c\3578\330P\343\275\"\277\355\313\243*>\225"
 107      EF38D850 
 107      E3BD22BF 
 107      EDCBA32A 
 107      3E95
 108 01aa A2EA415A 		.ascii	"\242\352AZX\255\316\271t\367\332u\244\376\347\237x^"
 108      58ADCEB9 
 108      74F7DA75 
 108      A4FEE79F 
 108      785E
 109 01bc 0BB581C1 		.ascii	"\013\265\201\301=\254\227p\032\365Z#\374+\316\033O\363"
 109      3DAC9770 
 109      1AF55A23 
 109      FC2BCE1B 
 109      4FF3
 110 01ce 7F3C4F93 		.ascii	"\177<O\223\343Z~\001\023\324\326\033P<X\\8\034\324K"
 110      E35A7E01 
 110      13D4D61B 
 110      503C585C 
 110      381CD44B 
 111 01e2 F55F753F 		.ascii	"\365_u?\250\014_\034\247\366~+\371\337H:!\245A\255t"
 111      A80C5F1C 
 111      A7F67E2B 
 111      F9DF483A 
 111      21A541AD 
 112 01f7 652C4A79 		.ascii	"e,Jy\311\250\002\223&N\223<\215\215$\023\376\301\243"
 112      C9A80293 
 112      264E933C 
 112      8D8D2413 
 112      FEC1A3
 113 020a AF058442 		.ascii	"\257\005\204BaJ\013\244\261\000s\251\330\037\360\342"
 113      614A0BA4 
 113      B10073A9 
 113      D81FF0E2 
 114 021a 12141309 		.ascii	"\022\024\023\0112\305\013*\027\227\350{\323\317n\262"
 114      32C50B2A 
 114      1797E87B 
 114      D3CF6EB2 
 115 022a 40B96913 		.ascii	"@\271i\023l\2441=\001\307\363\234'\034l\374\020\376"
 115      6CA4313D 
 115      01C7F39C 
 115      271C6CFC 
 115      10FE
 116 023c E207C52D 		.ascii	"\342\007\305-\226\221\375\023\276c2\343~\224a\317\310"
 116      9691FD13 
 116      BE6332E3 
 116      7E9461CF 
 116      C8
 117 024d 79163E0F 		.ascii	"y\026>\017\205a4\223!\277 \205\307!w\025\011TB!\253"
 117      85613493 
 117      21BF2085 
 117      C7217715 
 117      09544221 
 118 0262 85E225C1 		.ascii	"\205\342%\3012n\202\004\302\217^\311\261x)\224\256\226"
 118      326E8204 
 118      C28F5EC9 
 118      B1782994 
ARM GAS  /tmp/cc1wk5Dk.s 			page 9


 118      AE96
 119 0274 6926A4F1 		.ascii	"i&\244\361\305\342K\001\273\225$59N\312\034[Uh\305\305"
 119      C5E24B01 
 119      BB952435 
 119      394ECA1C 
 119      5B5568C5 
 120 0289 C32F079A 		.ascii	"\303/\007\232mR9^\243|F*\267\371\005\361fCo\355\377"
 120      6D52395E 
 120      A37C462A 
 120      B7F905F1 
 120      66436FED 
 121 029e A5205855 		.ascii	"\245 XU\220Y\270\3620\337\\\345\263\2752,}\204\244\015"
 121      9059B8F2 
 121      30DF5CE5 
 121      B3BD322C 
 121      7D84A40D 
 122 02b2 AA499D71 		.ascii	"\252I\235q\014\213/#\250(\351\360\331V\215\002\232\233"
 122      0C8B2F23 
 122      A828E9F0 
 122      D9568D02 
 122      9A9B
 123 02c4 FE74C98F 		.ascii	"\376t\311\217t\023\234\347\364\275\375?z\024\032\357"
 123      74139CE7 
 123      F4BDFD3F 
 123      7A141AEF 
 124 02d4 A397BF29 		.ascii	"\243\227\277)\312\337M\242\232<\023\317\3119\254\375"
 124      CADF4DA2 
 124      9A3C13CF 
 124      C939ACFD 
 125 02e4 1D9497FE 		.ascii	"\035\224\227\376\234_\276@L<_w9\311\3370<o\203,\236"
 125      9C5FBE40 
 125      4C3C5F77 
 125      39C9DF30 
 125      3C6F832C 
 126 02f9 141BE4E7 		.ascii	"\024\033\344\347\332\015r\252\2713\\\215\225U\362\240"
 126      DA0D72AA 
 126      B9335C8D 
 126      9555F2A0 
 127 0309 6A95186A 		.ascii	"j\225\030j\361EV\330&&~I\227\320s\260=L\374\032;UT\267"
 127      F14556D8 
 127      26267E49 
 127      97D073B0 
 127      3D4CFC1A 
 128 0321 205FFEC1 		.ascii	" _\376\301V\246\322\330!Xw\241C \310,{\364c\273\177"
 128      56A6D2D8 
 128      215877A1 
 128      4320C82C 
 128      7BF463BB 
 129 0336 D5C4DCE8 		.ascii	"\325\304\334\350\337\337j\022\333\025E\255\204\245\327"
 129      DFDF6A12 
 129      DB1545AD 
 129      84A5D7
 130 0345 BABA52EA 		.ascii	"\272\272R\352/\353\246\254l&\223\035\246\333\220\323"
 130      2FEBA6AC 
 130      6C26931D 
 130      A6DB90D3 
 131 0355 9F727356 		.ascii	"\237rsV\312\032\314\330\031+\233\263\273,\320]g\237"
ARM GAS  /tmp/cc1wk5Dk.s 			page 10


 131      CA1ACCD8 
 131      192B9BB3 
 131      BB2CD05D 
 131      679F
 132 0367 AD0FDB7B 		.ascii	"\255\017\333{Fq\344\365\025P#\331\334\250\233\332\266"
 132      4671E4F5 
 132      155023D9 
 132      DCA89BDA 
 132      B6
 133 0378 BDA7BB67 		.ascii	"\275\247\273g\017\001\005j\307\356\2672]\203`\3546\207"
 133      0F01056A 
 133      C7EEB732 
 133      5D8360EC 
 133      3687
 134 038a 76D95B56 		.ascii	"v\331[V\300\220\261TwO\357\273\275)g\330\032\332\265"
 134      C090B154 
 134      774FEFBB 
 134      BD2967D8 
 134      1ADAB5
 135 039d D34E5919 		.ascii	"\323NY\031\327qw\244-\213p\353\252\021\271\321\212\316"
 135      D77177A4 
 135      2D8B70EB 
 135      AA11B9D1 
 135      8ACE
 136 03af A0BBD725 		.ascii	"\240\273\327%y\242\247w{\262\337t\355\221\234\2639\371"
 136      79A2A777 
 136      7BB2DF74 
 136      ED919CB3 
 136      39F9
 137 03c1 EA1BC072 		.ascii	"\352\033\300r\320@\001gs{\3010\207\234\364p$;0\340\332"
 137      D0400167 
 137      737BC130 
 137      879CF470 
 137      243B30E0 
 138 03d6 A3FF02D4 		.ascii	"\243\377\002\324\025\331\210"
 138      15D988
 139              		.text
 140              		.section	.gnu.lto_chCoreGetStatusX.409d94d9fc457e2e,"",%progbits
 141 0000 789C9590 		.ascii	"x\234\225\220\277J\003A\020\306\277\231\275MR\211\255"
 141      BF4A0341 
 141      10C6BF99 
 141      BD4D5289 
 141      AD
 142 0011 56B61AB8 		.ascii	"V\266\032\270{\023\253\010Z\232%\234\007Y\017\222\322"
 142      7B13AB08 
 142      5A9A259C 
 142      07590F92 
 142      D2
 143 0022 221BCF42 		.ascii	"\"\033\317B\273\324\012\212\017\340\237*\265\275F\260"
 143      BBD40A8A 
 143      0FE09F2A 
 143      B5BD46B0 
 144 0032 132B5B11 		.ascii	"\023+[\021|\000\2338\263\341R\210\215\313\356\314\307"
 144      7C009B38 
 144      B3E15288 
 144      8DCBEECC 
 144      C7
ARM GAS  /tmp/cc1wk5Dk.s 			page 11


 145 0043 CCEC6F66 		.ascii	"\314\354of\227\301\370\275\326\344l\023\320\026O\006"
 145      97C1F8BD 
 145      D6E46C13 
 145      D0164F06 
 146 0053 C4936760 		.ascii	"\304\223g`\334b\"\025 \214\230F{\024k\357\370\341}>"
 146      DC622215 
 146      208C9846 
 146      7B146BEF 
 146      F8E17D3E 
 147 0067 BFBD7CBC 		.ascii	"\277\275|\274z\242\033n1\012\202\021C\211*\253\252\241"
 147      7AA21B6E 
 147      310A8211 
 147      43892AAB 
 147      AAA1
 148 0079 A629463B 		.ascii	"\246)F;Y\234\2040\331\000\\\274\337\021\253\320\035"
 148      599C8430 
 148      D9005CBC 
 148      DF11ABD0 
 148      1D
 149 008a 498A3733 		.ascii	"I\21273\034\277\275N?\314>]\223EN\334\306\226p.p>\016"
 149      1CBFBD4E 
 149      3FCC3E5D 
 149      93454EDC 
 149      C696702E 
 150 00a1 61B52073 		.ascii	"a\265 s\204\357p\252*\361\021\260K\"\343$]\252\347\027"
 150      84EF70AA 
 150      2AF111B0 
 150      4B22E324 
 150      5DAAE717 
 151 00b5 C86735E5 		.ascii	"\310g5\345\232ar\355\254\344\373\365:\226\374\207K\177"
 151      9A6172ED 
 151      ACE4FBF5 
 151      3A96FC87 
 151      4B7F
 152 00c7 736DAE15 		.ascii	"sm\256\0253Tg\313q\033\261\233\215\245_\325J\035nJ\006"
 152      335467CB 
 152      711BB19B 
 152      8DA55FD5 
 152      4A1D6E4A 
 153 00dc 78012D03 		.ascii	"x\001-\003\013`G\320\362j\375\227\3154\315\026\273\034"
 153      0B6047D0 
 153      F26AFD97 
 153      CD34CD16 
 153      BB1C
 154 00ee 66AEF4BE 		.ascii	"f\256\364\276<\024\325/\272\331p\3402w\340{\336\225"
 154      3C14D52F 
 154      BAD970E0 
 154      3277E07B 
 154      DE95
 155 0100 835EEAF0 		.ascii	"\203^\352\360\003\222fX\032"
 155      03926658 
 155      1A
 156              		.text
 157              		.section	.gnu.lto_.symbol_nodes.409d94d9fc457e2e,"",%progbits
 158 0000 789C4D8A 		.ascii	"x\234M\212\273\015\200@\024\303\234\2407!\003\245\245"
 158      BB0D8040 
 158      14C39CA0 
ARM GAS  /tmp/cc1wk5Dk.s 			page 12


 158      372103A5 
 158      A5
 159 0011 640226E1 		.ascii	"d\002&\341?\0003q\005\322\341\306\262dcF>\274)0?\220"
 159      3F003371 
 159      05D2E1C6 
 159      B2646346 
 159      3EBC2930 
 160 0027 2C936A15 		.ascii	",\223j\025\025\352\222h\272\345&\357\212\372\343C\361"
 160      15EA9268 
 160      BAE526EF 
 160      8AFAE343 
 160      F1
 161 0038 2F4F65E8 		.ascii	"/Oe\350\311\013\255a\027B"
 161      C90BAD61 
 161      1742
 162              		.text
 163              		.section	.gnu.lto_.refs.409d94d9fc457e2e,"",%progbits
 164 0000 789C6362 		.ascii	"x\234cb`bPd\200\000\026\006FF&& ff\0062\201\034FfV\010"
 164      60625064 
 164      80001606 
 164      46462626 
 164      20666606 
 165 001b CDC406A2 		.ascii	"\315\304\006\242\031\000\011\276\000X"
 165      190009BE 
 165      0058
 166              		.text
 167              		.section	.gnu.lto_.decls.409d94d9fc457e2e,"",%progbits
 168 0000 789C9D56 		.ascii	"x\234\235Vol\024E\024\237\331\366zw\364\212H\"\301("
 168      6F6C1445 
 168      149FD9F6 
 168      7A77F48A 
 168      4822C128 
 169 0014 B6183091 		.ascii	"\266\0300\221\310-\005\215\365\013P\033\002$V\011\015"
 169      C82D058D 
 169      F50B501B 
 169      02245609 
 169      0D
 170 0025 916F9BED 		.ascii	"\221o\233\355v\313\235\334\037\322\335\"\370\205iQ\020"
 170      76CB9DDC 
 170      1FD2DD22 
 170      F8856951 
 170      10
 171 0036 35A69490 		.ascii	"5\246\224\220\200\004\271\312\337~\000\012(\250As%\266"
 171      8004B9CA 
 171      DF7E000A 
 171      28A84173 
 171      25B6
 172 0048 2585E041 		.ascii	"%\205\340AA\240\320d\003\002\246\246\246F\205\000\352"
 172      41A0D064 
 172      0302A6A6 
 172      A6468500 
 172      EA
 173 0059 F96677F6 		.ascii	"\371fw\366\366\017{\245u\322w\235\273}\357\367{\357"
 173      F60F7BA5 
 173      75D2779D 
 173      BB7DEFF7 
 173      7BEF
ARM GAS  /tmp/cc1wk5Dk.s 			page 13


 174 006b F7666687 		.ascii	"\367ff\207C\034\352\300\010ea\254(A(\315!\344C\010\315"
 174      431CEAC0 
 174      086561AC 
 174      284128CD 
 174      21E44308 
 175 0080 45D62804 		.ascii	"E\326(\004k\003\333\007v\034\354$X\001X\032\354G\260"
 175      6B03DB07 
 175      761CEC24 
 175      5801581A 
 175      EC47B0
 176 0093 0BC839A8 		.ascii	"\013\3109\250/\305\310\200\365\200u\202]\004\273\004"
 176      2FC5C880 
 176      F5807582 
 176      5D04BB04 
 177 00a3 06F0A81B 		.ascii	"\006\360\250\033\354,\030f\276#aQ\316\000\303\031\017"
 177      EC2C1866 
 177      BE236151 
 177      CE00C319 
 177      0F
 178 00b4 16029BC7 		.ascii	"\026\002\233\307\360\333m\330n\334}\314\347\010\330"
 178      F0DB6DD8 
 178      6EDC7DCC 
 178      E708D8
 179 00c3 61B06360 		.ascii	"a\260c`?1\036\373\240\365\0243,\023\277\207\305R\036"
 179      3F311EFB 
 179      A0F51433 
 179      2C13BF87 
 179      C5521E
 180 00d6 0DEC26D8 		.ascii	"\015\354&\330\255<\\~\206q\007l\020l\210q\337\005\273"
 180      AD3C5C7E 
 180      8671076C 
 180      106C8871 
 180      DF05BB
 181 00e9 CFB4FB1A 		.ascii	"\317\264\373\032\354\033\260o=\370O2\256\036\346\353"
 181      EC1BB06F 
 181      3DF84F32 
 181      AE1EE6EB 
 182 00f9 AEE92CE3 		.ascii	"\256\351,\343\302\314\027{`\224\242\317IJ\323\366\016"
 182      C2CC177B 
 182      6094A2CF 
 182      494AD3F6 
 182      0E
 183 010a 763C4D52 		.ascii	"v<MR\315\351lv\036\232\204\266\022\030\251\015\204`"
 183      CDE96C76 
 183      1E9A84B6 
 183      1218A90D 
 183      8460
 184 011c 55C4739F 		.ascii	"U\304s\237B\313\261\210\307\007Q\231>\011\005u2\204"
 184      42CBB188 
 184      C7075199 
 184      3E090575 
 184      3284
 185 012e 44FC059E 		.ascii	"D\374\005\236\304f\313\012\0148\016\275\204\321\014"
 185      C466CB0A 
 185      0C380EBD 
 185      84D10C
 186 013d D40EF12D 		.ascii	"\324\016\361-\204\334x\006y\215\027\320^J@\016\220\002"
ARM GAS  /tmp/cc1wk5Dk.s 			page 14


 186      84DC7806 
 186      798D17D0 
 186      5E4A400E 
 186      9002
 187 014f 1D9E02B4 		.ascii	"\035\236\002\264\341R\273\213\210wc\316\235\2476\234"
 187      E152BB8B 
 187      887763CE 
 187      9DA7369C 
 188 015f 3EDF7306 		.ascii	">\337s\006\223V\362w6\273>\340Nt^q\336D\367\263D\013"
 188      9356F277 
 188      36BB3EE0 
 188      4E745E71 
 188      DE44F7B3 
 189 0175 745D5010 		.ascii	"t]P\020}HH3\015\\t\032\032\347\0255\035\355\201\022"
 189      7D484833 
 189      0D5C741A 
 189      1AE71535 
 189      1DED8112 
 190 0189 B47F8EEC 		.ascii	"\264\177\216\354\344\011\011\210\270\035\007!6\2051"
 190      E4090988 
 190      B81D0721 
 190      368531
 191 0198 A0EDC133 		.ascii	"\240\355\3013ri\372\202\316\264\341\273\351@\321\364"
 191      7269FA82 
 191      CEB4E1BB 
 191      E940D1F4 
 192 01a8 C76C42B7 		.ascii	"\307lB\267\311\023\271\034\314\320\334W\312\340\320"
 192      C913B91C 
 192      CCD0DC57 
 192      CAE0D0
 193 01b7 529773BF 		.ascii	"R\227s\277\213q\032\332MH\253\366\301\003\315\267\235"
 193      8B711ADA 
 193      4D48ABF6 
 193      C103CDB7 
 193      9D
 194 01c8 A40BCDC4 		.ascii	"\244\013\315\304\272t\267} \242W1\014\334\210M\367m"
 194      BA74B77D 
 194      20A25731 
 194      0CDC884D 
 194      F76D
 195 01da 3C0CBDE6 		.ascii	"<\014\275\346\364\0048\324\373\230H\237\025xi\343!#"
 195      F40438D4 
 195      FB98489F 
 195      157869E3 
 195      2123
 196 01ec D0E0CC8C 		.ascii	"\320\340\314\214\206\223u\273\231v\256\015\223\211z"
 196      869375BB 
 196      9976AE0D 
 196      93897A
 197 01fb 9BD00871 		.ascii	"\233\320\010qL\307C\217\266?\245\245\257\364\206Z\232"
 197      4CC7438F 
 197      B63FA5A5 
 197      AFF4865A 
 197      9A
 198 020c B46CB6D4 		.ascii	"\264l\266\324h)\207.{\312CN\310\213\014~\021w\000\220"
 198      6829872E 
 198      7BCA434E 
ARM GAS  /tmp/cc1wk5Dk.s 			page 15


 198      C88B0C7E 
 198      11770090 
 199 0220 888F8F4A 		.ascii	"\210\217\217J\231k\275\207r\312\210\370\350c\"m\312"
 199      996BBD87 
 199      72CA88F8 
 199      E863226D 
 199      CA
 200 0231 0CF41EB4 		.ascii	"\014\364\036\264\224\021\361\227\243\341\314)s\265\327"
 200      9411F197 
 200      A3E1CC29 
 200      73B5D7
 201 0240 A94CBE38 		.ascii	"\251L\2768\246\314\011Oev}\374\211\271\201\003\256}"
 201      A6CC094F 
 201      65767DFC 
 201      89B98103 
 201      AE7D
 202 0252 41D9F26D 		.ascii	"A\331\362m\214\357<v\360\237.M\315D\311\321\003$h&/"
 202      8CEF3C76 
 202      F09F2E4D 
 202      CD44C9D1 
 202      03246826 
 203 0267 E29323A7 		.ascii	"\342\223#\247\371\2753\315\347Q\033Ie\322\177\015\005"
 203      F9BD33CD 
 203      E7511B49 
 203      65D27F0D 
 203      05
 204 0278 A03D6418 		.ascii	"\240=d\030v\302D\264Y\317r\276m\013\3167\201\002\326"
 204      76C244B4 
 204      59CF72BE 
 204      6D0BCE37 
 204      8102D6
 205 028b 16DCD13A 		.ascii	"\026\334\321:P\256o\301N<\021\262;\3069\263{,\014M\346"
 205      50AE6FC1 
 205      4E3C11B2 
 205      3BC639B3 
 205      7B2C0C4D 
 206 02a0 07083582 		.ascii	"\007\0105\202tP\222\356\353\016\221B\343w\344*\3266"
 206      745092EE 
 206      EB0E9142 
 206      E377E42A 
 206      D636
 207 02b2 A6A2146D 		.ascii	"\246\242\024m\320\265\015\237\202\266\247p1\372\310"
 207      D0B50D9F 
 207      82B6A770 
 207      31FAC8
 208 02c1 3A36D819 		.ascii	":6\330\031\242\355%\223\267Y\314\001\223\031[\005<\334"
 208      A2ED2593 
 208      B759CC01 
 208      93195B05 
 208      3CDC
 209 02d3 72D03843 		.ascii	"r\3208CN\353\333fs\201\373\014\301\2563\004;\317\020"
 209      4EEBDB66 
 209      7381FB0C 
 209      C1AE3304 
 209      3BCF10
 210 02e6 1CB42659 		.ascii	"\034\264&Y\354}\\\321\260\036\\lbph\273\316B\353\363"
 210      EC7D5CD1 
ARM GAS  /tmp/cc1wk5Dk.s 			page 16


 210      B01E5C6C 
 210      627068BB 
 210      CE42EBF3 
 211 02fa 72675363 		.ascii	"rgSc0\007G\315\332\216\013\327;\361\346\365\344\364"
 211      300747CD 
 211      DA8E0BD7 
 211      3BF1E6F5 
 211      E4F4
 212 030c 2C039843 		.ascii	",\003\230CmcF,\363\322\324,\322j\211\210\273\360t\370"
 212      6D63462C 
 212      F3D2D42C 
 212      D26A8988 
 212      BBF074F8 
 213 0320 ECC653E1 		.ascii	"\354\306S\341\363,|\346\006\207\016\344\324\312\327"
 213      F32C7CE6 
 213      06870EE4 
 213      D4CAD7
 214 032f DB73D642 		.ascii	"\333s\326B\243\213Lk\321n\015f\270&r\252\211\320\367"
 214      A38B4C6B 
 214      D16E0D66 
 214      B82672AA 
 214      89D0F7
 215 0342 04C64FA2 		.ascii	"\004\306O\242\026\272B\312\266\2157Z`\345\220\201g\310"
 215      16BA42CA 
 215      B68D375A 
 215      60E59081 
 215      67C8
 216 0354 CE76AC00 		.ascii	"\316v\254\000;\222<\357\306N_\351\206M\325\001p\331"
 216      3B923CEF 
 216      C64E5FE9 
 216      864DD501 
 216      70D9
 217 0366 EC3A0380 		.ascii	"\354:\003\200C\235\256\250>+\312\261d\214%\234\257}"
 217      439DAEA8 
 217      3E2BCAB1 
 217      648C259C 
 217      AF7D
 218 0378 17ADF6B9 		.ascii	"\027\255\366\271\242(K\276\250KV\024\3150\223I\017\364"
 218      A2284BBE 
 218      A84B5614 
 218      CD309349 
 218      0FF4
 219 038a 6C22986C 		.ascii	"l\"\230l Mt\223Y\265\347\326kz\344\365J\337\333\234"
 219      204D7493 
 219      59B5E7D6 
 219      6B7AE4F5 
 219      4ADFDB9C 
 220 039e 6D714FF6 		.ascii	"mqO\366\366\025\361U\275i\375LP\372\250?\267R\373\331"
 220      F615F155 
 220      BD69FD4C 
 220      50FAA83F 
 220      B752FBD9 
 221 03b2 52E5D039 		.ascii	"R\345\3209\2076\016\231F\016e\244\303\330d}Nw\2667\263"
 221      87360E99 
 221      460E65A4 
 221      C3D8647D 
 221      4E77B637 
ARM GAS  /tmp/cc1wk5Dk.s 			page 17


 222 03c7 DF3AD8DC 		.ascii	"\337:\330\334n\"\276\316z\253\227BrZ\206\362\237\205"
 222      6E22BECE 
 222      7AAB9742 
 222      725A86F2 
 222      9F85
 223 03d9 03B67C42 		.ascii	"\003\266|BAk2\305\221\265\351\005\265\365\025\270^\200"
 223      416B32C5 
 223      91B5E905 
 223      B5F515B8 
 223      5E80
 224 03eb EE2C3874 		.ascii	"\356,8t\235\225/\342qx,\367\216\207[.\376\216\233a\251"
 224      9D952FE2 
 224      71782CF7 
 224      8E875B2E 
 224      FE8E9B61 
 225 0400 8958D34F 		.ascii	"\211X\323O\215\301GN\015\277\353\324\360;O\015\177\320"
 225      8DC1474E 
 225      0DBFEBD4 
 225      F03B4F0D 
 225      7FD0
 226 0412 9AB09B07 		.ascii	"\232\260\233\007\323.5\337%\336\0043\001\216A\335\034"
 226      D32E35DF 
 226      25DE0433 
 226      018E41DD 
 226      1C
 227 0423 B3763FE7 		.ascii	"\263v?\347\321\316l~\236\266U\230~~\206sk\314\314\267"
 227      D1CE6C7E 
 227      9EB65598 
 227      7E7E8673 
 227      6BCCCCB7 
 228 0437 F3301731 		.ascii	"\3630\0271f\372~L\017k\227w\335\353\302\255p\236\351"
 228      66FA7E4C 
 228      0F6B9777 
 228      DDEBC2AD 
 228      709EE9
 229 044a EF9E54C0 		.ascii	"\357\236T\300\270\274rhK\241\347\313\316u;\275\343\276"
 229      B8BC7268 
 229      4BA1E7CB 
 229      CE753BBD 
 229      E3BE
 230 045c 9DFEF2E8 		.ascii	"\235\376\362\350K\030H\036\334\310|\246\037\232.\222"
 230      4B18481E 
 230      DCC87CA6 
 230      1F9A2E92 
 231 046c 33A32219 		.ascii	"3\243\"\031t\223\374\352Ir\355\366\360\242\373G\011"
 231      7493FCEA 
 231      4972EDF6 
 231      F0A2FB47 
 231      09
 232 047d D944FECD 		.ascii	"\331D\376\315\256kz\177\352\350\257\353\2779o\301\306"
 232      AE6B7A7F 
 232      EAE8AFEB 
 232      BF396FC1 
 232      C6
 233 048e D272DD37 		.ascii	"\322r\33577\372\354\251\352\236\034\332\352c}d\327\253"
 233      37FAECA9 
 233      EA9E1CDA 
ARM GAS  /tmp/cc1wk5Dk.s 			page 18


 233      EA637D64 
 233      D7AB
 234 04a0 F3DDA196 		.ascii	"\363\335\241\226\334\312\334\255G\014\345\275\354h\266"
 234      DCCADCAD 
 234      470CE5BD 
 234      EC68B6
 235 04af CB0E217F 		.ascii	"\313\016!\1774-\231\234\253x\310]\361\260g\305\227w"
 235      342D999C 
 235      AB78C85D 
 235      F1B067C5 
 235      9777
 236 04c1 75757BF5 		.ascii	"uu{\365\256\3357\032Y\357\272I\356\345\353\335N\257"
 236      AEDD371A 
 236      59EFBA49 
 236      EEE5EBDD 
 236      4EAF
 237 04d3 DE7D352A 		.ascii	"\336}5*\222\373n\222\007N\022\364b8\314\033\177I\205"
 237      92FB6E92 
 237      074E12F4 
 237      6238CC1B 
 237      7F4985
 238 04e6 9792F178 		.ascii	"\227\222\361x2\001\263X\264\226W\032$^\212\304\345\270"
 238      3201B358 
 238      B496571A 
 238      245E8AC4 
 238      E5B8
 239 04f8 946C90C3 		.ascii	"\224l\220\303\022\032'\320\211\020MD\325\242\205o.+"
 239      121A27D0 
 239      89104D44 
 239      D5A2856F 
 239      2E2B
 240 050a AB42221F 		.ascii	"\253B\"\037I\306e\376\235\306XTL\360\325\013\026V\362"
 240      49C665FE 
 240      9DC65854 
 240      4CF0D50B 
 240      1656F2
 241 051d 8A1C9715 		.ascii	"\212\034\227\025\225\272\255\341\027\304k\345\332h\035"
 241      95BAADE1 
 241      17C46BE5 
 241      DA681D
 242 052c E08A0DF1 		.ascii	"\340\212\015\361\231\263g\225\317\011\227\227\363\024"
 242      99B36795 
 242      CF099797 
 242      F314
 243 053a 7A8524E9 		.ascii	"z\205$\351\277%\222\011y\246,\326F\371\227\303\025\341"
 243      BF259209 
 243      79A62CD6 
 243      46F997C3 
 243      15E1
 244 054c 723E9A90 		.ascii	"r>\232\220b\215u2\257\250uur}8\202\212\224\350{\262"
 244      628D7532 
 244      AFA87575 
 244      727D3882 
 244      8A94E87B 
 245 0561 A04E9122 		.ascii	"\240N\221\"U\300]\031\213%\245\312XtEB\256{;\252F\336"
 245      55C05D19 
 245      8B25A5CA 
ARM GAS  /tmp/cc1wk5Dk.s 			page 19


 245      58744542 
 245      AE7B3BAA 
 246 0577 AAAF5764 		.ascii	"\252\257Wduq!u\362\211\364\367\242\244\376\323\263#"
 246      75712175 
 246      F289F4F7 
 246      A2A4FED3 
 246      B323
 247 0589 F94F301E 		.ascii	"\371O0\036.\224\325\032UT\033\225\3453\363J`\346c\311"
 247      2E94D51A 
 247      55541B95 
 247      E533F34A 
 247      60E663C9 
 248 059d 10414136 		.ascii	"\020AA6\025\324\232\377S\276\263l[\301\321\204\012\350"
 248      15D49AFF 
 248      53BEB36C 
 248      5BC1D184 
 248      0AE8
 249 05af FE46F85F 		.ascii	"\376F\370_!\250\376\204\274F\005\246\"9Q\007\377\306"
 249      21A8FE84 
 249      BC4605A6 
 249      22395107 
 249      FFC6
 250 05c1 491181F1 		.ascii	"I\021\201\361\226\010BD\026W\011\265\242\"\013B\210"
 250      96084244 
 250      165709B5 
 250      A2220B42 
 250      88
 251 05d2 7D033741 		.ascii	"}\0037A(\224\"bC@\020\352\033\023\222 \224\230\223\360"
 251      28942262 
 251      434010EA 
 251      1B139220 
 251      949893F0 
 252 05e6 2BAF9557 		.ascii	"+\257\225W\004(\360\234\331\202Zj\257\266A\265\325\250"
 252      0428F09C 
 252      D9825A6A 
 252      AFB641B5 
 252      D5A8
 253 05f8 AC55687D 		.ascii	"\254Uh}R\244f\255\362FRZ\351\245\313\252d\203\252\360"
 253      52A466AD 
 253      F246525A 
 253      E9A5CBAA 
 253      6483AAF0 
 254 060c 954BABAB 		.ascii	"\225K\253\253\252\327@\210.\304\352W\3434\216>\022@"
 254      AAD74088 
 254      2EC4EA57 
 254      E3348E3E 
 254      1240
 255 061e F095E51E 		.ascii	"\360\225\345\036qP\015_U]\263\270\306\342\213+QE\200"
 255      71500D5F 
 255      555DB3B8 
 255      C6E28B2B 
 255      514580
 256 0631 9500B190 		.ascii	"\225\000\261\220*4Fx\275\262f\301\222\245\213K\304\330"
 256      2A344678 
 256      BDB266C1 
 256      92A58B4B 
 256      C4D8
ARM GAS  /tmp/cc1wk5Dk.s 			page 20


 257 0643 BBE25A05 		.ascii	"\273\342Z\005VZ,\232\220}\253\305X\243\\\254g\265,A"
 257      565A2C9A 
 257      907DABC5 
 257      58A35CAC 
 257      67B52C41 
 258 0657 F18B75A6 		.ascii	"\361\213u\246F}\376\037\304U\304\272"
 258      467DFE1F 
 258      C455C4BA 
 259              		.text
 260              		.section	.gnu.lto_.symtab.409d94d9fc457e2e,"",%progbits
 261 0000 5F636F72 		.ascii	"_core_init\000\000\000\000\000\000\000\000\000\000\000"
 261      655F696E 
 261      69740000 
 261      00000000 
 261      00000000 
 262 0015 00A10000 		.ascii	"\000\241\000\000\000ch_memcore\000\000\000\000\000\000"
 262      0063685F 
 262      6D656D63 
 262      6F726500 
 262      00000000 
 263 002a 00000000 		.ascii	"\000\000\000\000\000\000\300\000\000\000chCoreAlloc"
 263      0000C000 
 263      00006368 
 263      436F7265 
 263      416C6C6F 
 264 003f 416C6967 		.ascii	"AlignedWithOffsetI\000\000\000\000\000\000\000\000\000"
 264      6E656457 
 264      6974684F 
 264      66667365 
 264      74490000 
 265 005a 000000A6 		.ascii	"\000\000\000\246\000\000\000chCoreAllocAlignedWithO"
 265      00000063 
 265      68436F72 
 265      65416C6C 
 265      6F63416C 
 266 0078 66667365 		.ascii	"ffset\000\000\000\000\000\000\000\000\000\000\000\000"
 266      74000000 
 266      00000000 
 266      00000000 
 266      00
 267 0089 B6000000 		.ascii	"\266\000\000\000chCoreGetStatusX\000\000\000\000\000"
 267      6368436F 
 267      72654765 
 267      74537461 
 267      74757358 
 268 00a2 00000000 		.ascii	"\000\000\000\000\000\000\000\274\000\000\000__heap_"
 268      000000BC 
 268      0000005F 
 268      5F686561 
 268      705F
 269 00b4 62617365 		.ascii	"base__\000\000\002\000\000\000\000\000\000\000\000\000"
 269      5F5F0000 
 269      02000000 
 269      00000000 
 269      0000
 270 00c6 CF000000 		.ascii	"\317\000\000\000__heap_end__\000\000\002\000\000\000"
 270      5F5F6865 
ARM GAS  /tmp/cc1wk5Dk.s 			page 21


 270      61705F65 
 270      6E645F5F 
 270      00000200 
 271 00dc 00000000 		.ascii	"\000\000\000\000\000\000\322\000\000\000"
 271      0000D200 
 271      0000
 272              		.text
 273              		.section	.gnu.lto_.opts,"",%progbits
 274 0000 272D6D63 		.ascii	"'-mcpu=cortex-m3' '-mno-thumb-interwork' '-mthumb' "
 274      70753D63 
 274      6F727465 
 274      782D6D33 
 274      2720272D 
 275 0033 272D6767 		.ascii	"'-ggdb' '-O2' '-fomit-frame-pointer' '-falign-funct"
 275      64622720 
 275      272D4F32 
 275      2720272D 
 275      666F6D69 
 276 0066 696F6E73 		.ascii	"ions=16' '-ffunction-sections' '-fdata-sections' '-"
 276      3D313627 
 276      20272D66 
 276      66756E63 
 276      74696F6E 
 277 0099 666E6F2D 		.ascii	"fno-common' '-flto'\000"
 277      636F6D6D 
 277      6F6E2720 
 277      272D666C 
 277      746F2700 
 278              		.text
 279              		.cfi_sections	.debug_frame
 280              		.section	.text._core_init,"ax",%progbits
 281              		.align	2
 282              		.p2align 4,,15
 283              		.global	_core_init
 284              		.thumb
 285              		.thumb_func
 286              		.type	_core_init, %function
 287              	_core_init:
 288              	.LFB188:
 289              		.file 1 "../../../os/common/oslib/src/chmemcore.c"
 290              		.loc 1 81 0
 291              		.cfi_startproc
 292              		@ args = 0, pretend = 0, frame = 0
 293              		@ frame_needed = 0, uses_anonymous_args = 0
 294              		@ link register save eliminated.
 295              		.loc 1 87 0
 296 0000 40F20003 		movw	r3, #:lower16:.LANCHOR0
 297 0004 40F20001 		movw	r1, #:lower16:__heap_base__
 298              		.loc 1 88 0
 299 0008 40F20002 		movw	r2, #:lower16:__heap_end__
 300              		.loc 1 87 0
 301 000c C0F20003 		movt	r3, #:upper16:.LANCHOR0
 302 0010 C0F20001 		movt	r1, #:upper16:__heap_base__
 303              		.loc 1 88 0
 304 0014 C0F20002 		movt	r2, #:upper16:__heap_end__
 305 0018 83E80600 		stmia	r3, {r1, r2}
 306 001c 7047     		bx	lr
ARM GAS  /tmp/cc1wk5Dk.s 			page 22


 307              		.cfi_endproc
 308              	.LFE188:
 309              		.size	_core_init, .-_core_init
 310 001e 00BF     		.section	.text.chCoreAllocAlignedWithOffsetI,"ax",%progbits
 311              		.align	2
 312              		.p2align 4,,15
 313              		.global	chCoreAllocAlignedWithOffsetI
 314              		.thumb
 315              		.thumb_func
 316              		.type	chCoreAllocAlignedWithOffsetI, %function
 317              	chCoreAllocAlignedWithOffsetI:
 318              	.LFB189:
 319              		.loc 1 114 0
 320              		.cfi_startproc
 321              		@ args = 0, pretend = 0, frame = 0
 322              		@ frame_needed = 0, uses_anonymous_args = 0
 323              		@ link register save eliminated.
 324              	.LVL0:
 325              		.loc 1 121 0
 326 0000 40F20003 		movw	r3, #:lower16:.LANCHOR0
 327 0004 C0F20003 		movt	r3, #:upper16:.LANCHOR0
 328              		.loc 1 114 0
 329 0008 30B4     		push	{r4, r5}
 330              		.cfi_def_cfa_offset 8
 331              		.cfi_offset 4, -8
 332              		.cfi_offset 5, -4
 333              		.loc 1 121 0
 334 000a 1C68     		ldr	r4, [r3]
 335              		.loc 1 120 0
 336 000c 0138     		subs	r0, r0, #1
 337              	.LVL1:
 338              		.loc 1 121 0
 339 000e 2244     		add	r2, r2, r4
 340              	.LVL2:
 341 0010 013A     		subs	r2, r2, #1
 342              		.loc 1 120 0
 343 0012 4518     		adds	r5, r0, r1
 344              		.loc 1 121 0
 345 0014 5018     		adds	r0, r2, r1
 346              	.LVL3:
 347              		.loc 1 120 0
 348 0016 4942     		negs	r1, r1
 349              	.LVL4:
 350              		.loc 1 121 0
 351 0018 0840     		ands	r0, r0, r1
 352              	.LVL5:
 353              		.loc 1 125 0
 354 001a 5A68     		ldr	r2, [r3, #4]
 355              		.loc 1 120 0
 356 001c 2940     		ands	r1, r1, r5
 357              	.LVL6:
 358              		.loc 1 122 0
 359 001e 0144     		add	r1, r1, r0
 360              	.LVL7:
 361              		.loc 1 125 0
 362 0020 9142     		cmp	r1, r2
 363 0022 04D8     		bhi	.L5
ARM GAS  /tmp/cc1wk5Dk.s 			page 23


 364              		.loc 1 125 0 is_stmt 0 discriminator 1
 365 0024 8C42     		cmp	r4, r1
 366 0026 02D8     		bhi	.L5
 367              		.loc 1 132 0 is_stmt 1
 368 0028 30BC     		pop	{r4, r5}
 369              	.LVL8:
 370              		.loc 1 129 0
 371 002a 1960     		str	r1, [r3]
 372              		.loc 1 132 0
 373 002c 7047     		bx	lr
 374              	.LVL9:
 375              	.L5:
 376              		.loc 1 126 0
 377 002e 0020     		movs	r0, #0
 378              	.LVL10:
 379              		.loc 1 132 0
 380 0030 30BC     		pop	{r4, r5}
 381              	.LVL11:
 382 0032 7047     		bx	lr
 383              		.cfi_endproc
 384              	.LFE189:
 385              		.size	chCoreAllocAlignedWithOffsetI, .-chCoreAllocAlignedWithOffsetI
 386 0034 AFF30080 		.section	.text.chCoreAllocAlignedWithOffset,"ax",%progbits
 386      AFF30080 
 386      AFF30080 
 387              		.align	2
 388              		.p2align 4,,15
 389              		.global	chCoreAllocAlignedWithOffset
 390              		.thumb
 391              		.thumb_func
 392              		.type	chCoreAllocAlignedWithOffset, %function
 393              	chCoreAllocAlignedWithOffset:
 394              	.LFB190:
 395              		.loc 1 150 0
 396              		.cfi_startproc
 397              		@ args = 0, pretend = 0, frame = 0
 398              		@ frame_needed = 0, uses_anonymous_args = 0
 399              		@ link register save eliminated.
 400              	.LVL12:
 401 0000 30B4     		push	{r4, r5}
 402              		.cfi_def_cfa_offset 8
 403              		.cfi_offset 4, -8
 404              		.cfi_offset 5, -4
 405              	.LBB26:
 406              	.LBB27:
 407              	.LBB28:
 408              	.LBB29:
 409              		.file 2 "../../../os/common/ext/CMSIS/include/cmsis_gcc.h"
 410              		.loc 2 264 0
 411 0002 2023     		movs	r3, #32
 412              	@ 264 "../../../os/common/ext/CMSIS/include/cmsis_gcc.h" 1
 413 0004 83F31188 		MSR basepri, r3
 414              	@ 0 "" 2
 415              	.LVL13:
 416              		.thumb
 417              	.LBE29:
 418              	.LBE28:
ARM GAS  /tmp/cc1wk5Dk.s 			page 24


 419              	.LBE27:
 420              	.LBE26:
 421              	.LBB30:
 422              	.LBB31:
 423              		.loc 1 121 0
 424 0008 40F20003 		movw	r3, #:lower16:.LANCHOR0
 425 000c C0F20003 		movt	r3, #:upper16:.LANCHOR0
 426 0010 1D68     		ldr	r5, [r3]
 427              		.loc 1 120 0
 428 0012 4C1E     		subs	r4, r1, #1
 429              		.loc 1 121 0
 430 0014 2A44     		add	r2, r2, r5
 431              	.LVL14:
 432 0016 2244     		add	r2, r2, r4
 433              		.loc 1 120 0
 434 0018 4942     		negs	r1, r1
 435              	.LVL15:
 436 001a 0444     		add	r4, r4, r0
 437              	.LVL16:
 438              		.loc 1 121 0
 439 001c 02EA0100 		and	r0, r2, r1
 440              	.LVL17:
 441              		.loc 1 120 0
 442 0020 2140     		ands	r1, r1, r4
 443              	.LVL18:
 444              		.loc 1 125 0
 445 0022 5A68     		ldr	r2, [r3, #4]
 446              		.loc 1 122 0
 447 0024 0144     		add	r1, r1, r0
 448              	.LVL19:
 449              		.loc 1 125 0
 450 0026 9142     		cmp	r1, r2
 451 0028 07D8     		bhi	.L10
 452 002a 8D42     		cmp	r5, r1
 453 002c 05D8     		bhi	.L10
 454              		.loc 1 129 0
 455 002e 1960     		str	r1, [r3]
 456              	.LVL20:
 457              	.LBE31:
 458              	.LBE30:
 459              	.LBB33:
 460              	.LBB34:
 461              	.LBB35:
 462              	.LBB36:
 463              	.LBB37:
 464              		.loc 2 264 0
 465 0030 0023     		movs	r3, #0
 466              	@ 264 "../../../os/common/ext/CMSIS/include/cmsis_gcc.h" 1
 467 0032 83F31188 		MSR basepri, r3
 468              	@ 0 "" 2
 469              		.thumb
 470              	.LBE37:
 471              	.LBE36:
 472              	.LBE35:
 473              	.LBE34:
 474              	.LBE33:
 475              		.loc 1 158 0
ARM GAS  /tmp/cc1wk5Dk.s 			page 25


 476 0036 30BC     		pop	{r4, r5}
 477 0038 7047     		bx	lr
 478              	.LVL21:
 479              	.L10:
 480              	.LBB42:
 481              	.LBB32:
 482              		.loc 1 126 0
 483 003a 0020     		movs	r0, #0
 484              	.LVL22:
 485              	.LBE32:
 486              	.LBE42:
 487              	.LBB43:
 488              	.LBB41:
 489              	.LBB40:
 490              	.LBB39:
 491              	.LBB38:
 492              		.loc 2 264 0
 493 003c 0023     		movs	r3, #0
 494              	@ 264 "../../../os/common/ext/CMSIS/include/cmsis_gcc.h" 1
 495 003e 83F31188 		MSR basepri, r3
 496              	@ 0 "" 2
 497              		.thumb
 498              	.LBE38:
 499              	.LBE39:
 500              	.LBE40:
 501              	.LBE41:
 502              	.LBE43:
 503              		.loc 1 158 0
 504 0042 30BC     		pop	{r4, r5}
 505              	.LVL23:
 506 0044 7047     		bx	lr
 507              		.cfi_endproc
 508              	.LFE190:
 509              		.size	chCoreAllocAlignedWithOffset, .-chCoreAllocAlignedWithOffset
 510 0046 00BFAFF3 		.section	.text.chCoreGetStatusX,"ax",%progbits
 510      0080AFF3 
 510      0080
 511              		.align	2
 512              		.p2align 4,,15
 513              		.global	chCoreGetStatusX
 514              		.thumb
 515              		.thumb_func
 516              		.type	chCoreGetStatusX, %function
 517              	chCoreGetStatusX:
 518              	.LFB191:
 519              		.loc 1 167 0
 520              		.cfi_startproc
 521              		@ args = 0, pretend = 0, frame = 0
 522              		@ frame_needed = 0, uses_anonymous_args = 0
 523              		@ link register save eliminated.
 524              		.loc 1 170 0
 525 0000 40F20003 		movw	r3, #:lower16:.LANCHOR0
 526 0004 C0F20003 		movt	r3, #:upper16:.LANCHOR0
 527 0008 5868     		ldr	r0, [r3, #4]
 528 000a 1B68     		ldr	r3, [r3]
 529              		.loc 1 172 0
 530 000c C01A     		subs	r0, r0, r3
ARM GAS  /tmp/cc1wk5Dk.s 			page 26


 531 000e 7047     		bx	lr
 532              		.cfi_endproc
 533              	.LFE191:
 534              		.size	chCoreGetStatusX, .-chCoreGetStatusX
 535              		.global	ch_memcore
 536              		.section	.bss.ch_memcore,"aw",%nobits
 537              		.align	2
 538              		.set	.LANCHOR0,. + 0
 539              		.type	ch_memcore, %object
 540              		.size	ch_memcore, 8
 541              	ch_memcore:
 542 0000 00000000 		.space	8
 542      00000000 
 543              		.text
 544              	.Letext0:
 545              		.file 3 "/home/julian/MEGA/semestre_ix/Embebidos/arm-2013.11/lib/gcc/arm-none-eabi/4.8.1/include/s
 546              		.file 4 "/home/julian/MEGA/semestre_ix/Embebidos/arm-2013.11/arm-none-eabi/include/stdint.h"
 547              		.file 5 "../../../os/common/ports/ARMCMx/compilers/GCC/chtypes.h"
 548              		.file 6 "../../../os/rt/include/chsystypes.h"
 549              		.file 7 "../../../os/rt/include/chschd.h"
 550              		.file 8 "../../../os/common/ports/ARMCMx/chcore.h"
 551              		.file 9 "../../../os/common/ports/ARMCMx/chcore_v7m.h"
 552              		.file 10 "../../../os/rt/include/chsem.h"
 553              		.file 11 "../../../os/rt/include/chmtx.h"
 554              		.file 12 "../../../os/common/oslib/include/chmemcore.h"
 555              		.file 13 "../../../os/rt/include/chsys.h"
 556              		.file 14 "../../../os/common/ext/CMSIS/include/core_cm3.h"