ARM GAS  /tmp/ccO9coCy.s 			page 1


   1              		.syntax unified
   2              		.cpu cortex-m3
   3              		.fpu softvfp
   4              		.eabi_attribute 20, 1
   5              		.eabi_attribute 21, 1
   6              		.eabi_attribute 23, 3
   7              		.eabi_attribute 24, 1
   8              		.eabi_attribute 25, 1
   9              		.eabi_attribute 26, 1
  10              		.eabi_attribute 30, 2
  11              		.eabi_attribute 34, 1
  12              		.eabi_attribute 18, 4
  13              		.thumb
  14              		.file	"chvt.c"
  15              		.text
  16              	.Ltext0:
  17              		.section	.gnu.lto_.jmpfuncs.3a3e186cdd805140,"",%progbits
  18 0000 789C6362 		.ascii	"x\234cb`b\300\006d\2404\013\003#\020\002\0251\363\003"
  18      6062C006 
  18      64A0340B 
  18      03231002 
  18      1531F303 
  19 0014 29206261 		.ascii	") badd\006\212\227\001\231\000\011|\000\275"
  19      6464068A 
  19      97019900 
  19      097C00BD 
  20              		.text
  21              		.section	.gnu.lto_.inline.3a3e186cdd805140,"",%progbits
  22 0000 789C6362 		.ascii	"x\234cb`b\300\006\224\031\031\030\244\2014\013\003\203"
  22      6062C006 
  22      94191918 
  22      A481340B 
  22      0383
  23 0012 9414230B 		.ascii	"\224\024#\013Cz5\303\257\206\216\206\007\213\277Yf2"
  23      437A35C3 
  23      AF868E86 
  23      078BBF59 
  23      6632
  24 0024 326833AC 		.ascii	"2h3\254j\000\002\323LF\306\\F\206$F\2706f\006\206\214"
  24      6A0002D3 
  24      4C46C65C 
  24      46862446 
  24      B8366606 
  25 003a 44C6858C 		.ascii	"D\306\205\214\325 \026#\003\214t`g\355Pg`\357Pgb`|\301"
  25      D5201623 
  25      038C7460 
  25      67ED5067 
  25      60EF5067 
  26 0052 2EC0C400 		.ascii	".\300\304\000\344\0120H}[\302\310\301\300\270\233]\201"
  26      E40A3048 
  26      7D5BC2C8 
  26      C1C0B89B 
  26      5D81
  27 0064 83094281 		.ascii	"\203\011B\201\214`\344\002Y\312\304\315\000\224\232"
  27      8C60E402 
  27      59CAC4CD 
  27      00949A
ARM GAS  /tmp/ccO9coCy.s 			page 2


  28 0073 E0C7C4C0 		.ascii	"\340\307\304\300\316\306\310\300\304q\300\216\201m\201"
  28      CEC6C8C0 
  28      C471C08E 
  28      816D81
  29 0082 3C13C40E 		.ascii	"<\023\304\016\243K\014\214\314\214)\021\214\231\214"
  29      A34B0C8C 
  29      CC8C2911 
  29      8C998C
  30 0091 4C40E319 		.ascii	"L@\343\031S\341,\220K\230\275\316\377\340`\340[\352"
  30      53E12C90 
  30      4B98BDCE 
  30      FFE060E0 
  30      5BEA
  31 00a3 C6C4C0B2 		.ascii	"\306\304\300\262@^\000\244\005h\032\3300\010\305\302"
  31      405E00A4 
  31      05681AD8 
  31      3008C5C2 
  32 00b3 2022C0C8 		.ascii	" \"\300\310\014v\230\002\262#9\304&Lfd\3408\242\003"
  32      0C769802 
  32      B22339C4 
  32      264C6664 
  32      E038A203 
  33 00c7 74CD2536 		.ascii	"t\315%6\026\010\011\"8\300L\240{.\261\0120\201I$C\031"
  33      16080922 
  33      38C04CA0 
  33      7B2EB10A 
  33      30814924 
  34 00dd A4F4F4F4 		.ascii	"\244\364\364\364!(\277X\277\250D\277\270(Y?9\243\254"
  34      2128BF58 
  34      BFA844BF 
  34      B828593F 
  34      39A3AC
  35 00f0 442F9901 		.ascii	"D/\231\001\000\033\3201\002"
  35      001BD031 
  35      02
  36              		.text
  37              		.section	.gnu.lto_.pureconst.3a3e186cdd805140,"",%progbits
  38 0000 789C6362 		.ascii	"x\234cb`b\340d\200\000\026\006)&\011f)\026)\000\002"
  38      6062E064 
  38      80001606 
  38      29260966 
  38      29162900 
  39 0015 D80081   		.ascii	"\330\000\201"
  40              		.text
  41              		.section	.gnu.lto_chVTDoResetI.part.0.3a3e186cdd805140,"",%progbits
  42 0000 789C9555 		.ascii	"x\234\225U]lTU\020\236\271\377\367\356n\267\232h\320"
  42      5D6C5455 
  42      109EB9FF 
  42      F7EE6EB7 
  42      9A68D0
  43 0013 4462F04D 		.ascii	"Db\360Mbo\224\230\310\2231\372BB_d\233\350\213u\275"
  43      626F9498 
  43      C89331FA 
  43      42425F64 
  43      9BE88B75 
  44 0028 DD6C6FB2 		.ascii	"\335lo\262\333%\333\025M|\340,\273!\010&\224&FE+\202"
  44      DB25DB15 
ARM GAS  /tmp/ccO9coCy.s 			page 3


  44      4D7CE02C 
  44      BB210826 
  44      94264645 
  45 003e 15154C88 		.ascii	"\025\025L\210\232\250\004\002\305\037l!-\222\370\003"
  45      9AA80402 
  45      C51F6C21 
  45      2D92F803 
  46 004e 4D1FFA60 		.ascii	"M\037\372`\370\011A\233\324\027*\260\316\234\373\263"
  46      F809419B 
  46      D4172AB0 
  46      CE9CFBB3 
  47 005e 97D5063C 		.ascii	"\227\325\006<\331{f\31693\337|3\347g\025P\240\263\225"
  47      D97B66CE 
  47      3933DF7C 
  47      33E76715 
  47      50A0B395 
  48 0072 E9FBC800 		.ascii	"\351\373\310\000\370\222$:\200\366\310\014)6*R*\212"
  48      F892243A 
  48      80F6C80C 
  48      29362A52 
  48      2A8A
  49 0084 7A5805E1 		.ascii	"zX\005\341h\277\235\002\020i\025-\236\256[\232b\035"
  49      68BF9D02 
  49      1069152D 
  49      9EAE5B9A 
  49      621D
  50 0096 5D49F3FA 		.ascii	"]I\363\372\317.M\353\212\361\306=42\233kid\240\031\030"
  50      CF2E4DEB 
  50      8AF1C63D 
  50      34329B6B 
  50      6964A019 
  51 00ab 9991B585 		.ascii	"\231\221\265\205\310\012 l\266\025U\323\015\323\302"
  51      C80A206C 
  51      B61555D3 
  51      0DD3C2
  52 00ba CDCF2387 		.ascii	"\315\317#\207\327\312\010\253`\257\020\273\347\1778"
  52      D7CA08AB 
  52      60AF10BB 
  52      E77F38
  53 00c9 FEF98AED 		.ascii	"\376\371\212\355\037\324G\304\315V\013}^\365\020\236"
  53      1FD447C4 
  53      CD560B7D 
  53      5EF5109E 
  54 00d9 230DBBA5 		.ascii	"#\015\273\245P:\310K\267\321\211_f\336Z!\022n\012<\200"
  54      503AC84B 
  54      B7D1895F 
  54      66DE5A21 
  54      126E0A3C 
  55 00ee 77E4298E 		.ascii	"w\344)\216\274\370\211hN\264ZOJ\257\207n\347uH\021\363"
  55      BCF88968 
  55      4EB45A4F 
  55      4AAF876E 
  55      E7754811 
  56 0103 ADD63B1F 		.ascii	"\255\326;\037;\367\"\226\021\025\360QU\251\3234\356"
  56      3BF72296 
  56      1115F051 
  56      55A9D334 
ARM GAS  /tmp/ccO9coCy.s 			page 4


  56      EE
  57 0114 74EE0CEA 		.ascii	"t\356\014\352t\223:\260xhC\036\307q\0258$\367\221L\361"
  57      74933AB0 
  57      7868431E 
  57      C7711538 
  57      24F7914C 
  58 0129 643A1C64 		.ascii	"d:\034dx@\260:4\205\030y0\260\014\226d\346\324r\324"
  58      7840B03A 
  58      34851879 
  58      30B00C96 
  58      64E6D472 
  59 013e 73E17268 		.ascii	"s\341rh\263T\373((\313i\3302\373\366\3425%\217\373Q"
  59      B354FB28 
  59      28CB69D8 
  59      32FBF6E2 
  59      35258FFB 
  60 0153 87222AAB 		.ascii	"\207\"*\253\341a\"\363.\354\256\013\321\355\243QD\344"
  60      E16122F3 
  60      2EECAE0B 
  60      D1EDA351 
  60      44E4
  61 0165 0C54C9FB 		.ascii	"\014T\311\373%\2142 \277\251\237\234\300k5\034\020\324"
  61      258C3220 
  61      BFA99F9C 
  61      C06B351C 
  61      10D4
  62 0177 D69255A8 		.ascii	"\326\222U\250\246|4c\010\3535X\022\333X\263\313\310"
  62      A67C3463 
  62      08EB3558 
  62      12DB58B3 
  62      CBC8
  63 0189 85603C3B 		.ascii	"\205`<;\304\303P\006\005*\262$\350\245\306\327\357?"
  63      C4C35006 
  63      052AB224 
  63      E8A5C6D7 
  63      EF3F
  64 019b 710BF886 		.ascii	"q\013\370\206\016RJ\222T \2030\342\010-8\241\327Y\322"
  64      0E524A92 
  64      54208330 
  64      E2082D38 
  64      A1D759D2 
  65 01af 4D0A1AC5 		.ascii	"M\012\032\305\211\250\177sn\3612\336\202\237\3611\265"
  65      89A87F73 
  65      6EF132DE 
  65      829FF131 
  65      B5
  66 01c0 6CD29A94 		.ascii	"l\322\232\224<\223be\022\276\277x\342\213l\\\2620p\266"
  66      3C936265 
  66      12BEBF78 
  66      E28B6C5C 
  66      B23070B6 
  67 01d4 1DF7F1FF 		.ascii	"\035\367\361\377\010\033\265>\202=\254\252g\240\261"
  67      081BB53E 
  67      823DACAA 
  67      67A0B1
  68 01e3 30F7EBD6 		.ascii	"0\367\353\326l\270g\321\346M\354\270\372\241\011\020"
  68      6CB867D1 
ARM GAS  /tmp/ccO9coCy.s 			page 5


  68      E64DECB8 
  68      FAA10910 
  69 01f3 607B917F 		.ascii	"`{\221\177\\\301\264\207\264U_\321\0325\0373\021\244"
  69      5CC1B487 
  69      B4555FD1 
  69      1A351F33 
  69      11A4
  70 0205 0674AB82 		.ascii	"\006t\253\202\315\\\232R#f\341v\220\037,[;\275]\225"
  70      CD5C9A52 
  70      2366E176 
  70      901F2C5B 
  70      3BBD5D95 
  71 0219 D9853827 		.ascii	"\331\2058'M\036\003X\266\"m\257\306\266\306\005\214"
  71      4D1E0358 
  71      B6226DAF 
  71      C6B6C605 
  71      8C
  72 022a DC748A59 		.ascii	"\334t\212Y\344r\021\332\272d}\357\200B\221\3454|;\373"
  72      E47211DA 
  72      BA647DEF 
  72      804291E5 
  72      347C3BFB 
  73 023e DE9F973E 		.ascii	"\336\237\227>\035\305\316\272,\316\216\031\361`\357"
  73      1DC5CEBA 
  73      2CCE8E19 
  73      F160EF
  74 024d 9B639978 		.ascii	"\233c\231xp\372z\303nWL\245O\243O\0170\015\216\337\254"
  74      70FA7AC3 
  74      6E574CA5 
  74      4FA34F0F 
  74      300D8EDF 
  75 0262 CF5F3B39 		.ascii	"\317_;93\212\232\217]\314b\204Yd\231B7\357\226&\267"
  75      338A9A8F 
  75      5DCC6284 
  75      59649942 
  75      37EF9626 
  76 0277 B63B6463 		.ascii	"\266;dc0\326\361\300\237\322\370\243\321\225\307c2;"
  76      30D6F1C0 
  76      9FD2F8A3 
  76      D195C763 
  76      323B
  77 0289 B3C88B5C 		.ascii	"\263\310\213\\\250\271\337\367\274\020\345l\005\245"
  77      A8B9DFF7 
  77      BC10E56C 
  77      05A5
  78 0297 0A777E0F 		.ascii	"\012w~\017\376\357\243o\266k\371z\243\032\301\3322\236"
  78      FEEFA36F 
  78      B66BF97A 
  78      A31AC1DA 
  78      329E
  79 02a9 053005E1 		.ascii	"\0050\005\341\345\014\256u\221\375'\241y\341\304\337"
  79      E50CAE75 
  79      91FD27A1 
  79      79E1C4DF 
  80 02b9 3BD544DD 		.ascii	";\325D\335\355\344\011\323\341\307GT\211wp\374\276\310"
  80      EDE409D3 
  80      E1C74754 
ARM GAS  /tmp/ccO9coCy.s 			page 6


  80      897770FC 
  80      BEC8
  81 02cb C889EC12 		.ascii	"\310\211\354\022\210\373$\242\023\"\216\215\306\210"
  81      88FB24A2 
  81      13228E8D 
  81      C688
  82 02d9 0E3385E4 		.ascii	"\0163\205\344\361\355\243\344\367\247\325)\3302\277"
  82      F1EDA3E4 
  82      F7A7D529 
  82      D832BF
  83 02e8 F3B29104 		.ascii	"\363\262\221\004`SM\211\315L\016Nf\026\304\001\322\341"
  83      60534D89 
  83      CD4C0E4E 
  83      6616C401 
  83      D2E1
  84 02fa 49B932EE 		.ascii	"I\2712\356F\001R\224\234d\303\013q\330\214\\H'8\206"
  84      46015294 
  84      9C64C30B 
  84      71D88C5C 
  84      48273886 
  85 030e 4FF38D1D 		.ascii	"O\363\215\035\337\241\330.\352\013\255VV\276\261\207"
  85      DFA1D82E 
  85      EA0BAD56 
  85      56BEB187 
  86 031e F0768F6C 		.ascii	"\360v\217l\221\257\307\031h.\314\335<\331\365\257k6"
  86      91AFC719 
  86      682ECCDD 
  86      3CD9F5AF 
  86      6B36
  87 0330 FD979EC7 		.ascii	"\375\227\236\307I\371BFG\307\350\270lwyh\346\361tt\224"
  87      49F94246 
  87      47C7E8B8 
  87      6C777968 
  87      E6F17474 
  88 0345 E889B89B 		.ascii	"\350\211\270\233\265\363\220\246\372\350\237\355*\204"
  88      B5F390A6 
  88      FAE89FED 
  88      2A84
  89 0353 891BD777 		.ascii	"\211\033\327w\2259qK\276\250g\351_\252M\"G4i\226\251"
  89      9539714B 
  89      BEA867E9 
  89      5FAA4D22 
  89      47346996 
  90 0368 DDDFD3E3 		.ascii	"\335\337\323\343\006\277\312\260[\255\271\303U\317\365"
  90      06BFCAB0 
  90      5BADB9C3 
  90      55CFF5
  91 0377 0637D57A 		.ascii	"\0067\325z<\320\007\012\245Z\336\032\252\274\"\0257"
  91      3CD0070A 
  91      A55ADE1A 
  91      AABC2215 
  91      37
  92 0388 69E955CA 		.ascii	"i\351U\312\345\312\220\273\261R\255\015\273O=\333\373"
  92      E5CA90BB 
  92      B152AD0D 
  92      BB4F3DDB 
  92      FB
ARM GAS  /tmp/ccO9coCy.s 			page 7


  93 0399 74EFABE4 		.ascii	"t\357\253\344\346U\252\205\376\232_.T{\006aM\322~0_"
  93      E655AA85 
  93      FE9A5F2E 
  93      547B0661 
  93      4DD27E30 
  94 03ae 0A8D37E4 		.ascii	"\012\2157\344z\327<\346\256_\377\214\233[\327\273\351"
  94      7AD73CE6 
  94      AE5FFF8C 
  94      9B5BD7BB 
  94      E9
  95 03bf 515EE91F 		.ascii	"Q^\351\037\256\365\227J\003\344\263\262\203\215?\344"
  95      AEF5974A 
  95      03E4B3B2 
  95      838D3FE4 
  96 03cf 955E1E28 		.ascii	"\225^\036(\004\214\006Ac\354\177\000f\340\306\240"
  96      048C0641 
  96      63EC7F00 
  96      66E0C6A0 
  97              		.text
  98              		.section	.gnu.lto__vt_init.3a3e186cdd805140,"",%progbits
  99 0000 789C6362 		.ascii	"x\234cb`b@\007\222 \014\024\226\001\322\214\314\014"
  99      60624007 
  99      92200C14 
  99      9601D28C 
  99      CC0C
 100 0012 8C4C13CE 		.ascii	"\214L\023\316104r012\202\030\014\214\014\365L\214\365"
 100      31303472 
 100      30313282 
 100      180C8C0C 
 100      F54C8CF5 
 101 0026 918C60B5 		.ascii	"\221\214`\265\353\231\016<\370\377\177\335\257\255\017"
 101      EB990E3C 
 101      F8FF7FDD 
 101      AFAD0F
 102 0035 FB1905D9 		.ascii	"\373\031\005\331\200\002\254\014-\015\015\023\024\030"
 102      8002AC0C 
 102      2D0D0D13 
 102      1418
 103 0043 1892C10A 		.ascii	"\030\222\301\012B\200$HW(#\023\210f>\313\320\364\253"
 103      42802448 
 103      57282313 
 103      88663ECB 
 103      D0F4AB
 104 0056 F9FF65A6 		.ascii	"\371\377e\246D\306\205\214\254\014\332\014\253\032\200"
 104      44C6858C 
 104      AC0CDA0C 
 104      AB1A80
 105 0065 C0329311 		.ascii	"\3002\223\021\306\344\316dd\234\3150\253\261\241A \223"
 105      C6E4CE64 
 105      649CCD30 
 105      ABB1A141 
 105      2093
 106 0077 91A99AE1 		.ascii	"\221\251\232\341WC\007\210\305\234\0136-\202\021\310"
 106      57430788 
 106      C59C0B36 
 106      2D8211C8 
 107 0087 04DB9B04 		.ascii	"\004\333\233\004\261\036HC\030\020\225\015\363\201\012"
ARM GAS  /tmp/ccO9coCy.s 			page 8


 107      B11E4843 
 107      1810950D 
 107      F3810A
 108 0096 58A0466D 		.ascii	"X\240Fm\005\262\031\201\372`J\301\000l\377\342\036-"
 108      05B21981 
 108      FA604AC1 
 108      006CFFE2 
 108      1E2D
 109 00a8 EAD9CF44 		.ascii	"\352\331\317D\252\375;v<\272\201\341\177V\262\355\207"
 109      AAFD3B76 
 109      3CBA81E1 
 109      7F56B2ED 
 109      87
 110 00b9 F041326C 		.ascii	"\360A2l\377\3773\303\254x\374\201\212V\260 \254\000"
 110      FFFF33C3 
 110      AC78FC81 
 110      8A56B020 
 110      AC00
 111 00cb 312E3234 		.ascii	"1.24>\350W\206\030\017\003!\300x\000\306/(0\244\364"
 111      3EE85786 
 111      180F0321 
 111      C07800C6 
 111      2F2830A4 
 112 00e0 F4F42128 		.ascii	"\364\364!(\277X\277\250D\277\270(Y?9\243\254D/\231\001"
 112      BF58BFA8 
 112      44BFB828 
 112      593F39A3 
 112      AC442F99 
 113 00f5 00BBF58A 		.ascii	"\000\273\365\212f"
 113      66
 114              		.text
 115              		.section	.gnu.lto_chVTDoSetI.3a3e186cdd805140,"",%progbits
 116 0000 789CAD56 		.ascii	"x\234\255V}h\225U\030?\3179\367\356\275\337[\202\371"
 116      7D689555 
 116      183FCF39 
 116      F7EEBDDF 
 116      5B82F9
 117 0013 B52F876C 		.ascii	"\265/\207ll\312\256k\216\222\350\217\250\177\004\367"
 117      6CCAAE6B 
 117      8E92E88F 
 117      A87F04F7 
 118 0023 4735A1E8 		.ascii	"G5\241\350\017\271\335\215\273\013\273\233l\313\202"
 118      0FB9DD8D 
 118      BB0BBB9B 
 118      6CCB82
 119 0032 02DFEB2E 		.ascii	"\002\337\353.\245i)2\303RA\031VL\231\222\34063\232&"
 119      A5692932 
 119      C3524119 
 119      564C9992 
 119      E036339A 
 120 0047 E892746A 		.ascii	"\350\222tj\342\256E\\\203i\202\310\314\312e\262\333"
 120      E2AE455C 
 120      836982C8 
 120      CCCA65B2 
 120      DB
 121 0058 73BEDEFB 		.ascii	"s\276\336\373\251S\351\345\336\347\274\357s\236\347"
 121      A953E9E5 
ARM GAS  /tmp/ccO9coCy.s 			page 9


 121      DEE7BCEF 
 121      739EE7
 122 0067 779EAFF3 		.ascii	"w\236\257\363\234C\011%\331\317~\374\207\274\204\034"
 122      9C430925 
 122      D9CF7EFC 
 122      87BC841C 
 123 0077 C2110A09 		.ascii	"\302\021\012\011\320\255g\011\211:(e\233g\023\323e\213"
 123      D0AD6709 
 123      893A2865 
 123      9B6713D3 
 123      658B
 124 0089 2D27A687 		.ascii	"-'\246\207\201M\262m\324>\314\220]p\371\007\202|;\370"
 124      814DB26D 
 124      D43ECC90 
 124      5D70F907 
 124      827C3BF8 
 125 009d 24BF801A 		.ascii	"$\277\200\032\033\252\220\357\340\324c\200K\262\035"
 125      1BAA90EF 
 125      E0D46380 
 125      4BB21D
 126 00ac D4F9D3D3 		.ascii	"\324\371\323\323\310v\035{\026\331N\315v\201\207\277"
 126      C8761D7B 
 126      16D94ECD 
 126      768187BF 
 127 00bc 805B8EC7 		.ascii	"\200[\216\307\035\036\352\336|\012\001]\336\230\201"
 127      1D1EEADE 
 127      7C0A015D 
 127      DE9881
 128 00cb 825E0DEB 		.ascii	"\202^\015\353\003\340/\004\310:\312l\366\002\303\341"
 128      03E02F04 
 128      C83ACA6C 
 128      F602C3E1 
 129 00db 74B93D5E 		.ascii	"t\271=^\037\254{\003\270\361\264\202\3545\315m\211}"
 129      1FAC7B03 
 129      B8F1B482 
 129      EC35CD6D 
 129      897D
 130 00ed 7F24E867 		.ascii	"\177$\350g\346Hl\217y?\231\004\010\003:Z\002$\010\344"
 130      E6486C8F 
 130      793F9904 
 130      08033A5A 
 130      022408E4 
 131 0101 75FC8072 		.ascii	"u\374\200r1P[\246\347Rwd\373\251O\346\232{\242[\315"
 131      31505BA6 
 131      E7527764 
 131      FBA94FE6 
 131      9A7BA25B 
 132 0116 69540D03 		.ascii	"iT\015\003\243\244,\245Y$5\263\302v\220\216$\222\311"
 132      A3A42CA5 
 132      592435B3 
 132      C276908E 
 132      2492C9
 133 0129 CDC37FFE 		.ascii	"\315\303\177\376v\023f=\007$\302\327\013\300^\250 \014"
 133      7613663D 
 133      0724C2D7 
 133      0BC05EA8 
 133      200C
ARM GAS  /tmp/ccO9coCy.s 			page 10


 134 013b C73E1C0D 		.ascii	"\307>\034\015\210\0008\220P\027\022\346EB|\004\015\233"
 134      88003890 
 134      501712E6 
 134      45427C04 
 134      0D9B
 135 014d 8DC43687 		.ascii	"\215\3046\207\223\271\234\314S\362\363\361\303\276\200"
 135      93B99CCC 
 135      53F2F3F1 
 135      C3BE80
 136 015c 93624E4A 		.ascii	"\223bNJ8)\345\002eJ\240\\-\260\2203+8Y\304I\245\232"
 136      3829E502 
 136      654AA05C 
 136      2DB09033 
 136      2B3859C4 
 137 0173 AE52D3D5 		.ascii	"\256R\323\325j\254\341k-Q\223K\271d\035'\313\220\024"
 137      6AACE16B 
 137      2D51934B 
 137      B9641D27 
 137      CB9014
 138 0186 342061E8 		.ascii	"4 a\350\206\235\304Lsk\271T\220\222\021\300 \005El\233"
 138      869DC44C 
 138      736BB954 
 138      909211C0 
 138      2005456C 
 139 019b 900E1864 		.ascii	"\220\016\030d\025P\034\330\217d\375\231\251;\011\010"
 139      15501CD8 
 139      8F64FD99 
 139      A93B0908 
 140 01ab C03EB093 		.ascii	"\300>\260\223\305\244\337\304\307\033\006c'\371\034"
 140      C5A4DFC4 
 140      C71B0663 
 140      27F91C
 141 01ba 23E40881 		.ascii	"#\344\010\201\301#%\343\363\226\032C\340 \204k\356\370"
 141      C12325E3 
 141      F3961A43 
 141      E020846B 
 141      EEF8
 142 01cc FBF71C4D 		.ascii	"\373\367\034Mg~MP\232.\256y\342\312\261\213g\2679\225"
 142      677E4D50 
 142      9A2EAE79 
 142      E2CAB18B 
 142      67B73995 
 143 01e0 A1DAE291 		.ascii	"\241\332\342\221\353\037\377\314\230\3655\321\273\333"
 143      EB1FFFCC 
 143      98F535D1 
 143      BBDB
 144 01ee 6B7D6CBA 		.ascii	"k}l\272u\333\232)\227\0316\017\231\246]T\006\023\351"
 144      75DB9A29 
 144      9719360F 
 144      99A65D54 
 144      0613E9
 145 0201 FD0A66CA 		.ascii	"\375\012f\312/!\322X\302c\301\205)\376\231\264k\031"
 145      2F21D258 
 145      C263C185 
 145      29FE99B4 
 145      6B19
 146 0213 F720164D 		.ascii	"\367 \026M\354\374\253wE\030\\\350\004\226NQ\030\334"
ARM GAS  /tmp/ccO9coCy.s 			page 11


 146      ECFCAB77 
 146      45185CE8 
 146      04964E51 
 146      18DC
 147 0225 1CC8C37D 		.ascii	"\034\310\303}\263\011L\217\362\207r\260\375\022\014"
 147      B3094C8F 
 147      F28772B0 
 147      FD120C
 148 0234 4371ABC7 		.ascii	"Cq\253\307\027\200~\374\014A\003\202\0212J\326O\236"
 148      17807EFC 
 148      0C410382 
 148      11324AD6 
 148      4F9E
 149 0246 F8E6FD00 		.ascii	"\370\346\375\000\014 3\000\0071\011\3749Mb\327\216\237"
 149      0C203300 
 149      073109FC 
 149      394D62D7 
 149      8E9F
 150 0258 FFD023F9 		.ascii	"\377\320#\371!\360rL\006i&\256B\213\246\201\241~\342"
 150      21F0724C 
 150      066926AE 
 150      428BA681 
 150      A17EE2
 151 026b 469F21E5 		.ascii	"F\237!\345\"\322-\033\265dl<y(\203\211\300\311\020\017"
 151      22D22D1B 
 151      B5646C3C 
 151      79288389 
 151      C0C9100F 
 152 027f 2F5A7165 		.ascii	"/Zqe\350\337\323\206\206\366-&5\030\177\225\231K\250"
 152      E8DFD386 
 152      86F62D26 
 152      35187F95 
 152      994BA8
 153 0292 EFE55E99 		.ascii	"\357\345^\231\334+\337{\344\236\271\201\277\025F\204"
 153      DC2BDF7B 
 153      E49EB981 
 153      BF154684 
 154 02a2 0F1CBE50 		.ascii	"\017\034\276P\271\306\324\250\367\325ir\362z\264\316"
 154      B9C6D4A8 
 154      F7D56972 
 154      F27AB4CE 
 155 02b2 8295AA66 		.ascii	"\202\225\252f}\030\212\024\366r\204F\030\255\231\366"
 155      7D188A14 
 155      F6728446 
 155      18AD99F6 
 156 02c2 C409A08F 		.ascii	"\304\011\240\217\024\224\365l\327\267\335\334z;\251"
 156      1494F56C 
 156      D7B7DDDC 
 156      7A3BA9
 157 02d1 E195373A 		.ascii	"\341\2257:4=\306$\256Bz\005\203\241^\353\037\333^\273"
 157      343DC624 
 157      AE427A05 
 157      83A15EEB 
 157      1FDB5EBB 
 158 02e5 2AB10659 		.ascii	"*\261\006Y\234\343\323\2234\033\234<1\270M\201\033\022"
 158      9CE3D393 
 158      341B9C3C 
ARM GAS  /tmp/ccO9coCy.s 			page 12


 158      31B84D81 
 158      1B12
 159 02f7 7CEA7F05 		.ascii	"|\352\177\005/\310\000\277\327sgKu\006x\003\202\347"
 159      2FC800BF 
 159      D773674B 
 159      75067803 
 159      82E7
 160 0309 DF568618 		.ascii	"\337V\206\030UJvC*'\207!OR\004\370\335G\006w<.\370\231"
 160      554A7643 
 160      2A278721 
 160      4F5204F8 
 160      DD470677 
 161 0321 F1E418CD 		.ascii	"\361\344\030\315\006g\371\301\235\312gQ\271=\033z\276"
 161      0667F9C1 
 161      9DCA6751 
 161      B93D1B7A 
 161      BE
 162 0332 EC7D4197 		.ascii	"\354}A\227\330l\344\2124\216\022\205\246zz\362\203\357"
 162      D86CE48A 
 162      348E1285 
 162      A67A7AF2 
 162      83EF
 163 0344 C1FCC88C 		.ascii	"\301\374\310\214N&\223\205b\317\037\230q\317#\032!\347"
 163      4E269385 
 163      62CF1F98 
 163      71CF231A 
 163      21E7
 164 0356 486C72B8 		.ascii	"Hlr\270\357\332\024dw\2343'/\340~9'6\247\\)\250\313"
 164      EFDA1464 
 164      779C3327 
 164      2FE07E39 
 164      2736A75C 
 165 036d DECADB53 		.ascii	"\336\312\333SA\260\007\340\202,/\204\013\303,\275\013"
 165      41B007E0 
 165      822C2F84 
 165      0BC32CBD 
 165      0B
 166 037e 0B484CEC 		.ascii	"\013HL\354\302\304\226\011\320;\2357]\334%r?N}q\225"
 166      C2C49609 
 166      D03B9D37 
 166      5DDC2572 
 166      3F4E7D71 
 167 0393 69AFE688 		.ascii	"i\257\346\210\375\250\313\373\315',o\021\255\215=\355"
 167      FDA8CBFB 
 167      CD272C6F 
 167      11AD8D3D 
 167      ED
 168 03a4 1A75AE68 		.ascii	"\032u\256h8sd\020\255\265\346\211\011H\213\240<\007"
 168      38736410 
 168      ADB5E689 
 168      09488BA0 
 168      3C07
 169 03b6 7046B5AB 		.ascii	"pF\265\253\273\275eZx~\212{\0044s\201\336G\267,\320"
 169      BBBD655A 
 169      787E8A7B 
 169      04347381 
 169      DE47B72C 
ARM GAS  /tmp/ccO9coCy.s 			page 13


 170 03cb 62BDCE46 		.ascii	"b\275\316F\213U\"\004\213E\217\230H\365\010D,I\245`"
 170      8B552204 
 170      8B458F98 
 170      48F50844 
 170      2C49A560 
 171 03df 1556E909 		.ascii	"\025V\351\011\306D\177\352\037\245Z\250T\306\303\252"
 171      C6447FEA 
 171      1FA55AA8 
 171      54C6C3AA 
 172 03ef 0E5F6E75 		.ascii	"\016_nu(g\327j\2252\341Yi\036\267\312d\274\307\373G"
 172      2867D76A 
 172      9532E159 
 172      691EB7CA 
 172      64BCC7FB 
 173 0404 2D0FCA53 		.ascii	"-\017\312S\335\211\344_\304P\213`\006G\346e\346\257"
 173      DD89E45F 
 173      C4508B60 
 173      0647E665 
 173      E6AF
 174 0416 5C9BEED0 		.ascii	"\\\233\356\320\246\357\330\377\217e\372\302G1\035Cr"
 174      A6EFD8FF 
 174      8F65FAC2 
 174      47311D43 
 174      72
 175 0427 2DFABCA5 		.ascii	"-\372\274\245\"\202\234\012\211\223\364\000\023\205"
 175      22829C0A 
 175      8993F400 
 175      1385
 176 0435 FFDD764B 		.ascii	"\377\335vK\250\002#,\344f(\374\000\214\211\263\353\341"
 176      A802232C 
 176      E46628FC 
 176      008C89B3 
 176      EBE1
 177 0447 855F210A 		.ascii	"\205_!\012\177l\270\317\310)\373\313_c\331\377\232Q"
 177      7F6CB8CF 
 177      C829FBCB 
 177      5F63D9FF 
 177      9A51
 178 0459 F605B965 		.ascii	"\366\005\271e\2172\011]\366\025ie\357\342e\317\233{"
 178      8F32095D 
 178      F6156965 
 178      EFE265CF 
 178      9B7B
 179 046b 35BAEEB8 		.ascii	"5\272\356\270\177\036\013\303\347\344A3\016\\j\216\223"
 179      7F1E0BC3 
 179      E7E44133 
 179      0E5C6A8E 
 179      93
 180 047c 25E882E3 		.ascii	"%\350\202\343\330\3056\0348\267\314\330uIt}7\301\313"
 180      D8C5361C 
 180      38B7CCD8 
 180      7549747D 
 180      37C1CB
 181 048f 2013191D 		.ascii	" \023\031\035\374t\201<\212CP\031\002\026\202E\312\347"
 181      FC74813C 
 181      8A435019 
 181      02168245 
ARM GAS  /tmp/ccO9coCy.s 			page 14


 181      CAE7
 182 04a1 7D6939AD 		.ascii	"}i9\255T9=\274\\\313V\345kY\364A)54\234Li\2256\337C"
 182      54393DBC 
 182      5CCB56E5 
 182      6B59F441 
 182      2935349C 
 183 04bb F0F209F2 		.ascii	"\360\362\011\362\360\324k1\241\"\030R\232\312\305w\034"
 183      F0D46B31 
 183      A1221852 
 183      9ACAC577 
 183      1C
 184 04cc 8E835E7D 		.ascii	"\216\203^}QV\326\351\003\262>\021\255\267TB\251\016"
 184      5156D6E9 
 184      03B23E11 
 184      ADB75442 
 184      A90E
 185 04de 19273404 		.ascii	"\031'4\004\325.\354lU\356\233\361\3428A\267\227\360"
 185      D52EEC6C 
 185      55EE9BF1 
 185      E23841B7 
 185      97F0
 186 04f0 CF4AF72F 		.ascii	"\317J\367/\3616n\230\227\307\225\237\213\343Gn\344\334"
 186      F1366E98 
 186      97C7959F 
 186      8BE3476E 
 186      E4DC
 187 0502 AB1E7A00 		.ascii	"\253\036z\000X\366N\0359\316\364\3425\362\002\220\337"
 187      58F64E1D 
 187      39CEF4E2 
 187      35F20290 
 187      DF
 188 0513 5E87B5C1 		.ascii	"^\207\265\301\326\217\0362\036q1\207Z\254F]\377\006"
 188      D68F1E32 
 188      1E713187 
 188      5AAC465D 
 188      FF06
 189 0525 E3344333 		.ascii	"\3434C3c\253\325\3443S\035\237C\203\361L\007\2353\030"
 189      63ABD5E4 
 189      33531D9F 
 189      4383F14C 
 189      079D3318 
 190 0539 AA3547C7 		.ascii	"\2525G\307\007o\347\204f\206\023\206\251::z\325J\345"
 190      076FE784 
 190      66861386 
 190      A93A3A7A 
 190      D54AE5
 191 054c 52A95C34 		.ascii	"R\251\\4c:U\267\223Zu\250\250\341V\244\0331\023\016"
 191      633A55B7 
 191      935A75A8 
 191      A8E156A4 
 191      1B31130E 
 192 0560 AA0AA5A1 		.ascii	"\252\012\245\241\251\243\271\021\323'\202\373\261O\004"
 192      A9A3B911 
 192      D32782FB 
 192      B14F04
 193 056f 9718C5DD 		.ascii	"\227\030\305\335\012/\301Vk\361\361\273\341y\022Ml\322"
 193      0A2FC156 
ARM GAS  /tmp/ccO9coCy.s 			page 15


 193      6BF1F1BB 
 193      E179124D 
 193      6CD2
 194 0581 A7927E9A 		.ascii	"\247\222~\232\360H\0300x\243\230_[\353\227\277\216."
 194      F0481830 
 194      78A3985F 
 194      5BEB97BF 
 194      8E2E
 195 0593 7F67B7BF 		.ascii	"\177g\267\277\2533\350\017\266\256\355\256\015\022X"
 195      AB33E80F 
 195      B6AEEDAE 
 195      0D1258
 196 05a2 636F6E69 		.ascii	"coni\353\016\324\247\213\264\006\332\374k::\273\273"
 196      EB0ED4A7 
 196      8BB406DA 
 196      FC6B3A3A 
 196      BBBB
 197 05b4 FCAF3535 		.ascii	"\374\25755\326?\343_\271\362e\177\323\212\306\265u|"
 197      D63FE35F 
 197      B9F2657F 
 197      D38AC6B5 
 197      757C
 198 05c6 667557F7 		.ascii	"fuW\367\352\266\266\346\332V\342O\327\011vD\"\035\355"
 198      EAB6B6E6 
 198      DA56E24F 
 198      D7097644 
 198      221DED
 199 05d9 4AEDC557 		.ascii	"J\355\305W\033_j|\027\327\010vt\266\254\356\016GZ:Q"
 199      1B5F6A7C 
 199      17D70876 
 199      74B6ACEE 
 199      0E475A3A 
 200 05ee BE34CB8C 		.ascii	"\2764\313\214p{\260\355\355\346\026iJ+a\355\035\357"
 200      707BB0ED 
 200      EDE61669 
 200      4A2B61ED 
 200      1DEF
 201 0600 D8B8EC7F 		.ascii	"\330\270\354\177\035\252FF"
 201      1DAA4646 
 202              		.text
 203              		.section	.gnu.lto_chVTDoResetI.3a3e186cdd805140,"",%progbits
 204 0000 789CAD93 		.ascii	"x\234\255\2231h\024A\024\206\337{\263\263{\271=5`#\202"
 204      31681441 
 204      1486DF7B 
 204      B3B37BB9 
 204      3D356023 
 205 0015 2016161E 		.ascii	" \026\026\036\334!6Z\210\265`\231\003\355\214\253\304"
 205      DC21365A 
 205      88B56099 
 205      03ED8CAB 
 205      C4
 206 0026 05CF4072 		.ascii	"\005\317@rha\2219sE*9\254D\033\323\211\210ZX\304\356"
 206      68619139 
 206      73452A39 
 206      AC441BD3 
 206      89885A58 
 207 003c CECAA046 		.ascii	"\316\312\240F-\204 \001\305V\215\265A\\\337\233\331"
ARM GAS  /tmp/ccO9coCy.s 			page 16


 207      2D842001 
 207      C5568DB5 
 207      415CDF9B 
 207      D9
 208 004d B9BD2487 		.ascii	"\271\275$\207i2\334\2757\263;\337\377\336\2747K@\260"
 208      6932DCBD 
 208      37B33BDF 
 208      FFDEBC37 
 208      4B40B0
 209 0060 759CE3FF 		.ascii	"u\234\343\377O\005Pe\217\021 uW\000\332%\"\365\342\025"
 209      4F055065 
 209      8F112075 
 209      5700DA25 
 209      22F5E215 
 210 0074 8029EBB5 		.ascii	"\200)\353\265\030LEQ\340\226\241]\006\030\272m\332M"
 210      184C4551 
 210      E096A15D 
 210      0618BA6D 
 210      DA4D
 211 0086 3044140F 		.ascii	"0D\024\017\010s\244\002\035\342\334\005\264\362\317"
 211      0873A402 
 211      1DE2DC05 
 211      B4F2CF
 212 0095 A8F735CB 		.ascii	"\250\3675\313\236\376y\363\344-.\323~\202\024Aa\023"
 212      9EFE79F3 
 212      E42D2ED3 
 212      7E821441 
 212      6113
 213 00a7 21909916 		.ascii	"!\220\231\026\023\211)\263\301XLE\014\223\032:\306t"
 213      138929B3 
 213      C1584C45 
 213      0C931A3A 
 213      C674
 214 00b9 0F37118F 		.ascii	"\0177\021\217\300\2421w{\237V\356\0340\017\333]\363"
 214      C0A23177 
 214      7B9F56EE 
 214      1C300FDB 
 214      5DF3
 215 00cb 37CB3045 		.ascii	"7\3130E\"8\204\220 \234\347\205\032\267.\330r>G\232"
 215      22388490 
 215      209CE785 
 215      1AB72ED8 
 215      723E479A 
 216 00df 2F171F99 		.ascii	"/\027\037\231N/\313\316X\352\350N\024\310{\036\023l"
 216      4E2FCBCE 
 216      58EAE84E 
 216      14C87B1E 
 216      136C
 217 00f1 E5540D24 		.ascii	"\345T\015$\361\352\035\334\376\274\372\275O\223\270"
 217      F1EA1DDC 
 217      FEBCFABD 
 217      4F93B8
 218 0100 881AA690 		.ascii	"\210\032\246\220\252p\214S\257\302c\303\343D\212\372"
 218      AA708C53 
 218      AFC263C3 
 218      E3448AFA 
 219 0110 01DC6F1B 		.ascii	"\001\334o\0333\236bx\0136\314\202\314\242&\212\274\304"
ARM GAS  /tmp/ccO9coCy.s 			page 17


 219      339E6278 
 219      0B36CC82 
 219      CCA2268A 
 219      BCC4
 220 0122 89ACF625 		.ascii	"\211\254\366%W\030\366\371\004^C\347G{\317@u\012U\221"
 220      5718F6F9 
 220      045E43E7 
 220      477BCF40 
 220      750A5591 
 221 0136 4983175C 		.ascii	"I\203\027\\y\033\373\336z\037\375\256\300\305\346\200"
 221      791BFBDE 
 221      7A1FFDAE 
 221      C0C5E680 
 222 0146 2C5C6244 		.ascii	",\\bD\002xa\177\036\201>\354\365\210\376\037\242\012"
 222      0278617F 
 222      1E813EEC 
 222      F588FE1F 
 222      A20A
 223 0158 64F979EC 		.ascii	"d\371y\354\220\374`\247\207\241`;\304\312.\324\322P"
 223      90FC60A7 
 223      87A1603B 
 223      C4CA2ED4 
 223      D250
 224 016a 7ED16E04 		.ascii	"~\321n\004\213\266\037\2123\260\334\322\352\372o\334"
 224      8BB61F8A 
 224      33B0DCD2 
 224      EAFA6FDC 
 225 017a 441E4F71 		.ascii	"D\036Oqlt\270\300zy2\346\313\335\337\030\224%r\255\222"
 225      6C74B8C0 
 225      7A7932E6 
 225      CBDDDF18 
 225      942572AD 
 226 018f FE9573A9 		.ascii	"\376\225s\251S\334Jn\233\357\324\246\321`\271\227'\335"
 226      53DC4A6E 
 226      9BEFD4A6 
 226      D160B997 
 226      27DD
 227 01a1 5DF8D557 		.ascii	"]\370\325W^%G\271\3414:}=\334\223}\036\213m\231ht\336"
 227      5E2547B9 
 227      E1343A7D 
 227      3DDC937D 
 227      1E8B6D99 
 228 01b8 0532BF30 		.ascii	"\0052\2770\377mP\332\012Gc\322J\235\035.\301N\301\031"
 228      FF6D50DA 
 228      0A4763D2 
 228      4A9D1D2E 
 228      C14EC119 
 229 01cc F567D0B0 		.ascii	"\365g\320\260\026\253\367\320)9\036`p_\343$\277\227"
 229      16ABF7D0 
 229      29391E60 
 229      705FE324 
 229      BF97
 230 01de 9C4C5A00 		.ascii	"\234LZ\000\241\375\002>\362'_\224b\202w\362Si\314\301"
 230      A1FD023E 
 230      F2275F94 
 230      628277F2 
 230      5369CCC1 
ARM GAS  /tmp/ccO9coCy.s 			page 18


 231 01f2 5AADEE7E 		.ascii	"Z\255\356~\323\263\365\231V}v&\251'Wo\264j\011\224\256"
 231      D3B3F599 
 231      567D7626 
 231      A927576F 
 231      B46A0994 
 232 0207 4FDFBC7C 		.ascii	"O\337\274|\345ZkR[\373\017#\334\342\360"
 232      E55A6B52 
 232      5BFB0F23 
 232      DCE2F0
 233              		.text
 234              		.section	.gnu.lto_.symbol_nodes.3a3e186cdd805140,"",%progbits
 235 0000 789C4DC8 		.ascii	"x\234M\310\275\015\302P\030CQ\333_\336c\006\226`EG\242"
 235      BD0DC250 
 235      184351DB 
 235      5FDE6306 
 235      96604547 
 236 0015 20A2A2A1 		.ascii	" \242\242\241$EX\203\037A\220R\221&E\346`\003\220\210"
 236      24455883 
 236      1F419052 
 236      912645E6 
 236      60039088 
 237 0029 08AEEEB1 		.ascii	"\010\256\356\261 \3541M\035\015\354z\300>TLW~\012:\321"
 237      20EC314D 
 237      1D0DEC7A 
 237      C03E544C 
 237      577E0A3A 
 238 003e 9CDEBAA2 		.ascii	"\234\336\272\242\316\264\376x\241c&\037t\361eY\222w"
 238      CEB4FE78 
 238      A163261F 
 238      74F16559 
 238      9277
 239 0050 3ACDBAD1 		.ascii	":\315\272\321\371\247@\306\272\357\226\201\204\343K"
 239      F9A740C6 
 239      BAEF9681 
 239      84E34B
 240 005f 110BB4DB 		.ascii	"\021\013\264\333UDF;<\025\005\320lF\341\015\024S+B"
 240      5544463B 
 240      3C1505D0 
 240      6C46E10D 
 240      14532B42 
 241              		.text
 242              		.section	.gnu.lto_.refs.3a3e186cdd805140,"",%progbits
 243 0000 789C6362 		.ascii	"x\234cb`b0f\200\000\026\006FF& d`dc\002\261 \230\221"
 243      60623066 
 243      80001606 
 243      46462620 
 243      64606463 
 244 0019 91939901 		.ascii	"\221\223\231\001\312\202\311\003i\026\220\030\003\000"
 244      CA82C903 
 244      69169018 
 244      0300
 245 0027 152A0084 		.ascii	"\025*\000\204"
 246              		.text
 247              		.section	.gnu.lto_.decls.3a3e186cdd805140,"",%progbits
 248 0000 789CAD5B 		.ascii	"x\234\255[}p\024\307\225\237\236]iWH`\014\261\213s|"
 248      7D7014C7 
 248      959F9E5D 
ARM GAS  /tmp/ccO9coCy.s 			page 19


 248      69574860 
 248      0CB18B73 
 249 0015 87483939 		.ascii	"\207H99'\025#\004\216C\376HlNP\330U!q\011rE\225\353"
 249      27152304 
 249      8E43FE48 
 249      6C4E50D8 
 249      55217109 
 250 002d 6A3DACC6 		.ascii	"j=\254\306h\023\355\256\262;\022PuU\036$\220\015v@H"
 250      6813EDAE 
 250      B23B1250 
 250      75551E24 
 250      900D7640 
 251 0042 7C082C40 		.ascii	"|\010,@`\203\301v\210\005\006\216O/6\006\001\341S|\030"
 251      6083C176 
 251      8805068E 
 251      4F2F3606 
 251      01E1537C 
 252 0057 7420110C 		.ascii	"t \021\01416v\2201\237\207\321\275~=\263\3333;\263;"
 252      31367690 
 252      319F87D1 
 252      BD7E3DB3 
 252      DB333BB3 
 253 006c 233245B7 		.ascii	"#2E\267zf\273\177\357\275\337{\3759\203(\210\302\007"
 253      7A66BB7F 
 253      EFBDDF7B 
 253      FD398328 
 253      88C207
 254 007f A220F4C0 		.ascii	"\242 \364\300\365\323_\012\302\276\\A\310\021\004\341"
 254      F5D35F0A 
 254      C2BE5C41 
 254      C81104E1 
 255 008f 57903C90 		.ascii	"W\220<\220V@Z\011i\023$\002\351\000$\037\244\005p\323"
 255      56405A09 
 255      69132402 
 255      E900241F 
 255      A40570D3 
 256 00a3 0CA905D2 		.ascii	"\014\251\005\322:H\037@\332\004i+a\365\266\323\214\273"
 256      3A481F40 
 256      DA04692B 
 256      61F5B6D3 
 256      8CBB
 257 00b5 68FD811A 		.ascii	"h\375\201\032N?H\005\220\336\321dP\274w59;\240\336."
 257      4E3F4805 
 257      90DED164 
 257      50BC7735 
 257      393BA0DE 
 258 00ca C2E4EE84 		.ascii	"\302\344\356\204\364\021\224\227B\372\030\322nH7!\335"
 258      F4119497 
 258      42FA18D2 
 258      6E483721 
 258      DD
 259 00db 82B41992 		.ascii	"\202\264\031\222\037~o\325tZ\013i\003m\017i#\244\016"
 259      1F7E6FD5 
 259      745A0B69 
 259      036D0F69 
 259      23A40E
 260 00ee F87D9FC0 		.ascii	"\370}\237\300\352P\331\2675\035\357R\275\300^\017\244"
ARM GAS  /tmp/ccO9coCy.s 			page 20


 260      EA50D9B7 
 260      351DEF52 
 260      BDC05E0F 
 260      A4
 261 00ff 5C91E94C 		.ascii	"\\\221\351Lu\310\207\362b\222\2567\265\321\247\351j"
 261      75C887F2 
 261      6292AE37 
 261      B5D1A7E9 
 261      6A
 262 0110 D66F93A6 		.ascii	"\326o\223\246\177\016\247\303^Hm\002\223M\264\366V|"
 262      7F0EA7C3 
 262      5E486D02 
 262      934DB4F6 
 262      567C
 263 0122 B4687CBC 		.ascii	"\264h|\274\303\361\241\343y5N\236\326x\241<\360\366"
 263      C3F1A1E3 
 263      79354E9E 
 263      D678A13C 
 263      F0F6
 264 0134 9BF5D0F9 		.ascii	"\233\365\320\371\310\207\362'\032\007\324~]\247}\232"
 264      C887F227 
 264      1A07D47E 
 264      5DA77D9A 
 265 0144 5EAD1A47 		.ascii	"^\255\032G\0335\035\375\232\036<'\017\212\314\207:7"
 265      1B351DFD 
 265      9A1E3C27 
 265      0F8ACC87 
 265      3A37
 266 0156 100EC21A 		.ascii	"\020\016\302\032\370\3736\244\367 \275\003\351!1\335"
 266      F8FB36A4 
 266      F720BD03 
 266      E92131DD 
 267 0166 1E1A037D 		.ascii	"\036\032\003}9\237\362~\346\365\325\355\241z?\0028\013"
 267      399FF27E 
 267      E6F5D5ED 
 267      A17A3F02 
 267      380B
 268 0178 3519BC0F 		.ascii	"5\031\274\017[9?\212\032\366\002\315O\353\011\363\225"
 268      5B393F8A 
 268      1AF602CD 
 268      4FEB09F3 
 268      95
 269 0189 597EBE30 		.ascii	"Y~\2760[Uk\324\226:\365\331\266~\003\204y*\\\205m\240"
 269      5B556BD4 
 269      963AF5D9 
 269      B67E0384 
 269      792A5C85 
 270 019f C1442291 		.ascii	"\301D\"\221~y\302\213X(\310C\205~(\274\245\252\365]"
 270      7E79C28B 
 270      5828C843 
 270      857E28BC 
 270      A5AAF55D 
 271 01b3 9F5C4BE4 		.ascii	"\237\\K\344\250\252_\"+\311\000\020\364\357D\370\211"
 271      A8AA5F22 
 271      2BC90010 
 271      F4EF44F8 
 271      89
ARM GAS  /tmp/ccO9coCy.s 			page 21


 272 01c4 B016DAD5 		.ascii	"\260\026\332\325\253\352\312\301B\372\225\015V\024F"
 272      ABEACAC1 
 272      42FA950D 
 272      561446
 273 01d3 134122AB 		.ascii	"\023A\"\253\001M\"\253\310O\230\034\265\353\346\236"
 273      014D22AB 
 273      C84F981C 
 273      B5EBE69E 
 274 01e3 9333C974 		.ascii	"\2233\311tU%\3547A\373\325\342\032\"\264\200\025\211"
 274      5525EC37 
 274      41FBD5E2 
 274      1A22B480 
 274      1589
 275 01f5 B30B97FE 		.ascii	"\263\013\227\376\213\332\362\021\311f\0248O\023\377"
 275      8BDAF211 
 275      C9661438 
 275      4F13FF
 276 0204 BD9455AB 		.ascii	"\275\224U\253\276i\363\242U\357\242U\377M\014\342\262"
 276      BE69F3A2 
 276      55EFA255 
 276      FF4D0CE2 
 276      B2
 277 0215 A288C2EB 		.ascii	"\242\210\302\353\2046Y\227n\305\036\335\212u\216\254"
 277      84365997 
 277      6EC51EDD 
 277      8A758EAC 
 278 0225 58AA5921 		.ascii	"X\252Y!\221w\300\022\021\272\261\216\253\011.\324\345"
 278      9177C012 
 278      11BAB18E 
 278      AB092ED4 
 278      E5
 279 0236 D280D78A 		.ascii	"\322\200\327\212\354\322*\030\361\226\235,\250\227t"
 279      ECD22A18 
 279      F1969D2C 
 279      A89774
 280 0245 B095AEC1 		.ascii	"\260\225\256\301\012\015`\255'\233\007\251-\273H\236"
 280      0A0D60AD 
 280      279B07A9 
 280      2DBB489E 
 281 0255 F02AA558 		.ascii	"\360*\245X\255S\037_\223\242\244\277\216 r\274\276\361"
 281      AD531F5F 
 281      93A2A4BF 
 281      8E2072BC 
 281      BEF1
 282 0267 90EA95C8 		.ascii	"\220\352\225\310&B\237\276M\214\264:\207i\177m\363H"
 282      26429FBE 
 282      4D8CB43A 
 282      87697F6D 
 282      F348
 283 0279 74CF1604 		.ascii	"t\317\026\004\232)\032\201$\342I\332\235\274\327+P4"
 283      9A291A81 
 283      24E249DA 
 283      9DBCD72B 
 283      5034
 284 028b FC592BF4 		.ascii	"\374Y+\364\364x\004w\225Ea\216h\"\316\240\244V\364\333"
 284      F4780477 
 284      9545618E 
ARM GAS  /tmp/ccO9coCy.s 			page 22


 284      6822CEA0 
 284      A456F4DB 
 285 029f 7A01C2E0 		.ascii	"z\001\302\340\257\013Hc\255\3326\314\020\235\017\013"
 285      AF0B4863 
 285      ADDA36CC 
 285      109D0F0B 
 286 02af 0B685CC1 		.ascii	"\013h\\\301\215J\024\211\374\352!K\277P\025?$\017c\311"
 286      8D4A1489 
 286      FCEA214B 
 286      BF50153F 
 286      240F63C9 
 287 02c3 8302E1C1 		.ascii	"\203\002\341\301\323\371\220\375.e\211UC\215\274\231"
 287      D3F990FD 
 287      2E658955 
 287      438DBC99 
 288 02d3 FF488848 		.ascii	"\377H\210H\336N\014\202\371&\362\014\0321IvZ|L\362m"
 288      DE4E0C82 
 288      F926F20C 
 288      1A314976 
 288      5A7C4CF2 
 289 02e8 0238ED37 		.ascii	"\0028\3557\210\\3gV\301\3467*o\344\354\340*\306\031"
 289      885C3367 
 289      56C1E637 
 289      2A6FE4EC 
 289      E02AC619 
 290 02fc 5A0BD1EB 		.ascii	"Z\013\321\353\004\260\277\205\023\254.\276\257J\344"
 290      04B0BF85 
 290      13AC2EBE 
 290      AF4AE4
 291 030b 7DF243C8 		.ascii	"}\362C\310[\311\020\3107`\276\021\363\035\230\177\002"
 291      5BC910C8 
 291      3760BE11 
 291      F31D987F 
 291      02
 292 031c 7946A229 		.ascii	"yF\242)\034\355aI\354\365D\324\306\264\336\365\332\253"
 292      1CED6149 
 292      ECF544D4 
 292      C6B4DEF5 
 292      DAAB
 293 032e A95E2B91 		.ascii	"\251^+\221\017\\\203\031\210L\\\327z-\353\206\022\331"
 293      0F5C8319 
 293      884C5CD7 
 293      7A2DEB86 
 293      12D9
 294 0340 6EC67317 		.ascii	"n\306s\027\314\211\371\213\012\216\274\250\367\351\325"
 294      CC89F98B 
 294      0A8EBCA8 
 294      F7E9D5
 295 034f 227109D6 		.ascii	"\"q\011\326?\223SVsNY\203NY\213.\330\213y\033\346\373"
 295      3F935356 
 295      734E5983 
 295      4E598B2E 
 295      D88B791B 
 296 0365 9CB86345 		.ascii	"\234\270cE\312\035\250\266\232hz\201R\312f\255\277\200"
 296      CA1DA8B6 
 296      9A687A81 
 296      52CA66AD 
ARM GAS  /tmp/ccO9coCy.s 			page 23


 296      BF80
 297 0377 D61683BA 		.ascii	"\326\026\203\272\352\323a*\005\032\302\233\320\270\203"
 297      EAD3612A 
 297      051AC29B 
 297      D0B883
 298 0386 A6413D71 		.ascii	"\246A=q{I\001\035\324\016:\030\320\325\304\274\216f"
 298      7B49011D 
 298      D40E3A18 
 298      D0D5C4BC 
 298      8E66
 299 0398 4207740B 		.ascii	"B\007t\013q]\3119\344Q!\331[/~y\325\203\275\365(j\232"
 299      715DC939 
 299      E45121D9 
 299      5B2F7E79 
 299      D583BDF5 
 300 03af 10B34E45 		.ascii	"\020\263NEF\030Q8\210M\216\247MEu_\351S\321qG\232o>"
 300      46185138 
 300      884D8EA7 
 300      4D45755F 
 300      E953D171 
 301 03c7 65ABF933 		.ascii	"e\253\3713\274g\365a\346\013m\012\375\024\025\357\260"
 301      BC67F561 
 301      E60B6D0A 
 301      FD1415EF 
 301      B0
 302 03d8 56BCE519 		.ascii	"V\274\345\031;\030Q\370\022\233t\244\317\241\207k4\305"
 302      3B1851F8 
 302      129B74A4 
 302      CFA1876B 
 302      34C5
 303 03ea 3B1CCDA1 		.ascii	";\034\315\241Gg;\\\011xu\371\243Sf|6X\224H\027\232p"
 303      47673B5C 
 303      097875F9 
 303      A353667C 
 303      36589448 
 304 0401 373BF746 		.ascii	"7;\367F\010\230\231<\264\311\205t\356\317\352&\\p\304"
 304      0898993C 
 304      B4C98574 
 304      EECFEA26 
 304      5C70C4
 305 0414 FDCDFD8C 		.ascii	"\375\315\375\214{\235\315\271I\\+\352\262\017(\267\366"
 305      7B9DCDB9 
 305      495C2BEA 
 305      B20F28B7 
 305      F6
 306 0425 C380A2CD 		.ascii	"\303\200\242\315\267\214\217\214SF\307\222\335GI-\352"
 306      B78C8F8C 
 306      5346C792 
 306      DD47492D 
 306      EA
 307 0436 7B19BBF9 		.ascii	"{\031\273\371!\217\345\324\355\000\252\375\265\343\335"
 307      218FE5D4 
 307      ED00AAFD 
 307      B5E3DD
 308 0445 A406A1AE 		.ascii	"\244\006\241\256 \324I\217y\362\366\231&o\237q>\366"
 308      20D4498F 
 308      79F2F699 
ARM GAS  /tmp/ccO9coCy.s 			page 24


 308      266F9F71 
 308      3EF6
 309 0457 E5A50A74 		.ascii	"\345\245\012t\307\365\200\340\266\272(t\232\371\313"
 309      C7F580E0 
 309      B6BA2874 
 309      9AF9CB
 310 0466 3A1919FC 		.ascii	":\031\031\374\0011x\256\201MFz\034\347\332\331-\012"
 310      013178AE 
 310      814D467A 
 310      1CE7DAD9 
 310      2D0A
 311 0478 9FA1B06E 		.ascii	"\237\241\260ns\020\264w\376U\017\202nGq\274q\377\"g"
 311      7310B477 
 311      FE550F82 
 311      6E4771BC 
 311      71FF2267 
 312 048c 712CEAF2 		.ascii	"q,\352\362\037C\371ox\251\374\033f\371\313/\264\275"
 312      1F43F96F 
 312      78A9FC1B 
 312      66F9CB2F 
 312      B4BD
 313 049e D0A4AAFD 		.ascii	"\320\244\252\375\331O\331\305o95?]\274\355*Eww\347\245"
 313      D94FD9C5 
 313      6F39353F 
 313      5DBCED2A 
 313      457777E7 
 314 04b3 6ECDC83B 		.ascii	"n\315\310;\270\3348\3415\273\373\351|^\230\266\224\341"
 314      B8DC38E1 
 314      35BBFBE9 
 314      7C5E98B6 
 314      94E1
 315 04c5 160EE792 		.ascii	"\026\016\347\222\352\367j\362\004;?\377\257\265\353"
 315      EAF76AF2 
 315      043B3FFF 
 315      AFB5EB
 316 04d4 557556AE 		.ascii	"UuV\256\256\303y\327\210\205\006&\266\237\302\351\230"
 316      AEC379D7 
 316      88850626 
 316      B69FC2E9 
 316      98
 317 04e5 817DE604 		.ascii	"\201}\346\004,\303\364\271\223\007\373\273k0\243fGx"
 317      2CC3F4B9 
 317      9307FBBB 
 317      6B30A366 
 317      4778
 318 04f7 B02F9C80 		.ascii	"\260/\234\200Y-\2204\260c<\330W\256\301\214\232\035"
 318      592D9034 
 318      B0633CD8 
 318      57AEC18C 
 318      9A1D
 319 0509 E7C1AE3A 		.ascii	"\347\301\256:\001\033d\257\331I\036\354[\327`F\315>"
 319      011B64AF 
 319      D9491EEC 
 319      5BD76046 
 319      CD3E
 320 051b E5C16E39 		.ascii	"\345\301n9\001+\264\320,y\331\255@\256\247V \242\360"
 320      012BB4D0 
ARM GAS  /tmp/ccO9coCy.s 			page 25


 320      2C79D9AD 
 320      40AEA756 
 320      20A2F0
 321 052e 7F5E7D48 		.ascii	"\177^}Hp\031\323B\012\343\236\327\355\030f\260\033\306"
 321      7019D342 
 321      0AE39ED7 
 321      ED1866B0 
 321      1BC6
 322 0540 B0CE95FA 		.ascii	"\260\316\225\372\202\272\023\215\257\311q\200\230!`"
 322      82BA138D 
 322      AFC97180 
 322      982160
 323 054f EA0F2093 		.ascii	"\352\017 \223\014\354U\327`F\267,\243`\206\261F\233"
 323      0CEC55D7 
 323      6046B72C 
 323      A36086B1 
 323      469B
 324 0561 64BA5625 		.ascii	"d\272V%\0065\245F;\277\216E\0173\330\320V\257\252b\262"
 324      0635A546 
 324      3BBF8E45 
 324      0F33D8D0 
 324      56AFAA62 
 325 0576 B23A6890 		.ascii	"\262:h\220u]\211,\022\351\212\262I\314Kj\301\312z\251"
 325      755D892C 
 325      12E98AB2 
 325      49CC4B6A 
 325      C1CA7AA9 
 326 058a 87E0662F 		.ascii	"\207\340f/\307tL\242_\331\232\332E\302\002\221\213\204"
 326      C7744CA2 
 326      5FD99ADA 
 326      45C20291 
 326      8B84
 327 059c 46273465 		.ascii	"F'4e\350\012G\354hJ\324\251\257\222\351\255\217f\\\244"
 327      E80A47EC 
 327      684AD4A9 
 327      AF92E9AD 
 327      8F665CA4 
 328 05b0 B5777EBD 		.ascii	"\265w~\275B\233\215\227\212t6n\312\261\234\330\235\201"
 328      429B8D97 
 328      8A74366E 
 328      CAB19CD8 
 328      9D81
 329 05c2 BD767797 		.ascii	"\275vw\227\266JhA\2607s\314c}\236ij\3173\316\325yy\251"
 329      B64A6841 
 329      B03773CC 
 329      637D9E69 
 329      6ACF33CE 
 330 05da 428F7E19 		.ascii	"B\217~\031\331w\334\306\216\375f\236\375\367\\\263o"
 330      D977DCC6 
 330      8EFD669E 
 330      FDF75CB3 
 330      6F
 331 05eb EE43371A 		.ascii	"\356C7\032\310\265\032\265i\030\027o\031\203\023\026"
 331      C8B51AB5 
 331      6918176F 
 331      19831316 
 332 05fb 536776FE 		.ascii	"Sgv\376\022\027\306\253\220\244\015\326\214;\000j\177"
ARM GAS  /tmp/ccO9coCy.s 			page 26


 332      1217C6AB 
 332      90A40DD6 
 332      8C3B006A 
 332      7F
 333 060c EDCF4508 		.ascii	"\355\317E\010\264\006\201\266\247\261MLl\023#s$/UHc"
 333      B40681B6 
 333      A7B14D4C 
 333      6C132373 
 333      242F5548 
 334 0621 394B5D51 		.ascii	"9K]Q\330m\246\316\240b\206\2212I\335]\367\324-\321\250"
 334      D86DA6CE 
 334      A0628691 
 334      3249DD5D 
 334      F7D42DD1 
 335 0636 FB335ABC 		.ascii	"\3733Z\274?\315\3425\242;\223E\341\230k3\374F3\352z"
 335      3FCDE235 
 335      A23B9345 
 335      E1986B33 
 335      FC4633EA 
 336 064b 7A61C687 		.ascii	"za\306\207\314\214\365h\306\247\377\0043\272\\\233\321"
 336      CC8CF568 
 336      C6A7FF04 
 336      33BA5C9B 
 336      D1
 337 065c 9F330337 		.ascii	"\2373\0037U\363\331d0Ph\310\274\240\245\372l\026\007"
 337      55F3D964 
 337      305068C8 
 337      BCA0A5FA 
 337      6C1607
 338 066f 1AF7C027 		.ascii	"\032\367\300'\016\221B\3668\373f\346\332\241f\\H\"a"
 338      0E9142F6 
 338      38FB66E6 
 338      DAA1665C 
 338      482261
 339 0682 AAA3FDC7 		.ascii	"\252\243\375\307\231\344\376c+Rv\321\252\3238\202j?"
 339      99E4FE63 
 339      2B5276D1 
 339      AAD33882 
 339      6A3F
 340 0694 70F8A836 		.ascii	"p\370\2506\342\355@\250/\323\330\3175\221\237k$\037"
 340      E2ED40A8 
 340      2FD3D8CF 
 340      35919F6B 
 340      241F
 341 06a6 6EA9AC5B 		.ascii	"n\251\254[8\316\274\254=\2417>\241\327\355D\341\032"
 341      38CEBCAC 
 341      3DA1373E 
 341      A1D7ED44 
 341      E11A
 342 06b8 AA4109EC 		.ascii	"\252A\011\354\315*\227n)?k\324gs\306\321\235\373B\254"
 342      CD2A976E 
 342      293F6BD4 
 342      6773C6D1 
 342      9DFB42AC 
 343 06cc 492C9FAB 		.ascii	"I,\237\253\037=\343q[m\356\375\301m?l\236\250L\033\211"
 343      1F3DE371 
 343      5B6DEEFD 
ARM GAS  /tmp/ccO9coCy.s 			page 27


 343      C16D3F6C 
 343      9EA84C1B 
 344 06e1 2E9B5158 		.ascii	".\233QX?O\270\320\305\216-\367\212T\235\331\271f\267"
 344      3F4FB8D0 
 344      C58E2DF7 
 344      8A549DD9 
 344      B966B7
 345 06f4 7512D346 		.ascii	"u\022\323F\242\323x\004i\027\313{\370\011a\351}YI\373"
 345      A2D37804 
 345      6917CB7B 
 345      F80961E9 
 345      7D5949FB 
 346 0708 D175931B 		.ascii	"\321u\223\033\336\274O\336n\317uvz\361\242\216\305\336"
 346      DEBC4FDE 
 346      6ECF7576 
 346      7AF1A28E 
 346      C5DE
 347 071a A2BC8B62 		.ascii	"\242\274\213b\017\213\246M_\367\265\256:-\374\351o\331"
 347      0F8BA64D 
 347      5FF7B5AE 
 347      3A2DFCE9 
 347      6FD9
 348 072c 3B6BC7C5 		.ascii	";k\307\305<\265\241\200\235;H\344\357xVH[Z\255\003\262"
 348      3CB5A180 
 348      9D3B48E4 
 348      EF785648 
 348      5B5AAD03 
 349 0741 D2933827 		.ascii	"\322\2238'\267\015s\323\355\367\350\335\3768\033)\323"
 349      B70D73D3 
 349      EDF7E8DD 
 349      FE381B29 
 349      D3
 350 0752 9CBEC33C 		.ascii	"\234\276\303<R\272\352t\347\222$9]B\233/\273\240:\304"
 350      52BAEA74 
 350      E7922439 
 350      5D429B2F 
 350      BBA03AC4 
 351 0766 07D5DFEE 		.ascii	"\007\325\337\356/\004\350[\243\267,^\027X\235X&\317"
 351      2F04E85B 
 351      A3B72C5E 
 351      17589D58 
 351      26CF
 352 0778 FEFAA3E4 		.ascii	"\376\372\243\344\313(\271\303\034\005'n\266\275\242"
 352      CB28B9C3 
 352      1C05276E 
 352      B6BDA2
 353 0787 1FA1398A 		.ascii	"\037\2419\212\202\353\026Q\320\321\313(\200\220\276"
 353      82EB1651 
 353      D0D1CB28 
 353      8090BE
 354 0796 BC8F201C 		.ascii	"\274\217 \034\333)4\370\210\021\316\345\016\372\256"
 354      DB2934F8 
 354      8811CEE5 
 354      0EFAAE
 355 07a5 EC961816 		.ascii	"\354\226\030\026_\211\323\027\351\244uA\244'jM>sh1f"
 355      5F89D317 
 355      E9A47541 
ARM GAS  /tmp/ccO9coCy.s 			page 28


 355      A4276A4D 
 355      3E736831 
 356 07ba B8D04AD1 		.ascii	"\270\320J\321(\221\263\270u8'\322\003\350N\314\317\213"
 356      2891B3B8 
 356      753827D2 
 356      03E84ECC 
 356      CF8B
 357 07cc 0E8EA1FF 		.ascii	"\016\216\241\377"
 358 07d0 26A6BD15 		.ascii	"&\246\275\025pcw\241\303\350;\303G_\213\357\376\242"
 358      706377A1 
 358      C3E83BC3 
 358      475F8BEF 
 358      FEA2
 359 07e2 EFC69E43 		.ascii	"\357\306\236C\336\305jb\206\307\305y\341\231O\364\216"
 359      DEC56A62 
 359      86C7C579 
 359      E1994FF4 
 359      8E
 360 07f3 FB3976DC 		.ascii	"\3739v\334\267\323\330\275b^\234:9\266\333\320[S\222"
 360      B7D3D8BD 
 360      625E9C3A 
 360      39B6DBD0 
 360      5B5392
 361 0806 97286CF5 		.ascii	"\227(l\3659X\362\027Z\260\236\234hO\316wx\364\247\277"
 361      3958F217 
 361      5AB09E9C 
 361      684FCE77 
 361      78F4A7BF 
 362 081a F4BC9460 		.ascii	"\364\274\224`'\341_c\244m7q\341\340\004\361\0006\351"
 362      27E15F63 
 362      A46D3771 
 362      E1E004F1 
 362      0036E9
 363 082d 3677E39B 		.ascii	"6w\343\233u\251\023D\007\335\270&\261a\266>\245\263"
 363      75A91344 
 363      07DDB826 
 363      B161B63E 
 363      A5B3
 364 083f B9914560 		.ascii	"\271\221E`w\346\010\314\310\247\301\205\335\\\007\271"
 364      77E608CC 
 364      C8A7C185 
 364      DD5C07B9 
 365 084f 861DE45B 		.ascii	"\206\035\344[\276S\210B\207\023\356\037\267\013E\030"
 365      BE538842 
 365      8713EE1F 
 365      B70B4518 
 366 085f 868E198F 		.ascii	"\206\216\031\217\301/\230\361\254\006\"\003\036\357"
 366      C12F98F1 
 366      AC062203 
 366      1EEF
 367 086d CB9A447D 		.ascii	"\313\232D};\036X\260\030\275\342D\271a\366`\313\033"
 367      3B1E58B0 
 367      18BDE244 
 367      B961F660 
 367      CB1B
 368 087f 7572CFE0 		.ascii	"ur\317\340\012\345\272\023\274\221v\306\326$6\2677k"
 368      0AE5BA13 
ARM GAS  /tmp/ccO9coCy.s 			page 29


 368      BC9176C6 
 368      D62436B7 
 368      376B
 369 0891 78ECCCFD 		.ascii	"x\354\314\375;\327xF\375N4\032\326su~\007p\3178\366"
 369      3BD77846 
 369      FD4E341A 
 369      D673757E 
 369      0770CF38 
 370 08a6 7DEA1D87 		.ascii	"}\352\035\207D.\342\233\272K\370v\356s\314\257b^\217"
 370      442EE29B 
 370      BA4BF876 
 370      EE73CCAF 
 370      625E8F
 371 08b9 036503E6 		.ascii	"\003e\003\346\3631\177\003\363\2670\177\017\363V\314"
 371      F3317F03 
 371      F3B7307F 
 371      0FF356CC 
 372 08c9 3761FE15 		.ascii	"7a\376\025\34670\277\205\371\035\314\357b~\317\311\200"
 372      E63730BF 
 372      85F91DCC 
 372      EF627ECF 
 372      C980
 373 08db 6B5A0326 		.ascii	"kZ\003&\007\335^\277\212=\266?y\306\245\277\212u\003"
 373      07DD5EBF 
 373      8A3DB63F 
 373      79C6A5BF 
 373      8A7503
 374 08ee 569889C3 		.ascii	"V\230\211\303\016\216\303\263\310\3419\344M\365\014"
 374      0E8EC3B3 
 374      C8E139E4 
 374      4DF50C
 375 08fd E1ABB1E9 		.ascii	"\341\253\261\351\367x\257_\376l9\305\007\226D\376a\306"
 375      F778AF5F 
 375      FE6C39C5 
 375      079644FE 
 375      61C6
 376 090f 7335FFAA 		.ascii	"s5\377\252\372q8{\3011Wt\013f\214\322\366E\306!j\236"
 376      FA71387B 
 376      C1315774 
 376      0B668CD2 
 376      F645C621 
 377 0925 13BC0C67 		.ascii	"\023\274\014g\222\332\2713\003kt\015fT\356\314)\356"
 377      92DAB933 
 377      036B740D 
 377      6654EECC 
 377      29EE
 378 0937 80F3753F 		.ascii	"\200\363u?\311\016furg\355\374\343\234\363O\242\363"
 378      C90E6675 
 378      7267EDFC 
 378      E39CF34F 
 378      A2F3
 379 0949 4FA1F3A7 		.ascii	"O\241\363\247{h^\203y-\34630\237\3511\014\255\363\375"
 379      7B685E83 
 379      792DE633 
 379      309FE931 
 379      0CADF3FD 
 380 095d FABB694D 		.ascii	"\372\273iM\230\3615p\206\250\220\310\001\020\244\371"
ARM GAS  /tmp/ccO9coCy.s 			page 30


 380      98F13570 
 380      86A890C8 
 380      0110A4F9 
 381 096d B2B583C5 		.ascii	"\262\265\203\305\206\323\271\355\342\215\004\233\333"
 381      86D3B9ED 
 381      E28D049B 
 381      DB
 382 097a 6679E880 		.ascii	"fy\350\200\274\304\357zn[\213M^\367\244\315m\367\364"
 382      BCC4EF7A 
 382      6E5B8B4D 
 382      5EF7A4CD 
 382      6DF7F4
 383 098d D7D3F4B7 		.ascii	"\327\323\364\267,s\333\214\332\304\342%\253S\373\244"
 383      2C73DB8C 
 383      DAC4E225 
 383      AB53FBA4 
 384 099d DAE4AE72 		.ascii	"\332\344\256r!\214\355v\203\203\341 vKR\217\177\312"
 384      218CED76 
 384      8383E120 
 384      764B528F 
 384      7FCA
 385 09af 5C983248 		.ascii	"\\\2302H\"s<\324\235s\215\016\373\330\3540\227s\341"
 385      22733CD4 
 385      9D738D0E 
 385      FBD8EC30 
 385      9773E1
 386 09c2 960E7D2E 		.ascii	"\226\016}.do\247\367\232\361\214\357\2423L\206\311K"
 386      646FA7F7 
 386      9AF18CEF 
 386      A2334C86 
 386      C94B
 387 09d4 7B6CD849 		.ascii	"{l\330IZ\305\261\326n\260\260LM\\\355:\261\272\273h"
 387      5AC5B1D6 
 387      6EB0B04C 
 387      4D5CED3A 
 387      B1BABB68 
 388 09e8 616D4D9B 		.ascii	"amM\233z\225\256\322\234\177\303\264\320c\372\206\211"
 388      7A95AED2 
 388      9C7FC3B4 
 388      D063FA86 
 388      89
 389 09f9 7DDEC27D 		.ascii	"}\336\302}\304$\012_\231\342\3511\341MUmP\027\313\317"
 389      C4240A5F 
 389      99E2E931 
 389      E14D556D 
 389      5017CBCF 
 390 0a0d EADFB04D 		.ascii	"\352\337\260M\317\2435\026x\006[\312I~\207\363#a\025"
 390      CFA33516 
 390      78065BCA 
 390      497E87F3 
 390      236115
 391 0a20 7D2FF027 		.ascii	"}/\360'uf\177\202Z\011Z+\203\323\232<\"\377\200\032"
 391      75667F82 
 391      5A095A2B 
 391      83D39A3C 
 391      22FF801A 
 392 0a34 D8D295B8 		.ascii	"\330\322\225\270#3\333\234\233\266T3-e\215(\314\314"
ARM GAS  /tmp/ccO9coCy.s 			page 31


 392      2333DB9C 
 392      9BB65433 
 392      2D658D28 
 392      CCCC
 393 0a46 23A61846 		.ascii	"#\246\030F\235\340Z\243z\222*5\233UZ\226\256R\327\325"
 393      9DE05AA3 
 393      7A922A35 
 393      9B555A96 
 393      AE52D7D5 
 394 0a5a C4BD3D05 		.ascii	"\304\275=\005\365\323\273zz\006;\327i\205\025\335\311"
 394      F5D3BB7A 
 394      7A063BD7 
 394      698515DD 
 394      C9
 395 0a6b 9B4D6C39 		.ascii	"\233Ml9\236\274\337\311h\343\277/3\330\203&\315\311"
 395      9EBCDFC9 
 395      68E3BF2F 
 395      33D88326 
 395      CDC9
 396 0a7d B3F4CE02 		.ascii	"\263\364\316\002\335;\022Y\342\241\003nKf\357h\315\332"
 396      DD3B1259 
 396      E2A1036E 
 396      4B66EF68 
 396      CDDA
 397 0a8f A5C7F5AF 		.ascii	"\245\307\365\257\210\026#0\327\314\360\025\221\246-"
 397      88162330 
 397      D7CCF015 
 397      91A62D
 398 0a9e 6B9698F7 		.ascii	"k\226\230\367\012\2350D\375s\266\345\346\246&\211;9"
 398      0A9D3044 
 398      FD73B6E5 
 398      E6A62689 
 398      3B39
 399 0ab0 89AD5451 		.ascii	"\211\255TQ|\335\274\207d\326\363\351T\020\251\211\236"
 399      7CDDBC87 
 399      64D6F3E9 
 399      5410A989 
 399      9E
 400 0ac1 BADA16A2 		.ascii	"\272\332\026\242\346&}\326b\366\331jK\237\335=\300|"
 400      E6267DD6 
 400      62F6D96A 
 400      4B9FDD3D 
 400      C07C
 401 0ad3 B6FC19E7 		.ascii	"\266\374\031\347N\373\213\203>\262\332\332\013\213\315"
 401      4EFB8B83 
 401      3EB2DADA 
 401      0B8BCD
 402 0ae2 5E58E7A8 		.ascii	"^X\347\250\217\250\246>\262\316l\\\253\205q\365]\247"
 402      8FA8A63E 
 402      B2CE6C5C 
 402      AB8571F5 
 402      5DA7
 403 0af4 DEDDF5FD 		.ascii	"\336\335\365\375\246\365\352\214Y\352\275\236\227\011"
 403      A6F5EA8C 
 403      59EABD9E 
 403      9709
 404 0b02 EB01A270 		.ascii	"\353\001\242p\"-\346\031\306F+\214\3047{^W\211\333\260"
ARM GAS  /tmp/ccO9coCy.s 			page 32


 404      222DE619 
 404      C6462B8C 
 404      C4377B5E 
 404      5789DBB0 
 405 0b16 DE6C6688 		.ascii	"\336lf\210}\324f`\350\274\215\032[,\3258\227R\203\301"
 405      7DD46660 
 405      E8BC8D1A 
 405      5B2CD538 
 405      975283C1 
 406 0b2a C3D6C006 		.ascii	"\303\326\300\006`\233\021\340\007\302\012\312\305\315"
 406      609B11E0 
 406      07C20ACA 
 406      C5CD
 407 0b38 BA137B49 		.ascii	"\272\023{I\203\332\322Fc\245\207\014\316\372e\231~\302"
 407      83DAD246 
 407      63A5870C 
 407      CEFA6599 
 407      7EC2
 408 0b4a 79E708FB 		.ascii	"y\347\010\373\324k\007\316\245\267MB\365/\3148\371\007"
 408      D46B07CE 
 408      A5B74D42 
 408      F52FCC38 
 408      F907
 409 0b5c B935C361 		.ascii	"\2715\303a\\3\034\3015\303\001\314_\305uB\243q\332\231"
 409      5C331CC1 
 409      35C301CC 
 409      5FC57542 
 409      A371DA99 
 410 0b70 D94747B5 		.ascii	"\331GG\265T\205\242&RV\231\216hw\330\314\216\264\325"
 410      5485A226 
 410      5256998E 
 410      6877D8CC 
 410      8EB4D5
 411 0b83 2E4FBE4D 		.ascii	".O\276M+\032\013v\255>J\265\302\343\205\332\214\307"
 411      2B1A0B76 
 411      AD3E4AB5 
 411      C2E385DA 
 411      8CC7
 412 0b95 0BB02540 		.ascii	"\013\260%@+\263\237\025Xq\236\253C\275\230\342\274u"
 412      2BB39F15 
 412      58719EAB 
 412      43BD98E2 
 412      BC75
 413 0ba7 7D77841D 		.ascii	"}w\204\035T\354F\322\267\365\261\\\300\330\343P\245"
 413      54EC46D2 
 413      B7F5B15C 
 413      C0D8E350 
 413      A5
 414 0bb8 F69A162F 		.ascii	"\366\232\026/\211\306\016\374\"p\257\243\205\313\202"
 414      89C60EFC 
 414      2270AFA3 
 414      85CB82
 415 0bc7 0E7D39FE 		.ascii	"\016}9\376\261\207\016p{Q\205\275\356\027\"\032\336"
 415      B1870E70 
 415      7B5185BD 
 415      EE17221A 
 415      DE
ARM GAS  /tmp/ccO9coCy.s 			page 33


 416 0bd8 C20E5CA4 		.ascii	"\302\016\\\2442\260\003\256\301\012\015`M<\330a'`v\033"
 416      32B003AE 
 416      C10A0D60 
 416      4D3CD861 
 416      2760761B 
 417 0bec 05005BC2 		.ascii	"\005\000[\302\203\035w\015f\324\254\231\007;\355\004"
 417      831D770D 
 417      66D4AC99 
 417      073BED04 
 418 0bfc CC6E9700 		.ascii	"\314n\227\000`\313x\260\377u\015f\324\354}\036\254\313"
 418      60CB78B0 
 418      FF750D66 
 418      D4EC7D1E 
 418      ACCB
 419 0c0e 0998DDFB 		.ascii	"\011\230\335\373}\000[\317\203]r\015f\324\354\003\036"
 419      7D005BCF 
 419      835D720D 
 419      66D4EC03 
 419      1E
 420 0c1f EC8A13B0 		.ascii	"\354\212\023\260B{\3156\361`\335\256\301\214\232\375"
 420      427BCD36 
 420      F160DDAE 
 420      C18C9AFD 
 421 0c2f 0F0F76DD 		.ascii	"\017\017v\335\011\230\335\322\030\300\266\362`\267]"
 421      0998DDD2 
 421      18C0B6F2 
 421      60B75D
 422 0c3e 831935DB 		.ascii	"\203\0315\333\316\203}\347\004l\230\235f\323\023;_\250"
 422      CE837DE7 
 422      046C989D 
 422      66D3133B 
 422      5FA8
 423 0c50 971E14EA 		.ascii	"\227\036\024\352\265!\205\241\352\303\0121\206\026_"
 423      B52185A1 
 423      EAC30A31 
 423      86165F
 424 0c5f 8D1E96DA 		.ascii	"\215\036\226\332T\223\310E\317\203X2\274W\301\032v\203"
 424      5493C845 
 424      CF835832 
 424      BC57C11A 
 424      7683
 425 0c71 EE254FEA 		.ascii	"\356%O\352\263\225\202\274T\201\377\217\020\251Zt\221"
 425      B39582BC 
 425      5481FF8F 
 425      10A95A74 
 425      91
 426 0c82 9D6F32DB 		.ascii	"\235o2\333\250\205\225\335F\022\217\360$\3164\243e="
 426      A88595DD 
 426      46128FF0 
 426      24CE34A3 
 426      653D
 427 0c94 7932821D 		.ascii	"y2\202\035\343\301f;\001{\326>V\216\363`s\\\203\031"
 427      E3C1663B 
 427      017BD63E 
 427      568EF360 
 427      735C8319 
 428 0ca8 353BC983 		.ascii	"5;\311\2035:\001{\336^\263Oy\260\205\256\301x\315\246"
ARM GAS  /tmp/ccO9coCy.s 			page 34


 428      353A017B 
 428      DE5EB34F 
 428      79B085AE 
 428      C178CDA6 
 429 0cbc 27CEA402 		.ascii	"'\316\244\002\217~rm\210<\303\361Q2\360X5.\362L\325"
 429      8F7E726D 
 429      883CC3F1 
 429      5132F058 
 429      352EF24C 
 430 0cd1 24F2ADEB 		.ascii	"$\362\255\353\300\273n\023x\374\307'\251Z`v\263\331"
 430      C0BB6E13 
 430      78FCC727 
 430      A95A6076 
 430      B3D9
 431 0ce3 6CABA3AE 		.ascii	"l\253\243\256\211\026\034Z]\374D-\2216\334\224\357\303"
 431      89161C5A 
 431      5DFC442D 
 431      9136DC94 
 431      EFC3
 432 0cf5 35D201CC 		.ascii	"5\322\001\314\017b~\030\363\243\230\267c~\002\363S\230"
 432      0F627E18 
 432      F3A398B7 
 432      637E02F3 
 432      5398
 433 0d07 9FC6BC03 		.ascii	"\237\306\274\003\363\263\230wb~\036\363\013\230\177"
 433      F3B39877 
 433      627E1EF3 
 433      0B987F
 434 0d16 8EF91798 		.ascii	"\216\371\027\230_\301\374k\314\257b\376\015\277\036"
 434      5FC1FC6B 
 434      CCAF62FE 
 434      0DBF1E
 435 0d25 33AD9476 		.ascii	"3\255\224vgX_\335\264]_m\316\260\276\272\225j\245m\327"
 435      67585FDD 
 435      B45D5F6D 
 435      CEB0BEBA 
 435      956AA56D 
 436 0d3a 1BB7ED7B 		.ascii	"\033\267\355{\344=\3729,]\251O\237A\364\265\372\321"
 436      E43DFA39 
 436      2C5DA94F 
 436      9F41F4B5 
 436      FAD1
 437 0d4c 7C27FBD3 		.ascii	"|'\373\323\333\346\355\300\235\36454\010Y\376\341\256"
 437      DBE6EDC0 
 437      9DF43534 
 437      0859FEE1 
 437      AE
 438 0d5d D0164E88 		.ascii	"\320\026N\210i=\277\211\330\307\310w\026{\347\272\002"
 438      693DBF89 
 438      D8C7C877 
 438      167BE7BA 
 438      02
 439 0d6e 4BDD6AD4 		.ascii	"K\335j\324\367\327\2509\372\346U\"wm6\214\032\336=K"
 439      F7D7A839 
 439      FAE65522 
 439      776D368C 
 439      1ADE3D4B 
ARM GAS  /tmp/ccO9coCy.s 			page 35


 440 0d82 551BB6ED 		.ascii	"U\033\266\355\373W\372zK\355\351yy\010\023\017\033P"
 440      FB57FA7A 
 440      4BEDE979 
 440      7908130F 
 440      1B50
 441 0d94 6702556F 		.ascii	"g\002UoF\201\323\275V\002\267^8\375\3434\201\347\235"
 441      4681D3BD 
 441      5602B75E 
 441      38FDE334 
 441      81E79D
 442 0da7 09ACCD2C 		.ascii	"\011\254\315,p\206\245\300\306m\227\277o\3648\333\325"
 442      7086A5C0 
 442      C66D97BF 
 442      6FF438DB 
 442      D5
 443 0db8 7C6B92A9 		.ascii	"|k\222\251m\034O\245\366\341\263\372\322\032u6B\223"
 443      6D1C4FA5 
 443      F6E1B3FA 
 443      D21A7536 
 443      4293
 444 0dca A7065AA0 		.ascii	"\247\006Z\240\234V\237\037\224\014\024\332\310\020("
 444      9C569F1F 
 444      940C14DA 
 444      C81028
 445 0dd9 AF78D3F6 		.ascii	"\257x\323\366JG\216t\235X\275od\243Z\323\244\316\300"
 445      4A478E74 
 445      9D58BD6F 
 445      64A35AD3 
 445      A4CEC0
 446 0dec AD923EE9 		.ascii	"\255\222>\3515\031O\356\312u\261}\261-_\253\311\266"
 446      35194FEE 
 446      CA75B17D 
 446      B12D5FAB 
 446      C9B6
 447 0dfe 9644FEE4 		.ascii	"\226D\376\344u;@\315\361Z\017P\005\006S\364Zt\306@\206"
 447      753B40CD 
 447      F15A0F50 
 447      050653F4 
 447      5A74C640 
 448 0e13 B8ADB549 		.ascii	"\270\255\265I\011QX\324\227h\315`\355\220r\311\355A"
 448      095158D4 
 448      9768CD60 
 448      ED9072C9 
 448      ED41
 449 0e25 562E59D5 		.ascii	"V.Y\325\327\322%\035\272K$2\313K\367\362\363z\343\222"
 449      D7D2251D 
 449      BA4B2432 
 449      CB4BF7F2 
 449      F37AE392 
 450 0e39 79669734 		.ascii	"yf\2274\330\270\344\362\243\331]2Q\027\233\237\311%"
 450      D8B8E4F2 
 450      A3D95D32 
 450      51179B9F 
 450      C925
 451 0e4b A65A1259 		.ascii	"\246Z\022Y\344\332%M6.\351c0E\257\005\305\271^\323Y"
 451      E4DA254D 
 451      362EE963 
ARM GAS  /tmp/ccO9coCy.s 			page 36


 451      3045AF05 
 451      C5B95ED3 
 452 0e60 8E490951 		.ascii	"\216I\011Q\330np\211i4]\230a4]\342M}b\364\330\320\241"
 452      D86E7089 
 452      69345D98 
 452      61345DE2 
 452      4D7D62F4 
 453 0e77 45EC5F34 		.ascii	"E\354_4^\024S\212B\221`EU\231\\\024,\217O\213+\323*"
 453      5E14538A 
 453      42916045 
 453      55995C14 
 453      2C8F4F8B 
 454 0e8e E5F8D072 		.ascii	"\345\370\320r\341\241\352PL\251\222*\002J(,\307\342"
 454      E1A1EA50 
 454      4CA9922A 
 454      024A282C 
 454      C7E2
 455 0ea0 818A505C 		.ascii	"\201\212P\\\011(\271c\177\363\273\302\022\341\341`y"
 455      0928B963 
 455      7FF3BBC2 
 455      12E1E160 
 455      79
 456 0eb1 C0E2F742 		.ascii	"\300\342\367B{\340`y\031\200>`h\024P\372\233q\274\021"
 456      7BE06079 
 456      19803E60 
 456      681450FA 
 456      9B71BC11 
 457 0ec5 79AAE2AD 		.ascii	"y\252\342\255\214\311\325yT\027x\024P\306\027\225G\303"
 457      8CC9D579 
 457      54177814 
 457      50C61795 
 457      47C3
 458 0ed7 72D1EFAB 		.ascii	"r\321\357\253*BR\244h\334\230\261\243\212\342rX\216"
 458      2A4252A4 
 458      68DC98B1 
 458      A38AE272 
 458      588E
 459 0ee9 2B313910 		.ascii	"+19\020\232Z4&<I\236\024*\003\211R,\374\304\360a\305"
 459      9A5A3426 
 459      3C499E14 
 459      2A038952 
 459      2CFCC4F0 
 460 0eff 23861617 		.ascii	"#\206\026\027c9\022\215\310O\310\322\244PR\221\270R"
 460      6339128D 
 460      C84FC8D2 
 460      A4505291 
 460      B852
 461 0f11 168A28A0 		.ascii	"\026\212(\240\210\277\012\376\026?\025Pr\312\344\012"
 461      88BF0AFE 
 461      163F1550 
 461      72CAE40A 
 462 0f21 45F2572B 		.ascii	"E\362W+/UE\202\001\305K\377x*\245\230\277B\212+T~n\265"
 462      2F554582 
 462      01C54BFF 
 462      782AA598 
 462      BF428A2B 
 463 0f39 424DCB03 		.ascii	"BM\313\003M\251Fr\270 &Ke\3234>\372\302\343\324\375"
ARM GAS  /tmp/ccO9coCy.s 			page 37


 463      4DA94672 
 463      B820264B 
 463      65D3343E 
 463      FAC2E3D4 
 464 0f4e 034A39BD 		.ascii	"\003J9\275\211\007\376X%W\311\314<\303#?\273\013 \034"
 464      8907FE58 
 464      2557C9CC 
 464      3CC3233F 
 464      BB0B201C 
 465 0f62 2BE7E00F 		.ascii	"+\347\340\017#y\346\202\321p8\032)\252\214\306\224x"
 465      2379E682 
 465      D170381A 
 465      29AA8CC6 
 465      9478
 466 0f74 D1A8D271 		.ascii	"\321\250\322q%\343\246\322g\225\241\012 \272hlI\011"
 466      25E3A6D2 
 466      6795A10A 
 466      20BA686C 
 466      4909
 467 0f86 10AABBC9 		.ascii	"\020\252\273\311\247T\306B\321\200\202\006\215\030\036"
 467      A754C642 
 467      D1808206 
 467      8D181E
 468 0f95 A0E485A2 		.ascii	"\240\344\205\242\005\264m \030\215("
 468      05B46D20 
 468      188D28
 469 0fa0 40E78FB3 		.ascii	"@\347\217\263b\227\007\2431\031\300\362\261\031\000"
 469      629707A3 
 469      3119C0F2 
 469      B11900
 470 0faf 0595A94F 		.ascii	"\005\225\251O8k\025\250\376y\230\362\031\223'\003\345"
 470      386B15A8 
 470      FE7998F2 
 470      19932703 
 470      E5
 471 0fc0 01458C3D 		.ascii	"\001E\214=)\306~&\306\236\022c?\027c#\305\330/<\261"
 471      29C67E26 
 471      C69E1263 
 471      3F176323 
 471      C5D82F3C 
 472 0fd5 E261908A 		.ascii	"\342a\220\212\305\212\230\030\257\364\000tND\236\"\307"
 472      C58A9818 
 472      AFF40074 
 472      4E449E22 
 472      C7
 473 0fe6 72A21565 		.ascii	"r\242\025e\340\360`\271\004^\227\302r\237\270\362\007"
 473      E0F060B9 
 473      045E97C2 
 473      729FB8F2 
 473      07
 474 0ff7 A9223439 		.ascii	"\251\"49\242\031\363\324\223"
 474      A219F3D4 
 474      93
 475 1000 106E53A4 		.ascii	"\020nS\244IR\034h\213+\222\002\204\372\350\017#\301"
 475      49521C68 
 475      8B2B9202 
 475      84FAE80F 
ARM GAS  /tmp/ccO9coCy.s 			page 38


 475      23C1
 476 1012 6B78EF53 		.ascii	"kx\357S\302\3212x\232\363R\20549\356\203xx)\016\004"
 476      C2D13278 
 476      9AF35285 
 476      3439EE83 
 476      7878290E 
 477 1027 D03F39E1 		.ascii	"\320?9\341\370d\250\256q\222\033+\233\006\017\374\362"
 477      F864A8AE 
 477      71921B2B 
 477      9B060FFC 
 477      F2
 478 1038 D4901284 		.ascii	"\324\220\022\204&\271S\224\350\244\337W\016\320\274"
 478      26B95394 
 478      E8A4DF57 
 478      0ED0BC
 479 1047 010DE498 		.ascii	"\001\015\344\230\034\011R\250)\212\022\253\364\305\345"
 479      1C0952A8 
 479      298A12AB 
 479      F4C5E5
 480 1056 88020D0A 		.ascii	"\210\002\015\012\250\323\345\260TY\016\226\016\266\017"
 480      A8D3E5B0 
 480      54590E96 
 480      0EB60F
 481 1065 6E995290 		.ascii	"n\231R\220\023\214@@x \007xxT\351\207\326\341*\360\200"
 481      138C4040 
 481      78200778 
 481      7854E987 
 481      D6E12AF0 
 482 107a 7DCBB032 		.ascii	"}\313\2602\225\266\214N\211\3101\037\326\2456+\360\270"
 482      95B68C4E 
 482      89C8311F 
 482      D6A5362B 
 482      F0B8
 483 108c 325FAEA6 		.ascii	"2_\256\246JH\361?\300#y\012-\220\252~z4\261\350{\200"
 483      4A48F13F 
 483      C023790A 
 483      2D90AA7E 
 483      7A34B1E8 
 484 10a2 8B2FFAC4 		.ascii	"\213/\372\3047E\012)\241\310d?\350\316\342M\256\224"
 484      37450A29 
 484      A1C8643F 
 484      E8CEE24D 
 484      AE94
 485 10b4 2310F293 		.ascii	"#\020\362\223}\000Ik\200\237\244\012\032!9\341\312h"
 485      7D00496B 
 485      809FA40A 
 485      1A2139E1 
 485      CA68
 486 10c6 B4C217AC 		.ascii	"\264\302\027\254\212\201\345JN\214\376\330\217\005x"
 486      8A81E54A 
 486      4E8CFED8 
 486      8F0578
 487 10d5 A04C9E54 		.ascii	"\240L\236T5\231\241\363O\362*\245H(\030\000lO\331\244"
 487      3599A1F3 
 487      4FF22AA5 
 487      48281800 
 487      6C4FD9A4 
ARM GAS  /tmp/ccO9coCy.s 			page 39


 488 10e9 C97DC212 		.ascii	"\311}\302\022\260\213\302\0371\331\027\217\005\301\266"
 488      B08BC21F 
 488      31D9178F 
 488      05C1B6
 489 10f8 6A656850 		.ascii	"jehP\030\030,\377\317\011\243\243\245r\\V\236\033\012"
 489      18182CFF 
 489      CF09A3A3 
 489      A5725C56 
 489      9E1B0A
 490 110b FD4A193A 		.ascii	"\375J\031:\314S\255T\372\003\3254\320BJ\037Va<\374L"
 490      CC53AD54 
 490      FA03D534 
 490      D0424A1F 
 490      56613CFC 
 491 1120 BBA2342D 		.ascii	"\273\2424-\227u\305\002\276\341\020^@\271T\221d\020"
 491      9775C502 
 491      BEE1105E 
 491      40B95491 
 491      6410
 492 1132 CA8138ED 		.ascii	"\312\2018\355\317\371qe\274\022\255\034U\001A\010\201"
 492      CFF97165 
 492      BC12AD1C 
 492      55014108 
 492      81
 493 1143 0470582C 		.ascii	"\004pX,\240\217A(\336\344\247\354Q\304`\371p3(\213\356"
 493      A08F4128 
 493      DEE4A7EC 
 493      51C460F9 
 493      7033288B 
 494 1158 F113C68D 		.ascii	"\361\023\306\215\030^\364\353_\217.\232\360\334\270"
 494      185EF4EB 
 494      5F8F2E9A 
 494      F0DCB8
 495 1167 EA621832 		.ascii	"\352b\0302\3024\204Ba&E\273\001G\227\224\026C\032\356"
 495      C2348442 
 495      612645BB 
 495      01479794 
 495      16431AEE 
 496 117b 1D3FAEA4 		.ascii	"\035?\256\244\324;\372\2711\245\342\370R\317\230\261"
 496      D43BFAB9 
 496      31A5E2F8 
 496      52CF98B1 
 497 118b A5392525 		.ascii	"\2459%%\343J\2131\037\356-)\031S\352)\371\315\004\317"
 497      E34A8B31 
 497      1FEE2D29 
 497      1953EA29 
 497      F9CD04CF 
 498 119f F3E34B3C 		.ascii	"\363\343K<\243JK=\245%p\017\015\376c\364\204R\317h\332"
 498      A34A4B3D 
 498      A525700F 
 498      0DFE63F4 
 498      8452CF68 
 499 11b4 72DCA852 		.ascii	"r\334\250R\361\267\254\325\010\250?\261\264\310a\317"
 499      F1B7ACD5 
 499      08A83FB1 
 499      B4C861CF 
 500 11c4 C301938E 		.ascii	"\303\001\223\216\324\330k\331\210\032\007\022\002\022"
ARM GAS  /tmp/ccO9coCy.s 			page 40


 500      D4D86BD9 
 500      881A0712 
 500      0212
 501 11d2 B5F6DF6C 		.ascii	"\265\366\337l\203\256\232\0226\200\362;VV\306#!\023"
 501      83AE9A12 
 501      3680F23B 
 501      5656C623 
 501      2113
 502 11e4 A0F1C481 		.ascii	"\240\361\304\201\034\316d\231\225F8#\211\371!PQA\007"
 502      1CCE6499 
 502      95463823 
 502      89F92150 
 502      514107
 503 11f7 F901AC84 		.ascii	"\371\001\254\204\030\301h\025\214A\261\357\361*\302"
 503      18C16815 
 503      8C41B1EF 
 503      F12AC2
 504 1206 63D4D04B 		.ascii	"c\324\320K\357\375\201\000\216\274\201\276za\350\317"
 504      EFFD8100 
 504      8EBC81BE 
 504      7A61E8CF 
 505 1216 7E317CF8 		.ascii	"~1|\370\303\006\233\300\203\254\011_\251\370\311\377"
 505      C3069BC0 
 505      83AC095F 
 505      A9F8C9FF 
 506 1226 072FB4C4 		.ascii	"\007/\264\304."
 506      2E
 507              		.text
 508              		.section	.gnu.lto_.symtab.3a3e186cdd805140,"",%progbits
 509 0000 5F76745F 		.ascii	"_vt_init\000\000\000\000\000\000\000\000\000\000\000"
 509      696E6974 
 509      00000000 
 509      00000000 
 509      000000
 510 0013 009C0100 		.ascii	"\000\234\001\000\000chVTDoSetI\000\000\000\000\000\000"
 510      00636856 
 510      54446F53 
 510      65744900 
 510      00000000 
 511 0028 00000000 		.ascii	"\000\000\000\000\000\000\240\001\000\000chVTDoReset"
 511      0000A001 
 511      00006368 
 511      5654446F 
 511      52657365 
 512 003d 49000000 		.ascii	"I\000\000\000\000\000\000\000\000\000\000\000\000\256"
 512      00000000 
 512      00000000 
 512      00AE
 513 004b 01000063 		.ascii	"\001\000\000ch\000\000\002\000\000\000\000\000\000\000"
 513      68000002 
 513      00000000 
 513      000000
 514 005a 0000BC01 		.ascii	"\000\000\274\001\000\000stStopAlarm\000\000\002\000"
 514      00007374 
 514      53746F70 
 514      416C6172 
 514      6D000002 
ARM GAS  /tmp/ccO9coCy.s 			page 41


 515 006f 00000000 		.ascii	"\000\000\000\000\000\000\000\000\264\001\000\000stS"
 515      00000000 
 515      B4010000 
 515      737453
 516 007e 6574416C 		.ascii	"etAlarm\000\000\002\000\000\000\000\000\000\000\000"
 516      61726D00 
 516      00020000 
 516      00000000 
 516      0000
 517 0090 00B60100 		.ascii	"\000\266\001\000\000stStartAlarm\000\000\002\000\000"
 517      00737453 
 517      74617274 
 517      416C6172 
 517      6D000002 
 518 00a6 00000000 		.ascii	"\000\000\000\000\000\000\000\272\001\000\000"
 518      000000BA 
 518      010000
 519              		.text
 520              		.section	.gnu.lto_.opts,"",%progbits
 521 0000 272D6D63 		.ascii	"'-mcpu=cortex-m3' '-mno-thumb-interwork' '-mthumb' "
 521      70753D63 
 521      6F727465 
 521      782D6D33 
 521      2720272D 
 522 0033 272D6767 		.ascii	"'-ggdb' '-O2' '-fomit-frame-pointer' '-falign-funct"
 522      64622720 
 522      272D4F32 
 522      2720272D 
 522      666F6D69 
 523 0066 696F6E73 		.ascii	"ions=16' '-ffunction-sections' '-fdata-sections' '-"
 523      3D313627 
 523      20272D66 
 523      66756E63 
 523      74696F6E 
 524 0099 666E6F2D 		.ascii	"fno-common' '-flto'\000"
 524      636F6D6D 
 524      6F6E2720 
 524      272D666C 
 524      746F2700 
 525              		.text
 526              		.cfi_sections	.debug_frame
 527              		.section	.text._vt_init,"ax",%progbits
 528              		.align	2
 529              		.p2align 4,,15
 530              		.global	_vt_init
 531              		.thumb
 532              		.thumb_func
 533              		.type	_vt_init, %function
 534              	_vt_init:
 535              	.LFB188:
 536              		.file 1 "../../../os/rt/src/chvt.c"
 537              		.loc 1 61 0
 538              		.cfi_startproc
 539              		@ args = 0, pretend = 0, frame = 0
 540              		@ frame_needed = 0, uses_anonymous_args = 0
 541              		@ link register save eliminated.
 542              		.loc 1 63 0
ARM GAS  /tmp/ccO9coCy.s 			page 42


 543 0000 40F20003 		movw	r3, #:lower16:ch
 544 0004 C0F20003 		movt	r3, #:upper16:ch
 545 0008 03F11C02 		add	r2, r3, #28
 546              		.loc 1 65 0
 547 000c 4FF6FF70 		movw	r0, #65535
 548              		.loc 1 69 0
 549 0010 0021     		movs	r1, #0
 550              		.loc 1 65 0
 551 0012 9884     		strh	r0, [r3, #36]	@ movhi
 552              		.loc 1 69 0
 553 0014 D984     		strh	r1, [r3, #38]	@ movhi
 554              		.loc 1 63 0
 555 0016 DA61     		str	r2, [r3, #28]
 556              		.loc 1 64 0
 557 0018 1A62     		str	r2, [r3, #32]
 558 001a 7047     		bx	lr
 559              		.cfi_endproc
 560              	.LFE188:
 561              		.size	_vt_init, .-_vt_init
 562 001c AFF30080 		.section	.text.chVTDoSetI,"ax",%progbits
 563              		.align	2
 564              		.p2align 4,,15
 565              		.global	chVTDoSetI
 566              		.thumb
 567              		.thumb_func
 568              		.type	chVTDoSetI, %function
 569              	chVTDoSetI:
 570              	.LFB189:
 571              		.loc 1 96 0
 572              		.cfi_startproc
 573              		@ args = 0, pretend = 0, frame = 0
 574              		@ frame_needed = 0, uses_anonymous_args = 0
 575              	.LVL0:
 576 0000 F8B5     		push	{r3, r4, r5, r6, r7, lr}
 577              		.cfi_def_cfa_offset 24
 578              		.cfi_offset 3, -24
 579              		.cfi_offset 4, -20
 580              		.cfi_offset 5, -16
 581              		.cfi_offset 6, -12
 582              		.cfi_offset 7, -8
 583              		.cfi_offset 14, -4
 584              	.LBB35:
 585              		.loc 1 117 0
 586 0002 40F20007 		movw	r7, #:lower16:ch
 587 0006 C0F20007 		movt	r7, #:upper16:ch
 588 000a BC46     		mov	ip, r7
 589 000c 5CF81C4F 		ldr	r4, [ip, #28]!
 590              	.LBB36:
 591              	.LBB37:
 592              	.LBB38:
 593              	.LBB39:
 594              		.file 2 "../../../os/hal/ports/STM32/LLD/TIMv1/hal_st_lld.h"
 595              		.loc 2 141 0
 596 0010 4FF08045 		mov	r5, #1073741824
 597 0014 6D6A     		ldr	r5, [r5, #36]
 598              	.LBE39:
 599              	.LBE38:
ARM GAS  /tmp/ccO9coCy.s 			page 43


 600              	.LBE37:
 601              	.LBE36:
 602              		.loc 1 113 0
 603 0016 0129     		cmp	r1, #1
 604 0018 98BF     		it	ls
 605 001a 0221     		movls	r1, #2
 606              	.LVL1:
 607              		.loc 1 117 0
 608 001c 6445     		cmp	r4, ip
 609              	.LBE35:
 610              		.loc 1 103 0
 611 001e 0361     		str	r3, [r0, #16]
 612              		.loc 1 96 0
 613 0020 0646     		mov	r6, r0
 614              		.loc 1 104 0
 615 0022 C260     		str	r2, [r0, #12]
 616              	.LBB50:
 617              	.LBB43:
 618              	.LBB42:
 619              	.LBB41:
 620              	.LBB40:
 621              		.loc 2 141 0
 622 0024 ABB2     		uxth	r3, r5
 623              	.LVL2:
 624              	.LBE40:
 625              	.LBE41:
 626              	.LBE42:
 627              	.LBE43:
 628              		.loc 1 117 0
 629 0026 27D0     		beq	.L14
 630              	.LVL3:
 631              		.loc 1 139 0
 632 0028 FA8C     		ldrh	r2, [r7, #38]
 633              	.LVL4:
 634 002a 9B1A     		subs	r3, r3, r2
 635 002c CD18     		adds	r5, r1, r3
 636 002e ADB2     		uxth	r5, r5
 637              	.LVL5:
 638              		.loc 1 141 0
 639 0030 9D42     		cmp	r5, r3
 640              		.loc 1 145 0
 641 0032 2389     		ldrh	r3, [r4, #8]
 642              		.loc 1 141 0
 643 0034 15DB     		blt	.L15
 644              		.loc 1 148 0
 645 0036 9D42     		cmp	r5, r3
 646 0038 04D2     		bcs	.L12
 647 003a 17E0     		b	.L17
 648              	.LVL6:
 649              	.L9:
 650              	.LBE50:
 651              		.loc 1 166 0
 652 003c 2468     		ldr	r4, [r4]
 653              	.LVL7:
 654              		.loc 1 165 0
 655 003e ED1A     		subs	r5, r5, r3
 656              	.LVL8:
ARM GAS  /tmp/ccO9coCy.s 			page 44


 657              		.loc 1 164 0
 658 0040 2389     		ldrh	r3, [r4, #8]
 659              		.loc 1 165 0
 660 0042 ADB2     		uxth	r5, r5
 661              	.L12:
 662              	.LVL9:
 663              		.loc 1 164 0
 664 0044 AB42     		cmp	r3, r5
 665 0046 F9D3     		bcc	.L9
 666              		.loc 1 171 0
 667 0048 6368     		ldr	r3, [r4, #4]
 668              		.loc 1 170 0
 669 004a 3460     		str	r4, [r6]
 670              		.loc 1 171 0
 671 004c 7360     		str	r3, [r6, #4]
 672              		.loc 1 172 0
 673 004e 1E60     		str	r6, [r3]
 674              		.loc 1 173 0
 675 0050 6660     		str	r6, [r4, #4]
 676              		.loc 1 174 0
 677 0052 3581     		strh	r5, [r6, #8]	@ movhi
 678              		.loc 1 178 0
 679 0054 2289     		ldrh	r2, [r4, #8]
 680              		.loc 1 179 0
 681 0056 4FF6FF73 		movw	r3, #65535
 682              		.loc 1 178 0
 683 005a 551B     		subs	r5, r2, r5
 684              	.LVL10:
 685 005c 2581     		strh	r5, [r4, #8]	@ movhi
 686              		.loc 1 179 0
 687 005e BB84     		strh	r3, [r7, #36]	@ movhi
 688 0060 F8BD     		pop	{r3, r4, r5, r6, r7, pc}
 689              	.LVL11:
 690              	.L15:
 691              	.LBB51:
 692              		.loc 1 146 0
 693 0062 2468     		ldr	r4, [r4]
 694              	.LVL12:
 695              		.loc 1 145 0
 696 0064 ED1A     		subs	r5, r5, r3
 697              	.LVL13:
 698 0066 ADB2     		uxth	r5, r5
 699              	.LVL14:
 700 0068 2389     		ldrh	r3, [r4, #8]
 701 006a EBE7     		b	.L12
 702              	.L17:
 703              	.LVL15:
 704              		.loc 1 151 0
 705 006c A818     		adds	r0, r5, r2
 706              	.LVL16:
 707              	.LBB44:
 708              	.LBB45:
 709              		.file 3 "../../../os/common/ports/ARMCMx/chcore_timer.h"
 710              		.loc 3 95 0
 711 006e 80B2     		uxth	r0, r0
 712 0070 FFF7FEFF 		bl	stSetAlarm
 713              	.LVL17:
ARM GAS  /tmp/ccO9coCy.s 			page 45


 714 0074 2389     		ldrh	r3, [r4, #8]
 715 0076 E5E7     		b	.L12
 716              	.LVL18:
 717              	.L14:
 718              	.LBE45:
 719              	.LBE44:
 720              		.loc 1 129 0
 721 0078 C818     		adds	r0, r1, r3
 722              	.LVL19:
 723              		.loc 1 121 0
 724 007a FB84     		strh	r3, [r7, #38]	@ movhi
 725              		.loc 1 122 0
 726 007c FE61     		str	r6, [r7, #28]
 727              		.loc 1 123 0
 728 007e 3E62     		str	r6, [r7, #32]
 729              	.LBB46:
 730              	.LBB47:
 731              		.loc 3 73 0
 732 0080 80B2     		uxth	r0, r0
 733              	.LBE47:
 734              	.LBE46:
 735              		.loc 1 124 0
 736 0082 3460     		str	r4, [r6]
 737              		.loc 1 125 0
 738 0084 7460     		str	r4, [r6, #4]
 739              		.loc 1 126 0
 740 0086 3181     		strh	r1, [r6, #8]	@ movhi
 741              	.LVL20:
 742              	.LBE51:
 743              		.loc 1 180 0
 744 0088 BDE8F840 		pop	{r3, r4, r5, r6, r7, lr}
 745              	.LVL21:
 746              	.LBB52:
 747              	.LBB49:
 748              	.LBB48:
 749              		.loc 3 73 0
 750 008c FFF7FEBF 		b	stStartAlarm
 751              	.LVL22:
 752              	.LBE48:
 753              	.LBE49:
 754              	.LBE52:
 755              		.cfi_endproc
 756              	.LFE189:
 757              		.size	chVTDoSetI, .-chVTDoSetI
 758              		.section	.text.chVTDoResetI,"ax",%progbits
 759              		.align	2
 760              		.p2align 4,,15
 761              		.global	chVTDoResetI
 762              		.thumb
 763              		.thumb_func
 764              		.type	chVTDoResetI, %function
 765              	chVTDoResetI:
 766              	.LFB190:
 767              		.loc 1 190 0
 768              		.cfi_startproc
 769              		@ args = 0, pretend = 0, frame = 0
 770              		@ frame_needed = 0, uses_anonymous_args = 0
ARM GAS  /tmp/ccO9coCy.s 			page 46


 771              		@ link register save eliminated.
 772              	.LVL23:
 773              		.loc 1 214 0
 774 0000 40F20003 		movw	r3, #:lower16:ch
 775 0004 C0F20003 		movt	r3, #:upper16:ch
 776 0008 DA69     		ldr	r2, [r3, #28]
 777              		.loc 1 190 0
 778 000a 70B4     		push	{r4, r5, r6}
 779              		.cfi_def_cfa_offset 12
 780              		.cfi_offset 4, -12
 781              		.cfi_offset 5, -8
 782              		.cfi_offset 6, -4
 783              		.loc 1 214 0
 784 000c 8242     		cmp	r2, r0
 785 000e 0FD0     		beq	.L19
 786              		.loc 1 216 0
 787 0010 0268     		ldr	r2, [r0]
 788 0012 4168     		ldr	r1, [r0, #4]
 789              		.loc 1 221 0
 790 0014 1C33     		adds	r3, r3, #28
 791              		.loc 1 216 0
 792 0016 0A60     		str	r2, [r1]
 793              		.loc 1 217 0
 794 0018 0268     		ldr	r2, [r0]
 795              		.loc 1 218 0
 796 001a 0024     		movs	r4, #0
 797              		.loc 1 221 0
 798 001c 9A42     		cmp	r2, r3
 799              		.loc 1 217 0
 800 001e 5160     		str	r1, [r2, #4]
 801              		.loc 1 218 0
 802 0020 C460     		str	r4, [r0, #12]
 803              		.loc 1 221 0
 804 0022 03D0     		beq	.L18
 805              		.loc 1 222 0
 806 0024 0189     		ldrh	r1, [r0, #8]
 807 0026 1389     		ldrh	r3, [r2, #8]
 808 0028 0B44     		add	r3, r3, r1
 809 002a 1381     		strh	r3, [r2, #8]	@ movhi
 810              	.LVL24:
 811              	.L18:
 812              		.loc 1 268 0
 813 002c 70BC     		pop	{r4, r5, r6}
 814 002e 7047     		bx	lr
 815              	.LVL25:
 816              	.L19:
 817              	.LBB63:
 818              	.LBB64:
 819              		.loc 1 228 0
 820 0030 1168     		ldr	r1, [r2]
 821 0032 1846     		mov	r0, r3
 822              	.LVL26:
 823 0034 40F81C1F 		str	r1, [r0, #28]!
 824              		.loc 1 230 0
 825 0038 0024     		movs	r4, #0
 826              		.loc 1 233 0
 827 003a 8142     		cmp	r1, r0
ARM GAS  /tmp/ccO9coCy.s 			page 47


 828              		.loc 1 229 0
 829 003c 4860     		str	r0, [r1, #4]
 830              		.loc 1 230 0
 831 003e D460     		str	r4, [r2, #12]
 832              		.loc 1 233 0
 833 0040 17D0     		beq	.L26
 834              	.LBB65:
 835              	.LBB66:
 836              	.LBB67:
 837              	.LBB68:
 838              		.loc 2 141 0
 839 0042 4FF08040 		mov	r0, #1073741824
 840 0046 466A     		ldr	r6, [r0, #36]
 841              	.LBE68:
 842              	.LBE67:
 843              	.LBE66:
 844              	.LBE65:
 845              		.loc 1 240 0
 846 0048 1589     		ldrh	r5, [r2, #8]
 847              		.loc 1 249 0
 848 004a D88C     		ldrh	r0, [r3, #38]
 849              		.loc 1 240 0
 850 004c 0C89     		ldrh	r4, [r1, #8]
 851              	.LBB72:
 852              	.LBB71:
 853              	.LBB70:
 854              	.LBB69:
 855              		.loc 2 141 0
 856 004e B2B2     		uxth	r2, r6
 857              	.LVL27:
 858              	.LBE69:
 859              	.LBE70:
 860              	.LBE71:
 861              	.LBE72:
 862              		.loc 1 240 0
 863 0050 2B19     		adds	r3, r5, r4
 864              		.loc 1 249 0
 865 0052 101A     		subs	r0, r2, r0
 866              		.loc 1 240 0
 867 0054 9BB2     		uxth	r3, r3
 868              		.loc 1 249 0
 869 0056 80B2     		uxth	r0, r0
 870              	.LVL28:
 871              		.loc 1 253 0
 872 0058 8342     		cmp	r3, r0
 873              		.loc 1 240 0
 874 005a 0B81     		strh	r3, [r1, #8]	@ movhi
 875              		.loc 1 253 0
 876 005c E6D9     		bls	.L18
 877              	.LBE64:
 878              	.LBE63:
 879              		.loc 1 268 0
 880 005e 70BC     		pop	{r4, r5, r6}
 881              	.LBB79:
 882              	.LBB77:
 883              		.loc 1 258 0
 884 0060 1B1A     		subs	r3, r3, r0
ARM GAS  /tmp/ccO9coCy.s 			page 48


 885 0062 9BB2     		uxth	r3, r3
 886              	.LVL29:
 887              		.loc 1 263 0
 888 0064 012B     		cmp	r3, #1
 889 0066 98BF     		it	ls
 890 0068 0223     		movls	r3, #2
 891              	.LVL30:
 892              		.loc 1 266 0
 893 006a 9818     		adds	r0, r3, r2
 894              	.LVL31:
 895              	.LBB73:
 896              	.LBB74:
 897              		.loc 3 95 0
 898 006c 80B2     		uxth	r0, r0
 899 006e FFF7FEBF 		b	stSetAlarm
 900              	.LVL32:
 901              	.L26:
 902              	.LBE74:
 903              	.LBE73:
 904              	.LBE77:
 905              	.LBE79:
 906              		.loc 1 268 0
 907 0072 70BC     		pop	{r4, r5, r6}
 908              	.LBB80:
 909              	.LBB78:
 910              	.LBB75:
 911              	.LBB76:
 912              		.loc 3 83 0
 913 0074 FFF7FEBF 		b	stStopAlarm
 914              	.LVL33:
 915              	.LBE76:
 916              	.LBE75:
 917              	.LBE78:
 918              	.LBE80:
 919              		.cfi_endproc
 920              	.LFE190:
 921              		.size	chVTDoResetI, .-chVTDoResetI
 922 0078 AFF30080 		.text
 922      AFF30080 
 923              	.Letext0:
 924              		.file 4 "/home/julian/MEGA/semestre_ix/Embebidos/arm-2013.11/arm-none-eabi/include/stdint.h"
 925              		.file 5 "../../../os/common/ports/ARMCMx/compilers/GCC/chtypes.h"
 926              		.file 6 "../../../os/rt/include/chsystypes.h"
 927              		.file 7 "../../../os/rt/include/chschd.h"
 928              		.file 8 "../../../os/common/ports/ARMCMx/chcore.h"
 929              		.file 9 "../../../os/common/ports/ARMCMx/chcore_v7m.h"
 930              		.file 10 "../../../os/hal/ports/STM32/LLD/TIMv1/stm32_tim.h"
 931              		.file 11 "../../../os/rt/include/chsem.h"
 932              		.file 12 "../../../os/rt/include/chmtx.h"
 933              		.file 13 "../../../os/rt/include/chvt.h"
 934              		.file 14 "../../../os/hal/include/hal_st.h"
 935              		.file 15 "../../../os/common/ext/CMSIS/include/core_cm3.h"